00000000 A software_init_hook
00000000 A software_term_hook
00100000 T __start_text
00100000 T vector_table
00100020 t reset_vector
00100020 T vector_ref_table
00100024 t undef_vector
00100028 t svc_vector
0010002c t pabort_vector
00100030 t dabort_vector
00100034 t irq_vector
00100038 t fiq_vector
0010003c T start
00100098 t start_2
001000a4 t start_3
001000b8 t start_4
001000c8 t start_5
001000d8 t start_6
001000dc t start_7
001000e8 t start_8
00100108 t slave_wait
00100114 t slave_wait_1
00100158 t convert
00100260 T syslog_printf
001004f8 T syslog_print
0010054c T syslog_lostmsg
00100584 T tt_syslog
0010082c T tt_perror
0010087c T itron_strerror
001008a0 T tTask_CB_initialize
001008a4 T tSemaphore_CB_initialize
001008a8 T tInterruptRequest_CB_initialize
001008ac T tISR_CB_initialize
001008b0 T tInitializeRoutine_CB_initialize
001008b4 T tTerminateRoutine_CB_initialize
001008b8 T tSerialPortMain_eSerialPort_open_skel
001008c0 T tSerialPortMain_eSerialPort_close_skel
001008c8 T tSerialPortMain_eSerialPort_read_skel
001008d0 T tSerialPortMain_eSerialPort_write_skel
001008d8 T tSerialPortMain_eSerialPort_control_skel
001008e0 T tSerialPortMain_eSerialPort_refer_skel
001008e8 T tSerialPortMain_CB_initialize
00100908 T tSerialAdapter_CB_initialize
0010090c T tSysLog_CB_initialize
00100944 T tSysLogAdapter_CB_initialize
00100948 T tLogTaskMain_eLogTaskTerminate_main_skel
0010094c T tLogTaskMain_CB_initialize
00100950 T tBannerMain_CB_initialize
00100954 T tPutLogZyboZ7_CB_initialize
00100958 T tXUartPs_eTerminate_main_skel
00100960 T tXUartPs_CB_initialize
00100978 T tSIOPortZyboZ7Main_CB_initialize
0010097c T tTask_start
00100980 T tISR_start
0010098c T tInitializeRoutine_start
00100990 T tTerminateRoutine_start
001009a0 t serialPort_writeChar
00100ac8 T tSerialPortMain_eSerialPort_open
00100bac T tSerialPortMain_eSerialPort_close
00100c84 T tSerialPortMain_eSerialPort_write
00100d90 T tSerialPortMain_eSerialPort_read
00100fc4 T tSerialPortMain_eSerialPort_control
00101014 T tSerialPortMain_eSerialPort_refer
0010106c T tSerialPortMain_eiSIOCBR_readySend
00101138 T tSerialPortMain_eiSIOCBR_readyReceive
00101324 T tSerialPortMain_enSerialPortManage_getChar
00101388 T serial_opn_por
001013e4 T serial_cls_por
00101440 T serial_rea_dat
001014ac T serial_wri_dat
00101518 T serial_ctl_por
0010157c T serial_ref_por
001015e0 t low_putchar
001015e4 T tSysLog_eSysLog_write
001016fc T tSysLog_eSysLog_read
0010179c T tSysLog_eSysLog_mask
001017cc T tSysLog_eSysLog_refer
00101818 T tSysLog_eSysLog_flush
001018ac T syslog_wri_log
001018b0 T syslog_rea_log
001018b4 T syslog_msk_log
001018b8 T syslog_ref_log
001018bc T syslog_fls_log
001018c0 T target_fput_log
001018c4 t logtask_putc
001018f0 T tLogTaskMain_eLogTask_flush
0010199c T tLogTaskMain_eLogTaskBody_main
00101a1c T tLogTaskMain_eLogTaskTerminate_main
00101adc T tBannerMain_eBannerInitialize_main
00101b3c T tPutLogZyboZ7_initialize
00101b60 T tPutLogZyboZ7_ePutLog_putChar
00101bb0 T tXUartPs_eTerminate_main
00101bf0 T tXUartPs_eSIOPort_open
00101c58 T tXUartPs_eSIOPort_close
00101c88 T tXUartPs_eSIOPort_putChar
00101ca8 T tXUartPs_eSIOPort_getChar
00101cc8 T tXUartPs_eSIOPort_enableCBR
00101cfc T tXUartPs_eSIOPort_disableCBR
00101d30 T tXUartPs_eiISR_main
00101da4 T initialize_tecs
00101de8 T _kernel_inthdr_82
00101df4 T _kernel_initialize_object
00101e14 W __udivmodsi4
00101ff4 W __aeabi_uidiv
00101ff4 W __udivsi3
001021c4 T hardware_init_hook
001021d4 T _kernel_target_mprc_initialize
001021f8 T _kernel_target_initialize
00102214 T _kernel_target_exit
00102244 T _kernel_chip_initialize
00102274 T _kernel_chip_terminate
00102278 T _kernel_mpcore_mprc_initialize
001022ac T _kernel_mpcore_initialize
00102300 T _kernel_mpcore_terminate
00102314 T _kernel_gicc_initialize
00102348 T _kernel_gicc_terminate
0010235c T _kernel_gicd_initialize
001023f4 T _kernel_gicd_terminate
00102408 T _kernel_initialize_interrupt
00102654 T _kernel_pl310_initialize
001026c8 T _kernel_pl310_disable
00102708 T _kernel_pl310_invalidate_all
00102744 T _kernel_pl310_clean_and_invalidate_all
00102780 T _kernel_target_hrt_initialize
001027c8 T _kernel_target_hrt_terminate
001027fc T _kernel_target_hrt_handler
00102810 T _kernel_arm_mmu_initialize
001029f8 T _kernel_core_initialize
00102a58 T _kernel_core_terminate
00102a5c T _kernel_xlog_sys
00102b18 T _kernel_xlog_fsr
00102b98 T _kernel_default_int_handler
00102bcc T _kernel_default_exc_handler
00102d04 T arm_enable_icache
00102d20 T arm_disable_icache
00102d38 T armv7_invalidate_dcache
00102ddc T arm_enable_dcache
00102dfc T armv7_clean_and_invalidate_dcache
00102ea0 T arm_disable_dcache
00102ebc t call_inirtn
00102ef8 t call_terrtn
00102f34 T _kernel_barrier_sync
00102fa8 T sta_ker
001030c0 T ext_ker
00103128 T _kernel_exit_kernel
001031a8 T _kernel_ext_ker_handler
00103264 T _kernel_search_schedtsk
00103278 T _kernel_make_runnable
001033b0 T _kernel_initialize_task
001034c4 T _kernel_make_non_runnable
001035e8 T _kernel_make_dormant
00103614 T _kernel_make_active
00103640 T _kernel_change_priority
001038dc T _kernel_change_subprio
001039cc T _kernel_rotate_ready_queue
00103ab0 T _kernel_task_terminate
00103bdc T _kernel_migrate_self
00103c04 T _kernel_migrate_activate_self
00103c2c T _kernel_wait_tmout
00103d7c T _kernel_make_wait_tmout
00103e38 T _kernel_wait_dequeue_wobj
00103e54 T _kernel_wait_complete
00103ef8 T _kernel_wait_tmout_ok
00104034 T _kernel_wobj_make_wait
001040dc T _kernel_wobj_make_wait_tmout
00104168 T _kernel_init_wait_queue
0010427c T _kernel_initialize_tmevt
00104328 T _kernel_tmevt_up
00104388 T _kernel_tmevt_down
0010442c T _kernel_update_current_evttim
001044b4 T _kernel_set_hrt_event
00104684 T _kernel_set_hrt_event_handler
00104788 T _kernel_tmevtb_register
00104820 T _kernel_tmevtb_enqueue
001048d4 T _kernel_tmevtb_enqueue_reltim
001049a8 T _kernel_tmevtb_dequeue
00104ab0 T _kernel_check_adjtim
00104b40 T _kernel_tmevt_lefttim
00104b78 T _kernel_signal_time
00104d74 T act_tsk
00104ee0 T mact_tsk
001050a8 T can_act
001051a4 T mig_tsk
001053b8 T get_tst
001054f8 T chg_pri
001056e0 T get_pri
001057e4 T chg_spr
00105914 T get_inf
0010596c T ref_tsk
00105d7c T slp_tsk
00105ec8 T tslp_tsk
00106028 T wup_tsk
00106194 T can_wup
00106298 T rel_wai
00106460 T sus_tsk
001065ec T rsm_tsk
00106738 T dly_tsk
001068ac T _kernel_initialize_semaphore
00106908 T sig_sem
00106ab0 T wai_sem
00106c10 T pol_sem
00106d04 T twai_sem
00106ea0 T ini_sem
00106fc8 T ref_sem
00107128 T _kernel_initialize_spin_lock
00107170 T _kernel_force_unlock_spin
0010719c T loc_spn
0010725c T try_spn
00107300 T unl_spn
001073b0 T ref_spn
00107440 T rot_rdq
00107574 T mrot_rdq
001076c4 T get_tid
0010772c T get_pid
00107754 T get_lod
00107860 T mget_lod
00107984 T get_nth
00107abc T mget_nth
00107c0c T loc_cpu
00107c24 T unl_cpu
00107c54 T dis_dsp
00107d24 T ena_dsp
00107e88 T sns_ctx
00107eb8 T sns_loc
00107ec4 T sns_dsp
00107ef4 T sns_dpn
00107f50 T sns_ker
00107f90 T dis_int
00108064 T ena_int
00108138 T clr_int
0010820c T ras_int
00108330 T prb_int
001083e8 T chg_ipm
00108590 T get_ipm
001085f8 T _kernel_dispatch
00108618 t dispatch_r
00108624 T _kernel_start_dispatch
0010863c T _kernel_exit_and_dispatch
0010863c t dispatcher
0010863c t dispatcher_0
0010865c t dispatcher_1
00108664 t dispatcher_2
0010866c T _kernel_call_exit_kernel
0010867c T _kernel_dispatch_and_migrate
00108698 T _kernel_exit_and_migrate
001086a0 T _kernel_start_r
001086b8 T _kernel_irq_handler
001086fc t irq_handler_1
00108734 t irq_handler_2
00108770 t irq_handler_3
00108790 t ret_int_r
00108794 t irq_handler_4
00108794 t irq_handler_5
001087a4 T _kernel_undef_handler
001087a4 t start_exc_entry
001087b8 T _kernel_svc_handler
001087c8 T _kernel_pabort_handler
001087dc T _kernel_dabort_handler
001087f4 t dabort_handler_1
00108808 t fatal_dabort_handler
0010883c T _kernel_fiq_handler
00108850 t end_exc_entry
00108850 t exc_handler_1
001088a0 t exc_handler_2
0010890c t exc_handler_3
0010892c t ret_exc_r
00108930 t exc_handler_4
00108930 t exc_handler_5
00108944 t nk_exc_handler_1
00108964 t nk_exc_handler_2
001089a8 T sil_dly_nse
001089bc t sil_dly_nse1
001089d4 T ext_tsk
00108af8 T ras_ter
00108cc0 T dis_ter
00108d78 T ena_ter
00108e90 T sns_ter
00108ecc T ter_tsk
00109018 T _kernel_irc_begin_int
00109050 T _kernel_irc_end_int
00109060 T _kernel_irc_get_intpri
00109074 T _kernel_irc_begin_exc
00109084 T _kernel_irc_end_exc
001090a4 T memset
00109148 t _ZN68_$LT$itron..error..Error$LT$Kind$GT$$u20$as$u20$core..fmt..Debug$GT$3fmt17h7a6abd72f02fffd2E
0010914c W _RNvCsgYTF1aGAkck_7___rustc17rust_begin_unwind
00109150 W tecs_rust_start_r_processor1_symmetric_task1_1
0010932c W tecs_rust_start_r_processor_all_mig_taskmig
001093ac W tecs_rust_start_r_processor2_symmetric_task2_1
001093b0 W tecs_rust_start_r_processor2_symmetric_task2_2
00109430 t _ZN4core3fmt3num50_$LT$impl$u20$core..fmt..Debug$u20$for$u20$i32$GT$3fmt17h7a0e08473eadbc5bE
00109450 t _ZN75_$LT$core..num..nonzero..NonZero$LT$T$GT$$u20$as$u20$core..fmt..Display$GT$3fmt17h850f84802fa3eaddE
00109470 W _ZN60_$LT$itron..error..ErrorCode$u20$as$u20$core..fmt..Debug$GT$3fmt17hf3b2cd5bb64ff3e9E
00109734 W _ZN67_$LT$itron..dataqueue..DataqueueRef$u20$as$u20$core..fmt..Debug$GT$3fmt17h5b31219d7835aa6dE
0010978c W _ZN69_$LT$itron..memorypool..MemoryPoolRef$u20$as$u20$core..fmt..Debug$GT$3fmt17h802347f6fdaf37b2E
001097e4 W _ZN59_$LT$itron..mutex..MutexRef$u20$as$u20$core..fmt..Debug$GT$3fmt17h6a8d309fd5365a8bE
0010983c W _ZN64_$LT$itron..processor..Processor$u20$as$u20$core..fmt..Debug$GT$3fmt17hc75d9d03a1c196fbE
001098a0 W _ZN67_$LT$itron..semaphore..SemaphoreRef$u20$as$u20$core..fmt..Debug$GT$3fmt17haf2e3079afc34cfaE
001098f8 W _ZN57_$LT$itron..task..TaskRef$u20$as$u20$core..fmt..Debug$GT$3fmt17h29082a565a1f7a0fE
00109950 W _ZN5itron4task7current17he5bb96fe6f36c460E
0010999c W _ZN4core3num7dec2flt11decimal_seq10DecimalSeq4trim17h5efee5ea5ccf409eE
001099f4 W _ZN4core3num7dec2flt11decimal_seq10DecimalSeq5round17h25fcaa510171f10cE
00109ae4 W _ZN4core3num7dec2flt11decimal_seq10DecimalSeq10left_shift17hc6cf7434fa18fb28E
00109df4 W _ZN4core3num7dec2flt11decimal_seq10DecimalSeq11right_shift17hb4403252d794ad85E
0010a0bc W _ZN4core3num7dec2flt11decimal_seq17parse_decimal_seq17h720ae35c33f1ca0cE
0010a55c W _ZN59_$LT$f32$u20$as$u20$core..num..dec2flt..float..RawFloat$GT$15pow10_fast_path17h6e48b725f9e4ea17E
0010a578 W _ZN59_$LT$f64$u20$as$u20$core..num..dec2flt..float..RawFloat$GT$15pow10_fast_path17h11f46422e910817bE
0010a598 t _ZN4core3num7dec2flt6lemire13compute_float17h16a9ae03feeaa31dE
0010a824 t _ZN4core3num7dec2flt6lemire13compute_float17h6afe090d7f4e8ea6E
0010ab38 t _ZN4core3num7dec2flt6lemire13compute_float17ha99c48ca86bcebfaE
0010ae58 W _ZN4core3num7dec2flt6lemire22compute_product_approx17h46540bfe977aa735E
0010af54 W _ZN4core3num7dec2flt5parse12parse_number17hac599539be123f0aE
0010b5d4 W _ZN74_$LT$core..num..dec2flt..ParseFloatError$u20$as$u20$core..fmt..Display$GT$3fmt17he75ae9ab1989a457E
0010b61c W _ZN4core3num9diy_float2Fp3mul17h224020beff8dcf6eE
0010b674 W _ZN4core3num9diy_float2Fp9normalize17h769495316c3164f0E
0010b6c0 W _ZN4core3num9diy_float2Fp12normalize_to17h65a8e137fe2a9b34E
0010b788 W _ZN4core3num7flt2dec9estimator23estimate_scaling_factor17h5aed770e3586ed17E
0010b7c8 W _ZN4core3num7flt2dec8strategy6dragon9mul_pow1017h8de41a198f06ceffE
0010ba30 W _ZN4core3num7flt2dec8strategy6dragon15format_shortest17hb5e0ae7b6971114eE
0010c754 W _ZN4core3num7flt2dec8strategy6dragon12format_exact17h413b0182ae77793eE
0010d2c0 W _ZN4core3num7flt2dec8strategy5grisu12cached_power17h40510fc142d30e5bE
0010d330 W _ZN4core3num7flt2dec8strategy5grisu19format_shortest_opt17ha7dc55675409a111E
0010dd14 W _ZN4core3num7flt2dec8strategy5grisu15format_shortest17hcc7bcdc55f306e7cE
0010dd70 W _ZN4core3num7flt2dec8strategy5grisu16format_exact_opt17h10c7733a2f424f87E
0010e2f0 t _ZN4core3num7flt2dec8strategy5grisu16format_exact_opt14possibly_round17h324fa6da31e0b7a0E
0010e524 W _ZN4core3num7flt2dec8strategy5grisu12format_exact17h78d277690b9100bfE
0010e590 W _ZN4core3num7flt2dec8round_up17hdfef968791b3b8f1E
0010e648 W _ZN4core3num7flt2dec17digits_to_dec_str17h4ef03e8f4c666413E
0010e7c4 W _ZN4core3num7flt2dec17digits_to_exp_str17hc40222548b9d8bc0E
0010e944 W _ZN4core3num3fmt4Part5write17h5157de02cd0761b1E
0010ead0 W _ZN4core3num3fmt9Formatted3len17ha07e1e9353604e1bE
0010eb74 W _ZN4core3num3fmt9Formatted5write17h99ed3f4f2997298bE
0010ec20 W _ZN72_$LT$core..num..error..TryFromIntError$u20$as$u20$core..fmt..Display$GT$3fmt17hce3ba6a6f2a6094bE
0010ec40 W _ZN70_$LT$core..num..error..ParseIntError$u20$as$u20$core..fmt..Display$GT$3fmt17hbaea7be47c23092bE
0010ec74 W _ZN4core3num9int_log1030panic_for_nonpositive_argument17h1277070ab48dc16bE
0010ecb4 W _ZN4core3num8int_sqrt27panic_for_negative_argument17h646ece1cae3b97dbE
0010ecf4 W _ZN4core3num14overflow_panic3add17hf194787efb41c60bE
0010ed34 W _ZN4core3num14overflow_panic3sub17he2e76c1521f0700fE
0010ed74 W _ZN4core3num14overflow_panic3mul17h60bfb5e03c5b71e3E
0010edb4 W _ZN4core3num14overflow_panic3div17h31ae6e9c5fc383d9E
0010edf4 W _ZN4core3num14overflow_panic3rem17h60333cfee06b13cdE
0010ee34 W _ZN4core3num14overflow_panic3neg17h94a197b7d7b20279E
0010ee74 W _ZN4core3num14overflow_panic3shr17h1944cb74e27c390cE
0010eeb4 W _ZN4core3num14overflow_panic3shl17hc7ecc243b6763a66E
0010eef4 W _ZN4core3num22from_ascii_radix_panic17h345174f03d72ebe3E
0010ef00 W _ZN76_$LT$core..mem..transmutability..Assume$u20$as$u20$core..ops..arith..Sub$GT$3sub17h21ed15b6645713d8E
0010ef48 W _ZN68_$LT$core..ptr..alignment..Alignment$u20$as$u20$core..fmt..Debug$GT$3fmt17hd2f4df9dbd6e2f86E
0010efd0 W _ZN69_$LT$core..ffi..c_str..CStr$u20$as$u20$core..clone..CloneToUninit$GT$15clone_to_uninit17h80a4ef3d92070d94E
0010eff0 W _ZN57_$LT$core..error..Request$u20$as$u20$core..fmt..Debug$GT$3fmt17h5f561f753496d82cE
0010f044 W _ZN78_$LT$core..error..Source$u20$as$u20$core..iter..traits..iterator..Iterator$GT$4next17h4a1fc4a2554e7eceE
0010f090 W _ZN64_$LT$core..ops..range..RangeFull$u20$as$u20$core..fmt..Debug$GT$3fmt17h424403ffd1288619E
0010f0b4 t _ZN71_$LT$core..ops..range..Range$LT$Idx$GT$$u20$as$u20$core..fmt..Debug$GT$3fmt17ha953e6102122b0f8E
0010f27c W _ZN105_$LT$dyn$u20$core..any..Any$u2b$core..marker..Sync$u2b$core..marker..Send$u20$as$u20$core..fmt..Debug$GT$3fmt17habd8592b3ad60da5E
0010f27c W _ZN59_$LT$dyn$u20$core..any..Any$u20$as$u20$core..fmt..Debug$GT$3fmt17hd53b1fa8c7176cacE
0010f27c W _ZN82_$LT$dyn$u20$core..any..Any$u2b$core..marker..Send$u20$as$u20$core..fmt..Debug$GT$3fmt17hdb173002bb91443bE
0010f2d0 W _ZN54_$LT$core..any..TypeId$u20$as$u20$core..fmt..Debug$GT$3fmt17h85ceed27d8f181fdE
0010f348 W _ZN73_$LT$core..ascii..ascii_char..AsciiChar$u20$as$u20$core..fmt..Display$GT$3fmt17h8431bf4e4f9d1f68E
0010f368 W _ZN71_$LT$core..ascii..ascii_char..AsciiChar$u20$as$u20$core..fmt..Debug$GT$3fmt17h177c64a4e196f32cE
0010f510 W _ZN4core5ascii14escape_default17h981d8e307eaaa916E
0010f5a8 W _ZN65_$LT$core..ascii..EscapeDefault$u20$as$u20$core..fmt..Display$GT$3fmt17he735515427ec3f2cE
0010f5d8 W _ZN63_$LT$core..ascii..EscapeDefault$u20$as$u20$core..fmt..Debug$GT$3fmt17h46f02f61de5321cbE
0010f62c W _ZN56_$LT$core..bstr..ByteStr$u20$as$u20$core..fmt..Debug$GT$3fmt17h8b572b2661a1de36E
0010f93c W _ZN58_$LT$core..bstr..ByteStr$u20$as$u20$core..fmt..Display$GT$3fmt17he4ae28f23ce65a58E
0010fc7c W _ZN4core4cell4lazy14panic_poisoned17h8eb5d443042c4736E
0010fcc0 W _ZN60_$LT$core..cell..BorrowError$u20$as$u20$core..fmt..Debug$GT$3fmt17h56da770da5e11014E
0010fce4 W _ZN62_$LT$core..cell..BorrowError$u20$as$u20$core..fmt..Display$GT$3fmt17h649aaf4112417b69E
0010fd04 W _ZN63_$LT$core..cell..BorrowMutError$u20$as$u20$core..fmt..Debug$GT$3fmt17h5dd54cc4ab093714E
0010fd28 W _ZN65_$LT$core..cell..BorrowMutError$u20$as$u20$core..fmt..Display$GT$3fmt17h2f7647931a1ef38bE
0010fd48 W _ZN4core4cell22panic_already_borrowed17h058b49ead05ac00bE
0010fd9c W _ZN4core4cell30panic_already_mutably_borrowed17h9c448cf1bc13461aE
0010fdf0 W _ZN74_$LT$core..char..convert..ParseCharError$u20$as$u20$core..fmt..Display$GT$3fmt17hcaa7912ed162bf56E
0010fe38 W _ZN76_$LT$core..char..convert..CharTryFromError$u20$as$u20$core..fmt..Display$GT$3fmt17h19f1ba4eab42fadcE
0010fe58 W _ZN75_$LT$core..char..decode..DecodeUtf16Error$u20$as$u20$core..fmt..Display$GT$3fmt17hdcf3babdf2cfe76aE
0010feac t _ZN4core4char7methods22_$LT$impl$u20$char$GT$16escape_debug_ext17hd46ad63d40b7f951E
0011026c W _ZN64_$LT$core..char..EscapeDefault$u20$as$u20$core..fmt..Display$GT$3fmt17h38aec28b84124e92E
0011026c W _ZN64_$LT$core..char..EscapeUnicode$u20$as$u20$core..fmt..Display$GT$3fmt17h3de06f6d43c9a287E
0011029c W _ZN62_$LT$core..char..EscapeDebug$u20$as$u20$core..fmt..Display$GT$3fmt17hafc69afb2cba63d2E
001102ec W _ZN86_$LT$core..char..CaseMappingIter$u20$as$u20$core..iter..traits..iterator..Iterator$GT$4next17h387613f301dd4fd8E
00110314 W _ZN86_$LT$core..char..CaseMappingIter$u20$as$u20$core..iter..traits..iterator..Iterator$GT$5count17h9c99394d14e09439E
00110328 W _ZN86_$LT$core..char..CaseMappingIter$u20$as$u20$core..iter..traits..iterator..Iterator$GT$4last17h4812d7f7192ee524E
00110368 W _ZN86_$LT$core..char..CaseMappingIter$u20$as$u20$core..iter..traits..iterator..Iterator$GT$10advance_by17h0f8a06432075b566E
00110390 W _ZN86_$LT$core..char..CaseMappingIter$u20$as$u20$core..iter..traits..iterator..Iterator$GT$24__iterator_get_unchecked17hee300516a572f4b8E
001103ac W _ZN101_$LT$core..char..CaseMappingIter$u20$as$u20$core..iter..traits..double_ended..DoubleEndedIterator$GT$9next_back17h0013dfa0a23bb5c3E
001103d8 W _ZN101_$LT$core..char..CaseMappingIter$u20$as$u20$core..iter..traits..double_ended..DoubleEndedIterator$GT$15advance_back_by17h0e7ec4b92a9eb744E
00110400 W _ZN67_$LT$core..char..TryFromCharError$u20$as$u20$core..fmt..Display$GT$3fmt17hbf1b0a686f8a1a69E
00110420 W _ZN79_$LT$core..ffi..c_str..FromBytesUntilNulError$u20$as$u20$core..fmt..Display$GT$3fmt17h71f2c90ca2a80addE
00110444 W _ZN59_$LT$core..ffi..c_str..CStr$u20$as$u20$core..fmt..Debug$GT$3fmt17h36ba4289086816d4E
001104c0 W _ZN78_$LT$core..ffi..c_str..FromBytesWithNulError$u20$as$u20$core..fmt..Display$GT$3fmt17hd6785df6bd44c25dE
00110584 W _ZN4core3ffi5c_str4CStr20from_bytes_until_nul17h223b6a3545723cc2E
0011073c W _ZN4core3ffi5c_str4CStr19from_bytes_with_nul17h924bc5b5323bf05eE
00110908 W _ZN4core3ffi5c_str4CStr6to_str17hc1faa40fb638a30eE
0011091c W _ZN67_$LT$core..ffi..va_list..VaListImpl$u20$as$u20$core..fmt..Debug$GT$3fmt17hd26f911d47b97956E
00110970 W _ZN54_$LT$core..ffi..c_void$u20$as$u20$core..fmt..Debug$GT$3fmt17h3b27b77d454a7b00E
00110994 W _ZN72_$LT$core..io..borrowed_buf..BorrowedBuf$u20$as$u20$core..fmt..Debug$GT$3fmt17h8c5373e369933a1eE
00110aa8 t _ZN86_$LT$core..net..display_buffer..DisplayBuffer$LT$_$GT$$u20$as$u20$core..fmt..Write$GT$9write_str17h297baed95332eae7E
00110af0 t _ZN86_$LT$core..net..display_buffer..DisplayBuffer$LT$_$GT$$u20$as$u20$core..fmt..Write$GT$9write_str17h839f220912462241E
00110b38 t _ZN86_$LT$core..net..display_buffer..DisplayBuffer$LT$_$GT$$u20$as$u20$core..fmt..Write$GT$9write_str17h8badf8473d9a4002E
00110b80 t _ZN86_$LT$core..net..display_buffer..DisplayBuffer$LT$_$GT$$u20$as$u20$core..fmt..Write$GT$9write_str17hd35c8bb425293b8bE
00110bc8 W _ZN65_$LT$core..net..ip_addr..IpAddr$u20$as$u20$core..fmt..Display$GT$3fmt17h3168c33a3915df90E
00110bec W _ZN63_$LT$core..net..ip_addr..IpAddr$u20$as$u20$core..fmt..Debug$GT$3fmt17hfda05f36d5a749a6E
00110c10 W _ZN67_$LT$core..net..ip_addr..Ipv4Addr$u20$as$u20$core..fmt..Display$GT$3fmt17h8a7f4864e9af7f6bE
00110da4 W _ZN65_$LT$core..net..ip_addr..Ipv4Addr$u20$as$u20$core..fmt..Debug$GT$3fmt17h6a51679a1ff6e7e2E
00110db4 W _ZN67_$LT$core..net..ip_addr..Ipv6Addr$u20$as$u20$core..fmt..Display$GT$3fmt17ha09719cd9f4aecf6E
001115d8 t _ZN67_$LT$core..net..ip_addr..Ipv6Addr$u20$as$u20$core..fmt..Display$GT$3fmt12fmt_subslice17hba89c8432023046dE
00111708 W _ZN65_$LT$core..net..ip_addr..Ipv6Addr$u20$as$u20$core..fmt..Debug$GT$3fmt17hd7b6c05483d437dbE
00111718 t _ZN4core3net6parser6Parser11read_number28_$u7b$$u7b$closure$u7d$$u7d$17hcfdf77b7d41ca56bE
00111a1c t _ZN4core3net6parser6Parser14read_ipv4_addr17h3efba67ec1312042E
00111d98 t _ZN4core3net6parser6Parser14read_ipv6_addr17h54c8b5ef622aafb8E
00111fbc t _ZN4core3net6parser6Parser14read_ipv6_addr11read_groups17h16f736446e4eaddeE
001121ec t _ZN4core3net6parser6Parser19read_socket_addr_v617hb4d45e4b5ba1a4d4E
00112464 W _ZN4core3net6parser44_$LT$impl$u20$core..net..ip_addr..IpAddr$GT$11parse_ascii17hd7ed4f332f3caa79E
001125cc W _ZN4core3net6parser83_$LT$impl$u20$core..str..traits..FromStr$u20$for$u20$core..net..ip_addr..IpAddr$GT$8from_str17h49e46cb50b46901eE
00112734 W _ZN4core3net6parser46_$LT$impl$u20$core..net..ip_addr..Ipv4Addr$GT$11parse_ascii17h8028e1785cb7be5fE
001127d0 W _ZN4core3net6parser85_$LT$impl$u20$core..str..traits..FromStr$u20$for$u20$core..net..ip_addr..Ipv4Addr$GT$8from_str17hc3217d4e0e33b7d5E
0011286c W _ZN4core3net6parser46_$LT$impl$u20$core..net..ip_addr..Ipv6Addr$GT$11parse_ascii17h767d275eb73823beE
001128f8 W _ZN4core3net6parser85_$LT$impl$u20$core..str..traits..FromStr$u20$for$u20$core..net..ip_addr..Ipv6Addr$GT$8from_str17h685b7483d3d506d7E
00112984 W _ZN4core3net6parser54_$LT$impl$u20$core..net..socket_addr..SocketAddrV4$GT$11parse_ascii17hc07de5cf09e25fb1E
00112a80 W _ZN4core3net6parser93_$LT$impl$u20$core..str..traits..FromStr$u20$for$u20$core..net..socket_addr..SocketAddrV4$GT$8from_str17h5883a36bbe26488dE
00112b7c W _ZN4core3net6parser54_$LT$impl$u20$core..net..socket_addr..SocketAddrV6$GT$11parse_ascii17hbe6498756ef255a7E
00112bf8 W _ZN4core3net6parser93_$LT$impl$u20$core..str..traits..FromStr$u20$for$u20$core..net..socket_addr..SocketAddrV6$GT$8from_str17hf8a18b6a5bf3759eE
00112c74 W _ZN4core3net6parser52_$LT$impl$u20$core..net..socket_addr..SocketAddr$GT$11parse_ascii17h32c0686e61a62a97E
00112e00 W _ZN4core3net6parser91_$LT$impl$u20$core..str..traits..FromStr$u20$for$u20$core..net..socket_addr..SocketAddr$GT$8from_str17he89fdbe831fc4256E
00112e10 W _ZN72_$LT$core..net..parser..AddrParseError$u20$as$u20$core..fmt..Display$GT$3fmt17hd7f7df04664d2864E
00112e48 W _ZN73_$LT$core..net..socket_addr..SocketAddr$u20$as$u20$core..fmt..Display$GT$3fmt17hd0e981e04411525aE
00112e74 W _ZN71_$LT$core..net..socket_addr..SocketAddr$u20$as$u20$core..fmt..Debug$GT$3fmt17hd95cf7ae4353c951E
00112ea0 W _ZN75_$LT$core..net..socket_addr..SocketAddrV4$u20$as$u20$core..fmt..Display$GT$3fmt17hb358e369cb8dcc74E
0011300c W _ZN73_$LT$core..net..socket_addr..SocketAddrV4$u20$as$u20$core..fmt..Debug$GT$3fmt17h47d2c03dbc6abbf5E
0011301c W _ZN75_$LT$core..net..socket_addr..SocketAddrV6$u20$as$u20$core..fmt..Display$GT$3fmt17hb242d5ced67c2003E
001132b4 W _ZN73_$LT$core..net..socket_addr..SocketAddrV6$u20$as$u20$core..fmt..Debug$GT$3fmt17h008793ff64f0e572E
001132c4 W _ZN4core6option13unwrap_failed17h39a76a4d9e444e97E
001132e0 W _ZN4core6option13expect_failed17hf032828b69e8f9cdE
00113338 W _ZN73_$LT$core..panic..panic_info..PanicInfo$u20$as$u20$core..fmt..Display$GT$3fmt17he8ae0930573845dbE
00113434 W _ZN4core9panicking9panic_fmt17h5145975cf535bc42E
00113454 W _ZN4core9panicking18panic_nounwind_fmt17h7e174a309b689b0fE
0011348c W _ZN4core9panicking5panic17h04eb6169f90051c3E
001134d0 W _ZN4core9panicking14panic_nounwind17hb8efc6a66a7c1fb5E
00113518 W _ZN4core9panicking26panic_nounwind_nobacktrace17hcf6b6f7ce89f1dabE
00113560 W _ZN4core9panicking14panic_explicit17he7bebe483a3bfe34E
001135b8 W _ZN4core9panicking18panic_bounds_check17he2f51b500041724aE
0011361c W _ZN4core9panicking36panic_misaligned_pointer_dereference17hca8f56f08697e9a1E
00113688 W _ZN4core9panicking30panic_null_pointer_dereference17hd07e38dada2babd1E
001136c8 W _ZN4core9panicking19panic_cannot_unwind17h88003aad7d959a86E
001136e0 W _ZN4core9panicking16panic_in_cleanup17he6ef00938a5a6327E
001136f8 W _ZN4core9panicking15const_panic_fmt17h6a5d3cae6d10461cE
00113774 W _ZN4core9panicking13assert_failed17h2f1d8849fc674a9bE
001137a4 W _ZN4core9panicking13assert_failed17h8a42116d81ae2397E
001137d4 W _ZN84_$LT$core..panicking..assert_matches_failed..Pattern$u20$as$u20$core..fmt..Debug$GT$3fmt17h3bf79b8a4bc8fc51E
001137f8 W _ZN4core9panicking19assert_failed_inner17h1f0479933a2bc628E
00113918 W _ZN48_$LT$char$u20$as$u20$core..pat..RangePattern$GT$7sub_one17hc1333cb071cfc1b6E
00113970 W _ZN4core6result13unwrap_failed17h238a41f9432ebe61E
001139dc W _ZN67_$LT$core..sync..atomic..AtomicBool$u20$as$u20$core..fmt..Debug$GT$3fmt17h36e87f0defe65ad8E
00113a24 W _ZN4core3fmt8builders10PadAdapter4wrap17h8cec362b75ec2f49E
00113a5c W _ZN68_$LT$core..fmt..builders..PadAdapter$u20$as$u20$core..fmt..Write$GT$9write_str17hc81ad4e78c0c990cE
00113ccc W _ZN68_$LT$core..fmt..builders..PadAdapter$u20$as$u20$core..fmt..Write$GT$10write_char17h121f3a024053ccfbE
00113d38 W _ZN4core3fmt8builders11DebugStruct5field17h118827344b19fbe7E
00113f08 W _ZN4core3fmt8builders11DebugStruct21finish_non_exhaustive17ha59f74934d70120cE
00113fdc W _ZN4core3fmt8builders11DebugStruct6finish17h62dcffc385683e70E
00114060 W _ZN4core3fmt8builders10DebugTuple5field17hd25f2ea26ee9220fE
001141e4 W _ZN4core3fmt8builders10DebugTuple21finish_non_exhaustive17hbea2c5cc6d18b83cE
001142cc W _ZN4core3fmt8builders10DebugTuple6finish17h75fa298d273b9537E
00114384 W _ZN4core3fmt8builders8DebugSet5entry17h6f9f49712cdf1c8aE
00114384 W _ZN4core3fmt8builders9DebugList5entry17h09a4fda889637eedE
001144f8 W _ZN4core3fmt8builders8DebugSet21finish_non_exhaustive17h056b5628e91579d3E
001145cc W _ZN4core3fmt8builders8DebugSet6finish17hb775269289642050E
0011460c W _ZN4core3fmt8builders9DebugList21finish_non_exhaustive17h0964252c95243519E
001146f0 W _ZN4core3fmt8builders9DebugList6finish17h95901bb8c72ebeaaE
00114730 W _ZN4core3fmt8builders8DebugMap5entry17hb5fe3985090a797eE
00114864 W _ZN4core3fmt8builders8DebugMap3key17he972b5db7c272a06E
00114a68 W _ZN4core3fmt8builders8DebugMap5value17hc3fc83e3ff16426eE
00114bc0 W _ZN4core3fmt8builders8DebugMap21finish_non_exhaustive17h1d063c8fc17c4fa1E
00114cd8 W _ZN4core3fmt8builders8DebugMap6finish17h87c976a15d36c1beE
00114d64 t _ZN4core3fmt5float29float_to_decimal_common_exact17h7d85dbe2887defb2E
001150b8 t _ZN4core3fmt5float29float_to_decimal_common_exact17hb8ecc3a298064d1fE
001153d0 t _ZN4core3fmt5float29float_to_decimal_common_exact17hc4ee8b5197ebb838E
001156f8 t _ZN4core3fmt5float32float_to_decimal_common_shortest17h57f1a97492206944E
00115950 t _ZN4core3fmt5float32float_to_decimal_common_shortest17hd1530ac16dbab458E
00115bec t _ZN4core3fmt5float32float_to_decimal_common_shortest17hf774af481b6739e1E
00115e54 t _ZN4core3fmt5float33float_to_exponential_common_exact17h475946fbe25c96b4E
001161a4 t _ZN4core3fmt5float33float_to_exponential_common_exact17h58c854a839c522b9E
001164ec t _ZN4core3fmt5float33float_to_exponential_common_exact17hf8c347a31f005498E
00116880 t _ZN4core3fmt5float36float_to_exponential_common_shortest17h110c73098256b07dE
00116b80 t _ZN4core3fmt5float36float_to_exponential_common_shortest17hc2048c8ca710d24cE
00116edc t _ZN4core3fmt5float36float_to_exponential_common_shortest17hded788cc3690643fE
001171fc t _ZN4core3fmt3num14parse_u64_into17hdae6f27d721cd177E
00117690 W _ZN4core3fmt3num53_$LT$impl$u20$core..fmt..Display$u20$for$u20$u128$GT$3fmt17he162d142fdfbe23dE
001176c0 W _ZN4core3fmt3num53_$LT$impl$u20$core..fmt..Display$u20$for$u20$i128$GT$3fmt17h41041c0cb7d944acE
00117714 t _ZN4core3fmt3num8fmt_u12817h3ce49e52aad09f7aE
001179c4 t _ZN4core3fmt5Write10write_char17h0deb656a130510dcE
00117ab0 t _ZN4core3fmt5Write10write_char17h121006013e2c64bdE
00117b9c t _ZN4core3fmt5Write10write_char17h20c6982f67c5a14cE
00117c88 t _ZN4core3fmt5Write10write_char17h884d76389de57237E
00117d74 t _ZN4core3fmt5Write9write_fmt17h07c1169efed3c695E
00117d90 t _ZN4core3fmt5Write9write_fmt17h32196b9e35a8bbc2E
00117dac t _ZN4core3fmt5Write9write_fmt17h8420373094f7f4f3E
00117dc8 t _ZN4core3fmt5Write9write_fmt17ha93132b80607745fE
00117de4 t _ZN4core3fmt5Write9write_fmt17he315d962ad1b87f3E
00117e00 W _ZN4core3fmt17FormattingOptions8get_fill17ha364eba16e39e9f9E
00117e14 W _ZN57_$LT$core..fmt..Arguments$u20$as$u20$core..fmt..Debug$GT$3fmt17hecd0089d3e424aecE
00117e2c W _ZN59_$LT$core..fmt..Arguments$u20$as$u20$core..fmt..Display$GT$3fmt17hcd13995007f793f4E
00117e44 W _ZN4core3fmt5write17hb714253c1b9e952cE
0011804c W _ZN4core3fmt9Formatter12pad_integral17hec47f37da301c049E
0011834c t _ZN4core3fmt9Formatter12pad_integral12write_prefix17hc4c0a7a0c94985adE
001183b4 W _ZN4core3fmt9Formatter3pad17h8e247c0c6f258b85E
001185dc t _ZN4core3fmt9Formatter19pad_formatted_parts17ha476f236f4259153E
00118848 t _ZN4core3fmt9Formatter21write_formatted_parts17h76662c6af77af83aE
00118ac8 W _ZN4core3fmt9Formatter9write_str17hdfb7ca2c4bb7964eE
00118ac8 W _ZN57_$LT$core..fmt..Formatter$u20$as$u20$core..fmt..Write$GT$9write_str17h8a4cfda21e200569E
00118ae0 W _ZN4core3fmt9Formatter4fill17hffaa17a0e6fadb77E
00118af4 W _ZN4core3fmt9Formatter12debug_struct17he204134461ecf684E
00118b30 W _ZN4core3fmt9Formatter26debug_struct_field1_finish17hfc5577f397af5417E
00118bf8 W _ZN4core3fmt9Formatter26debug_struct_field2_finish17h250937b50b7d91dbE
00118cd4 W _ZN4core3fmt9Formatter26debug_struct_field3_finish17h2e39e36ff7dea516E
00118dc4 W _ZN4core3fmt9Formatter26debug_struct_field4_finish17hd85fc51ea53a6480E
00118ec8 W _ZN4core3fmt9Formatter26debug_struct_field5_finish17haacbff9cf3eec5ccE
00118fe0 W _ZN4core3fmt9Formatter26debug_struct_fields_finish17hbc4a9600e0d1f479E
001190f4 W _ZN4core3fmt9Formatter11debug_tuple17h940ad0dd22d147c8E
00119138 W _ZN4core3fmt9Formatter25debug_tuple_field1_finish17h3462a89b33c73d6eE
001192b8 W _ZN4core3fmt9Formatter25debug_tuple_field2_finish17hc4dc9b596154de93E
001194b4 W _ZN4core3fmt9Formatter25debug_tuple_field3_finish17h164749d4d77ab572E
0011976c W _ZN4core3fmt9Formatter25debug_tuple_field4_finish17h87085ebfbf56e53eE
00119adc W _ZN4core3fmt9Formatter25debug_tuple_field5_finish17he4dec699aac9d2a9E
00119f04 W _ZN4core3fmt9Formatter25debug_tuple_fields_finish17hb3065dfeca0f69b2E
0011a1c8 W _ZN4core3fmt9Formatter10debug_list17h324a4227e38e4e1cE
0011a204 W _ZN4core3fmt9Formatter9debug_set17h8342974783863c44E
0011a240 W _ZN4core3fmt9Formatter9debug_map17hd46370b77cf960edE
0011a284 W _ZN57_$LT$core..fmt..Formatter$u20$as$u20$core..fmt..Write$GT$10write_char17ha022f916fb525171E
0011a29c W _ZN55_$LT$core..fmt..Error$u20$as$u20$core..fmt..Display$GT$3fmt17h603b7f267edd160dE
0011a2bc W _ZN43_$LT$bool$u20$as$u20$core..fmt..Display$GT$3fmt17h37b2e11049775da3E
0011a304 W _ZN40_$LT$str$u20$as$u20$core..fmt..Debug$GT$3fmt17hbfa9400b4ed4d146E
0011a6e4 W _ZN42_$LT$str$u20$as$u20$core..fmt..Display$GT$3fmt17h1a2739d2b1badf3eE
0011a704 W _ZN41_$LT$char$u20$as$u20$core..fmt..Debug$GT$3fmt17hf8537c7d284af8e9E
0011a7b8 W _ZN43_$LT$char$u20$as$u20$core..fmt..Display$GT$3fmt17h759ac83f19cee971E
0011a8a4 W _ZN4core3fmt17pointer_fmt_inner17h83d31351164c23f2E
0011a948 t _ZN52_$LT$$BP$const$u20$T$u20$as$u20$core..fmt..Debug$GT$3fmt17h52f0d6dcd4868dc8E
0011a9f0 W _ZN4core5slice6memchr14memchr_aligned17hf608187b782eb764E
0011aaec W _ZN4core5slice6memchr7memrchr17h1b5e6bee0cdc7e3cE
0011ad28 W _ZN4core5slice4sort6stable5drift11sqrt_approx17heb7d8e344c813c3bE
0011ad54 W _ZN4core5slice4sort6shared9smallsort22panic_on_ord_violation17h26f42ac12335c738E
0011ad98 W _ZN105_$LT$core..slice..ascii..EscapeAscii$u20$as$u20$core..iter..traits..double_ended..DoubleEndedIterator$GT$9next_back17h58b0f7ecc71c56abE
0011afa0 W _ZN70_$LT$core..slice..ascii..EscapeAscii$u20$as$u20$core..fmt..Display$GT$3fmt17h29e51c0221cfc6f4E
0011b208 W _ZN68_$LT$core..slice..ascii..EscapeAscii$u20$as$u20$core..fmt..Debug$GT$3fmt17hbb33b900076cece0E
0011b25c W _ZN4core5slice5index26slice_start_index_len_fail17h38c824b450734dfcE
0011b268 W _ZN4core5slice5index24slice_end_index_len_fail17hf4eb2611058c09afE
0011b274 W _ZN4core5slice5index22slice_index_order_fail17hb31f14bd82bfcb5bE
0011b280 W _ZN4core5slice5index31slice_start_index_overflow_fail17h682402ba819c482dE
0011b2c0 W _ZN4core5slice5index29slice_end_index_overflow_fail17h6d8526257621818dE
0011b300 W _ZN4core5slice5index10into_range17h838d5809396762d6E
0011b374 W _ZN4core5slice5index16into_slice_range17h4e76af1b067ea36eE
0011b3ec W _ZN4core5slice29_$LT$impl$u20$$u5b$T$u5d$$GT$15copy_from_slice17len_mismatch_fail17hf3c6b69109ca94ceE
0011b404 W _ZN4core5slice29_$LT$impl$u20$$u5b$T$u5d$$GT$16align_to_offsets3gcd17h9ccf75cedf78b32bE
0011b43c W _ZN71_$LT$core..slice..GetDisjointMutError$u20$as$u20$core..fmt..Display$GT$3fmt17h67ba63dcac76d19cE
0011b484 W _ZN4core3str8converts9from_utf817h69ed1439eba52b92E
0011b6e4 W _ZN4core3str8converts13from_utf8_mut17h4e3a295159d63a91E
0011b944 W _ZN4core3str5count14do_count_chars17h9cffd9e3dec45553E
0011bb84 W _ZN4core3str5count23char_count_general_case17h4d4c6ce16c4d1906E
0011bbb8 W _ZN66_$LT$core..str..error..Utf8Error$u20$as$u20$core..fmt..Display$GT$3fmt17h291d6cbe57b75336E
0011bc70 W _ZN71_$LT$core..str..error..ParseBoolError$u20$as$u20$core..fmt..Display$GT$3fmt17h8ff3dff7cf95e9f3E
0011bc90 W _ZN59_$LT$core..str..iter..Chars$u20$as$u20$core..fmt..Debug$GT$3fmt17hc296714f5aca8f63E
0011c3b0 W _ZN65_$LT$core..str..iter..EncodeUtf16$u20$as$u20$core..fmt..Debug$GT$3fmt17h470f6ac5da350b32E
0011c404 W _ZN4core3str6traits23str_index_overflow_fail17h8bf11899d5e405f7E
0011c444 W _ZN4core3str7pattern11StrSearcher3new17h9540c37606476449E
0011c8e8 W _ZN60_$LT$core..str..lossy..Debug$u20$as$u20$core..fmt..Debug$GT$3fmt17h8e77771fab7a2f70E
0011cd18 W _ZN87_$LT$core..str..lossy..Utf8Chunks$u20$as$u20$core..iter..traits..iterator..Iterator$GT$4next17he7d6cc4011e7786bE
0011cef8 W _ZN65_$LT$core..str..lossy..Utf8Chunks$u20$as$u20$core..fmt..Debug$GT$3fmt17h9c45e8ae8211e985E
0011cfe0 W _ZN4core3str16slice_error_fail17h4d59bc1e755bbe4fE
0011cff8 W _ZN4core3str19slice_error_fail_ct17hb73804428b3ba7caE
0011d038 W _ZN4core3str19slice_error_fail_rt17h7b2b73d8d28473e0E
0011d40c W _ZN4core3str21_$LT$impl$u20$str$GT$9from_utf817h9c50c6b49793a8caE
0011d41c W _ZN4core3str21_$LT$impl$u20$str$GT$13from_utf8_mut17hf789198352a0c0d6E
0011d42c W _ZN4core3str21_$LT$impl$u20$str$GT$18split_at_unchecked17h522070e8531a247cE
0011d44c W _ZN4core3str21_$LT$impl$u20$str$GT$22split_at_mut_unchecked17h188b8cf0a61e80b3E
0011d46c W _ZN4core3str21_$LT$impl$u20$str$GT$12escape_debug17h4c843b37cf90aab8E
0011d5a8 W _ZN4core3str21_$LT$impl$u20$str$GT$12substr_range17ha623b8a5a8d1bca1E
0011d5d8 W _ZN57_$LT$core..time..Duration$u20$as$u20$core..fmt..Debug$GT$3fmt17hcd9ec431bc2fce92E
0011d738 t _ZN57_$LT$core..time..Duration$u20$as$u20$core..fmt..Debug$GT$3fmt11fmt_decimal17h7fdaad1885d942cdE
0011de68 t _ZN57_$LT$core..time..Duration$u20$as$u20$core..fmt..Debug$GT$3fmt11fmt_decimal28_$u7b$$u7b$closure$u7d$$u7d$17hbee2c0b3604668e7E
0011e0c8 W _ZN72_$LT$core..time..TryFromFloatSecsError$u20$as$u20$core..fmt..Display$GT$3fmt17hbbacbc01f2a2ba20E
0011e110 t _ZN4core7unicode9printable5check17hc9e6c3ef98e586f8E
0011e234 W _ZN4core7unicode9printable12is_printable17he99174ef5bcc9597E
0011e3f4 W _ZN62_$LT$core..task..wake..Context$u20$as$u20$core..fmt..Debug$GT$3fmt17h2b9656f805ec1368E
0011e4d0 W _ZN60_$LT$core..task..wake..Waker$u20$as$u20$core..fmt..Debug$GT$3fmt17h961c0fb15e9f08e6E
0011e5d4 W _ZN65_$LT$core..task..wake..LocalWaker$u20$as$u20$core..fmt..Debug$GT$3fmt17h9f8823dc3c851087E
0011e6d8 W _ZN4core5alloc6layout6Layout19is_size_align_valid17hf9c352be39c461d0E
0011e70c W _ZN71_$LT$core..alloc..layout..LayoutError$u20$as$u20$core..fmt..Display$GT$3fmt17hdfc7ce4964ee7964E
0011e730 W _ZN62_$LT$core..alloc..AllocError$u20$as$u20$core..fmt..Display$GT$3fmt17h096a3621f7a659a9E
0011e754 W _ZN4core3f3221_$LT$impl$u20$f32$GT$5clamp8do_panic7runtime17hd78a99da53448aa4E
0011e7b8 W _ZN4core3f6421_$LT$impl$u20$f64$GT$5clamp8do_panic7runtime17h70e260bb90954182E
0011e81c W _ZN49_$LT$u8$u20$as$u20$core..num..bignum..FullOps$GT$12full_div_rem17h2cc384f2d3e77a4fE
0011e858 W _ZN50_$LT$u16$u20$as$u20$core..num..bignum..FullOps$GT$12full_div_rem17h895795127941bc5fE
0011e894 W _ZN50_$LT$u32$u20$as$u20$core..num..bignum..FullOps$GT$12full_div_rem17h28797f3a608675a0E
0011e8d0 W _ZN4core3num6bignum8Big32x408from_u6417hdb3b6b903cdc3a74E
0011e918 W _ZN4core3num6bignum8Big32x406digits17hc74a7300cf748785E
0011e940 W _ZN4core3num6bignum8Big32x407get_bit17hae59a386b0269424E
0011e97c W _ZN4core3num6bignum8Big32x407is_zero17h00d7531c94d29d9dE
0011e9d0 W _ZN4core3num6bignum8Big32x4010bit_length17h970dea92bc07a054E
0011ea58 W _ZN4core3num6bignum8Big32x403add17hf98911729d873c67E
0011eb14 W _ZN4core3num6bignum8Big32x409add_small17hae56cb6d24b5dd80E
0011ee60 W _ZN4core3num6bignum8Big32x403sub17h8543d30192c621ccE
0011ef00 W _ZN4core3num6bignum8Big32x409mul_small17h34ad2799e68baebeE
0011efa0 W _ZN4core3num6bignum8Big32x408mul_pow217h15e29a86c60dd6baE
0011f2b4 W _ZN4core3num6bignum8Big32x408mul_pow517h4477c92c4a717ba9E
0011f3e4 W _ZN4core3num6bignum8Big32x4010mul_digits17hc6f1ffa637e3696eE
0011f6d4 W _ZN4core3num6bignum8Big32x4013div_rem_small17hddc1707b10a22fddE
0011f76c W _ZN4core3num6bignum8Big32x407div_rem17h0bf0c17f8e59470eE
0011fa00 W _ZN68_$LT$core..num..bignum..Big32x40$u20$as$u20$core..cmp..PartialEq$GT$2eq17h2b3b2b69262323daE
0011fa1c W _ZN69_$LT$core..num..bignum..Big32x40$u20$as$u20$core..cmp..PartialOrd$GT$11partial_cmp17hfaa047bbd7529c6dE
0011fa9c W _ZN62_$LT$core..num..bignum..Big32x40$u20$as$u20$core..cmp..Ord$GT$3cmp17h3a927d79b9dd52acE
0011fb1c W _ZN64_$LT$core..num..bignum..Big32x40$u20$as$u20$core..fmt..Debug$GT$3fmt17hc2049124d32db79eE
0011fc70 W _ZN4core3num6bignum5tests6Big8x38from_u6417hd68b6d9a5152475dE
0011fd08 W _ZN4core3num6bignum5tests6Big8x36digits17he3519563a60c1407E
0011fd34 W _ZN4core3num6bignum5tests6Big8x37get_bit17h3c0e105d94bd5b13E
0011fd70 W _ZN4core3num6bignum5tests6Big8x37is_zero17h32e72f5d7dbb5adbE
0011fe00 W _ZN4core3num6bignum5tests6Big8x310bit_length17h83652b24f2592b66E
0011fed4 W _ZN4core3num6bignum5tests6Big8x33add17h0ea9b7b009d144c0E
0011ffa8 W _ZN4core3num6bignum5tests6Big8x39add_small17hfb578bb3ef3121e5E
00120028 W _ZN4core3num6bignum5tests6Big8x33sub17he7cc307db19dcf38E
001200dc W _ZN4core3num6bignum5tests6Big8x39mul_small17h88500d5dffbe03a5E
001201a4 W _ZN4core3num6bignum5tests6Big8x38mul_pow217h7241f869c32bebc8E
00120308 W _ZN4core3num6bignum5tests6Big8x38mul_pow517hbf8d1887a577d4b9E
0012047c W _ZN4core3num6bignum5tests6Big8x310mul_digits17hc92e3128bf16df9bE
00120880 W _ZN4core3num6bignum5tests6Big8x313div_rem_small17h3d76b4dc7e13bdf9E
0012095c W _ZN4core3num6bignum5tests6Big8x37div_rem17hd07a45cafecfa95dE
00120c68 W _ZN73_$LT$core..num..bignum..tests..Big8x3$u20$as$u20$core..cmp..PartialEq$GT$2eq17h2a5bec94bf0063b9E
00120c8c W _ZN74_$LT$core..num..bignum..tests..Big8x3$u20$as$u20$core..cmp..PartialOrd$GT$11partial_cmp17h48d5846d2573a5e1E
00120d48 W _ZN67_$LT$core..num..bignum..tests..Big8x3$u20$as$u20$core..cmp..Ord$GT$3cmp17h8a7502baf7f3c9a5E
00120e04 W _ZN69_$LT$core..num..bignum..tests..Big8x3$u20$as$u20$core..fmt..Debug$GT$3fmt17hf9300f71b8428542E
00120f40 W _ZN4core3num7dec2flt60_$LT$impl$u20$core..str..traits..FromStr$u20$for$u20$f16$GT$8from_str17h0d34f16cb03d4084E
00121578 W _ZN4core3num7dec2flt60_$LT$impl$u20$core..str..traits..FromStr$u20$for$u20$f32$GT$8from_str17haab41bb9ce3e1e69E
00121b80 W _ZN4core3num7dec2flt60_$LT$impl$u20$core..str..traits..FromStr$u20$for$u20$f64$GT$8from_str17h9934b968a57533b4E
001221e8 t _ZN73_$LT$core..num..nonzero..NonZero$LT$T$GT$$u20$as$u20$core..fmt..Debug$GT$3fmt17hfee7ea0a19225bacE
001222a8 W _ZN84_$LT$core..num..nonzero..NonZero$LT$u8$GT$$u20$as$u20$core..str..traits..FromStr$GT$8from_str17ha566d71859ee37bcE
001223f0 W _ZN85_$LT$core..num..nonzero..NonZero$LT$u16$GT$$u20$as$u20$core..str..traits..FromStr$GT$8from_str17h22aefbcb4cc26c68E
0012253c W _ZN85_$LT$core..num..nonzero..NonZero$LT$u32$GT$$u20$as$u20$core..str..traits..FromStr$GT$8from_str17h957fe3dbd5a241bcE
0012268c W _ZN85_$LT$core..num..nonzero..NonZero$LT$u64$GT$$u20$as$u20$core..str..traits..FromStr$GT$8from_str17hb05b038cb220d66cE
001227e4 W _ZN86_$LT$core..num..nonzero..NonZero$LT$u128$GT$$u20$as$u20$core..str..traits..FromStr$GT$8from_str17hce0b07860262ce09E
001229ac W _ZN87_$LT$core..num..nonzero..NonZero$LT$usize$GT$$u20$as$u20$core..str..traits..FromStr$GT$8from_str17h1733288da9636848E
00122adc W _ZN84_$LT$core..num..nonzero..NonZero$LT$i8$GT$$u20$as$u20$core..str..traits..FromStr$GT$8from_str17hebe21d8ddaff9330E
00122d14 W _ZN85_$LT$core..num..nonzero..NonZero$LT$i16$GT$$u20$as$u20$core..str..traits..FromStr$GT$8from_str17h5460cf01298f7943E
00122f44 W _ZN85_$LT$core..num..nonzero..NonZero$LT$i32$GT$$u20$as$u20$core..str..traits..FromStr$GT$8from_str17h82302f5d78c06a81E
00122f44 W _ZN87_$LT$core..num..nonzero..NonZero$LT$isize$GT$$u20$as$u20$core..str..traits..FromStr$GT$8from_str17h2c971f4e6004c56cE
00123128 W _ZN85_$LT$core..num..nonzero..NonZero$LT$i64$GT$$u20$as$u20$core..str..traits..FromStr$GT$8from_str17hf63377f21a3fb6baE
00123368 W _ZN86_$LT$core..num..nonzero..NonZero$LT$i128$GT$$u20$as$u20$core..str..traits..FromStr$GT$8from_str17h404bcfcc368805b5E
0012369c W _ZN72_$LT$core..num..niche_types..Nanoseconds$u20$as$u20$core..fmt..Debug$GT$3fmt17h6df87c1b0e86c542E
0012375c W _ZN75_$LT$core..num..niche_types..NonZeroU8Inner$u20$as$u20$core..fmt..Debug$GT$3fmt17h9934d86d94d3ba9dE
00123770 W _ZN76_$LT$core..num..niche_types..NonZeroU16Inner$u20$as$u20$core..fmt..Debug$GT$3fmt17h1e0f277c7c9985fdE
00123838 W _ZN76_$LT$core..num..niche_types..NonZeroU32Inner$u20$as$u20$core..fmt..Debug$GT$3fmt17h4208945a1918bf76E
00123838 W _ZN78_$LT$core..num..niche_types..NonZeroUsizeInner$u20$as$u20$core..fmt..Debug$GT$3fmt17ha8f426bbeecf8ec6E
001238f8 W _ZN76_$LT$core..num..niche_types..NonZeroU64Inner$u20$as$u20$core..fmt..Debug$GT$3fmt17hcec75d0956b73778E
001239d8 W _ZN77_$LT$core..num..niche_types..NonZeroU128Inner$u20$as$u20$core..fmt..Debug$GT$3fmt17h5bc8c49a87650843E
00123b2c W _ZN75_$LT$core..num..niche_types..NonZeroI8Inner$u20$as$u20$core..fmt..Debug$GT$3fmt17hc1ad68564dffd6e0E
00123b40 W _ZN76_$LT$core..num..niche_types..NonZeroI16Inner$u20$as$u20$core..fmt..Debug$GT$3fmt17h1bae456063d3b38aE
00123c08 W _ZN76_$LT$core..num..niche_types..NonZeroI32Inner$u20$as$u20$core..fmt..Debug$GT$3fmt17h22fbf48f72b85284E
00123c08 W _ZN78_$LT$core..num..niche_types..NonZeroIsizeInner$u20$as$u20$core..fmt..Debug$GT$3fmt17hb774495533dc4d39E
00123cc8 W _ZN76_$LT$core..num..niche_types..NonZeroI64Inner$u20$as$u20$core..fmt..Debug$GT$3fmt17h8bb2c468a465aac2E
00123da8 W _ZN77_$LT$core..num..niche_types..NonZeroI128Inner$u20$as$u20$core..fmt..Debug$GT$3fmt17h7658577fe72d6a93E
00123f18 W _ZN75_$LT$core..num..niche_types..UsizeNoHighBit$u20$as$u20$core..fmt..Debug$GT$3fmt17h77e5bca56126e0b7E
00123fd8 W _ZN74_$LT$core..num..niche_types..U32NotAllOnes$u20$as$u20$core..fmt..Debug$GT$3fmt17hdae2b85bd7a76fa0E
00124098 W _ZN74_$LT$core..num..niche_types..I32NotAllOnes$u20$as$u20$core..fmt..Debug$GT$3fmt17ha30c204f41712d0cE
00124158 W _ZN74_$LT$core..num..niche_types..U64NotAllOnes$u20$as$u20$core..fmt..Debug$GT$3fmt17h9aae2314a6753889E
00124238 W _ZN74_$LT$core..num..niche_types..I64NotAllOnes$u20$as$u20$core..fmt..Debug$GT$3fmt17hcd11c67aaecfa5cdE
00124318 W _ZN4core3num22from_ascii_radix_panic8do_panic7runtime17h20bf34c324abd015E
0012436c W _ZN4core10intrinsics3mir11PtrMetadata19panic_cold_explicit17h38f2b2d764b9fcc9E
0012436c W _ZN4core10intrinsics3mir11StorageDead19panic_cold_explicit17hb690134183c3d5f8E
0012436c W _ZN4core10intrinsics3mir11StorageLive19panic_cold_explicit17hc1f3415b329e8fbfE
0012436c W _ZN4core10intrinsics3mir11Unreachable19panic_cold_explicit17he6da00eee187fc9aE
0012436c W _ZN4core10intrinsics3mir11__debuginfo19panic_cold_explicit17h5174d4ddc1278f82E
0012436c W _ZN4core10intrinsics3mir12CastPtrToPtr19panic_cold_explicit17h872ad1df96ee95d1E
0012436c W _ZN4core10intrinsics3mir12CopyForDeref19panic_cold_explicit17h02b3c11dfe630c91E
0012436c W _ZN4core10intrinsics3mir12Discriminant19panic_cold_explicit17hcb966d435b12c930E
0012436c W _ZN4core10intrinsics3mir12UnwindResume19panic_cold_explicit17h7b0fe2268a2f52faE
0012436c W _ZN4core10intrinsics3mir13CastTransmute19panic_cold_explicit17h140137530e19a8e3E
0012436c W _ZN4core10intrinsics3mir13UnwindCleanup19panic_cold_explicit17h12d43fe738183882E
0012436c W _ZN4core10intrinsics3mir14UnwindContinue19panic_cold_explicit17h0cf51d7ffd0542cfE
0012436c W _ZN4core10intrinsics3mir15SetDiscriminant19panic_cold_explicit17h8755b761a5e9e5d6E
0012436c W _ZN4core10intrinsics3mir15UnwindTerminate19panic_cold_explicit17hda5d76e849857605E
0012436c W _ZN4core10intrinsics3mir17UnwindUnreachable19panic_cold_explicit17h38cc0e7eedfc1bb5E
0012436c W _ZN4core10intrinsics3mir21__internal_make_place19panic_cold_explicit17hf269f447e8355e4eE
0012436c W _ZN4core10intrinsics3mir3Len19panic_cold_explicit17h0383927d4f79da7bE
0012436c W _ZN4core10intrinsics3mir4Call19panic_cold_explicit17h68b3c99c40ad8120E
0012436c W _ZN4core10intrinsics3mir4Drop19panic_cold_explicit17h3d4397819b922de6E
0012436c W _ZN4core10intrinsics3mir4Goto19panic_cold_explicit17h8c0d32f87c2999b4E
0012436c W _ZN4core10intrinsics3mir4Move19panic_cold_explicit17h533e95ab91f9b721E
0012436c W _ZN4core10intrinsics3mir5Field19panic_cold_explicit17h9a27664ec0e6def6E
0012436c W _ZN4core10intrinsics3mir5Retag19panic_cold_explicit17hfa518615c648e471E
0012436c W _ZN4core10intrinsics3mir6Assume19panic_cold_explicit17h92ad5a9e0ca71f2fE
0012436c W _ZN4core10intrinsics3mir6Deinit19panic_cold_explicit17h49ae335c2127fec1E
0012436c W _ZN4core10intrinsics3mir6Offset19panic_cold_explicit17h50d3c6649dc09430E
0012436c W _ZN4core10intrinsics3mir6Return19panic_cold_explicit17h028ffecafe738defE
0012436c W _ZN4core10intrinsics3mir6Static19panic_cold_explicit17hc52c9d2ad2dd2450E
0012436c W _ZN4core10intrinsics3mir7Checked19panic_cold_explicit17he69fa63e490d2e54E
0012436c W _ZN4core10intrinsics3mir7Variant19panic_cold_explicit17h4701f3728a808058E
0012436c W _ZN4core10intrinsics3mir8ReturnTo19panic_cold_explicit17h4b62f69555857605E
0012436c W _ZN4core10intrinsics3mir8TailCall19panic_cold_explicit17h235233d317a28f99E
0012436c W _ZN4core10intrinsics3mir9StaticMut19panic_cold_explicit17h849f1e781e9311ffE
00124378 W _ZN85_$LT$core..marker..variance..PhantomCovariantLifetime$u20$as$u20$core..fmt..Debug$GT$3fmt17h092ab231f6840623E
0012439c W _ZN89_$LT$core..marker..variance..PhantomContravariantLifetime$u20$as$u20$core..fmt..Debug$GT$3fmt17hc36f606a10431dddE
001243c0 W _ZN85_$LT$core..marker..variance..PhantomInvariantLifetime$u20$as$u20$core..fmt..Debug$GT$3fmt17h310726426d633410E
001243e4 W _ZN4core4char7methods15encode_utf8_raw8do_panic7runtime17h8d77bbd109129b2bE
00124464 W _ZN4core4char7methods16encode_utf16_raw8do_panic7runtime17h780c16f034ec0cfdE
001244e4 W _ZN82_$LT$core..char..ToLowercase$u20$as$u20$core..iter..traits..iterator..Iterator$GT$4next17hb1b5d710b70686acE
001244e4 W _ZN82_$LT$core..char..ToUppercase$u20$as$u20$core..iter..traits..iterator..Iterator$GT$4next17h0ff24b7645f56a1bE
0012450c W _ZN82_$LT$core..char..ToLowercase$u20$as$u20$core..iter..traits..iterator..Iterator$GT$5count17h491b5e4cf6ec5bd0E
0012450c W _ZN82_$LT$core..char..ToUppercase$u20$as$u20$core..iter..traits..iterator..Iterator$GT$5count17h330da91a393d36f0E
00124520 W _ZN82_$LT$core..char..ToLowercase$u20$as$u20$core..iter..traits..iterator..Iterator$GT$4last17h2be1d7bd83ecbf83E
00124520 W _ZN82_$LT$core..char..ToUppercase$u20$as$u20$core..iter..traits..iterator..Iterator$GT$4last17h72d05fb14587955eE
00124560 W _ZN82_$LT$core..char..ToLowercase$u20$as$u20$core..iter..traits..iterator..Iterator$GT$10advance_by17h472a89f7f4a2644dE
00124560 W _ZN82_$LT$core..char..ToUppercase$u20$as$u20$core..iter..traits..iterator..Iterator$GT$10advance_by17he386af547ff0fb9bE
00124588 W _ZN82_$LT$core..char..ToLowercase$u20$as$u20$core..iter..traits..iterator..Iterator$GT$24__iterator_get_unchecked17h3837a4656c9589c7E
00124588 W _ZN82_$LT$core..char..ToUppercase$u20$as$u20$core..iter..traits..iterator..Iterator$GT$24__iterator_get_unchecked17ha438d1e2e3175c5aE
001245a4 W _ZN97_$LT$core..char..ToLowercase$u20$as$u20$core..iter..traits..double_ended..DoubleEndedIterator$GT$9next_back17h3de266f316e266adE
001245a4 W _ZN97_$LT$core..char..ToUppercase$u20$as$u20$core..iter..traits..double_ended..DoubleEndedIterator$GT$9next_back17h942ffc7e6f0bf653E
001245d0 W _ZN97_$LT$core..char..ToLowercase$u20$as$u20$core..iter..traits..double_ended..DoubleEndedIterator$GT$15advance_back_by17h5316befd367a240aE
001245d0 W _ZN97_$LT$core..char..ToUppercase$u20$as$u20$core..iter..traits..double_ended..DoubleEndedIterator$GT$15advance_back_by17hdf8bb3189356cc39E
001245f8 W _ZN62_$LT$core..char..ToLowercase$u20$as$u20$core..fmt..Display$GT$3fmt17hba63d2a00808b5c9E
001245f8 W _ZN62_$LT$core..char..ToUppercase$u20$as$u20$core..fmt..Display$GT$3fmt17h48c0920de8c6f951E
001246d4 W _ZN77_$LT$core..net..ip_addr..Ipv4Addr$u20$as$u20$core..ops..bit..BitAndAssign$GT$13bitand_assign17h4b36b47131fa5cc4E
00124710 W _ZN117_$LT$core..net..ip_addr..Ipv4Addr$u20$as$u20$core..ops..bit..BitAndAssign$LT$$RF$core..net..ip_addr..Ipv4Addr$GT$$GT$13bitand_assign17h0229d9be4c328c70E
0012475c W _ZN76_$LT$core..net..ip_addr..Ipv4Addr$u20$as$u20$core..ops..bit..BitOrAssign$GT$12bitor_assign17h5dbcc27e1bc263c6E
00124798 W _ZN116_$LT$core..net..ip_addr..Ipv4Addr$u20$as$u20$core..ops..bit..BitOrAssign$LT$$RF$core..net..ip_addr..Ipv4Addr$GT$$GT$12bitor_assign17h44764761fe65c596E
001247e4 W _ZN77_$LT$core..net..ip_addr..Ipv6Addr$u20$as$u20$core..ops..bit..BitAndAssign$GT$13bitand_assign17hdf1001071943e21cE
00124930 W _ZN117_$LT$core..net..ip_addr..Ipv6Addr$u20$as$u20$core..ops..bit..BitAndAssign$LT$$RF$core..net..ip_addr..Ipv6Addr$GT$$GT$13bitand_assign17hecc377bff21d2c6fE
00124a7c W _ZN76_$LT$core..net..ip_addr..Ipv6Addr$u20$as$u20$core..ops..bit..BitOrAssign$GT$12bitor_assign17h8802b9526f9e1ec3E
00124bc8 W _ZN116_$LT$core..net..ip_addr..Ipv6Addr$u20$as$u20$core..ops..bit..BitOrAssign$LT$$RF$core..net..ip_addr..Ipv6Addr$GT$$GT$12bitor_assign17h15c5b2f4ea6a9f87E
00124d14 W _ZN4core9panicking11panic_const24panic_const_add_overflow17h518b917df10cd0eaE
00124d54 W _ZN4core9panicking11panic_const24panic_const_sub_overflow17h60c8487e53d0d3c1E
00124d94 W _ZN4core9panicking11panic_const24panic_const_mul_overflow17h1a47d5361b03bf6eE
00124dd4 W _ZN4core9panicking11panic_const24panic_const_div_overflow17heddbfb5e687a03bcE
00124e14 W _ZN4core9panicking11panic_const24panic_const_rem_overflow17h3335d23af842c741E
00124e54 W _ZN4core9panicking11panic_const24panic_const_neg_overflow17hd6798e66c62ddff6E
00124e94 W _ZN4core9panicking11panic_const24panic_const_shr_overflow17hc596d1ddf3d71019E
00124ed4 W _ZN4core9panicking11panic_const24panic_const_shl_overflow17hab60c2de69792ef8E
00124f14 W _ZN4core9panicking11panic_const23panic_const_div_by_zero17h841ebc415392a309E
00124f54 W _ZN4core9panicking11panic_const23panic_const_rem_by_zero17h84c76eadc69bd9a6E
00124f94 W _ZN4core9panicking11panic_const29panic_const_coroutine_resumed17hc1fec1f49fb82aacE
00124fd4 W _ZN4core9panicking11panic_const28panic_const_async_fn_resumed17h4c52fb4e1fc04b7eE
00125014 W _ZN4core9panicking11panic_const32panic_const_async_gen_fn_resumed17hf6dc0ef665815d93E
00125054 W _ZN4core9panicking11panic_const23panic_const_gen_fn_none17h9943346b0c293476E
00125094 W _ZN4core9panicking11panic_const35panic_const_coroutine_resumed_panic17ha931fedc2d097cbcE
001250d4 W _ZN4core9panicking11panic_const34panic_const_async_fn_resumed_panic17he3287dd12fe7b10fE
00125114 W _ZN4core9panicking11panic_const38panic_const_async_gen_fn_resumed_panic17hd2dc1333c03262feE
00125154 W _ZN4core9panicking11panic_const29panic_const_gen_fn_none_panic17h5c1c229e3a40efecE
00125194 W _ZN4core9panicking11panic_const34panic_const_coroutine_resumed_drop17h80f9fb05c90896faE
001251d4 W _ZN4core9panicking11panic_const33panic_const_async_fn_resumed_drop17h372a153677563730E
00125214 W _ZN4core9panicking11panic_const37panic_const_async_gen_fn_resumed_drop17hf44454f4c0322d5eE
00125254 W _ZN4core9panicking11panic_const28panic_const_gen_fn_none_drop17h79a2beef01222142E
00125294 W _ZN46_$LT$i8$u20$as$u20$core..pat..RangePattern$GT$7sub_one17h9c88d58a08cd9976E
001252e4 W _ZN47_$LT$i16$u20$as$u20$core..pat..RangePattern$GT$7sub_one17h0bea40a7c0a1898dE
00125334 W _ZN47_$LT$i32$u20$as$u20$core..pat..RangePattern$GT$7sub_one17hee0294d19fcfed5eE
00125334 W _ZN49_$LT$isize$u20$as$u20$core..pat..RangePattern$GT$7sub_one17h0056a230ef3cbebbE
00125380 W _ZN47_$LT$i64$u20$as$u20$core..pat..RangePattern$GT$7sub_one17h7a71a5a054a38f79E
001253d8 W _ZN48_$LT$i128$u20$as$u20$core..pat..RangePattern$GT$7sub_one17hacd854531e93c0c5E
0012544c W _ZN46_$LT$u8$u20$as$u20$core..pat..RangePattern$GT$7sub_one17h15e864f0213c9b05E
00125494 W _ZN47_$LT$u16$u20$as$u20$core..pat..RangePattern$GT$7sub_one17h4335f9c9d4df86f6E
001254e0 W _ZN47_$LT$u32$u20$as$u20$core..pat..RangePattern$GT$7sub_one17h3378d20c1f54e79cE
001254e0 W _ZN49_$LT$usize$u20$as$u20$core..pat..RangePattern$GT$7sub_one17hae74837740f59fd0E
00125528 W _ZN47_$LT$u64$u20$as$u20$core..pat..RangePattern$GT$7sub_one17h6e6e0a2318d9e1f3E
0012557c W _ZN48_$LT$u128$u20$as$u20$core..pat..RangePattern$GT$7sub_one17h49e0f9c674b47932E
001255f0 W _ZN65_$LT$core..sync..atomic..AtomicI8$u20$as$u20$core..fmt..Debug$GT$3fmt17h98530b86a99569a1E
00125604 W _ZN65_$LT$core..sync..atomic..AtomicU8$u20$as$u20$core..fmt..Debug$GT$3fmt17h78ea702c9c6bc9f6E
00125618 W _ZN66_$LT$core..sync..atomic..AtomicI16$u20$as$u20$core..fmt..Debug$GT$3fmt17h5390cba2b0e4e3dcE
001256e0 W _ZN66_$LT$core..sync..atomic..AtomicU16$u20$as$u20$core..fmt..Debug$GT$3fmt17h2705d1d8027c0f42E
001257a8 W _ZN66_$LT$core..sync..atomic..AtomicI32$u20$as$u20$core..fmt..Debug$GT$3fmt17h00f7ed8238e72b79E
001257a8 W _ZN68_$LT$core..sync..atomic..AtomicIsize$u20$as$u20$core..fmt..Debug$GT$3fmt17h0b96864a280298deE
00125868 W _ZN66_$LT$core..sync..atomic..AtomicU32$u20$as$u20$core..fmt..Debug$GT$3fmt17hf9fe3a6abac6a243E
00125868 W _ZN68_$LT$core..sync..atomic..AtomicUsize$u20$as$u20$core..fmt..Debug$GT$3fmt17h60ae84bbcfdcbbb2E
00125928 W _ZN66_$LT$core..sync..atomic..AtomicI64$u20$as$u20$core..fmt..Debug$GT$3fmt17h553003e062ab2aeaE
00125a14 W _ZN66_$LT$core..sync..atomic..AtomicU64$u20$as$u20$core..fmt..Debug$GT$3fmt17h4837e1a6089e1848E
00125b00 W _ZN55_$LT$f32$u20$as$u20$core..fmt..float..GeneralFormat$GT$44already_rounded_value_should_use_exponential17hb22121c88fcaa0beE
00125b68 W _ZN55_$LT$f64$u20$as$u20$core..fmt..float..GeneralFormat$GT$44already_rounded_value_should_use_exponential17h8b724b9904cc9c26E
00125bf0 W _ZN4core3fmt5float50_$LT$impl$u20$core..fmt..Debug$u20$for$u20$f32$GT$3fmt17h36f6f70bc5e41684E
00125ca8 W _ZN4core3fmt5float52_$LT$impl$u20$core..fmt..Display$u20$for$u20$f32$GT$3fmt17h80810e25a018a288E
00125cec W _ZN4core3fmt5float53_$LT$impl$u20$core..fmt..LowerExp$u20$for$u20$f32$GT$3fmt17h820dff1b1d643fd6E
00125d40 W _ZN4core3fmt5float53_$LT$impl$u20$core..fmt..UpperExp$u20$for$u20$f32$GT$3fmt17hdf25f1d7057efea1E
00125d94 W _ZN4core3fmt5float50_$LT$impl$u20$core..fmt..Debug$u20$for$u20$f64$GT$3fmt17h12b316315661d7a7E
00125ea0 W _ZN4core3fmt5float52_$LT$impl$u20$core..fmt..Display$u20$for$u20$f64$GT$3fmt17h1658c390055e8683E
00125f04 W _ZN4core3fmt5float53_$LT$impl$u20$core..fmt..LowerExp$u20$for$u20$f64$GT$3fmt17hab161d28c266dbf1E
00125f74 W _ZN4core3fmt5float53_$LT$impl$u20$core..fmt..UpperExp$u20$for$u20$f64$GT$3fmt17hfdc423d0ad75608dE
00125fe4 W _ZN4core3fmt5float50_$LT$impl$u20$core..fmt..Debug$u20$for$u20$f16$GT$3fmt17h0275f4e20d5ac985E
001260a4 W _ZN4core3fmt5float52_$LT$impl$u20$core..fmt..Display$u20$for$u20$f16$GT$3fmt17h44d06f4ee009c844E
001260e8 W _ZN4core3fmt5float53_$LT$impl$u20$core..fmt..LowerExp$u20$for$u20$f16$GT$3fmt17h5cc0551d1f587a8bE
0012613c W _ZN4core3fmt5float53_$LT$impl$u20$core..fmt..UpperExp$u20$for$u20$f16$GT$3fmt17h2a0ba872876a6cb1E
00126190 W _ZN71_$LT$core..fmt..num..Binary$u20$as$u20$core..fmt..num..GenericRadix$GT$5digit17he4b6c679024b6753E
0012620c W _ZN70_$LT$core..fmt..num..Octal$u20$as$u20$core..fmt..num..GenericRadix$GT$5digit17h6d524b5314e7839aE
00126288 W _ZN73_$LT$core..fmt..num..LowerHex$u20$as$u20$core..fmt..num..GenericRadix$GT$5digit17h67093c0abfd72a34E
00126310 W _ZN73_$LT$core..fmt..num..UpperHex$u20$as$u20$core..fmt..num..GenericRadix$GT$5digit17h2ebf7f3cf75c8942E
00126398 W _ZN4core3fmt3num50_$LT$impl$u20$core..fmt..Binary$u20$for$u20$i8$GT$3fmt17hfb8e99514944e386E
00126398 W _ZN4core3fmt3num50_$LT$impl$u20$core..fmt..Binary$u20$for$u20$u8$GT$3fmt17h514516576817b215E
00126400 W _ZN4core3fmt3num49_$LT$impl$u20$core..fmt..Octal$u20$for$u20$i8$GT$3fmt17h16740b96b647866aE
00126400 W _ZN4core3fmt3num49_$LT$impl$u20$core..fmt..Octal$u20$for$u20$u8$GT$3fmt17h635fd5474861ae05E
00126468 W _ZN4core3fmt3num52_$LT$impl$u20$core..fmt..LowerHex$u20$for$u20$i8$GT$3fmt17ha38e82f4b36477dfE
00126468 W _ZN4core3fmt3num52_$LT$impl$u20$core..fmt..LowerHex$u20$for$u20$u8$GT$3fmt17hc6d7a5d62dd65f3dE
001264d4 W _ZN4core3fmt3num52_$LT$impl$u20$core..fmt..UpperHex$u20$for$u20$i8$GT$3fmt17hdbc78e6d81b9fc73E
001264d4 W _ZN4core3fmt3num52_$LT$impl$u20$core..fmt..UpperHex$u20$for$u20$u8$GT$3fmt17h283741087b5443fbE
00126540 W _ZN4core3fmt3num51_$LT$impl$u20$core..fmt..Binary$u20$for$u20$i16$GT$3fmt17hd9dba8c56e1924baE
00126540 W _ZN4core3fmt3num51_$LT$impl$u20$core..fmt..Binary$u20$for$u20$u16$GT$3fmt17h091a424a20286993E
001265a8 W _ZN4core3fmt3num50_$LT$impl$u20$core..fmt..Octal$u20$for$u20$i16$GT$3fmt17h673945bd6fb3acfeE
001265a8 W _ZN4core3fmt3num50_$LT$impl$u20$core..fmt..Octal$u20$for$u20$u16$GT$3fmt17he2db607245ee46f4E
00126610 W _ZN4core3fmt3num53_$LT$impl$u20$core..fmt..LowerHex$u20$for$u20$i16$GT$3fmt17hd32e4fcbce79670aE
00126610 W _ZN4core3fmt3num53_$LT$impl$u20$core..fmt..LowerHex$u20$for$u20$u16$GT$3fmt17he0ec3a7c7c6f82aaE
00126680 W _ZN4core3fmt3num53_$LT$impl$u20$core..fmt..UpperHex$u20$for$u20$i16$GT$3fmt17hc507e3445ac18ebeE
00126680 W _ZN4core3fmt3num53_$LT$impl$u20$core..fmt..UpperHex$u20$for$u20$u16$GT$3fmt17hdc8e35f69ff595e0E
001266f0 W _ZN4core3fmt3num51_$LT$impl$u20$core..fmt..Binary$u20$for$u20$i32$GT$3fmt17hd6aa21fb91002751E
001266f0 W _ZN4core3fmt3num51_$LT$impl$u20$core..fmt..Binary$u20$for$u20$u32$GT$3fmt17h10388e3ecc0e2a82E
001266f0 W _ZN4core3fmt3num53_$LT$impl$u20$core..fmt..Binary$u20$for$u20$isize$GT$3fmt17ha628474093b4abdaE
001266f0 W _ZN4core3fmt3num53_$LT$impl$u20$core..fmt..Binary$u20$for$u20$usize$GT$3fmt17hc698a938d515dad1E
00126758 W _ZN4core3fmt3num50_$LT$impl$u20$core..fmt..Octal$u20$for$u20$i32$GT$3fmt17hdfdd079f8dc60dc7E
00126758 W _ZN4core3fmt3num50_$LT$impl$u20$core..fmt..Octal$u20$for$u20$u32$GT$3fmt17h11cb97fafc282212E
00126758 W _ZN4core3fmt3num52_$LT$impl$u20$core..fmt..Octal$u20$for$u20$isize$GT$3fmt17h14fc069fcb50ab60E
00126758 W _ZN4core3fmt3num52_$LT$impl$u20$core..fmt..Octal$u20$for$u20$usize$GT$3fmt17hd011f7aea2adc7ccE
001267c0 W _ZN4core3fmt3num53_$LT$impl$u20$core..fmt..LowerHex$u20$for$u20$i32$GT$3fmt17h1bfe37b07cf28800E
001267c0 W _ZN4core3fmt3num53_$LT$impl$u20$core..fmt..LowerHex$u20$for$u20$u32$GT$3fmt17hfdc682c08af5035aE
001267c0 W _ZN4core3fmt3num55_$LT$impl$u20$core..fmt..LowerHex$u20$for$u20$isize$GT$3fmt17hbdbba435f2eea0eaE
001267c0 W _ZN4core3fmt3num55_$LT$impl$u20$core..fmt..LowerHex$u20$for$u20$usize$GT$3fmt17hc6a73d2a3cfb519bE
0012682c W _ZN4core3fmt3num53_$LT$impl$u20$core..fmt..UpperHex$u20$for$u20$i32$GT$3fmt17hf4441f29103186f0E
0012682c W _ZN4core3fmt3num53_$LT$impl$u20$core..fmt..UpperHex$u20$for$u20$u32$GT$3fmt17h4527233bda7f7df8E
0012682c W _ZN4core3fmt3num55_$LT$impl$u20$core..fmt..UpperHex$u20$for$u20$isize$GT$3fmt17h434e00baad43a721E
0012682c W _ZN4core3fmt3num55_$LT$impl$u20$core..fmt..UpperHex$u20$for$u20$usize$GT$3fmt17hd61434a95500f059E
00126898 W _ZN4core3fmt3num51_$LT$impl$u20$core..fmt..Binary$u20$for$u20$i64$GT$3fmt17h2344af75f6c15b7fE
00126898 W _ZN4core3fmt3num51_$LT$impl$u20$core..fmt..Binary$u20$for$u20$u64$GT$3fmt17hec869978c29c7f97E
00126908 W _ZN4core3fmt3num50_$LT$impl$u20$core..fmt..Octal$u20$for$u20$i64$GT$3fmt17hc6f5294ea5289e43E
00126908 W _ZN4core3fmt3num50_$LT$impl$u20$core..fmt..Octal$u20$for$u20$u64$GT$3fmt17h01bca0fd4eb532aeE
00126978 W _ZN4core3fmt3num53_$LT$impl$u20$core..fmt..LowerHex$u20$for$u20$i64$GT$3fmt17hac7e501d59390ecfE
00126978 W _ZN4core3fmt3num53_$LT$impl$u20$core..fmt..LowerHex$u20$for$u20$u64$GT$3fmt17h33ed1ad5f8fe880cE
001269f0 W _ZN4core3fmt3num53_$LT$impl$u20$core..fmt..UpperHex$u20$for$u20$i64$GT$3fmt17h51257ca6c0f8239cE
001269f0 W _ZN4core3fmt3num53_$LT$impl$u20$core..fmt..UpperHex$u20$for$u20$u64$GT$3fmt17h4a31273c55681e00E
00126a68 W _ZN4core3fmt3num52_$LT$impl$u20$core..fmt..Binary$u20$for$u20$i128$GT$3fmt17h7be091d3317e0d6cE
00126a68 W _ZN4core3fmt3num52_$LT$impl$u20$core..fmt..Binary$u20$for$u20$u128$GT$3fmt17h7321b73813f8b770E
00126b0c W _ZN4core3fmt3num51_$LT$impl$u20$core..fmt..Octal$u20$for$u20$i128$GT$3fmt17h5fb2ef3ead5b0ea5E
00126b0c W _ZN4core3fmt3num51_$LT$impl$u20$core..fmt..Octal$u20$for$u20$u128$GT$3fmt17hb6df8f7147e22964E
00126bbc W _ZN4core3fmt3num54_$LT$impl$u20$core..fmt..LowerHex$u20$for$u20$i128$GT$3fmt17h4f123a38d1270953E
00126bbc W _ZN4core3fmt3num54_$LT$impl$u20$core..fmt..LowerHex$u20$for$u20$u128$GT$3fmt17h10ad3a892e1a4a9bE
00126c74 W _ZN4core3fmt3num54_$LT$impl$u20$core..fmt..UpperHex$u20$for$u20$i128$GT$3fmt17ha49e3851795cfdefE
00126c74 W _ZN4core3fmt3num54_$LT$impl$u20$core..fmt..UpperHex$u20$for$u20$u128$GT$3fmt17hb5e6453eac1c5684E
00126d2c t _ZN4core3fmt3num49_$LT$impl$u20$core..fmt..Debug$u20$for$u20$i8$GT$3fmt17h34acdd6c4c2b4cccE
00126e98 t _ZN4core3fmt3num49_$LT$impl$u20$core..fmt..Debug$u20$for$u20$u8$GT$3fmt17h8d8c411144315c72E
00126fec t _ZN4core3fmt3num50_$LT$impl$u20$core..fmt..Debug$u20$for$u20$u32$GT$3fmt17h71bef540c929d311E
001270a8 W _ZN4core3fmt3num3imp51_$LT$impl$u20$core..fmt..Display$u20$for$u20$u8$GT$3fmt17hbcfcd188bf01c23fE
00127164 W _ZN4core3fmt3num3imp51_$LT$impl$u20$core..fmt..Display$u20$for$u20$i8$GT$3fmt17hff22c034098846a1E
00127230 W _ZN4core3fmt3num3imp20_$LT$impl$u20$u8$GT$4_fmt17hb5a7663e8a0544e3E
001272c4 W _ZN4core3fmt3num3imp52_$LT$impl$u20$core..fmt..Display$u20$for$u20$u16$GT$3fmt17hb807d5b07197dd3cE
001273d0 W _ZN4core3fmt3num3imp52_$LT$impl$u20$core..fmt..Display$u20$for$u20$i16$GT$3fmt17hd6d0d2db5935d675E
00127508 W _ZN4core3fmt3num3imp21_$LT$impl$u20$u16$GT$4_fmt17h2eab8ac218d2ab0cE
00127610 W _ZN4core3fmt3num3imp52_$LT$impl$u20$core..fmt..Display$u20$for$u20$u32$GT$3fmt17hfed0ce75b320fdfeE
00127610 W _ZN4core3fmt3num3imp54_$LT$impl$u20$core..fmt..Display$u20$for$u20$usize$GT$3fmt17ha815497ae0044abaE
00127784 W _ZN4core3fmt3num3imp52_$LT$impl$u20$core..fmt..Display$u20$for$u20$i32$GT$3fmt17h6694708af44e6410E
00127784 W _ZN4core3fmt3num3imp54_$LT$impl$u20$core..fmt..Display$u20$for$u20$isize$GT$3fmt17h66b3d00624d0a65eE
0012790c W _ZN4core3fmt3num3imp21_$LT$impl$u20$u32$GT$4_fmt17he3f4180fb8f739b6E
0012790c W _ZN4core3fmt3num3imp23_$LT$impl$u20$usize$GT$4_fmt17h2bd4600e7da4dcf7E
00127a68 W _ZN4core3fmt3num3imp52_$LT$impl$u20$core..fmt..Display$u20$for$u20$u64$GT$3fmt17hca688f18ea3812f0E
00127c00 W _ZN4core3fmt3num3imp52_$LT$impl$u20$core..fmt..Display$u20$for$u20$i64$GT$3fmt17h746d5f02f990caf3E
00127db4 W _ZN4core3fmt3num3imp21_$LT$impl$u20$u64$GT$4_fmt17h5cad236623dacc7fE
00127f20 t _ZN4core3fmt3num3imp7exp_u3217he01470f61c0319e7E
00128348 W _ZN4core3fmt3num3imp52_$LT$impl$u20$core..fmt..LowerExp$u20$for$u20$i8$GT$3fmt17hc0edf995b11d88a4E
00128378 W _ZN4core3fmt3num3imp52_$LT$impl$u20$core..fmt..LowerExp$u20$for$u20$u8$GT$3fmt17h9f71b4e1975c97b3E
00128398 W _ZN4core3fmt3num3imp53_$LT$impl$u20$core..fmt..LowerExp$u20$for$u20$i16$GT$3fmt17h2ec4792f26758582E
001283c8 W _ZN4core3fmt3num3imp53_$LT$impl$u20$core..fmt..LowerExp$u20$for$u20$u16$GT$3fmt17he1630ced7897f954E
001283e8 W _ZN4core3fmt3num3imp53_$LT$impl$u20$core..fmt..LowerExp$u20$for$u20$i32$GT$3fmt17hc830ff5284d762bdE
001283e8 W _ZN4core3fmt3num3imp55_$LT$impl$u20$core..fmt..LowerExp$u20$for$u20$isize$GT$3fmt17hf955e97067ba95fcE
00128418 W _ZN4core3fmt3num3imp53_$LT$impl$u20$core..fmt..LowerExp$u20$for$u20$u32$GT$3fmt17he84cd695e6f75fd8E
00128418 W _ZN4core3fmt3num3imp55_$LT$impl$u20$core..fmt..LowerExp$u20$for$u20$usize$GT$3fmt17h2f04f72ea35144edE
00128438 W _ZN4core3fmt3num3imp52_$LT$impl$u20$core..fmt..UpperExp$u20$for$u20$i8$GT$3fmt17h3cc98f3a87f4ea66E
00128468 W _ZN4core3fmt3num3imp52_$LT$impl$u20$core..fmt..UpperExp$u20$for$u20$u8$GT$3fmt17h04e779386a1b925eE
00128488 W _ZN4core3fmt3num3imp53_$LT$impl$u20$core..fmt..UpperExp$u20$for$u20$i16$GT$3fmt17ha0dd815a12b4d383E
001284b8 W _ZN4core3fmt3num3imp53_$LT$impl$u20$core..fmt..UpperExp$u20$for$u20$u16$GT$3fmt17h07d48ce0e1e749dcE
001284d8 W _ZN4core3fmt3num3imp53_$LT$impl$u20$core..fmt..UpperExp$u20$for$u20$i32$GT$3fmt17hf0350addfa1667d3E
001284d8 W _ZN4core3fmt3num3imp55_$LT$impl$u20$core..fmt..UpperExp$u20$for$u20$isize$GT$3fmt17h5ade87752c0cfe87E
00128508 W _ZN4core3fmt3num3imp53_$LT$impl$u20$core..fmt..UpperExp$u20$for$u20$u32$GT$3fmt17he78d3191f07bcd68E
00128508 W _ZN4core3fmt3num3imp55_$LT$impl$u20$core..fmt..UpperExp$u20$for$u20$usize$GT$3fmt17h7d5a057bf076c497E
00128528 t _ZN4core3fmt3num3imp7exp_u6417h10bcc1a2e249db0dE
00128bcc W _ZN4core3fmt3num3imp53_$LT$impl$u20$core..fmt..LowerExp$u20$for$u20$i64$GT$3fmt17hcf4752f526debdaeE
00128c0c W _ZN4core3fmt3num3imp53_$LT$impl$u20$core..fmt..LowerExp$u20$for$u20$u64$GT$3fmt17h1137bee068b4f16aE
00128c38 W _ZN4core3fmt3num3imp53_$LT$impl$u20$core..fmt..UpperExp$u20$for$u20$i64$GT$3fmt17hb868ad8f77e533adE
00128c78 W _ZN4core3fmt3num3imp53_$LT$impl$u20$core..fmt..UpperExp$u20$for$u20$u64$GT$3fmt17h63c965249d38ffaaE
00128ca4 t _ZN4core3fmt3num8exp_u12817hebe915adc93a3f65E
0012bf08 W _ZN4core3fmt3num54_$LT$impl$u20$core..fmt..LowerExp$u20$for$u20$i128$GT$3fmt17h5da6959838468447E
0012bf64 W _ZN4core3fmt3num54_$LT$impl$u20$core..fmt..LowerExp$u20$for$u20$u128$GT$3fmt17h376c18320fa0ab27E
0012bfa0 W _ZN4core3fmt3num54_$LT$impl$u20$core..fmt..UpperExp$u20$for$u20$i128$GT$3fmt17h4fa0aa44e9ac138bE
0012bffc W _ZN4core3fmt3num54_$LT$impl$u20$core..fmt..UpperExp$u20$for$u20$u128$GT$3fmt17h8104a47a73970792E
0012c034 t _ZN53_$LT$core..fmt..Error$u20$as$u20$core..fmt..Debug$GT$3fmt17h1fc33b0efc6d4457E
0012c058 t _ZN42_$LT$$RF$T$u20$as$u20$core..fmt..Debug$GT$3fmt17h24b88fa73242f32eE
0012c118 t _ZN42_$LT$$RF$T$u20$as$u20$core..fmt..Debug$GT$3fmt17h2b8606028715b277E
0012c1f0 t _ZN42_$LT$$RF$T$u20$as$u20$core..fmt..Debug$GT$3fmt17h2c94c47449fce077E
0012c208 t _ZN42_$LT$$RF$T$u20$as$u20$core..fmt..Debug$GT$3fmt17hf161bf64d7c0ef1eE
0012c21c t _ZN44_$LT$$RF$T$u20$as$u20$core..fmt..Display$GT$3fmt17h61386bb67a2fbd60E
0012c230 t _ZN44_$LT$$RF$T$u20$as$u20$core..fmt..Display$GT$3fmt17h8f0befc82ddda638E
0012c250 t _ZN44_$LT$$RF$T$u20$as$u20$core..fmt..Display$GT$3fmt17hfac9eb6f9e514871E
0012c264 t _ZN44_$LT$$RF$T$u20$as$u20$core..fmt..Display$GT$3fmt17hfcf05cee7c9056f6E
0012c278 t _ZN45_$LT$$RF$T$u20$as$u20$core..fmt..LowerHex$GT$3fmt17ha26303ddcb46393bE
0012c2ec W _ZN4core5slice5index26slice_start_index_len_fail8do_panic7runtime17h6b9a2d72cc528d7dE
0012c350 W _ZN4core5slice5index24slice_end_index_len_fail8do_panic7runtime17h389d609c37b06f43E
0012c3b4 W _ZN4core5slice5index22slice_index_order_fail8do_panic7runtime17hba4d89077763ab27E
0012c418 W _ZN4core5slice29_$LT$impl$u20$$u5b$T$u5d$$GT$15copy_from_slice17len_mismatch_fail8do_panic7runtime17ha2cc200a2ee383aeE
0012c480 W _ZN67_$LT$core..str..iter..EscapeDebug$u20$as$u20$core..fmt..Display$GT$3fmt17h2e2431f416ffb01dE
0012ce04 W _ZN69_$LT$core..str..iter..EscapeDefault$u20$as$u20$core..fmt..Display$GT$3fmt17ha94bdd14781dc3d5E
0012d394 W _ZN69_$LT$core..str..iter..EscapeUnicode$u20$as$u20$core..fmt..Display$GT$3fmt17h5c27075c7f7ee5aeE
0012d740 W _ZN4core7unicode12unicode_data10alphabetic6lookup17h0425ea10b4aa7bf8E
0012d858 W _ZN4core7unicode12unicode_data14case_ignorable6lookup17ha88a31073cb4ea00E
0012d970 W _ZN4core7unicode12unicode_data5cased6lookup17h855070ae3579273aE
0012da74 W _ZN4core7unicode12unicode_data2cc6lookup17hbd92340422846ed5E
0012daa0 W _ZN4core7unicode12unicode_data15grapheme_extend11lookup_slow17ha0f2bcc528f4b24fE
0012dbb8 W _ZN4core7unicode12unicode_data9lowercase6lookup17h25b6cb6d69b065d2E
0012dd14 W _ZN4core7unicode12unicode_data1n6lookup17hab35f8f69f966811E
0012de2c W _ZN4core7unicode12unicode_data9uppercase6lookup17h93e2abe42af36001E
0012df88 W _ZN4core7unicode12unicode_data11conversions8to_lower17h8b23e01b2072e971E
0012e0e0 W _ZN4core7unicode12unicode_data11conversions8to_upper17hb90ef9b0b7a7f5d4E
0012e248 W __aeabi_memset
0012e2cc W __aeabi_memcpy4
0012e2f8 W __aeabi_dmul
0012e308 W __aeabi_fcmplt
0012e36c W __aeabi_memclr4
0012e3b0 W __aeabi_fcmpge
0012e41c W __aeabi_f2h
0012e544 W __aeabi_memcpy
0012e554 W __aeabi_memcpy8
0012e580 W __aeabi_dcmplt
0012e5f8 W __aeabi_ddiv
0012e608 W __aeabi_ul2d
0012e690 W __aeabi_fcmpeq
0012e6e4 W __aeabi_dcmpeq
0012e74c W __aeabi_h2f
0012e7e8 W memcmp
0012e82c W __aeabi_fdiv
0012e83c W __aeabi_dcmpge
0012e8bc W __aeabi_ul2f
0012e930 W __aeabi_memclr8
0012e974 W __aeabi_fmul
0012e984 W __aeabi_memclr
0012ea04 W __aeabi_uldivmod
0012ea28 W __aeabi_uidivmod
0012ea44 W _ZN17compiler_builtins5float3div3div17he78d0620a7b75566E
0012f62c W _ZN17compiler_builtins5float3div8__divsf317h2b1d2160bcddc788E
0012f884 W _ZN17compiler_builtins5float3div8__divdf317hce8b9ad476be59d6E
0012fc7c W _ZN17compiler_builtins5float3mul3mul17hf2a17768751d3093E
00130364 W _ZN17compiler_builtins5float3mul8__mulsf317h25278f3241c059d4E
00130528 W _ZN17compiler_builtins5float3mul8__muldf317hccb81ca3c0286231E
00130874 W _ZN17compiler_builtins3mem6memcpy17h2e27bf7b653d77b8E
00130a48 W _ZN17compiler_builtins3mem7memmove17h5a3e1228d8082146E
00130e80 W _ZN17compiler_builtins3mem6memset17h37b1769849978255E
00130f1c W _ZN17compiler_builtins3mem4bcmp17h6438afe9a882ff74E
00130f1c W _ZN17compiler_builtins3mem6memcmp17h0b666bb21d0e1443E
00130f60 W _ZN17compiler_builtins3mem6strlen17hdb1c52627ea21c52E
00130f98 W _ZN84_$LT$compiler_builtins..int..big..u256$u20$as$u20$core..ops..bit..Shr$LT$u32$GT$$GT$3shr17h700137e2b572ae43E
001311d8 W _ZN17compiler_builtins3int3big71_$LT$impl$u20$compiler_builtins..int..traits..HInt$u20$for$u20$u128$GT$14zero_widen_mul17h2a6f60738a72942fE
001313ec W _ZN17compiler_builtins3int3big71_$LT$impl$u20$compiler_builtins..int..traits..HInt$u20$for$u20$i128$GT$14zero_widen_mul17h757cd97f511fe0d1E
001313ec W _ZN17compiler_builtins3int3big71_$LT$impl$u20$compiler_builtins..int..traits..HInt$u20$for$u20$u128$GT$9widen_mul17h429ef8f439cd29b5E
0013142c W _ZN17compiler_builtins3int3big71_$LT$impl$u20$compiler_builtins..int..traits..HInt$u20$for$u20$i128$GT$9widen_mul17hbe745c677a8cf624E
00131438 W _ZN17compiler_builtins3int3big71_$LT$impl$u20$compiler_builtins..int..traits..HInt$u20$for$u20$i128$GT$8widen_hi17hd02f55ec31f3daf8E
00131438 W _ZN17compiler_builtins3int3big71_$LT$impl$u20$compiler_builtins..int..traits..HInt$u20$for$u20$u128$GT$8widen_hi17h0fd3bac9cc7f7b53E
00131444 W _ZN90_$LT$compiler_builtins..int..big..i256$u20$as$u20$compiler_builtins..int..traits..DInt$GT$2lo17h7b22363a25d41783E
00131444 W _ZN90_$LT$compiler_builtins..int..big..u256$u20$as$u20$compiler_builtins..int..traits..DInt$GT$2lo17h30b5f38d0d5cebb8E
00131460 W _ZN90_$LT$compiler_builtins..int..big..i256$u20$as$u20$compiler_builtins..int..traits..DInt$GT$2hi17h3540cc33fb75817bE
00131460 W _ZN90_$LT$compiler_builtins..int..big..u256$u20$as$u20$compiler_builtins..int..traits..DInt$GT$2hi17he97f0e179754abdaE
00131480 W _ZN17compiler_builtins3int6traits4DInt5lo_hi17ha308a58add6cc6a0E
001314ac W _ZN84_$LT$compiler_builtins..int..big..i256$u20$as$u20$core..ops..bit..Shl$LT$u32$GT$$GT$3shl17h7aea36307c5c7502E
001314ac W _ZN84_$LT$compiler_builtins..int..big..u256$u20$as$u20$core..ops..bit..Shl$LT$u32$GT$$GT$3shl17h84fb7501b26214d4E
001314b8 W __udivmoddi4
00131504 W __aeabi_idiv0
00131508 W __aeabi_ldiv0
0013150c W _ZN17compiler_builtins3int19specialized_div_rem12u128_div_rem17h745fc7146425b8c6E
00131ba4 W _ZN17compiler_builtins3int19specialized_div_rem11u64_div_rem17h1dcded8ad6a6aa41E
00131e7c T __end_kernel
00131e7c R __start_rodata
00131e7c T _etext
00131e7c r raddec
00131e88 r radhex
00131e9c r radHEX
00131eb0 r message
00131ee0 r CSWTCH.1
00131fe8 R tTask_INIB_tab
00131fec R tSemaphore_INIB_tab
00131ff4 R tInterruptRequest_INIB_tab
00131ff8 R tISR_INIB_tab
00131ffc R tTerminateRoutine_INIB_tab
00132004 R tSerialPortMain_INIB_tab
00132014 R rProcessor1Migratable_SerialPort1_SerialPortMain_eSerialPort_des
0013201c R tSerialPortMain_eSerialPort_MT_
00132034 R tSerialAdapter_SINGLE_CELL_INIB
0013203c R rProcessor1Migratable_SerialAdapter_cSerialPort
00132040 R tSysLog_SINGLE_CELL_INIB
00132050 R rProcessor1Migratable_LogTask_LogTaskMain_eLogTaskTerminate_des
00132058 R tLogTaskMain_SINGLE_CELL_INIB
00132060 R tLogTaskMain_eLogTaskTerminate_MT_
00132064 R tBannerMain_SINGLE_CELL_INIB
0013206c R tXUartPs_INIB_tab
00132078 R rProcessor1Migratable_SIOPortTarget1_XUartPs_eTerminate_des
00132080 R tXUartPs_eTerminate_MT_
00132084 r banner
001321e8 R _kernel_p_exc_table
001321f0 R _kernel_exc_table_prc2
0013220c R _kernel_exc_table_prc1
00132228 R _kernel_p_intcfg_table
00132230 R _kernel_intcfg_table_prc2
00132290 R _kernel_intcfg_table_prc1
001322f0 R _kernel_p_inh_table
001322f8 R _kernel_inh_table_prc2
00132478 R _kernel_inh_table_prc1
001325f8 R _kernel_terrtnbb_table
00132610 R _kernel_terrtnb_table_prc2
00132618 R _kernel_terrtnb_table_prc1
00132630 R _kernel_inirtnbb_table
00132648 R _kernel_inirtnb_table_prc2
00132650 R _kernel_inirtnb_table_prc1
00132660 R _kernel_p_tevtcb_table
00132668 R _kernel_p_tmevt_heap_table
00132670 R _kernel_idstkpt_table
00132678 R _kernel_istkpt_table
00132680 R _kernel_istk_table
00132688 R _kernel_istksz_table
00132690 R _kernel_intinib_table
00132744 R _kernel_tnum_cfg_intno
00132748 R _kernel_alminib_table
00132748 R _kernel_p_almcb_table
00132748 R _kernel_tmax_almid
0013274c R _kernel_cycinib_table
0013274c R _kernel_p_cyccb_table
0013274c R _kernel_tmax_cycid
00132750 R _kernel_mpfinib_table
00132750 R _kernel_p_mpfcb_table
00132750 R _kernel_tmax_mpfid
00132754 R _kernel_spninib_table
00132754 R _kernel_tmax_spnid
00132758 R _kernel_mtxinib_table
00132758 R _kernel_p_mtxcb_table
00132758 R _kernel_tmax_mtxid
0013275c R _kernel_p_pdqcb_table
0013275c R _kernel_pdqinib_table
0013275c R _kernel_tmax_pdqid
00132760 R _kernel_dtqinib_table
00132760 R _kernel_p_dtqcb_table
00132760 R _kernel_tmax_dtqid
00132764 R _kernel_flginib_table
00132764 R _kernel_p_flgcb_table
00132764 R _kernel_tmax_flgid
00132768 R _kernel_p_semcb_table
00132770 R _kernel_seminib_table
00132788 R _kernel_tmax_semid
0013278c R _kernel_subprio_primap
00132790 R _kernel_torder_table
001327a4 R _kernel_p_tcb_table
001327b8 R _kernel_tinib_table
00132858 R _kernel_tmax_tskid
0013285c R _kernel_p_pcb_table
00132864 R arm_tnum_memory_area
00132868 r CSWTCH.20
00132c90 r _ZN4core7unicode12unicode_data10alphabetic7OFFSETS17hdc526415903ccd82E
0013327b r _ZN4core7unicode12unicode_data14case_ignorable7OFFSETS17hde027294297a5b30E
00133604 r _ZN4core7unicode12unicode_data5cased7OFFSETS17h4d7f7f757bbbcd2fE
00133743 r _ZN4core7unicode12unicode_data15grapheme_extend7OFFSETS17h10bd76417f3c2fd6E
00133a32 V _ZN4core7unicode12unicode_data9lowercase17BITSET_CHUNKS_MAP17hffaf68f0f508fac7E
00133aad r _ZN4core7unicode12unicode_data1n7OFFSETS17hdb97b96c7cf27088E
00133bce V _ZN4core7unicode12unicode_data9uppercase17BITSET_CHUNKS_MAP17h6b9400355040de03E
00133c4b V _ZN4core7unicode12unicode_data11white_space14WHITESPACE_MAP17h2de0024a71532bf3E
001346e8 r _ZN4core3num7flt2dec8strategy6dragon8POW5TO1617h9aa120b17aa06f22E
001346f0 r _ZN4core3num7flt2dec8strategy6dragon8POW5TO3217hd052c03e770190b7E
001346fc r _ZN4core3num7flt2dec8strategy6dragon8POW5TO6417h2dc1159c29093a1eE
00134710 r _ZN4core3num7flt2dec8strategy6dragon9POW5TO12817ha974d5882b6b5763E
00134738 r _ZN4core3num7flt2dec8strategy6dragon9POW5TO25617hec924f6a1e1f056cE
001349e0 V _ZN4core3num7flt2dec8strategy5grisu12CACHED_POW1017h9e7e1a5908bb56b3E
00137278 r _ZN4core3num7dec2flt5table17POWER_OF_FIVE_12817h60379a77b3c83400E
0013a110 r _ZN4core7unicode12unicode_data10alphabetic17SHORT_OFFSET_RUNS17he6009c709dd16101E
0013a1e4 r _ZN4core7unicode12unicode_data14case_ignorable17SHORT_OFFSET_RUNS17h4fbf63569f64a625E
0013a278 r _ZN4core7unicode12unicode_data5cased17SHORT_OFFSET_RUNS17h7a479c119684b2a6E
0013a2d0 r _ZN4core7unicode12unicode_data15grapheme_extend17SHORT_OFFSET_RUNS17hee57a88206e414ebE
0013a358 V _ZN4core7unicode12unicode_data9lowercase19BITSET_INDEX_CHUNKS17h4f138acca8fa2dc8E
0013a498 V _ZN4core7unicode12unicode_data9lowercase16BITSET_CANONICAL17h84c1f118f954263cE
0013a658 V _ZN4core7unicode12unicode_data9lowercase14BITSET_MAPPING17h458e7a7802856e65E
0013a684 r _ZN4core7unicode12unicode_data1n17SHORT_OFFSET_RUNS17hbac430b5adf8ef6aE
0013a72c V _ZN4core7unicode12unicode_data9uppercase19BITSET_INDEX_CHUNKS17h5ca318c69d422039E
0013a840 V _ZN4core7unicode12unicode_data9uppercase16BITSET_CANONICAL17hb8eb186001405e7eE
0013a9a0 V _ZN4core7unicode12unicode_data9uppercase14BITSET_MAPPING17h940f90362d1b786fE
00141070 R _ctor_list
00141074 R _dtor_list
00141078 R __end_rodata
00141078 R __exidx_start
00141080 R __exidx_end
00141080 D __start_data
00141080 A __start_idata
00141080 D arm_memory_area
001410c0 D __end_data
001410c0 D __start_bss
001410c0 D _edata
001410c0 D tSerialPortMain_CB_tab
001410f4 D tSerialPortMain_SerialPort1_SerialPortMain_CB_sendBuffer_INIT
001411f4 D tSerialPortMain_SerialPort1_SerialPortMain_CB_receiveBuffer_INIT
001412f4 D tSysLog_SINGLE_CELL_CB
00141310 D tSysLog_SINGLE_CELL_CB_logBuffer_INIT
00141790 D tXUartPs_CB_tab
00141798 D _kernel_tevtcb_prc2
001417a0 D _kernel_tevtcb_prc1
001417a8 D _kernel_kerflg_table
00144000 d section_table
00148000 D _kernel_giant_lock
00148004 D TOPPERS_sil_spn_var
00148008 D _kernel_start_sync
00148010 d prc_phase
00148018 d sys_phase
0014801c D _kernel_mtxhook_release_all
00148020 D _kernel_mtxhook_scan_ceilmtx
00148024 D _kernel_mtxhook_check_ceilpri
00148028 D _kernel_current_evttim
0014802c D _kernel_boundary_evttim
00148030 D _kernel_monotonic_evttim
00148038 D _kernel_systim_offset
00148040 D _kernel_current_hrtcnt
00148044 d _ZN5itron9tecs_impl14t_measure_impl8OVERHEAD17heeeb098a2c936eb2E.0
00148048 d _ZN5itron9tecs_impl14t_measure_impl7START_L17hec9df355498826b5E.0
0014804c d _kernel_tmevt_heap_prc1
00148064 d _kernel_semcb_SEMID_tSemaphore_rProcessor1Migratable_SerialPort1_SendSemaphore
00148074 d _kernel_semcb_SEMID_tSemaphore_rProcessor1Migratable_SerialPort1_ReceiveSemaphore
00148084 d _kernel_tcb_TSKID_MIG
001480c8 d _kernel_tcb_TSKID_tTask_rProcessor1Migratable_LogTask_Task
0014810c d _kernel_pcb_prc1
001481c0 d _kernel_tmevt_heap_prc2
001481d8 d _kernel_pcb_prc2
0014828c d _kernel_tcb_TSKID_1_1
001482d0 d _kernel_tcb_TSKID_2_2
00148314 d _kernel_tcb_TSKID_2_1
00148358 d _kernel_idstack_prc1
00148458 d _kernel_istack_prc1
0014a458 d _kernel_stack_TSKID_MIG
0014ac58 d _kernel_stack_TSKID_tTask_rProcessor1Migratable_LogTask_Task
0014bc58 d _kernel_idstack_prc2
0014bd58 d _kernel_istack_prc2
0014dd58 d _kernel_stack_TSKID_1_1
0014e558 d _kernel_stack_TSKID_2_2
0014ed58 d _kernel_stack_TSKID_2_1
0014f558 D __end_bss
0014f558 D _end
0014f558 D _heap
01000000 A _heap_size
0114f558 A _heap_limit
