Archive member included to satisfy reference by file (symbol)

./gen/../tecsrustUART/target/armv7a-none-eabi/release/libitron.a(itron-bd237d22add3b961.itron.ddb412ddd8428b4f-cgu.0.rcgu.o)
                              objs/kernel_cfg.o (tecs_rust_start_r_processor1_symmetric_task1)
./gen/../tecsrustUART/target/armv7a-none-eabi/release/libitron.a(itron-fbcb73bf0b635dd5.itron.68e737fdf62a80e5-cgu.0.rcgu.o)
                              ./gen/../tecsrustUART/target/armv7a-none-eabi/release/libitron.a(itron-bd237d22add3b961.itron.ddb412ddd8428b4f-cgu.0.rcgu.o) (<itron::error::ErrorCode as core::fmt::Debug>::fmt)
./gen/../tecsrustUART/target/armv7a-none-eabi/release/libitron.a(core-d049573bc16596f9.core.5587a85061e7188a-cgu.0.rcgu.o)
                              ./gen/../tecsrustUART/target/armv7a-none-eabi/release/libitron.a(itron-fbcb73bf0b635dd5.itron.68e737fdf62a80e5-cgu.0.rcgu.o) (core::fmt::write)
./gen/../tecsrustUART/target/armv7a-none-eabi/release/libitron.a(compiler_builtins-70f608aea3cde50d.compiler_builtins.5a681add74c93a61-cgu.162.rcgu.o)
                              ./gen/../tecsrustUART/target/armv7a-none-eabi/release/libitron.a(core-d049573bc16596f9.core.5587a85061e7188a-cgu.0.rcgu.o) (__aeabi_memset)
./gen/../tecsrustUART/target/armv7a-none-eabi/release/libitron.a(compiler_builtins-70f608aea3cde50d.compiler_builtins.5a681add74c93a61-cgu.174.rcgu.o)
                              ./gen/../tecsrustUART/target/armv7a-none-eabi/release/libitron.a(core-d049573bc16596f9.core.5587a85061e7188a-cgu.0.rcgu.o) (__aeabi_memcpy4)
./gen/../tecsrustUART/target/armv7a-none-eabi/release/libitron.a(compiler_builtins-70f608aea3cde50d.compiler_builtins.5a681add74c93a61-cgu.178.rcgu.o)
                              ./gen/../tecsrustUART/target/armv7a-none-eabi/release/libitron.a(core-d049573bc16596f9.core.5587a85061e7188a-cgu.0.rcgu.o) (__aeabi_dmul)
./gen/../tecsrustUART/target/armv7a-none-eabi/release/libitron.a(compiler_builtins-70f608aea3cde50d.compiler_builtins.5a681add74c93a61-cgu.180.rcgu.o)
                              ./gen/../tecsrustUART/target/armv7a-none-eabi/release/libitron.a(core-d049573bc16596f9.core.5587a85061e7188a-cgu.0.rcgu.o) (__aeabi_fcmplt)
./gen/../tecsrustUART/target/armv7a-none-eabi/release/libitron.a(compiler_builtins-70f608aea3cde50d.compiler_builtins.5a681add74c93a61-cgu.201.rcgu.o)
                              ./gen/../tecsrustUART/target/armv7a-none-eabi/release/libitron.a(core-d049573bc16596f9.core.5587a85061e7188a-cgu.0.rcgu.o) (__aeabi_memclr4)
./gen/../tecsrustUART/target/armv7a-none-eabi/release/libitron.a(compiler_builtins-70f608aea3cde50d.compiler_builtins.5a681add74c93a61-cgu.206.rcgu.o)
                              ./gen/../tecsrustUART/target/armv7a-none-eabi/release/libitron.a(core-d049573bc16596f9.core.5587a85061e7188a-cgu.0.rcgu.o) (__aeabi_fcmpge)
./gen/../tecsrustUART/target/armv7a-none-eabi/release/libitron.a(compiler_builtins-70f608aea3cde50d.compiler_builtins.5a681add74c93a61-cgu.210.rcgu.o)
                              ./gen/../tecsrustUART/target/armv7a-none-eabi/release/libitron.a(core-d049573bc16596f9.core.5587a85061e7188a-cgu.0.rcgu.o) (__aeabi_f2h)
./gen/../tecsrustUART/target/armv7a-none-eabi/release/libitron.a(compiler_builtins-70f608aea3cde50d.compiler_builtins.5a681add74c93a61-cgu.223.rcgu.o)
                              ./gen/../tecsrustUART/target/armv7a-none-eabi/release/libitron.a(core-d049573bc16596f9.core.5587a85061e7188a-cgu.0.rcgu.o) (__aeabi_memcpy)
./gen/../tecsrustUART/target/armv7a-none-eabi/release/libitron.a(compiler_builtins-70f608aea3cde50d.compiler_builtins.5a681add74c93a61-cgu.253.rcgu.o)
                              ./gen/../tecsrustUART/target/armv7a-none-eabi/release/libitron.a(core-d049573bc16596f9.core.5587a85061e7188a-cgu.0.rcgu.o) (__aeabi_memcpy8)
./gen/../tecsrustUART/target/armv7a-none-eabi/release/libitron.a(compiler_builtins-70f608aea3cde50d.compiler_builtins.5a681add74c93a61-cgu.261.rcgu.o)
                              ./gen/../tecsrustUART/target/armv7a-none-eabi/release/libitron.a(core-d049573bc16596f9.core.5587a85061e7188a-cgu.0.rcgu.o) (__aeabi_dcmplt)
./gen/../tecsrustUART/target/armv7a-none-eabi/release/libitron.a(compiler_builtins-70f608aea3cde50d.compiler_builtins.5a681add74c93a61-cgu.263.rcgu.o)
                              ./gen/../tecsrustUART/target/armv7a-none-eabi/release/libitron.a(core-d049573bc16596f9.core.5587a85061e7188a-cgu.0.rcgu.o) (__aeabi_ddiv)
./gen/../tecsrustUART/target/armv7a-none-eabi/release/libitron.a(compiler_builtins-70f608aea3cde50d.compiler_builtins.5a681add74c93a61-cgu.270.rcgu.o)
                              ./gen/../tecsrustUART/target/armv7a-none-eabi/release/libitron.a(core-d049573bc16596f9.core.5587a85061e7188a-cgu.0.rcgu.o) (__aeabi_ul2d)
./gen/../tecsrustUART/target/armv7a-none-eabi/release/libitron.a(compiler_builtins-70f608aea3cde50d.compiler_builtins.5a681add74c93a61-cgu.283.rcgu.o)
                              ./gen/../tecsrustUART/target/armv7a-none-eabi/release/libitron.a(core-d049573bc16596f9.core.5587a85061e7188a-cgu.0.rcgu.o) (__aeabi_fcmpeq)
./gen/../tecsrustUART/target/armv7a-none-eabi/release/libitron.a(compiler_builtins-70f608aea3cde50d.compiler_builtins.5a681add74c93a61-cgu.287.rcgu.o)
                              ./gen/../tecsrustUART/target/armv7a-none-eabi/release/libitron.a(core-d049573bc16596f9.core.5587a85061e7188a-cgu.0.rcgu.o) (__aeabi_dcmpeq)
./gen/../tecsrustUART/target/armv7a-none-eabi/release/libitron.a(compiler_builtins-70f608aea3cde50d.compiler_builtins.5a681add74c93a61-cgu.300.rcgu.o)
                              ./gen/../tecsrustUART/target/armv7a-none-eabi/release/libitron.a(core-d049573bc16596f9.core.5587a85061e7188a-cgu.0.rcgu.o) (__aeabi_h2f)
./gen/../tecsrustUART/target/armv7a-none-eabi/release/libitron.a(compiler_builtins-70f608aea3cde50d.compiler_builtins.5a681add74c93a61-cgu.310.rcgu.o)
                              ./gen/../tecsrustUART/target/armv7a-none-eabi/release/libitron.a(core-d049573bc16596f9.core.5587a85061e7188a-cgu.0.rcgu.o) (memcmp)
./gen/../tecsrustUART/target/armv7a-none-eabi/release/libitron.a(compiler_builtins-70f608aea3cde50d.compiler_builtins.5a681add74c93a61-cgu.355.rcgu.o)
                              ./gen/../tecsrustUART/target/armv7a-none-eabi/release/libitron.a(core-d049573bc16596f9.core.5587a85061e7188a-cgu.0.rcgu.o) (__aeabi_fdiv)
./gen/../tecsrustUART/target/armv7a-none-eabi/release/libitron.a(compiler_builtins-70f608aea3cde50d.compiler_builtins.5a681add74c93a61-cgu.361.rcgu.o)
                              ./gen/../tecsrustUART/target/armv7a-none-eabi/release/libitron.a(core-d049573bc16596f9.core.5587a85061e7188a-cgu.0.rcgu.o) (__aeabi_dcmpge)
./gen/../tecsrustUART/target/armv7a-none-eabi/release/libitron.a(compiler_builtins-70f608aea3cde50d.compiler_builtins.5a681add74c93a61-cgu.365.rcgu.o)
                              ./gen/../tecsrustUART/target/armv7a-none-eabi/release/libitron.a(core-d049573bc16596f9.core.5587a85061e7188a-cgu.0.rcgu.o) (__aeabi_ul2f)
./gen/../tecsrustUART/target/armv7a-none-eabi/release/libitron.a(compiler_builtins-70f608aea3cde50d.compiler_builtins.5a681add74c93a61-cgu.375.rcgu.o)
                              ./gen/../tecsrustUART/target/armv7a-none-eabi/release/libitron.a(core-d049573bc16596f9.core.5587a85061e7188a-cgu.0.rcgu.o) (__aeabi_memclr8)
./gen/../tecsrustUART/target/armv7a-none-eabi/release/libitron.a(compiler_builtins-70f608aea3cde50d.compiler_builtins.5a681add74c93a61-cgu.393.rcgu.o)
                              ./gen/../tecsrustUART/target/armv7a-none-eabi/release/libitron.a(core-d049573bc16596f9.core.5587a85061e7188a-cgu.0.rcgu.o) (__aeabi_fmul)
./gen/../tecsrustUART/target/armv7a-none-eabi/release/libitron.a(compiler_builtins-70f608aea3cde50d.compiler_builtins.5a681add74c93a61-cgu.395.rcgu.o)
                              ./gen/../tecsrustUART/target/armv7a-none-eabi/release/libitron.a(core-d049573bc16596f9.core.5587a85061e7188a-cgu.0.rcgu.o) (__aeabi_memclr)
./gen/../tecsrustUART/target/armv7a-none-eabi/release/libitron.a(compiler_builtins-70f608aea3cde50d.compiler_builtins.5a681add74c93a61-cgu.410.rcgu.o)
                              objs/tSysLog.o (__aeabi_uldivmod)
./gen/../tecsrustUART/target/armv7a-none-eabi/release/libitron.a(compiler_builtins-70f608aea3cde50d.compiler_builtins.5a681add74c93a61-cgu.411.rcgu.o)
                              objs/log_output.o (__aeabi_uidivmod)
./gen/../tecsrustUART/target/armv7a-none-eabi/release/libitron.a(63f8a0b8a638da8c-udivmodsi4.o)
                              ./gen/../tecsrustUART/target/armv7a-none-eabi/release/libitron.a(compiler_builtins-70f608aea3cde50d.compiler_builtins.5a681add74c93a61-cgu.411.rcgu.o) (__udivmodsi4)
./gen/../tecsrustUART/target/armv7a-none-eabi/release/libitron.a(63f8a0b8a638da8c-udivsi3.o)
                              ./gen/../tecsrustUART/target/armv7a-none-eabi/release/libitron.a(core-d049573bc16596f9.core.5587a85061e7188a-cgu.0.rcgu.o) (__aeabi_uidiv)
./gen/../tecsrustUART/target/armv7a-none-eabi/release/libitron.a(compiler_builtins-70f608aea3cde50d.compiler_builtins.5a681add74c93a61-cgu.000.rcgu.o)
                              ./gen/../tecsrustUART/target/armv7a-none-eabi/release/libitron.a(compiler_builtins-70f608aea3cde50d.compiler_builtins.5a681add74c93a61-cgu.355.rcgu.o) (compiler_builtins::float::div::__divsf3)
./gen/../tecsrustUART/target/armv7a-none-eabi/release/libitron.a(compiler_builtins-70f608aea3cde50d.compiler_builtins.5a681add74c93a61-cgu.004.rcgu.o)
                              ./gen/../tecsrustUART/target/armv7a-none-eabi/release/libitron.a(compiler_builtins-70f608aea3cde50d.compiler_builtins.5a681add74c93a61-cgu.393.rcgu.o) (compiler_builtins::float::mul::__mulsf3)
./gen/../tecsrustUART/target/armv7a-none-eabi/release/libitron.a(compiler_builtins-70f608aea3cde50d.compiler_builtins.5a681add74c93a61-cgu.009.rcgu.o)
                              ./gen/../tecsrustUART/target/armv7a-none-eabi/release/libitron.a(compiler_builtins-70f608aea3cde50d.compiler_builtins.5a681add74c93a61-cgu.174.rcgu.o) (compiler_builtins::mem::memcpy)
./gen/../tecsrustUART/target/armv7a-none-eabi/release/libitron.a(compiler_builtins-70f608aea3cde50d.compiler_builtins.5a681add74c93a61-cgu.019.rcgu.o)
                              ./gen/../tecsrustUART/target/armv7a-none-eabi/release/libitron.a(compiler_builtins-70f608aea3cde50d.compiler_builtins.5a681add74c93a61-cgu.000.rcgu.o) (compiler_builtins::int::big::<impl compiler_builtins::int::traits::HInt for u128>::zero_widen_mul)
./gen/../tecsrustUART/target/armv7a-none-eabi/release/libitron.a(compiler_builtins-70f608aea3cde50d.compiler_builtins.5a681add74c93a61-cgu.347.rcgu.o)
                              ./gen/../tecsrustUART/target/armv7a-none-eabi/release/libitron.a(compiler_builtins-70f608aea3cde50d.compiler_builtins.5a681add74c93a61-cgu.410.rcgu.o) (__udivmoddi4)
./gen/../tecsrustUART/target/armv7a-none-eabi/release/libitron.a(63f8a0b8a638da8c-aeabi_div0.o)
                              ./gen/../tecsrustUART/target/armv7a-none-eabi/release/libitron.a(63f8a0b8a638da8c-udivmodsi4.o) (__aeabi_idiv0)
./gen/../tecsrustUART/target/armv7a-none-eabi/release/libitron.a(compiler_builtins-70f608aea3cde50d.compiler_builtins.5a681add74c93a61-cgu.010.rcgu.o)
                              ./gen/../tecsrustUART/target/armv7a-none-eabi/release/libitron.a(compiler_builtins-70f608aea3cde50d.compiler_builtins.5a681add74c93a61-cgu.347.rcgu.o) (compiler_builtins::int::specialized_div_rem::u64_div_rem)
./libkernel.a(target_kernel_impl.o)
                              objs/start.o (hardware_init_hook)
./libkernel.a(chip_kernel_impl.o)
                              ./libkernel.a(target_kernel_impl.o) (_kernel_chip_initialize)
./libkernel.a(mpcore_kernel_impl.o)
                              ./libkernel.a(target_kernel_impl.o) (_kernel_mpcore_mprc_initialize)
./libkernel.a(gic_kernel_impl.o)
                              ./libkernel.a(mpcore_kernel_impl.o) (_kernel_gicc_initialize)
./libkernel.a(pl310.o)        ./libkernel.a(chip_kernel_impl.o) (_kernel_pl310_initialize)
./libkernel.a(mpcore_timer.o)
                              objs/kernel_cfg.o (_kernel_target_hrt_initialize)
./libkernel.a(core_kernel_impl.o)
                              ./libkernel.a(mpcore_kernel_impl.o) (_kernel_core_initialize)
./libkernel.a(arm.o)          ./libkernel.a(mpcore_kernel_impl.o) (arm_enable_icache)
./libkernel.a(startup.o)      ./libkernel.a(chip_kernel_impl.o) (_kernel_barrier_sync)
./libkernel.a(task.o)         objs/kernel_cfg.o (_kernel_initialize_task)
./libkernel.a(taskhook.o)     ./libkernel.a(task.o) (_kernel_mtxhook_release_all)
./libkernel.a(wait.o)         ./libkernel.a(task.o) (_kernel_wait_dequeue_wobj)
./libkernel.a(time_event.o)   ./libkernel.a(startup.o) (_kernel_initialize_tmevt)
./libkernel.a(task_sync.o)    objs/tLogTaskMain.o (dly_tsk)
./libkernel.a(semaphore.o)    objs/kernel_cfg.o (_kernel_initialize_semaphore)
./libkernel.a(dataqueue.o)    objs/kernel_cfg.o (_kernel_initialize_dataqueue)
./libkernel.a(spin_lock.o)    objs/kernel_cfg.o (_kernel_force_unlock_spin)
./libkernel.a(sys_manage.o)   ./gen/../tecsrustUART/target/armv7a-none-eabi/release/libitron.a(itron-fbcb73bf0b635dd5.itron.68e737fdf62a80e5-cgu.0.rcgu.o) (get_tid)
./libkernel.a(interrupt.o)    objs/tSerialPortMain.o (dis_int)
./libkernel.a(core_support.o)
                              ./libkernel.a(target_kernel_impl.o) (vector_table)
./libkernel.a(task_term.o)    ./libkernel.a(core_support.o) (ext_tsk)
./libkernel.a(gic_support.o)  ./libkernel.a(core_support.o) (_kernel_irc_begin_int)
/usr/lib/gcc/arm-none-eabi/10.3.1/../../../arm-none-eabi/lib/thumb/v7-a/nofp/libc.a(lib_a-memset.o)
                              ./libkernel.a(core_kernel_impl.o) (memset)

Discarded input sections

 .llvmbc        0x0000000000000000   0x146cc0 ./gen/../tecsrustUART/target/armv7a-none-eabi/release/libitron.a(core-d049573bc16596f9.core.5587a85061e7188a-cgu.0.rcgu.o)
 .llvmcmd       0x0000000000000000        0x0 ./gen/../tecsrustUART/target/armv7a-none-eabi/release/libitron.a(core-d049573bc16596f9.core.5587a85061e7188a-cgu.0.rcgu.o)
 .llvmbc        0x0000000000000000      0xb6c ./gen/../tecsrustUART/target/armv7a-none-eabi/release/libitron.a(compiler_builtins-70f608aea3cde50d.compiler_builtins.5a681add74c93a61-cgu.162.rcgu.o)
 .llvmcmd       0x0000000000000000        0x0 ./gen/../tecsrustUART/target/armv7a-none-eabi/release/libitron.a(compiler_builtins-70f608aea3cde50d.compiler_builtins.5a681add74c93a61-cgu.162.rcgu.o)
 .llvmbc        0x0000000000000000      0xb70 ./gen/../tecsrustUART/target/armv7a-none-eabi/release/libitron.a(compiler_builtins-70f608aea3cde50d.compiler_builtins.5a681add74c93a61-cgu.174.rcgu.o)
 .llvmcmd       0x0000000000000000        0x0 ./gen/../tecsrustUART/target/armv7a-none-eabi/release/libitron.a(compiler_builtins-70f608aea3cde50d.compiler_builtins.5a681add74c93a61-cgu.174.rcgu.o)
 .llvmbc        0x0000000000000000      0xb70 ./gen/../tecsrustUART/target/armv7a-none-eabi/release/libitron.a(compiler_builtins-70f608aea3cde50d.compiler_builtins.5a681add74c93a61-cgu.178.rcgu.o)
 .llvmcmd       0x0000000000000000        0x0 ./gen/../tecsrustUART/target/armv7a-none-eabi/release/libitron.a(compiler_builtins-70f608aea3cde50d.compiler_builtins.5a681add74c93a61-cgu.178.rcgu.o)
 .llvmbc        0x0000000000000000      0xb78 ./gen/../tecsrustUART/target/armv7a-none-eabi/release/libitron.a(compiler_builtins-70f608aea3cde50d.compiler_builtins.5a681add74c93a61-cgu.180.rcgu.o)
 .llvmcmd       0x0000000000000000        0x0 ./gen/../tecsrustUART/target/armv7a-none-eabi/release/libitron.a(compiler_builtins-70f608aea3cde50d.compiler_builtins.5a681add74c93a61-cgu.180.rcgu.o)
 .llvmbc        0x0000000000000000      0xb64 ./gen/../tecsrustUART/target/armv7a-none-eabi/release/libitron.a(compiler_builtins-70f608aea3cde50d.compiler_builtins.5a681add74c93a61-cgu.201.rcgu.o)
 .llvmcmd       0x0000000000000000        0x0 ./gen/../tecsrustUART/target/armv7a-none-eabi/release/libitron.a(compiler_builtins-70f608aea3cde50d.compiler_builtins.5a681add74c93a61-cgu.201.rcgu.o)
 .llvmbc        0x0000000000000000      0xb78 ./gen/../tecsrustUART/target/armv7a-none-eabi/release/libitron.a(compiler_builtins-70f608aea3cde50d.compiler_builtins.5a681add74c93a61-cgu.206.rcgu.o)
 .llvmcmd       0x0000000000000000        0x0 ./gen/../tecsrustUART/target/armv7a-none-eabi/release/libitron.a(compiler_builtins-70f608aea3cde50d.compiler_builtins.5a681add74c93a61-cgu.206.rcgu.o)
 .llvmbc        0x0000000000000000      0xc20 ./gen/../tecsrustUART/target/armv7a-none-eabi/release/libitron.a(compiler_builtins-70f608aea3cde50d.compiler_builtins.5a681add74c93a61-cgu.210.rcgu.o)
 .llvmcmd       0x0000000000000000        0x0 ./gen/../tecsrustUART/target/armv7a-none-eabi/release/libitron.a(compiler_builtins-70f608aea3cde50d.compiler_builtins.5a681add74c93a61-cgu.210.rcgu.o)
 .llvmbc        0x0000000000000000      0xb6c ./gen/../tecsrustUART/target/armv7a-none-eabi/release/libitron.a(compiler_builtins-70f608aea3cde50d.compiler_builtins.5a681add74c93a61-cgu.223.rcgu.o)
 .llvmcmd       0x0000000000000000        0x0 ./gen/../tecsrustUART/target/armv7a-none-eabi/release/libitron.a(compiler_builtins-70f608aea3cde50d.compiler_builtins.5a681add74c93a61-cgu.223.rcgu.o)
 .llvmbc        0x0000000000000000      0xb70 ./gen/../tecsrustUART/target/armv7a-none-eabi/release/libitron.a(compiler_builtins-70f608aea3cde50d.compiler_builtins.5a681add74c93a61-cgu.253.rcgu.o)
 .llvmcmd       0x0000000000000000        0x0 ./gen/../tecsrustUART/target/armv7a-none-eabi/release/libitron.a(compiler_builtins-70f608aea3cde50d.compiler_builtins.5a681add74c93a61-cgu.253.rcgu.o)
 .llvmbc        0x0000000000000000      0xb7c ./gen/../tecsrustUART/target/armv7a-none-eabi/release/libitron.a(compiler_builtins-70f608aea3cde50d.compiler_builtins.5a681add74c93a61-cgu.261.rcgu.o)
 .llvmcmd       0x0000000000000000        0x0 ./gen/../tecsrustUART/target/armv7a-none-eabi/release/libitron.a(compiler_builtins-70f608aea3cde50d.compiler_builtins.5a681add74c93a61-cgu.261.rcgu.o)
 .llvmbc        0x0000000000000000      0xb74 ./gen/../tecsrustUART/target/armv7a-none-eabi/release/libitron.a(compiler_builtins-70f608aea3cde50d.compiler_builtins.5a681add74c93a61-cgu.263.rcgu.o)
 .llvmcmd       0x0000000000000000        0x0 ./gen/../tecsrustUART/target/armv7a-none-eabi/release/libitron.a(compiler_builtins-70f608aea3cde50d.compiler_builtins.5a681add74c93a61-cgu.263.rcgu.o)
 .llvmbc        0x0000000000000000      0xb78 ./gen/../tecsrustUART/target/armv7a-none-eabi/release/libitron.a(compiler_builtins-70f608aea3cde50d.compiler_builtins.5a681add74c93a61-cgu.270.rcgu.o)
 .llvmcmd       0x0000000000000000        0x0 ./gen/../tecsrustUART/target/armv7a-none-eabi/release/libitron.a(compiler_builtins-70f608aea3cde50d.compiler_builtins.5a681add74c93a61-cgu.270.rcgu.o)
 .llvmbc        0x0000000000000000      0xb78 ./gen/../tecsrustUART/target/armv7a-none-eabi/release/libitron.a(compiler_builtins-70f608aea3cde50d.compiler_builtins.5a681add74c93a61-cgu.283.rcgu.o)
 .llvmcmd       0x0000000000000000        0x0 ./gen/../tecsrustUART/target/armv7a-none-eabi/release/libitron.a(compiler_builtins-70f608aea3cde50d.compiler_builtins.5a681add74c93a61-cgu.283.rcgu.o)
 .llvmbc        0x0000000000000000      0xb78 ./gen/../tecsrustUART/target/armv7a-none-eabi/release/libitron.a(compiler_builtins-70f608aea3cde50d.compiler_builtins.5a681add74c93a61-cgu.287.rcgu.o)
 .llvmcmd       0x0000000000000000        0x0 ./gen/../tecsrustUART/target/armv7a-none-eabi/release/libitron.a(compiler_builtins-70f608aea3cde50d.compiler_builtins.5a681add74c93a61-cgu.287.rcgu.o)
 .llvmbc        0x0000000000000000      0xc28 ./gen/../tecsrustUART/target/armv7a-none-eabi/release/libitron.a(compiler_builtins-70f608aea3cde50d.compiler_builtins.5a681add74c93a61-cgu.300.rcgu.o)
 .llvmcmd       0x0000000000000000        0x0 ./gen/../tecsrustUART/target/armv7a-none-eabi/release/libitron.a(compiler_builtins-70f608aea3cde50d.compiler_builtins.5a681add74c93a61-cgu.300.rcgu.o)
 .llvmbc        0x0000000000000000      0xb58 ./gen/../tecsrustUART/target/armv7a-none-eabi/release/libitron.a(compiler_builtins-70f608aea3cde50d.compiler_builtins.5a681add74c93a61-cgu.310.rcgu.o)
 .llvmcmd       0x0000000000000000        0x0 ./gen/../tecsrustUART/target/armv7a-none-eabi/release/libitron.a(compiler_builtins-70f608aea3cde50d.compiler_builtins.5a681add74c93a61-cgu.310.rcgu.o)
 .llvmbc        0x0000000000000000      0xb70 ./gen/../tecsrustUART/target/armv7a-none-eabi/release/libitron.a(compiler_builtins-70f608aea3cde50d.compiler_builtins.5a681add74c93a61-cgu.355.rcgu.o)
 .llvmcmd       0x0000000000000000        0x0 ./gen/../tecsrustUART/target/armv7a-none-eabi/release/libitron.a(compiler_builtins-70f608aea3cde50d.compiler_builtins.5a681add74c93a61-cgu.355.rcgu.o)
 .llvmbc        0x0000000000000000      0xb78 ./gen/../tecsrustUART/target/armv7a-none-eabi/release/libitron.a(compiler_builtins-70f608aea3cde50d.compiler_builtins.5a681add74c93a61-cgu.361.rcgu.o)
 .llvmcmd       0x0000000000000000        0x0 ./gen/../tecsrustUART/target/armv7a-none-eabi/release/libitron.a(compiler_builtins-70f608aea3cde50d.compiler_builtins.5a681add74c93a61-cgu.361.rcgu.o)
 .llvmbc        0x0000000000000000      0xb7c ./gen/../tecsrustUART/target/armv7a-none-eabi/release/libitron.a(compiler_builtins-70f608aea3cde50d.compiler_builtins.5a681add74c93a61-cgu.365.rcgu.o)
 .llvmcmd       0x0000000000000000        0x0 ./gen/../tecsrustUART/target/armv7a-none-eabi/release/libitron.a(compiler_builtins-70f608aea3cde50d.compiler_builtins.5a681add74c93a61-cgu.365.rcgu.o)
 .llvmbc        0x0000000000000000      0xb64 ./gen/../tecsrustUART/target/armv7a-none-eabi/release/libitron.a(compiler_builtins-70f608aea3cde50d.compiler_builtins.5a681add74c93a61-cgu.375.rcgu.o)
 .llvmcmd       0x0000000000000000        0x0 ./gen/../tecsrustUART/target/armv7a-none-eabi/release/libitron.a(compiler_builtins-70f608aea3cde50d.compiler_builtins.5a681add74c93a61-cgu.375.rcgu.o)
 .llvmbc        0x0000000000000000      0xb74 ./gen/../tecsrustUART/target/armv7a-none-eabi/release/libitron.a(compiler_builtins-70f608aea3cde50d.compiler_builtins.5a681add74c93a61-cgu.393.rcgu.o)
 .llvmcmd       0x0000000000000000        0x0 ./gen/../tecsrustUART/target/armv7a-none-eabi/release/libitron.a(compiler_builtins-70f608aea3cde50d.compiler_builtins.5a681add74c93a61-cgu.393.rcgu.o)
 .llvmbc        0x0000000000000000      0xb68 ./gen/../tecsrustUART/target/armv7a-none-eabi/release/libitron.a(compiler_builtins-70f608aea3cde50d.compiler_builtins.5a681add74c93a61-cgu.395.rcgu.o)
 .llvmcmd       0x0000000000000000        0x0 ./gen/../tecsrustUART/target/armv7a-none-eabi/release/libitron.a(compiler_builtins-70f608aea3cde50d.compiler_builtins.5a681add74c93a61-cgu.395.rcgu.o)
 .llvmbc        0x0000000000000000      0xce4 ./gen/../tecsrustUART/target/armv7a-none-eabi/release/libitron.a(compiler_builtins-70f608aea3cde50d.compiler_builtins.5a681add74c93a61-cgu.410.rcgu.o)
 .llvmcmd       0x0000000000000000        0x0 ./gen/../tecsrustUART/target/armv7a-none-eabi/release/libitron.a(compiler_builtins-70f608aea3cde50d.compiler_builtins.5a681add74c93a61-cgu.410.rcgu.o)
 .llvmbc        0x0000000000000000      0xca0 ./gen/../tecsrustUART/target/armv7a-none-eabi/release/libitron.a(compiler_builtins-70f608aea3cde50d.compiler_builtins.5a681add74c93a61-cgu.411.rcgu.o)
 .llvmcmd       0x0000000000000000        0x0 ./gen/../tecsrustUART/target/armv7a-none-eabi/release/libitron.a(compiler_builtins-70f608aea3cde50d.compiler_builtins.5a681add74c93a61-cgu.411.rcgu.o)
 .llvmbc        0x0000000000000000     0x8580 ./gen/../tecsrustUART/target/armv7a-none-eabi/release/libitron.a(compiler_builtins-70f608aea3cde50d.compiler_builtins.5a681add74c93a61-cgu.000.rcgu.o)
 .llvmcmd       0x0000000000000000        0x0 ./gen/../tecsrustUART/target/armv7a-none-eabi/release/libitron.a(compiler_builtins-70f608aea3cde50d.compiler_builtins.5a681add74c93a61-cgu.000.rcgu.o)
 .llvmbc        0x0000000000000000     0x5ee0 ./gen/../tecsrustUART/target/armv7a-none-eabi/release/libitron.a(compiler_builtins-70f608aea3cde50d.compiler_builtins.5a681add74c93a61-cgu.004.rcgu.o)
 .llvmcmd       0x0000000000000000        0x0 ./gen/../tecsrustUART/target/armv7a-none-eabi/release/libitron.a(compiler_builtins-70f608aea3cde50d.compiler_builtins.5a681add74c93a61-cgu.004.rcgu.o)
 .llvmbc        0x0000000000000000     0x4cc4 ./gen/../tecsrustUART/target/armv7a-none-eabi/release/libitron.a(compiler_builtins-70f608aea3cde50d.compiler_builtins.5a681add74c93a61-cgu.009.rcgu.o)
 .llvmcmd       0x0000000000000000        0x0 ./gen/../tecsrustUART/target/armv7a-none-eabi/release/libitron.a(compiler_builtins-70f608aea3cde50d.compiler_builtins.5a681add74c93a61-cgu.009.rcgu.o)
 .llvmbc        0x0000000000000000     0x3f0c ./gen/../tecsrustUART/target/armv7a-none-eabi/release/libitron.a(compiler_builtins-70f608aea3cde50d.compiler_builtins.5a681add74c93a61-cgu.019.rcgu.o)
 .llvmcmd       0x0000000000000000        0x0 ./gen/../tecsrustUART/target/armv7a-none-eabi/release/libitron.a(compiler_builtins-70f608aea3cde50d.compiler_builtins.5a681add74c93a61-cgu.019.rcgu.o)
 .llvmbc        0x0000000000000000      0xb84 ./gen/../tecsrustUART/target/armv7a-none-eabi/release/libitron.a(compiler_builtins-70f608aea3cde50d.compiler_builtins.5a681add74c93a61-cgu.347.rcgu.o)
 .llvmcmd       0x0000000000000000        0x0 ./gen/../tecsrustUART/target/armv7a-none-eabi/release/libitron.a(compiler_builtins-70f608aea3cde50d.compiler_builtins.5a681add74c93a61-cgu.347.rcgu.o)
 .llvmbc        0x0000000000000000     0x28b8 ./gen/../tecsrustUART/target/armv7a-none-eabi/release/libitron.a(compiler_builtins-70f608aea3cde50d.compiler_builtins.5a681add74c93a61-cgu.010.rcgu.o)
 .llvmcmd       0x0000000000000000        0x0 ./gen/../tecsrustUART/target/armv7a-none-eabi/release/libitron.a(compiler_builtins-70f608aea3cde50d.compiler_builtins.5a681add74c93a61-cgu.010.rcgu.o)

Memory Configuration

Name             Origin             Length             Attributes
RAM              0x0000000000100000 0x000000001ff00000 xrw
*default*        0x0000000000000000 0xffffffffffffffff

Linker script and memory map

                [!provide]                        PROVIDE (hardware_init_hook = 0x0)
                0x0000000000000000                PROVIDE (software_init_hook = 0x0)
                0x0000000000000000                PROVIDE (software_term_hook = 0x0)

.text           0x0000000000100000    0x31edc
                0x0000000000100000                __start_text = .
 *(.vector)
 .vector        0x0000000000100000       0x3c ./libkernel.a(core_support.o)
                0x0000000000100000                vector_table
                0x0000000000100020                vector_ref_table
 *(.text)
 .text          0x000000000010003c      0x11c objs/start.o
                0x000000000010003c                start
 .text          0x0000000000100158      0x42c objs/log_output.o
                0x0000000000100260                syslog_printf
                0x00000000001004f8                syslog_print
                0x000000000010054c                syslog_lostmsg
 .text          0x0000000000100584      0x2a8 objs/vasyslog.o
                0x0000000000100584                tt_syslog
 .text          0x000000000010082c       0x50 objs/t_perror.o
                0x000000000010082c                tt_perror
 .text          0x000000000010087c       0x24 objs/strerror.o
                0x000000000010087c                itron_strerror
 .text          0x00000000001008a0        0x4 objs/tTask_rProcessor1Migratable_tecsgen.o
                0x00000000001008a0                tTask_CB_initialize
 .text          0x00000000001008a4        0x4 objs/tSemaphore_rProcessor1Migratable_tecsgen.o
                0x00000000001008a4                tSemaphore_CB_initialize
 .text          0x00000000001008a8        0x4 objs/tInterruptRequest_rProcessor1Migratable_tecsgen.o
                0x00000000001008a8                tInterruptRequest_CB_initialize
 .text          0x00000000001008ac        0x4 objs/tISR_rProcessor1Migratable_tecsgen.o
                0x00000000001008ac                tISR_CB_initialize
 .text          0x00000000001008b0        0x4 objs/tTerminateRoutine_rProcessor1Migratable_tecsgen.o
                0x00000000001008b0                tTerminateRoutine_CB_initialize
 .text          0x00000000001008b4       0x50 objs/tSerialPortMain_rProcessor1Migratable_tecsgen.o
                0x00000000001008b4                tSerialPortMain_eSerialPort_open_skel
                0x00000000001008bc                tSerialPortMain_eSerialPort_close_skel
                0x00000000001008c4                tSerialPortMain_eSerialPort_read_skel
                0x00000000001008cc                tSerialPortMain_eSerialPort_write_skel
                0x00000000001008d4                tSerialPortMain_eSerialPort_control_skel
                0x00000000001008dc                tSerialPortMain_eSerialPort_refer_skel
                0x00000000001008e4                tSerialPortMain_CB_initialize
 .text          0x0000000000100904        0x4 objs/tSerialAdapter_rProcessor1Migratable_tecsgen.o
                0x0000000000100904                tSerialAdapter_CB_initialize
 .text          0x0000000000100908       0x38 objs/tSysLog_rProcessor1Migratable_tecsgen.o
                0x0000000000100908                tSysLog_CB_initialize
 .text          0x0000000000100940        0x4 objs/tSysLogAdapter_rProcessor1Migratable_tecsgen.o
                0x0000000000100940                tSysLogAdapter_CB_initialize
 .text          0x0000000000100944        0x8 objs/tLogTaskMain_rProcessor1Migratable_tecsgen.o
                0x0000000000100944                tLogTaskMain_eLogTaskTerminate_main_skel
                0x0000000000100948                tLogTaskMain_CB_initialize
 .text          0x000000000010094c        0x4 objs/tPutLogZyboZ7_rProcessor1Migratable_tecsgen.o
                0x000000000010094c                tPutLogZyboZ7_CB_initialize
 .text          0x0000000000100950       0x20 objs/tXUartPs_rProcessor1Migratable_tecsgen.o
                0x0000000000100950                tXUartPs_eTerminate_main_skel
                0x0000000000100958                tXUartPs_CB_initialize
 .text          0x0000000000100970        0x4 objs/tSIOPortZyboZ7Main_rProcessor1Migratable_tecsgen.o
                0x0000000000100970                tSIOPortZyboZ7Main_CB_initialize
 .text          0x0000000000100974        0x4 objs/tTask.o
                0x0000000000100974                tTask_start
 .text          0x0000000000100978        0x0 objs/tInterruptRequest.o
 .text          0x0000000000100978        0xc objs/tISR.o
                0x0000000000100978                tISR_start
 .text          0x0000000000100984       0x10 objs/tTerminateRoutine.o
                0x0000000000100984                tTerminateRoutine_start
 .text          0x0000000000100994      0x9e8 objs/tSerialPortMain.o
                0x0000000000100abc                tSerialPortMain_eSerialPort_open
                0x0000000000100ba0                tSerialPortMain_eSerialPort_close
                0x0000000000100c78                tSerialPortMain_eSerialPort_write
                0x0000000000100d84                tSerialPortMain_eSerialPort_read
                0x0000000000100fb8                tSerialPortMain_eSerialPort_control
                0x0000000000101008                tSerialPortMain_eSerialPort_refer
                0x0000000000101060                tSerialPortMain_eiSIOCBR_readySend
                0x000000000010112c                tSerialPortMain_eiSIOCBR_readyReceive
                0x0000000000101318                tSerialPortMain_enSerialPortManage_getChar
 .text          0x000000000010137c      0x258 objs/tSerialAdapter.o
                0x000000000010137c                serial_opn_por
                0x00000000001013d8                serial_cls_por
                0x0000000000101434                serial_rea_dat
                0x00000000001014a0                serial_wri_dat
                0x000000000010150c                serial_ctl_por
                0x0000000000101570                serial_ref_por
 .text          0x00000000001015d4      0x2cc objs/tSysLog.o
                0x00000000001015d8                tSysLog_eSysLog_write
                0x00000000001016f0                tSysLog_eSysLog_read
                0x0000000000101790                tSysLog_eSysLog_mask
                0x00000000001017c0                tSysLog_eSysLog_refer
                0x000000000010180c                tSysLog_eSysLog_flush
 .text          0x00000000001018a0       0x14 objs/tSysLogAdapter.o
                0x00000000001018a0                syslog_wri_log
                0x00000000001018a4                syslog_rea_log
                0x00000000001018a8                syslog_msk_log
                0x00000000001018ac                syslog_ref_log
                0x00000000001018b0                syslog_fls_log
 .text          0x00000000001018b4      0x21c objs/tLogTaskMain.o
                0x00000000001018b4                target_fput_log
                0x00000000001018e4                tLogTaskMain_eLogTask_flush
                0x0000000000101990                tLogTaskMain_eLogTaskBody_main
                0x0000000000101a10                tLogTaskMain_eLogTaskTerminate_main
 .text          0x0000000000101ad0       0x74 objs/tPutLogZyboZ7.o
                0x0000000000101ad0                tPutLogZyboZ7_initialize
                0x0000000000101af4                tPutLogZyboZ7_ePutLog_putChar
 .text          0x0000000000101b44      0x1f4 objs/tXUartPs.o
                0x0000000000101b44                tXUartPs_eTerminate_main
                0x0000000000101b84                tXUartPs_eSIOPort_open
                0x0000000000101bec                tXUartPs_eSIOPort_close
                0x0000000000101c1c                tXUartPs_eSIOPort_putChar
                0x0000000000101c3c                tXUartPs_eSIOPort_getChar
                0x0000000000101c5c                tXUartPs_eSIOPort_enableCBR
                0x0000000000101c90                tXUartPs_eSIOPort_disableCBR
                0x0000000000101cc4                tXUartPs_eiISR_main
 .text          0x0000000000101d38       0x3c objs/init_tecs.o
                0x0000000000101d38                initialize_tecs
 .text          0x0000000000101d74       0x6c objs/kernel_cfg.o
                0x0000000000101d74                _kernel_inthdr_82
                0x0000000000101db8                _kernel_initialize_object
 .text          0x0000000000101de0        0x0 ./gen/../tecsrustUART/target/armv7a-none-eabi/release/libitron.a(itron-bd237d22add3b961.itron.ddb412ddd8428b4f-cgu.0.rcgu.o)
 .text          0x0000000000101de0        0x0 ./gen/../tecsrustUART/target/armv7a-none-eabi/release/libitron.a(itron-fbcb73bf0b635dd5.itron.68e737fdf62a80e5-cgu.0.rcgu.o)
 .text          0x0000000000101de0        0x0 ./gen/../tecsrustUART/target/armv7a-none-eabi/release/libitron.a(core-d049573bc16596f9.core.5587a85061e7188a-cgu.0.rcgu.o)
 .text          0x0000000000101de0        0x0 ./gen/../tecsrustUART/target/armv7a-none-eabi/release/libitron.a(compiler_builtins-70f608aea3cde50d.compiler_builtins.5a681add74c93a61-cgu.162.rcgu.o)
 .text          0x0000000000101de0        0x0 ./gen/../tecsrustUART/target/armv7a-none-eabi/release/libitron.a(compiler_builtins-70f608aea3cde50d.compiler_builtins.5a681add74c93a61-cgu.174.rcgu.o)
 .text          0x0000000000101de0        0x0 ./gen/../tecsrustUART/target/armv7a-none-eabi/release/libitron.a(compiler_builtins-70f608aea3cde50d.compiler_builtins.5a681add74c93a61-cgu.178.rcgu.o)
 .text          0x0000000000101de0        0x0 ./gen/../tecsrustUART/target/armv7a-none-eabi/release/libitron.a(compiler_builtins-70f608aea3cde50d.compiler_builtins.5a681add74c93a61-cgu.180.rcgu.o)
 .text          0x0000000000101de0        0x0 ./gen/../tecsrustUART/target/armv7a-none-eabi/release/libitron.a(compiler_builtins-70f608aea3cde50d.compiler_builtins.5a681add74c93a61-cgu.201.rcgu.o)
 .text          0x0000000000101de0        0x0 ./gen/../tecsrustUART/target/armv7a-none-eabi/release/libitron.a(compiler_builtins-70f608aea3cde50d.compiler_builtins.5a681add74c93a61-cgu.206.rcgu.o)
 .text          0x0000000000101de0        0x0 ./gen/../tecsrustUART/target/armv7a-none-eabi/release/libitron.a(compiler_builtins-70f608aea3cde50d.compiler_builtins.5a681add74c93a61-cgu.210.rcgu.o)
 .text          0x0000000000101de0        0x0 ./gen/../tecsrustUART/target/armv7a-none-eabi/release/libitron.a(compiler_builtins-70f608aea3cde50d.compiler_builtins.5a681add74c93a61-cgu.223.rcgu.o)
 .text          0x0000000000101de0        0x0 ./gen/../tecsrustUART/target/armv7a-none-eabi/release/libitron.a(compiler_builtins-70f608aea3cde50d.compiler_builtins.5a681add74c93a61-cgu.253.rcgu.o)
 .text          0x0000000000101de0        0x0 ./gen/../tecsrustUART/target/armv7a-none-eabi/release/libitron.a(compiler_builtins-70f608aea3cde50d.compiler_builtins.5a681add74c93a61-cgu.261.rcgu.o)
 .text          0x0000000000101de0        0x0 ./gen/../tecsrustUART/target/armv7a-none-eabi/release/libitron.a(compiler_builtins-70f608aea3cde50d.compiler_builtins.5a681add74c93a61-cgu.263.rcgu.o)
 .text          0x0000000000101de0        0x0 ./gen/../tecsrustUART/target/armv7a-none-eabi/release/libitron.a(compiler_builtins-70f608aea3cde50d.compiler_builtins.5a681add74c93a61-cgu.270.rcgu.o)
 .text          0x0000000000101de0        0x0 ./gen/../tecsrustUART/target/armv7a-none-eabi/release/libitron.a(compiler_builtins-70f608aea3cde50d.compiler_builtins.5a681add74c93a61-cgu.283.rcgu.o)
 .text          0x0000000000101de0        0x0 ./gen/../tecsrustUART/target/armv7a-none-eabi/release/libitron.a(compiler_builtins-70f608aea3cde50d.compiler_builtins.5a681add74c93a61-cgu.287.rcgu.o)
 .text          0x0000000000101de0        0x0 ./gen/../tecsrustUART/target/armv7a-none-eabi/release/libitron.a(compiler_builtins-70f608aea3cde50d.compiler_builtins.5a681add74c93a61-cgu.300.rcgu.o)
 .text          0x0000000000101de0        0x0 ./gen/../tecsrustUART/target/armv7a-none-eabi/release/libitron.a(compiler_builtins-70f608aea3cde50d.compiler_builtins.5a681add74c93a61-cgu.310.rcgu.o)
 .text          0x0000000000101de0        0x0 ./gen/../tecsrustUART/target/armv7a-none-eabi/release/libitron.a(compiler_builtins-70f608aea3cde50d.compiler_builtins.5a681add74c93a61-cgu.355.rcgu.o)
 .text          0x0000000000101de0        0x0 ./gen/../tecsrustUART/target/armv7a-none-eabi/release/libitron.a(compiler_builtins-70f608aea3cde50d.compiler_builtins.5a681add74c93a61-cgu.361.rcgu.o)
 .text          0x0000000000101de0        0x0 ./gen/../tecsrustUART/target/armv7a-none-eabi/release/libitron.a(compiler_builtins-70f608aea3cde50d.compiler_builtins.5a681add74c93a61-cgu.365.rcgu.o)
 .text          0x0000000000101de0        0x0 ./gen/../tecsrustUART/target/armv7a-none-eabi/release/libitron.a(compiler_builtins-70f608aea3cde50d.compiler_builtins.5a681add74c93a61-cgu.375.rcgu.o)
 .text          0x0000000000101de0        0x0 ./gen/../tecsrustUART/target/armv7a-none-eabi/release/libitron.a(compiler_builtins-70f608aea3cde50d.compiler_builtins.5a681add74c93a61-cgu.393.rcgu.o)
 .text          0x0000000000101de0        0x0 ./gen/../tecsrustUART/target/armv7a-none-eabi/release/libitron.a(compiler_builtins-70f608aea3cde50d.compiler_builtins.5a681add74c93a61-cgu.395.rcgu.o)
 .text          0x0000000000101de0        0x0 ./gen/../tecsrustUART/target/armv7a-none-eabi/release/libitron.a(compiler_builtins-70f608aea3cde50d.compiler_builtins.5a681add74c93a61-cgu.410.rcgu.o)
 .text          0x0000000000101de0        0x0 ./gen/../tecsrustUART/target/armv7a-none-eabi/release/libitron.a(compiler_builtins-70f608aea3cde50d.compiler_builtins.5a681add74c93a61-cgu.411.rcgu.o)
 .text          0x0000000000101de0      0x1e0 ./gen/../tecsrustUART/target/armv7a-none-eabi/release/libitron.a(63f8a0b8a638da8c-udivmodsi4.o)
                0x0000000000101de0                __udivmodsi4
 .text          0x0000000000101fc0      0x1d0 ./gen/../tecsrustUART/target/armv7a-none-eabi/release/libitron.a(63f8a0b8a638da8c-udivsi3.o)
                0x0000000000101fc0                __udivsi3
                0x0000000000101fc0                __aeabi_uidiv
 .text          0x0000000000102190        0x0 ./gen/../tecsrustUART/target/armv7a-none-eabi/release/libitron.a(compiler_builtins-70f608aea3cde50d.compiler_builtins.5a681add74c93a61-cgu.000.rcgu.o)
 .text          0x0000000000102190        0x0 ./gen/../tecsrustUART/target/armv7a-none-eabi/release/libitron.a(compiler_builtins-70f608aea3cde50d.compiler_builtins.5a681add74c93a61-cgu.004.rcgu.o)
 .text          0x0000000000102190        0x0 ./gen/../tecsrustUART/target/armv7a-none-eabi/release/libitron.a(compiler_builtins-70f608aea3cde50d.compiler_builtins.5a681add74c93a61-cgu.009.rcgu.o)
 .text          0x0000000000102190        0x0 ./gen/../tecsrustUART/target/armv7a-none-eabi/release/libitron.a(compiler_builtins-70f608aea3cde50d.compiler_builtins.5a681add74c93a61-cgu.019.rcgu.o)
 .text          0x0000000000102190        0x0 ./gen/../tecsrustUART/target/armv7a-none-eabi/release/libitron.a(compiler_builtins-70f608aea3cde50d.compiler_builtins.5a681add74c93a61-cgu.347.rcgu.o)
 .text          0x0000000000102190        0x0 ./gen/../tecsrustUART/target/armv7a-none-eabi/release/libitron.a(63f8a0b8a638da8c-aeabi_div0.o)
 .text          0x0000000000102190        0x0 ./gen/../tecsrustUART/target/armv7a-none-eabi/release/libitron.a(compiler_builtins-70f608aea3cde50d.compiler_builtins.5a681add74c93a61-cgu.010.rcgu.o)
 .text          0x0000000000102190       0x80 ./libkernel.a(target_kernel_impl.o)
                0x0000000000102190                hardware_init_hook
                0x00000000001021a0                _kernel_target_mprc_initialize
                0x00000000001021c4                _kernel_target_initialize
                0x00000000001021e0                _kernel_target_exit
 .text          0x0000000000102210       0x34 ./libkernel.a(chip_kernel_impl.o)
                0x0000000000102210                _kernel_chip_initialize
                0x0000000000102240                _kernel_chip_terminate
 .text          0x0000000000102244       0x9c ./libkernel.a(mpcore_kernel_impl.o)
                0x0000000000102244                _kernel_mpcore_mprc_initialize
                0x0000000000102278                _kernel_mpcore_initialize
                0x00000000001022cc                _kernel_mpcore_terminate
 .text          0x00000000001022e0      0x340 ./libkernel.a(gic_kernel_impl.o)
                0x00000000001022e0                _kernel_gicc_initialize
                0x0000000000102314                _kernel_gicc_terminate
                0x0000000000102328                _kernel_gicd_initialize
                0x00000000001023c0                _kernel_gicd_terminate
                0x00000000001023d4                _kernel_initialize_interrupt
 .text          0x0000000000102620      0x12c ./libkernel.a(pl310.o)
                0x0000000000102620                _kernel_pl310_initialize
                0x0000000000102694                _kernel_pl310_disable
                0x00000000001026d4                _kernel_pl310_invalidate_all
                0x0000000000102710                _kernel_pl310_clean_and_invalidate_all
 .text          0x000000000010274c       0x90 ./libkernel.a(mpcore_timer.o)
                0x000000000010274c                _kernel_target_hrt_initialize
                0x0000000000102794                _kernel_target_hrt_terminate
                0x00000000001027c8                _kernel_target_hrt_handler
 .text          0x00000000001027dc      0x4f4 ./libkernel.a(core_kernel_impl.o)
                0x00000000001027dc                _kernel_arm_mmu_initialize
                0x00000000001029c4                _kernel_core_initialize
                0x0000000000102a24                _kernel_core_terminate
                0x0000000000102a28                _kernel_xlog_sys
                0x0000000000102ae4                _kernel_xlog_fsr
                0x0000000000102b64                _kernel_default_int_handler
                0x0000000000102b98                _kernel_default_exc_handler
 .text          0x0000000000102cd0      0x1b8 ./libkernel.a(arm.o)
                0x0000000000102cd0                arm_enable_icache
                0x0000000000102cec                arm_disable_icache
                0x0000000000102d04                armv7_invalidate_dcache
                0x0000000000102da8                arm_enable_dcache
                0x0000000000102dc8                armv7_clean_and_invalidate_dcache
                0x0000000000102e6c                arm_disable_dcache
 .text          0x0000000000102e88      0x3a8 ./libkernel.a(startup.o)
                0x0000000000102f00                _kernel_barrier_sync
                0x0000000000102f74                sta_ker
                0x000000000010308c                ext_ker
                0x00000000001030f4                _kernel_exit_kernel
                0x0000000000103174                _kernel_ext_ker_handler
 .text          0x0000000000103230      0x9c8 ./libkernel.a(task.o)
                0x0000000000103230                _kernel_search_schedtsk
                0x0000000000103244                _kernel_make_runnable
                0x000000000010337c                _kernel_initialize_task
                0x0000000000103490                _kernel_make_non_runnable
                0x00000000001035b4                _kernel_make_dormant
                0x00000000001035e0                _kernel_make_active
                0x000000000010360c                _kernel_change_priority
                0x00000000001038a8                _kernel_change_subprio
                0x0000000000103998                _kernel_rotate_ready_queue
                0x0000000000103a7c                _kernel_task_terminate
                0x0000000000103ba8                _kernel_migrate_self
                0x0000000000103bd0                _kernel_migrate_activate_self
 .text          0x0000000000103bf8        0x0 ./libkernel.a(taskhook.o)
 .text          0x0000000000103bf8      0x650 ./libkernel.a(wait.o)
                0x0000000000103bf8                _kernel_wait_tmout
                0x0000000000103d48                _kernel_make_wait_tmout
                0x0000000000103e04                _kernel_wait_dequeue_wobj
                0x0000000000103e20                _kernel_wait_complete
                0x0000000000103ec4                _kernel_wait_tmout_ok
                0x0000000000104000                _kernel_wobj_make_wait
                0x00000000001040a8                _kernel_wobj_make_wait_tmout
                0x0000000000104134                _kernel_init_wait_queue
 .text          0x0000000000104248      0xaf8 ./libkernel.a(time_event.o)
                0x0000000000104248                _kernel_initialize_tmevt
                0x00000000001042f4                _kernel_tmevt_up
                0x0000000000104354                _kernel_tmevt_down
                0x00000000001043f8                _kernel_update_current_evttim
                0x0000000000104480                _kernel_set_hrt_event
                0x0000000000104650                _kernel_set_hrt_event_handler
                0x0000000000104754                _kernel_tmevtb_register
                0x00000000001047ec                _kernel_tmevtb_enqueue
                0x00000000001048a0                _kernel_tmevtb_enqueue_reltim
                0x0000000000104974                _kernel_tmevtb_dequeue
                0x0000000000104a7c                _kernel_check_adjtim
                0x0000000000104b0c                _kernel_tmevt_lefttim
                0x0000000000104b44                _kernel_signal_time
 .text          0x0000000000104d40      0xb30 ./libkernel.a(task_sync.o)
                0x0000000000104d40                slp_tsk
                0x0000000000104e8c                tslp_tsk
                0x0000000000104fec                wup_tsk
                0x0000000000105158                can_wup
                0x000000000010525c                rel_wai
                0x0000000000105424                sus_tsk
                0x00000000001055b0                rsm_tsk
                0x00000000001056fc                dly_tsk
 .text          0x0000000000105870      0x87c ./libkernel.a(semaphore.o)
                0x0000000000105870                _kernel_initialize_semaphore
                0x00000000001058cc                sig_sem
                0x0000000000105a74                wai_sem
                0x0000000000105bd4                pol_sem
                0x0000000000105cc8                twai_sem
                0x0000000000105e64                ini_sem
                0x0000000000105f8c                ref_sem
 .text          0x00000000001060ec     0x1204 ./libkernel.a(dataqueue.o)
                0x00000000001060ec                _kernel_initialize_dataqueue
                0x0000000000106160                _kernel_enqueue_data
                0x0000000000106198                _kernel_force_enqueue_data
                0x00000000001061d8                _kernel_dequeue_data
                0x0000000000106214                _kernel_send_data
                0x00000000001062d8                _kernel_force_send_data
                0x0000000000106398                _kernel_receive_data
                0x0000000000106500                snd_dtq
                0x0000000000106698                psnd_dtq
                0x00000000001067cc                tsnd_dtq
                0x00000000001069a4                fsnd_dtq
                0x0000000000106ae0                rcv_dtq
                0x0000000000106cbc                prcv_dtq
                0x0000000000106df0                trcv_dtq
                0x0000000000106fe0                ini_dtq
                0x0000000000107114                ref_dtq
 .text          0x00000000001072f0      0x318 ./libkernel.a(spin_lock.o)
                0x00000000001072f0                _kernel_initialize_spin_lock
                0x0000000000107338                _kernel_force_unlock_spin
                0x0000000000107364                loc_spn
                0x0000000000107424                try_spn
                0x00000000001074c8                unl_spn
                0x0000000000107578                ref_spn
 .text          0x0000000000107608      0xb50 ./libkernel.a(sys_manage.o)
                0x0000000000107608                rot_rdq
                0x000000000010773c                mrot_rdq
                0x000000000010788c                get_tid
                0x00000000001078f4                get_pid
                0x000000000010791c                get_lod
                0x0000000000107a28                mget_lod
                0x0000000000107b4c                get_nth
                0x0000000000107c84                mget_nth
                0x0000000000107dd4                loc_cpu
                0x0000000000107dec                unl_cpu
                0x0000000000107e1c                dis_dsp
                0x0000000000107eec                ena_dsp
                0x0000000000108050                sns_ctx
                0x0000000000108080                sns_loc
                0x000000000010808c                sns_dsp
                0x00000000001080bc                sns_dpn
                0x0000000000108118                sns_ker
 .text          0x0000000000108158      0x668 ./libkernel.a(interrupt.o)
                0x0000000000108158                dis_int
                0x000000000010822c                ena_int
                0x0000000000108300                clr_int
                0x00000000001083d4                ras_int
                0x00000000001084f8                prb_int
                0x00000000001085b0                chg_ipm
                0x0000000000108758                get_ipm
 .text          0x00000000001087c0      0x3dc ./libkernel.a(core_support.o)
                0x00000000001087c0                _kernel_dispatch
                0x00000000001087ec                _kernel_start_dispatch
                0x0000000000108804                _kernel_exit_and_dispatch
                0x0000000000108834                _kernel_call_exit_kernel
                0x0000000000108844                _kernel_dispatch_and_migrate
                0x0000000000108860                _kernel_exit_and_migrate
                0x0000000000108868                _kernel_start_r
                0x0000000000108880                _kernel_irq_handler
                0x000000000010896c                _kernel_undef_handler
                0x0000000000108980                _kernel_svc_handler
                0x0000000000108990                _kernel_pabort_handler
                0x00000000001089a4                _kernel_dabort_handler
                0x0000000000108a04                _kernel_fiq_handler
                0x0000000000108b70                sil_dly_nse
 .text          0x0000000000108b9c      0x644 ./libkernel.a(task_term.o)
                0x0000000000108b9c                ext_tsk
                0x0000000000108cc0                ras_ter
                0x0000000000108e88                dis_ter
                0x0000000000108f40                ena_ter
                0x0000000000109058                sns_ter
                0x0000000000109094                ter_tsk
 .text          0x00000000001091e0       0x8c ./libkernel.a(gic_support.o)
                0x00000000001091e0                _kernel_irc_begin_int
                0x0000000000109218                _kernel_irc_end_int
                0x0000000000109228                _kernel_irc_get_intpri
                0x000000000010923c                _kernel_irc_begin_exc
                0x000000000010924c                _kernel_irc_end_exc
 .text          0x000000000010926c       0xa4 /usr/lib/gcc/arm-none-eabi/10.3.1/../../../arm-none-eabi/lib/thumb/v7-a/nofp/libc.a(lib_a-memset.o)
                0x000000000010926c                memset
 *(.text.*)
 .text._ZN68_$LT$itron..error..Error$LT$Kind$GT$$u20$as$u20$core..fmt..Debug$GT$3fmt17h14cdce66ca2c44f1E
                0x0000000000109310        0x4 ./gen/../tecsrustUART/target/armv7a-none-eabi/release/libitron.a(itron-bd237d22add3b961.itron.ddb412ddd8428b4f-cgu.0.rcgu.o)
 .text._RNvCsgYTF1aGAkck_7___rustc17rust_begin_unwind
                0x0000000000109314        0x4 ./gen/../tecsrustUART/target/armv7a-none-eabi/release/libitron.a(itron-bd237d22add3b961.itron.ddb412ddd8428b4f-cgu.0.rcgu.o)
                0x0000000000109314                __rustc::rust_begin_unwind
 .text.tecs_rust_start_r_processor1_symmetric_task1
                0x0000000000109318       0xa8 ./gen/../tecsrustUART/target/armv7a-none-eabi/release/libitron.a(itron-bd237d22add3b961.itron.ddb412ddd8428b4f-cgu.0.rcgu.o)
                0x0000000000109318                tecs_rust_start_r_processor1_symmetric_task1
 .text.tecs_rust_start_r_processor2_symmetric_task2
                0x00000000001093c0       0x78 ./gen/../tecsrustUART/target/armv7a-none-eabi/release/libitron.a(itron-bd237d22add3b961.itron.ddb412ddd8428b4f-cgu.0.rcgu.o)
                0x00000000001093c0                tecs_rust_start_r_processor2_symmetric_task2
 .text.tecs_rust_start_r_processor1_symmetric_uart_isr
                0x0000000000109438       0x54 ./gen/../tecsrustUART/target/armv7a-none-eabi/release/libitron.a(itron-bd237d22add3b961.itron.ddb412ddd8428b4f-cgu.0.rcgu.o)
                0x0000000000109438                tecs_rust_start_r_processor1_symmetric_uart_isr
 .text.tecs_rust_start_r_processor1_symmetric_uart_ini
                0x000000000010948c        0x4 ./gen/../tecsrustUART/target/armv7a-none-eabi/release/libitron.a(itron-bd237d22add3b961.itron.ddb412ddd8428b4f-cgu.0.rcgu.o)
                0x000000000010948c                tecs_rust_start_r_processor1_symmetric_uart_ini
 .text._ZN4core3fmt3num50_$LT$impl$u20$core..fmt..Debug$u20$for$u20$i32$GT$3fmt17h7a0e08473eadbc5bE
                0x0000000000109490       0x20 ./gen/../tecsrustUART/target/armv7a-none-eabi/release/libitron.a(itron-fbcb73bf0b635dd5.itron.68e737fdf62a80e5-cgu.0.rcgu.o)
 .text._ZN75_$LT$core..num..nonzero..NonZero$LT$T$GT$$u20$as$u20$core..fmt..Display$GT$3fmt17h850f84802fa3eaddE
                0x00000000001094b0       0x20 ./gen/../tecsrustUART/target/armv7a-none-eabi/release/libitron.a(itron-fbcb73bf0b635dd5.itron.68e737fdf62a80e5-cgu.0.rcgu.o)
 .text._ZN60_$LT$itron..error..ErrorCode$u20$as$u20$core..fmt..Debug$GT$3fmt17hf3b2cd5bb64ff3e9E
                0x00000000001094d0      0x2c4 ./gen/../tecsrustUART/target/armv7a-none-eabi/release/libitron.a(itron-fbcb73bf0b635dd5.itron.68e737fdf62a80e5-cgu.0.rcgu.o)
                0x00000000001094d0                <itron::error::ErrorCode as core::fmt::Debug>::fmt
 .text._ZN67_$LT$itron..dataqueue..DataqueueRef$u20$as$u20$core..fmt..Debug$GT$3fmt17h5b31219d7835aa6dE
                0x0000000000109794       0x58 ./gen/../tecsrustUART/target/armv7a-none-eabi/release/libitron.a(itron-fbcb73bf0b635dd5.itron.68e737fdf62a80e5-cgu.0.rcgu.o)
                0x0000000000109794                <itron::dataqueue::DataqueueRef as core::fmt::Debug>::fmt
 .text._ZN69_$LT$itron..memorypool..MemoryPoolRef$u20$as$u20$core..fmt..Debug$GT$3fmt17h802347f6fdaf37b2E
                0x00000000001097ec       0x58 ./gen/../tecsrustUART/target/armv7a-none-eabi/release/libitron.a(itron-fbcb73bf0b635dd5.itron.68e737fdf62a80e5-cgu.0.rcgu.o)
                0x00000000001097ec                <itron::memorypool::MemoryPoolRef as core::fmt::Debug>::fmt
 .text._ZN59_$LT$itron..mutex..MutexRef$u20$as$u20$core..fmt..Debug$GT$3fmt17h6a8d309fd5365a8bE
                0x0000000000109844       0x58 ./gen/../tecsrustUART/target/armv7a-none-eabi/release/libitron.a(itron-fbcb73bf0b635dd5.itron.68e737fdf62a80e5-cgu.0.rcgu.o)
                0x0000000000109844                <itron::mutex::MutexRef as core::fmt::Debug>::fmt
 .text._ZN64_$LT$itron..processor..Processor$u20$as$u20$core..fmt..Debug$GT$3fmt17hc75d9d03a1c196fbE
                0x000000000010989c       0x64 ./gen/../tecsrustUART/target/armv7a-none-eabi/release/libitron.a(itron-fbcb73bf0b635dd5.itron.68e737fdf62a80e5-cgu.0.rcgu.o)
                0x000000000010989c                <itron::processor::Processor as core::fmt::Debug>::fmt
 .text._ZN67_$LT$itron..semaphore..SemaphoreRef$u20$as$u20$core..fmt..Debug$GT$3fmt17haf2e3079afc34cfaE
                0x0000000000109900       0x58 ./gen/../tecsrustUART/target/armv7a-none-eabi/release/libitron.a(itron-fbcb73bf0b635dd5.itron.68e737fdf62a80e5-cgu.0.rcgu.o)
                0x0000000000109900                <itron::semaphore::SemaphoreRef as core::fmt::Debug>::fmt
 .text._ZN57_$LT$itron..task..TaskRef$u20$as$u20$core..fmt..Debug$GT$3fmt17h29082a565a1f7a0fE
                0x0000000000109958       0x58 ./gen/../tecsrustUART/target/armv7a-none-eabi/release/libitron.a(itron-fbcb73bf0b635dd5.itron.68e737fdf62a80e5-cgu.0.rcgu.o)
                0x0000000000109958                <itron::task::TaskRef as core::fmt::Debug>::fmt
 .text._ZN5itron4task7current17he5bb96fe6f36c460E
                0x00000000001099b0       0x4c ./gen/../tecsrustUART/target/armv7a-none-eabi/release/libitron.a(itron-fbcb73bf0b635dd5.itron.68e737fdf62a80e5-cgu.0.rcgu.o)
                0x00000000001099b0                itron::task::current
 .text._ZN4core3num7dec2flt11decimal_seq10DecimalSeq4trim17h5efee5ea5ccf409eE
                0x00000000001099fc       0x58 ./gen/../tecsrustUART/target/armv7a-none-eabi/release/libitron.a(core-d049573bc16596f9.core.5587a85061e7188a-cgu.0.rcgu.o)
                0x00000000001099fc                core::num::dec2flt::decimal_seq::DecimalSeq::trim
 .text._ZN4core3num7dec2flt11decimal_seq10DecimalSeq5round17h25fcaa510171f10cE
                0x0000000000109a54       0xf0 ./gen/../tecsrustUART/target/armv7a-none-eabi/release/libitron.a(core-d049573bc16596f9.core.5587a85061e7188a-cgu.0.rcgu.o)
                0x0000000000109a54                core::num::dec2flt::decimal_seq::DecimalSeq::round
 .text._ZN4core3num7dec2flt11decimal_seq10DecimalSeq10left_shift17hc6cf7434fa18fb28E
                0x0000000000109b44      0x310 ./gen/../tecsrustUART/target/armv7a-none-eabi/release/libitron.a(core-d049573bc16596f9.core.5587a85061e7188a-cgu.0.rcgu.o)
                0x0000000000109b44                core::num::dec2flt::decimal_seq::DecimalSeq::left_shift
 .text._ZN4core3num7dec2flt11decimal_seq10DecimalSeq11right_shift17hb4403252d794ad85E
                0x0000000000109e54      0x2c8 ./gen/../tecsrustUART/target/armv7a-none-eabi/release/libitron.a(core-d049573bc16596f9.core.5587a85061e7188a-cgu.0.rcgu.o)
                0x0000000000109e54                core::num::dec2flt::decimal_seq::DecimalSeq::right_shift
 .text._ZN4core3num7dec2flt11decimal_seq17parse_decimal_seq17h720ae35c33f1ca0cE
                0x000000000010a11c      0x4a0 ./gen/../tecsrustUART/target/armv7a-none-eabi/release/libitron.a(core-d049573bc16596f9.core.5587a85061e7188a-cgu.0.rcgu.o)
                0x000000000010a11c                core::num::dec2flt::decimal_seq::parse_decimal_seq
 .text._ZN59_$LT$f32$u20$as$u20$core..num..dec2flt..float..RawFloat$GT$15pow10_fast_path17h6e48b725f9e4ea17E
                0x000000000010a5bc       0x1c ./gen/../tecsrustUART/target/armv7a-none-eabi/release/libitron.a(core-d049573bc16596f9.core.5587a85061e7188a-cgu.0.rcgu.o)
                0x000000000010a5bc                <f32 as core::num::dec2flt::float::RawFloat>::pow10_fast_path
 .text._ZN59_$LT$f64$u20$as$u20$core..num..dec2flt..float..RawFloat$GT$15pow10_fast_path17h11f46422e910817bE
                0x000000000010a5d8       0x20 ./gen/../tecsrustUART/target/armv7a-none-eabi/release/libitron.a(core-d049573bc16596f9.core.5587a85061e7188a-cgu.0.rcgu.o)
                0x000000000010a5d8                <f64 as core::num::dec2flt::float::RawFloat>::pow10_fast_path
 .text._ZN4core3num7dec2flt6lemire13compute_float17h16a9ae03feeaa31dE
                0x000000000010a5f8      0x28c ./gen/../tecsrustUART/target/armv7a-none-eabi/release/libitron.a(core-d049573bc16596f9.core.5587a85061e7188a-cgu.0.rcgu.o)
 .text._ZN4core3num7dec2flt6lemire13compute_float17h6afe090d7f4e8ea6E
                0x000000000010a884      0x314 ./gen/../tecsrustUART/target/armv7a-none-eabi/release/libitron.a(core-d049573bc16596f9.core.5587a85061e7188a-cgu.0.rcgu.o)
 .text._ZN4core3num7dec2flt6lemire13compute_float17ha99c48ca86bcebfaE
                0x000000000010ab98      0x320 ./gen/../tecsrustUART/target/armv7a-none-eabi/release/libitron.a(core-d049573bc16596f9.core.5587a85061e7188a-cgu.0.rcgu.o)
 .text._ZN4core3num7dec2flt6lemire22compute_product_approx17h46540bfe977aa735E
                0x000000000010aeb8       0xfc ./gen/../tecsrustUART/target/armv7a-none-eabi/release/libitron.a(core-d049573bc16596f9.core.5587a85061e7188a-cgu.0.rcgu.o)
                0x000000000010aeb8                core::num::dec2flt::lemire::compute_product_approx
 .text._ZN4core3num7dec2flt5parse12parse_number17hac599539be123f0aE
                0x000000000010afb4      0x680 ./gen/../tecsrustUART/target/armv7a-none-eabi/release/libitron.a(core-d049573bc16596f9.core.5587a85061e7188a-cgu.0.rcgu.o)
                0x000000000010afb4                core::num::dec2flt::parse::parse_number
 .text._ZN74_$LT$core..num..dec2flt..ParseFloatError$u20$as$u20$core..fmt..Display$GT$3fmt17he75ae9ab1989a457E
                0x000000000010b634       0x48 ./gen/../tecsrustUART/target/armv7a-none-eabi/release/libitron.a(core-d049573bc16596f9.core.5587a85061e7188a-cgu.0.rcgu.o)
                0x000000000010b634                <core::num::dec2flt::ParseFloatError as core::fmt::Display>::fmt
 .text._ZN4core3num9diy_float2Fp3mul17h224020beff8dcf6eE
                0x000000000010b67c       0x58 ./gen/../tecsrustUART/target/armv7a-none-eabi/release/libitron.a(core-d049573bc16596f9.core.5587a85061e7188a-cgu.0.rcgu.o)
                0x000000000010b67c                core::num::diy_float::Fp::mul
 .text._ZN4core3num9diy_float2Fp9normalize17h769495316c3164f0E
                0x000000000010b6d4       0x4c ./gen/../tecsrustUART/target/armv7a-none-eabi/release/libitron.a(core-d049573bc16596f9.core.5587a85061e7188a-cgu.0.rcgu.o)
                0x000000000010b6d4                core::num::diy_float::Fp::normalize
 .text._ZN4core3num9diy_float2Fp12normalize_to17h65a8e137fe2a9b34E
                0x000000000010b720       0xc8 ./gen/../tecsrustUART/target/armv7a-none-eabi/release/libitron.a(core-d049573bc16596f9.core.5587a85061e7188a-cgu.0.rcgu.o)
                0x000000000010b720                core::num::diy_float::Fp::normalize_to
 .text._ZN4core3num7flt2dec9estimator23estimate_scaling_factor17h5aed770e3586ed17E
                0x000000000010b7e8       0x40 ./gen/../tecsrustUART/target/armv7a-none-eabi/release/libitron.a(core-d049573bc16596f9.core.5587a85061e7188a-cgu.0.rcgu.o)
                0x000000000010b7e8                core::num::flt2dec::estimator::estimate_scaling_factor
 .text._ZN4core3num7flt2dec8strategy6dragon9mul_pow1017h8de41a198f06ceffE
                0x000000000010b828      0x268 ./gen/../tecsrustUART/target/armv7a-none-eabi/release/libitron.a(core-d049573bc16596f9.core.5587a85061e7188a-cgu.0.rcgu.o)
                0x000000000010b828                core::num::flt2dec::strategy::dragon::mul_pow10
 .text._ZN4core3num7flt2dec8strategy6dragon15format_shortest17hb5e0ae7b6971114eE
                0x000000000010ba90      0xd24 ./gen/../tecsrustUART/target/armv7a-none-eabi/release/libitron.a(core-d049573bc16596f9.core.5587a85061e7188a-cgu.0.rcgu.o)
                0x000000000010ba90                core::num::flt2dec::strategy::dragon::format_shortest
 .text._ZN4core3num7flt2dec8strategy6dragon12format_exact17h413b0182ae77793eE
                0x000000000010c7b4      0xb6c ./gen/../tecsrustUART/target/armv7a-none-eabi/release/libitron.a(core-d049573bc16596f9.core.5587a85061e7188a-cgu.0.rcgu.o)
                0x000000000010c7b4                core::num::flt2dec::strategy::dragon::format_exact
 .text._ZN4core3num7flt2dec8strategy5grisu12cached_power17h40510fc142d30e5bE
                0x000000000010d320       0x70 ./gen/../tecsrustUART/target/armv7a-none-eabi/release/libitron.a(core-d049573bc16596f9.core.5587a85061e7188a-cgu.0.rcgu.o)
                0x000000000010d320                core::num::flt2dec::strategy::grisu::cached_power
 .text._ZN4core3num7flt2dec8strategy5grisu19format_shortest_opt17ha7dc55675409a111E
                0x000000000010d390      0x9e4 ./gen/../tecsrustUART/target/armv7a-none-eabi/release/libitron.a(core-d049573bc16596f9.core.5587a85061e7188a-cgu.0.rcgu.o)
                0x000000000010d390                core::num::flt2dec::strategy::grisu::format_shortest_opt
 .text._ZN4core3num7flt2dec8strategy5grisu15format_shortest17hcc7bcdc55f306e7cE
                0x000000000010dd74       0x5c ./gen/../tecsrustUART/target/armv7a-none-eabi/release/libitron.a(core-d049573bc16596f9.core.5587a85061e7188a-cgu.0.rcgu.o)
                0x000000000010dd74                core::num::flt2dec::strategy::grisu::format_shortest
 .text._ZN4core3num7flt2dec8strategy5grisu16format_exact_opt17h10c7733a2f424f87E
                0x000000000010ddd0      0x580 ./gen/../tecsrustUART/target/armv7a-none-eabi/release/libitron.a(core-d049573bc16596f9.core.5587a85061e7188a-cgu.0.rcgu.o)
                0x000000000010ddd0                core::num::flt2dec::strategy::grisu::format_exact_opt
 .text._ZN4core3num7flt2dec8strategy5grisu16format_exact_opt14possibly_round17h324fa6da31e0b7a0E
                0x000000000010e350      0x234 ./gen/../tecsrustUART/target/armv7a-none-eabi/release/libitron.a(core-d049573bc16596f9.core.5587a85061e7188a-cgu.0.rcgu.o)
 .text._ZN4core3num7flt2dec8strategy5grisu12format_exact17h78d277690b9100bfE
                0x000000000010e584       0x6c ./gen/../tecsrustUART/target/armv7a-none-eabi/release/libitron.a(core-d049573bc16596f9.core.5587a85061e7188a-cgu.0.rcgu.o)
                0x000000000010e584                core::num::flt2dec::strategy::grisu::format_exact
 .text._ZN4core3num7flt2dec8round_up17hdfef968791b3b8f1E
                0x000000000010e5f0       0xb8 ./gen/../tecsrustUART/target/armv7a-none-eabi/release/libitron.a(core-d049573bc16596f9.core.5587a85061e7188a-cgu.0.rcgu.o)
                0x000000000010e5f0                core::num::flt2dec::round_up
 .text._ZN4core3num7flt2dec17digits_to_dec_str17h4ef03e8f4c666413E
                0x000000000010e6a8      0x17c ./gen/../tecsrustUART/target/armv7a-none-eabi/release/libitron.a(core-d049573bc16596f9.core.5587a85061e7188a-cgu.0.rcgu.o)
                0x000000000010e6a8                core::num::flt2dec::digits_to_dec_str
 .text._ZN4core3num7flt2dec17digits_to_exp_str17hc40222548b9d8bc0E
                0x000000000010e824      0x180 ./gen/../tecsrustUART/target/armv7a-none-eabi/release/libitron.a(core-d049573bc16596f9.core.5587a85061e7188a-cgu.0.rcgu.o)
                0x000000000010e824                core::num::flt2dec::digits_to_exp_str
 .text._ZN4core3num3fmt4Part5write17h5157de02cd0761b1E
                0x000000000010e9a4      0x18c ./gen/../tecsrustUART/target/armv7a-none-eabi/release/libitron.a(core-d049573bc16596f9.core.5587a85061e7188a-cgu.0.rcgu.o)
                0x000000000010e9a4                core::num::fmt::Part::write
 .text._ZN4core3num3fmt9Formatted3len17ha07e1e9353604e1bE
                0x000000000010eb30       0xa4 ./gen/../tecsrustUART/target/armv7a-none-eabi/release/libitron.a(core-d049573bc16596f9.core.5587a85061e7188a-cgu.0.rcgu.o)
                0x000000000010eb30                core::num::fmt::Formatted::len
 .text._ZN4core3num3fmt9Formatted5write17h99ed3f4f2997298bE
                0x000000000010ebd4       0xac ./gen/../tecsrustUART/target/armv7a-none-eabi/release/libitron.a(core-d049573bc16596f9.core.5587a85061e7188a-cgu.0.rcgu.o)
                0x000000000010ebd4                core::num::fmt::Formatted::write
 .text._ZN72_$LT$core..num..error..TryFromIntError$u20$as$u20$core..fmt..Display$GT$3fmt17hce3ba6a6f2a6094bE
                0x000000000010ec80       0x20 ./gen/../tecsrustUART/target/armv7a-none-eabi/release/libitron.a(core-d049573bc16596f9.core.5587a85061e7188a-cgu.0.rcgu.o)
                0x000000000010ec80                <core::num::error::TryFromIntError as core::fmt::Display>::fmt
 .text._ZN70_$LT$core..num..error..ParseIntError$u20$as$u20$core..fmt..Display$GT$3fmt17hbaea7be47c23092bE
                0x000000000010eca0       0x34 ./gen/../tecsrustUART/target/armv7a-none-eabi/release/libitron.a(core-d049573bc16596f9.core.5587a85061e7188a-cgu.0.rcgu.o)
                0x000000000010eca0                <core::num::error::ParseIntError as core::fmt::Display>::fmt
 .text.unlikely._ZN4core3num9int_log1030panic_for_nonpositive_argument17h1277070ab48dc16bE
                0x000000000010ecd4       0x40 ./gen/../tecsrustUART/target/armv7a-none-eabi/release/libitron.a(core-d049573bc16596f9.core.5587a85061e7188a-cgu.0.rcgu.o)
                0x000000000010ecd4                core::num::int_log10::panic_for_nonpositive_argument
 .text.unlikely._ZN4core3num8int_sqrt27panic_for_negative_argument17h646ece1cae3b97dbE
                0x000000000010ed14       0x40 ./gen/../tecsrustUART/target/armv7a-none-eabi/release/libitron.a(core-d049573bc16596f9.core.5587a85061e7188a-cgu.0.rcgu.o)
                0x000000000010ed14                core::num::int_sqrt::panic_for_negative_argument
 .text.unlikely._ZN4core3num14overflow_panic3add17hf194787efb41c60bE
                0x000000000010ed54       0x40 ./gen/../tecsrustUART/target/armv7a-none-eabi/release/libitron.a(core-d049573bc16596f9.core.5587a85061e7188a-cgu.0.rcgu.o)
                0x000000000010ed54                core::num::overflow_panic::add
 .text.unlikely._ZN4core3num14overflow_panic3sub17he2e76c1521f0700fE
                0x000000000010ed94       0x40 ./gen/../tecsrustUART/target/armv7a-none-eabi/release/libitron.a(core-d049573bc16596f9.core.5587a85061e7188a-cgu.0.rcgu.o)
                0x000000000010ed94                core::num::overflow_panic::sub
 .text.unlikely._ZN4core3num14overflow_panic3mul17h60bfb5e03c5b71e3E
                0x000000000010edd4       0x40 ./gen/../tecsrustUART/target/armv7a-none-eabi/release/libitron.a(core-d049573bc16596f9.core.5587a85061e7188a-cgu.0.rcgu.o)
                0x000000000010edd4                core::num::overflow_panic::mul
 .text.unlikely._ZN4core3num14overflow_panic3div17h31ae6e9c5fc383d9E
                0x000000000010ee14       0x40 ./gen/../tecsrustUART/target/armv7a-none-eabi/release/libitron.a(core-d049573bc16596f9.core.5587a85061e7188a-cgu.0.rcgu.o)
                0x000000000010ee14                core::num::overflow_panic::div
 .text.unlikely._ZN4core3num14overflow_panic3rem17h60333cfee06b13cdE
                0x000000000010ee54       0x40 ./gen/../tecsrustUART/target/armv7a-none-eabi/release/libitron.a(core-d049573bc16596f9.core.5587a85061e7188a-cgu.0.rcgu.o)
                0x000000000010ee54                core::num::overflow_panic::rem
 .text.unlikely._ZN4core3num14overflow_panic3neg17h94a197b7d7b20279E
                0x000000000010ee94       0x40 ./gen/../tecsrustUART/target/armv7a-none-eabi/release/libitron.a(core-d049573bc16596f9.core.5587a85061e7188a-cgu.0.rcgu.o)
                0x000000000010ee94                core::num::overflow_panic::neg
 .text.unlikely._ZN4core3num14overflow_panic3shr17h1944cb74e27c390cE
                0x000000000010eed4       0x40 ./gen/../tecsrustUART/target/armv7a-none-eabi/release/libitron.a(core-d049573bc16596f9.core.5587a85061e7188a-cgu.0.rcgu.o)
                0x000000000010eed4                core::num::overflow_panic::shr
 .text.unlikely._ZN4core3num14overflow_panic3shl17hc7ecc243b6763a66E
                0x000000000010ef14       0x40 ./gen/../tecsrustUART/target/armv7a-none-eabi/release/libitron.a(core-d049573bc16596f9.core.5587a85061e7188a-cgu.0.rcgu.o)
                0x000000000010ef14                core::num::overflow_panic::shl
 .text.unlikely._ZN4core3num22from_ascii_radix_panic17h345174f03d72ebe3E
                0x000000000010ef54        0xc ./gen/../tecsrustUART/target/armv7a-none-eabi/release/libitron.a(core-d049573bc16596f9.core.5587a85061e7188a-cgu.0.rcgu.o)
                0x000000000010ef54                core::num::from_ascii_radix_panic
 .text._ZN76_$LT$core..mem..transmutability..Assume$u20$as$u20$core..ops..arith..Sub$GT$3sub17h21ed15b6645713d8E
                0x000000000010ef60       0x48 ./gen/../tecsrustUART/target/armv7a-none-eabi/release/libitron.a(core-d049573bc16596f9.core.5587a85061e7188a-cgu.0.rcgu.o)
                0x000000000010ef60                <core::mem::transmutability::Assume as core::ops::arith::Sub>::sub
 .text._ZN68_$LT$core..ptr..alignment..Alignment$u20$as$u20$core..fmt..Debug$GT$3fmt17hd2f4df9dbd6e2f86E
                0x000000000010efa8       0x88 ./gen/../tecsrustUART/target/armv7a-none-eabi/release/libitron.a(core-d049573bc16596f9.core.5587a85061e7188a-cgu.0.rcgu.o)
                0x000000000010efa8                <core::ptr::alignment::Alignment as core::fmt::Debug>::fmt
 .text._ZN69_$LT$core..ffi..c_str..CStr$u20$as$u20$core..clone..CloneToUninit$GT$15clone_to_uninit17h80a4ef3d92070d94E
                0x000000000010f030       0x20 ./gen/../tecsrustUART/target/armv7a-none-eabi/release/libitron.a(core-d049573bc16596f9.core.5587a85061e7188a-cgu.0.rcgu.o)
                0x000000000010f030                <core::ffi::c_str::CStr as core::clone::CloneToUninit>::clone_to_uninit
 .text._ZN57_$LT$core..error..Request$u20$as$u20$core..fmt..Debug$GT$3fmt17h5f561f753496d82cE
                0x000000000010f050       0x54 ./gen/../tecsrustUART/target/armv7a-none-eabi/release/libitron.a(core-d049573bc16596f9.core.5587a85061e7188a-cgu.0.rcgu.o)
                0x000000000010f050                <core::error::Request as core::fmt::Debug>::fmt
 .text._ZN78_$LT$core..error..Source$u20$as$u20$core..iter..traits..iterator..Iterator$GT$4next17h4a1fc4a2554e7eceE
                0x000000000010f0a4       0x4c ./gen/../tecsrustUART/target/armv7a-none-eabi/release/libitron.a(core-d049573bc16596f9.core.5587a85061e7188a-cgu.0.rcgu.o)
                0x000000000010f0a4                <core::error::Source as core::iter::traits::iterator::Iterator>::next
 .text._ZN64_$LT$core..ops..range..RangeFull$u20$as$u20$core..fmt..Debug$GT$3fmt17h424403ffd1288619E
                0x000000000010f0f0       0x24 ./gen/../tecsrustUART/target/armv7a-none-eabi/release/libitron.a(core-d049573bc16596f9.core.5587a85061e7188a-cgu.0.rcgu.o)
                0x000000000010f0f0                <core::ops::range::RangeFull as core::fmt::Debug>::fmt
 .text._ZN71_$LT$core..ops..range..Range$LT$Idx$GT$$u20$as$u20$core..fmt..Debug$GT$3fmt17ha953e6102122b0f8E
                0x000000000010f114      0x1c8 ./gen/../tecsrustUART/target/armv7a-none-eabi/release/libitron.a(core-d049573bc16596f9.core.5587a85061e7188a-cgu.0.rcgu.o)
 .text._ZN105_$LT$dyn$u20$core..any..Any$u2b$core..marker..Sync$u2b$core..marker..Send$u20$as$u20$core..fmt..Debug$GT$3fmt17habd8592b3ad60da5E
                0x000000000010f2dc       0x54 ./gen/../tecsrustUART/target/armv7a-none-eabi/release/libitron.a(core-d049573bc16596f9.core.5587a85061e7188a-cgu.0.rcgu.o)
                0x000000000010f2dc                <dyn core::any::Any+core::marker::Send as core::fmt::Debug>::fmt
                0x000000000010f2dc                <dyn core::any::Any as core::fmt::Debug>::fmt
                0x000000000010f2dc                <dyn core::any::Any+core::marker::Sync+core::marker::Send as core::fmt::Debug>::fmt
 .text._ZN54_$LT$core..any..TypeId$u20$as$u20$core..fmt..Debug$GT$3fmt17h85ceed27d8f181fdE
                0x000000000010f330       0x78 ./gen/../tecsrustUART/target/armv7a-none-eabi/release/libitron.a(core-d049573bc16596f9.core.5587a85061e7188a-cgu.0.rcgu.o)
                0x000000000010f330                <core::any::TypeId as core::fmt::Debug>::fmt
 .text._ZN73_$LT$core..ascii..ascii_char..AsciiChar$u20$as$u20$core..fmt..Display$GT$3fmt17h8431bf4e4f9d1f68E
                0x000000000010f3a8       0x20 ./gen/../tecsrustUART/target/armv7a-none-eabi/release/libitron.a(core-d049573bc16596f9.core.5587a85061e7188a-cgu.0.rcgu.o)
                0x000000000010f3a8                <core::ascii::ascii_char::AsciiChar as core::fmt::Display>::fmt
 .text._ZN71_$LT$core..ascii..ascii_char..AsciiChar$u20$as$u20$core..fmt..Debug$GT$3fmt17h177c64a4e196f32cE
                0x000000000010f3c8      0x1a8 ./gen/../tecsrustUART/target/armv7a-none-eabi/release/libitron.a(core-d049573bc16596f9.core.5587a85061e7188a-cgu.0.rcgu.o)
                0x000000000010f3c8                <core::ascii::ascii_char::AsciiChar as core::fmt::Debug>::fmt
 .text._ZN4core5ascii14escape_default17h981d8e307eaaa916E
                0x000000000010f570       0x98 ./gen/../tecsrustUART/target/armv7a-none-eabi/release/libitron.a(core-d049573bc16596f9.core.5587a85061e7188a-cgu.0.rcgu.o)
                0x000000000010f570                core::ascii::escape_default
 .text._ZN65_$LT$core..ascii..EscapeDefault$u20$as$u20$core..fmt..Display$GT$3fmt17he735515427ec3f2cE
                0x000000000010f608       0x30 ./gen/../tecsrustUART/target/armv7a-none-eabi/release/libitron.a(core-d049573bc16596f9.core.5587a85061e7188a-cgu.0.rcgu.o)
                0x000000000010f608                <core::ascii::EscapeDefault as core::fmt::Display>::fmt
 .text._ZN63_$LT$core..ascii..EscapeDefault$u20$as$u20$core..fmt..Debug$GT$3fmt17h46f02f61de5321cbE
                0x000000000010f638       0x54 ./gen/../tecsrustUART/target/armv7a-none-eabi/release/libitron.a(core-d049573bc16596f9.core.5587a85061e7188a-cgu.0.rcgu.o)
                0x000000000010f638                <core::ascii::EscapeDefault as core::fmt::Debug>::fmt
 .text._ZN56_$LT$core..bstr..ByteStr$u20$as$u20$core..fmt..Debug$GT$3fmt17h8b572b2661a1de36E
                0x000000000010f68c      0x310 ./gen/../tecsrustUART/target/armv7a-none-eabi/release/libitron.a(core-d049573bc16596f9.core.5587a85061e7188a-cgu.0.rcgu.o)
                0x000000000010f68c                <core::bstr::ByteStr as core::fmt::Debug>::fmt
 .text._ZN58_$LT$core..bstr..ByteStr$u20$as$u20$core..fmt..Display$GT$3fmt17he4ae28f23ce65a58E
                0x000000000010f99c      0x340 ./gen/../tecsrustUART/target/armv7a-none-eabi/release/libitron.a(core-d049573bc16596f9.core.5587a85061e7188a-cgu.0.rcgu.o)
                0x000000000010f99c                <core::bstr::ByteStr as core::fmt::Display>::fmt
 .text.unlikely._ZN4core4cell4lazy14panic_poisoned17h8eb5d443042c4736E
                0x000000000010fcdc       0x44 ./gen/../tecsrustUART/target/armv7a-none-eabi/release/libitron.a(core-d049573bc16596f9.core.5587a85061e7188a-cgu.0.rcgu.o)
                0x000000000010fcdc                core::cell::lazy::panic_poisoned
 .text._ZN60_$LT$core..cell..BorrowError$u20$as$u20$core..fmt..Debug$GT$3fmt17h56da770da5e11014E
                0x000000000010fd20       0x24 ./gen/../tecsrustUART/target/armv7a-none-eabi/release/libitron.a(core-d049573bc16596f9.core.5587a85061e7188a-cgu.0.rcgu.o)
                0x000000000010fd20                <core::cell::BorrowError as core::fmt::Debug>::fmt
 .text._ZN62_$LT$core..cell..BorrowError$u20$as$u20$core..fmt..Display$GT$3fmt17h649aaf4112417b69E
                0x000000000010fd44       0x20 ./gen/../tecsrustUART/target/armv7a-none-eabi/release/libitron.a(core-d049573bc16596f9.core.5587a85061e7188a-cgu.0.rcgu.o)
                0x000000000010fd44                <core::cell::BorrowError as core::fmt::Display>::fmt
 .text._ZN63_$LT$core..cell..BorrowMutError$u20$as$u20$core..fmt..Debug$GT$3fmt17h5dd54cc4ab093714E
                0x000000000010fd64       0x24 ./gen/../tecsrustUART/target/armv7a-none-eabi/release/libitron.a(core-d049573bc16596f9.core.5587a85061e7188a-cgu.0.rcgu.o)
                0x000000000010fd64                <core::cell::BorrowMutError as core::fmt::Debug>::fmt
 .text._ZN65_$LT$core..cell..BorrowMutError$u20$as$u20$core..fmt..Display$GT$3fmt17h2f7647931a1ef38bE
                0x000000000010fd88       0x20 ./gen/../tecsrustUART/target/armv7a-none-eabi/release/libitron.a(core-d049573bc16596f9.core.5587a85061e7188a-cgu.0.rcgu.o)
                0x000000000010fd88                <core::cell::BorrowMutError as core::fmt::Display>::fmt
 .text.unlikely._ZN4core4cell22panic_already_borrowed17h058b49ead05ac00bE
                0x000000000010fda8       0x54 ./gen/../tecsrustUART/target/armv7a-none-eabi/release/libitron.a(core-d049573bc16596f9.core.5587a85061e7188a-cgu.0.rcgu.o)
                0x000000000010fda8                core::cell::panic_already_borrowed
 .text.unlikely._ZN4core4cell30panic_already_mutably_borrowed17h9c448cf1bc13461aE
                0x000000000010fdfc       0x54 ./gen/../tecsrustUART/target/armv7a-none-eabi/release/libitron.a(core-d049573bc16596f9.core.5587a85061e7188a-cgu.0.rcgu.o)
                0x000000000010fdfc                core::cell::panic_already_mutably_borrowed
 .text._ZN74_$LT$core..char..convert..ParseCharError$u20$as$u20$core..fmt..Display$GT$3fmt17hcaa7912ed162bf56E
                0x000000000010fe50       0x48 ./gen/../tecsrustUART/target/armv7a-none-eabi/release/libitron.a(core-d049573bc16596f9.core.5587a85061e7188a-cgu.0.rcgu.o)
                0x000000000010fe50                <core::char::convert::ParseCharError as core::fmt::Display>::fmt
 .text._ZN76_$LT$core..char..convert..CharTryFromError$u20$as$u20$core..fmt..Display$GT$3fmt17h19f1ba4eab42fadcE
                0x000000000010fe98       0x20 ./gen/../tecsrustUART/target/armv7a-none-eabi/release/libitron.a(core-d049573bc16596f9.core.5587a85061e7188a-cgu.0.rcgu.o)
                0x000000000010fe98                <core::char::convert::CharTryFromError as core::fmt::Display>::fmt
 .text._ZN75_$LT$core..char..decode..DecodeUtf16Error$u20$as$u20$core..fmt..Display$GT$3fmt17hdcf3babdf2cfe76aE
                0x000000000010feb8       0x54 ./gen/../tecsrustUART/target/armv7a-none-eabi/release/libitron.a(core-d049573bc16596f9.core.5587a85061e7188a-cgu.0.rcgu.o)
                0x000000000010feb8                <core::char::decode::DecodeUtf16Error as core::fmt::Display>::fmt
 .text._ZN4core4char7methods22_$LT$impl$u20$char$GT$16escape_debug_ext17hd46ad63d40b7f951E
                0x000000000010ff0c      0x3c0 ./gen/../tecsrustUART/target/armv7a-none-eabi/release/libitron.a(core-d049573bc16596f9.core.5587a85061e7188a-cgu.0.rcgu.o)
 .text._ZN64_$LT$core..char..EscapeDefault$u20$as$u20$core..fmt..Display$GT$3fmt17h38aec28b84124e92E
                0x00000000001102cc       0x30 ./gen/../tecsrustUART/target/armv7a-none-eabi/release/libitron.a(core-d049573bc16596f9.core.5587a85061e7188a-cgu.0.rcgu.o)
                0x00000000001102cc                <core::char::EscapeUnicode as core::fmt::Display>::fmt
                0x00000000001102cc                <core::char::EscapeDefault as core::fmt::Display>::fmt
 .text._ZN62_$LT$core..char..EscapeDebug$u20$as$u20$core..fmt..Display$GT$3fmt17hafc69afb2cba63d2E
                0x00000000001102fc       0x50 ./gen/../tecsrustUART/target/armv7a-none-eabi/release/libitron.a(core-d049573bc16596f9.core.5587a85061e7188a-cgu.0.rcgu.o)
                0x00000000001102fc                <core::char::EscapeDebug as core::fmt::Display>::fmt
 .text._ZN86_$LT$core..char..CaseMappingIter$u20$as$u20$core..iter..traits..iterator..Iterator$GT$4next17h387613f301dd4fd8E
                0x000000000011034c       0x28 ./gen/../tecsrustUART/target/armv7a-none-eabi/release/libitron.a(core-d049573bc16596f9.core.5587a85061e7188a-cgu.0.rcgu.o)
                0x000000000011034c                <core::char::CaseMappingIter as core::iter::traits::iterator::Iterator>::next
 .text._ZN86_$LT$core..char..CaseMappingIter$u20$as$u20$core..iter..traits..iterator..Iterator$GT$5count17h9c99394d14e09439E
                0x0000000000110374       0x14 ./gen/../tecsrustUART/target/armv7a-none-eabi/release/libitron.a(core-d049573bc16596f9.core.5587a85061e7188a-cgu.0.rcgu.o)
                0x0000000000110374                <core::char::CaseMappingIter as core::iter::traits::iterator::Iterator>::count
 .text._ZN86_$LT$core..char..CaseMappingIter$u20$as$u20$core..iter..traits..iterator..Iterator$GT$4last17h4812d7f7192ee524E
                0x0000000000110388       0x40 ./gen/../tecsrustUART/target/armv7a-none-eabi/release/libitron.a(core-d049573bc16596f9.core.5587a85061e7188a-cgu.0.rcgu.o)
                0x0000000000110388                <core::char::CaseMappingIter as core::iter::traits::iterator::Iterator>::last
 .text._ZN86_$LT$core..char..CaseMappingIter$u20$as$u20$core..iter..traits..iterator..Iterator$GT$10advance_by17h0f8a06432075b566E
                0x00000000001103c8       0x28 ./gen/../tecsrustUART/target/armv7a-none-eabi/release/libitron.a(core-d049573bc16596f9.core.5587a85061e7188a-cgu.0.rcgu.o)
                0x00000000001103c8                <core::char::CaseMappingIter as core::iter::traits::iterator::Iterator>::advance_by
 .text._ZN86_$LT$core..char..CaseMappingIter$u20$as$u20$core..iter..traits..iterator..Iterator$GT$24__iterator_get_unchecked17hee300516a572f4b8E
                0x00000000001103f0       0x1c ./gen/../tecsrustUART/target/armv7a-none-eabi/release/libitron.a(core-d049573bc16596f9.core.5587a85061e7188a-cgu.0.rcgu.o)
                0x00000000001103f0                <core::char::CaseMappingIter as core::iter::traits::iterator::Iterator>::__iterator_get_unchecked
 .text._ZN101_$LT$core..char..CaseMappingIter$u20$as$u20$core..iter..traits..double_ended..DoubleEndedIterator$GT$9next_back17h0013dfa0a23bb5c3E
                0x000000000011040c       0x2c ./gen/../tecsrustUART/target/armv7a-none-eabi/release/libitron.a(core-d049573bc16596f9.core.5587a85061e7188a-cgu.0.rcgu.o)
                0x000000000011040c                <core::char::CaseMappingIter as core::iter::traits::double_ended::DoubleEndedIterator>::next_back
 .text._ZN101_$LT$core..char..CaseMappingIter$u20$as$u20$core..iter..traits..double_ended..DoubleEndedIterator$GT$15advance_back_by17h0e7ec4b92a9eb744E
                0x0000000000110438       0x28 ./gen/../tecsrustUART/target/armv7a-none-eabi/release/libitron.a(core-d049573bc16596f9.core.5587a85061e7188a-cgu.0.rcgu.o)
                0x0000000000110438                <core::char::CaseMappingIter as core::iter::traits::double_ended::DoubleEndedIterator>::advance_back_by
 .text._ZN67_$LT$core..char..TryFromCharError$u20$as$u20$core..fmt..Display$GT$3fmt17hbf1b0a686f8a1a69E
                0x0000000000110460       0x20 ./gen/../tecsrustUART/target/armv7a-none-eabi/release/libitron.a(core-d049573bc16596f9.core.5587a85061e7188a-cgu.0.rcgu.o)
                0x0000000000110460                <core::char::TryFromCharError as core::fmt::Display>::fmt
 .text._ZN79_$LT$core..ffi..c_str..FromBytesUntilNulError$u20$as$u20$core..fmt..Display$GT$3fmt17h71f2c90ca2a80addE
                0x0000000000110480       0x24 ./gen/../tecsrustUART/target/armv7a-none-eabi/release/libitron.a(core-d049573bc16596f9.core.5587a85061e7188a-cgu.0.rcgu.o)
                0x0000000000110480                <core::ffi::c_str::FromBytesUntilNulError as core::fmt::Display>::fmt
 .text._ZN59_$LT$core..ffi..c_str..CStr$u20$as$u20$core..fmt..Debug$GT$3fmt17h36ba4289086816d4E
                0x00000000001104a4       0x7c ./gen/../tecsrustUART/target/armv7a-none-eabi/release/libitron.a(core-d049573bc16596f9.core.5587a85061e7188a-cgu.0.rcgu.o)
                0x00000000001104a4                <core::ffi::c_str::CStr as core::fmt::Debug>::fmt
 .text._ZN78_$LT$core..ffi..c_str..FromBytesWithNulError$u20$as$u20$core..fmt..Display$GT$3fmt17hd6785df6bd44c25dE
                0x0000000000110520       0xc4 ./gen/../tecsrustUART/target/armv7a-none-eabi/release/libitron.a(core-d049573bc16596f9.core.5587a85061e7188a-cgu.0.rcgu.o)
                0x0000000000110520                <core::ffi::c_str::FromBytesWithNulError as core::fmt::Display>::fmt
 .text._ZN4core3ffi5c_str4CStr20from_bytes_until_nul17h223b6a3545723cc2E
                0x00000000001105e4      0x1b8 ./gen/../tecsrustUART/target/armv7a-none-eabi/release/libitron.a(core-d049573bc16596f9.core.5587a85061e7188a-cgu.0.rcgu.o)
                0x00000000001105e4                core::ffi::c_str::CStr::from_bytes_until_nul
 .text._ZN4core3ffi5c_str4CStr19from_bytes_with_nul17h924bc5b5323bf05eE
                0x000000000011079c      0x1cc ./gen/../tecsrustUART/target/armv7a-none-eabi/release/libitron.a(core-d049573bc16596f9.core.5587a85061e7188a-cgu.0.rcgu.o)
                0x000000000011079c                core::ffi::c_str::CStr::from_bytes_with_nul
 .text._ZN4core3ffi5c_str4CStr6to_str17hc1faa40fb638a30eE
                0x0000000000110968       0x14 ./gen/../tecsrustUART/target/armv7a-none-eabi/release/libitron.a(core-d049573bc16596f9.core.5587a85061e7188a-cgu.0.rcgu.o)
                0x0000000000110968                core::ffi::c_str::CStr::to_str
 .text._ZN67_$LT$core..ffi..va_list..VaListImpl$u20$as$u20$core..fmt..Debug$GT$3fmt17hd26f911d47b97956E
                0x000000000011097c       0x54 ./gen/../tecsrustUART/target/armv7a-none-eabi/release/libitron.a(core-d049573bc16596f9.core.5587a85061e7188a-cgu.0.rcgu.o)
                0x000000000011097c                <core::ffi::va_list::VaListImpl as core::fmt::Debug>::fmt
 .text._ZN54_$LT$core..ffi..c_void$u20$as$u20$core..fmt..Debug$GT$3fmt17h3b27b77d454a7b00E
                0x00000000001109d0       0x24 ./gen/../tecsrustUART/target/armv7a-none-eabi/release/libitron.a(core-d049573bc16596f9.core.5587a85061e7188a-cgu.0.rcgu.o)
                0x00000000001109d0                <core::ffi::c_void as core::fmt::Debug>::fmt
 .text._ZN72_$LT$core..io..borrowed_buf..BorrowedBuf$u20$as$u20$core..fmt..Debug$GT$3fmt17h8c5373e369933a1eE
                0x00000000001109f4      0x114 ./gen/../tecsrustUART/target/armv7a-none-eabi/release/libitron.a(core-d049573bc16596f9.core.5587a85061e7188a-cgu.0.rcgu.o)
                0x00000000001109f4                <core::io::borrowed_buf::BorrowedBuf as core::fmt::Debug>::fmt
 .text._ZN86_$LT$core..net..display_buffer..DisplayBuffer$LT$_$GT$$u20$as$u20$core..fmt..Write$GT$9write_str17h297baed95332eae7E
                0x0000000000110b08       0x48 ./gen/../tecsrustUART/target/armv7a-none-eabi/release/libitron.a(core-d049573bc16596f9.core.5587a85061e7188a-cgu.0.rcgu.o)
 .text._ZN86_$LT$core..net..display_buffer..DisplayBuffer$LT$_$GT$$u20$as$u20$core..fmt..Write$GT$9write_str17h839f220912462241E
                0x0000000000110b50       0x48 ./gen/../tecsrustUART/target/armv7a-none-eabi/release/libitron.a(core-d049573bc16596f9.core.5587a85061e7188a-cgu.0.rcgu.o)
 .text._ZN86_$LT$core..net..display_buffer..DisplayBuffer$LT$_$GT$$u20$as$u20$core..fmt..Write$GT$9write_str17h8badf8473d9a4002E
                0x0000000000110b98       0x48 ./gen/../tecsrustUART/target/armv7a-none-eabi/release/libitron.a(core-d049573bc16596f9.core.5587a85061e7188a-cgu.0.rcgu.o)
 .text._ZN86_$LT$core..net..display_buffer..DisplayBuffer$LT$_$GT$$u20$as$u20$core..fmt..Write$GT$9write_str17hd35c8bb425293b8bE
                0x0000000000110be0       0x48 ./gen/../tecsrustUART/target/armv7a-none-eabi/release/libitron.a(core-d049573bc16596f9.core.5587a85061e7188a-cgu.0.rcgu.o)
 .text._ZN65_$LT$core..net..ip_addr..IpAddr$u20$as$u20$core..fmt..Display$GT$3fmt17h3168c33a3915df90E
                0x0000000000110c28       0x24 ./gen/../tecsrustUART/target/armv7a-none-eabi/release/libitron.a(core-d049573bc16596f9.core.5587a85061e7188a-cgu.0.rcgu.o)
                0x0000000000110c28                <core::net::ip_addr::IpAddr as core::fmt::Display>::fmt
 .text._ZN63_$LT$core..net..ip_addr..IpAddr$u20$as$u20$core..fmt..Debug$GT$3fmt17hfda05f36d5a749a6E
                0x0000000000110c4c       0x24 ./gen/../tecsrustUART/target/armv7a-none-eabi/release/libitron.a(core-d049573bc16596f9.core.5587a85061e7188a-cgu.0.rcgu.o)
                0x0000000000110c4c                <core::net::ip_addr::IpAddr as core::fmt::Debug>::fmt
 .text._ZN67_$LT$core..net..ip_addr..Ipv4Addr$u20$as$u20$core..fmt..Display$GT$3fmt17h8a7f4864e9af7f6bE
                0x0000000000110c70      0x194 ./gen/../tecsrustUART/target/armv7a-none-eabi/release/libitron.a(core-d049573bc16596f9.core.5587a85061e7188a-cgu.0.rcgu.o)
                0x0000000000110c70                <core::net::ip_addr::Ipv4Addr as core::fmt::Display>::fmt
 .text._ZN65_$LT$core..net..ip_addr..Ipv4Addr$u20$as$u20$core..fmt..Debug$GT$3fmt17h6a51679a1ff6e7e2E
                0x0000000000110e04       0x10 ./gen/../tecsrustUART/target/armv7a-none-eabi/release/libitron.a(core-d049573bc16596f9.core.5587a85061e7188a-cgu.0.rcgu.o)
                0x0000000000110e04                <core::net::ip_addr::Ipv4Addr as core::fmt::Debug>::fmt
 .text._ZN67_$LT$core..net..ip_addr..Ipv6Addr$u20$as$u20$core..fmt..Display$GT$3fmt17ha09719cd9f4aecf6E
                0x0000000000110e14      0x824 ./gen/../tecsrustUART/target/armv7a-none-eabi/release/libitron.a(core-d049573bc16596f9.core.5587a85061e7188a-cgu.0.rcgu.o)
                0x0000000000110e14                <core::net::ip_addr::Ipv6Addr as core::fmt::Display>::fmt
 .text._ZN67_$LT$core..net..ip_addr..Ipv6Addr$u20$as$u20$core..fmt..Display$GT$3fmt12fmt_subslice17hba89c8432023046dE
                0x0000000000111638      0x130 ./gen/../tecsrustUART/target/armv7a-none-eabi/release/libitron.a(core-d049573bc16596f9.core.5587a85061e7188a-cgu.0.rcgu.o)
 .text._ZN65_$LT$core..net..ip_addr..Ipv6Addr$u20$as$u20$core..fmt..Debug$GT$3fmt17hd7b6c05483d437dbE
                0x0000000000111768       0x10 ./gen/../tecsrustUART/target/armv7a-none-eabi/release/libitron.a(core-d049573bc16596f9.core.5587a85061e7188a-cgu.0.rcgu.o)
                0x0000000000111768                <core::net::ip_addr::Ipv6Addr as core::fmt::Debug>::fmt
 .text._ZN4core3net6parser6Parser11read_number28_$u7b$$u7b$closure$u7d$$u7d$17hcfdf77b7d41ca56bE
                0x0000000000111778      0x304 ./gen/../tecsrustUART/target/armv7a-none-eabi/release/libitron.a(core-d049573bc16596f9.core.5587a85061e7188a-cgu.0.rcgu.o)
 .text._ZN4core3net6parser6Parser14read_ipv4_addr17h3efba67ec1312042E
                0x0000000000111a7c      0x37c ./gen/../tecsrustUART/target/armv7a-none-eabi/release/libitron.a(core-d049573bc16596f9.core.5587a85061e7188a-cgu.0.rcgu.o)
 .text._ZN4core3net6parser6Parser14read_ipv6_addr17h54c8b5ef622aafb8E
                0x0000000000111df8      0x224 ./gen/../tecsrustUART/target/armv7a-none-eabi/release/libitron.a(core-d049573bc16596f9.core.5587a85061e7188a-cgu.0.rcgu.o)
 .text._ZN4core3net6parser6Parser14read_ipv6_addr11read_groups17h16f736446e4eaddeE
                0x000000000011201c      0x230 ./gen/../tecsrustUART/target/armv7a-none-eabi/release/libitron.a(core-d049573bc16596f9.core.5587a85061e7188a-cgu.0.rcgu.o)
 .text._ZN4core3net6parser6Parser19read_socket_addr_v617hb4d45e4b5ba1a4d4E
                0x000000000011224c      0x278 ./gen/../tecsrustUART/target/armv7a-none-eabi/release/libitron.a(core-d049573bc16596f9.core.5587a85061e7188a-cgu.0.rcgu.o)
 .text._ZN4core3net6parser44_$LT$impl$u20$core..net..ip_addr..IpAddr$GT$11parse_ascii17hd7ed4f332f3caa79E
                0x00000000001124c4      0x168 ./gen/../tecsrustUART/target/armv7a-none-eabi/release/libitron.a(core-d049573bc16596f9.core.5587a85061e7188a-cgu.0.rcgu.o)
                0x00000000001124c4                core::net::parser::<impl core::net::ip_addr::IpAddr>::parse_ascii
 .text._ZN4core3net6parser83_$LT$impl$u20$core..str..traits..FromStr$u20$for$u20$core..net..ip_addr..IpAddr$GT$8from_str17h49e46cb50b46901eE
                0x000000000011262c      0x168 ./gen/../tecsrustUART/target/armv7a-none-eabi/release/libitron.a(core-d049573bc16596f9.core.5587a85061e7188a-cgu.0.rcgu.o)
                0x000000000011262c                core::net::parser::<impl core::str::traits::FromStr for core::net::ip_addr::IpAddr>::from_str
 .text._ZN4core3net6parser46_$LT$impl$u20$core..net..ip_addr..Ipv4Addr$GT$11parse_ascii17h8028e1785cb7be5fE
                0x0000000000112794       0x9c ./gen/../tecsrustUART/target/armv7a-none-eabi/release/libitron.a(core-d049573bc16596f9.core.5587a85061e7188a-cgu.0.rcgu.o)
                0x0000000000112794                core::net::parser::<impl core::net::ip_addr::Ipv4Addr>::parse_ascii
 .text._ZN4core3net6parser85_$LT$impl$u20$core..str..traits..FromStr$u20$for$u20$core..net..ip_addr..Ipv4Addr$GT$8from_str17hc3217d4e0e33b7d5E
                0x0000000000112830       0x9c ./gen/../tecsrustUART/target/armv7a-none-eabi/release/libitron.a(core-d049573bc16596f9.core.5587a85061e7188a-cgu.0.rcgu.o)
                0x0000000000112830                core::net::parser::<impl core::str::traits::FromStr for core::net::ip_addr::Ipv4Addr>::from_str
 .text._ZN4core3net6parser46_$LT$impl$u20$core..net..ip_addr..Ipv6Addr$GT$11parse_ascii17h767d275eb73823beE
                0x00000000001128cc       0x8c ./gen/../tecsrustUART/target/armv7a-none-eabi/release/libitron.a(core-d049573bc16596f9.core.5587a85061e7188a-cgu.0.rcgu.o)
                0x00000000001128cc                core::net::parser::<impl core::net::ip_addr::Ipv6Addr>::parse_ascii
 .text._ZN4core3net6parser85_$LT$impl$u20$core..str..traits..FromStr$u20$for$u20$core..net..ip_addr..Ipv6Addr$GT$8from_str17h685b7483d3d506d7E
                0x0000000000112958       0x8c ./gen/../tecsrustUART/target/armv7a-none-eabi/release/libitron.a(core-d049573bc16596f9.core.5587a85061e7188a-cgu.0.rcgu.o)
                0x0000000000112958                core::net::parser::<impl core::str::traits::FromStr for core::net::ip_addr::Ipv6Addr>::from_str
 .text._ZN4core3net6parser54_$LT$impl$u20$core..net..socket_addr..SocketAddrV4$GT$11parse_ascii17hc07de5cf09e25fb1E
                0x00000000001129e4       0xfc ./gen/../tecsrustUART/target/armv7a-none-eabi/release/libitron.a(core-d049573bc16596f9.core.5587a85061e7188a-cgu.0.rcgu.o)
                0x00000000001129e4                core::net::parser::<impl core::net::socket_addr::SocketAddrV4>::parse_ascii
 .text._ZN4core3net6parser93_$LT$impl$u20$core..str..traits..FromStr$u20$for$u20$core..net..socket_addr..SocketAddrV4$GT$8from_str17h5883a36bbe26488dE
                0x0000000000112ae0       0xfc ./gen/../tecsrustUART/target/armv7a-none-eabi/release/libitron.a(core-d049573bc16596f9.core.5587a85061e7188a-cgu.0.rcgu.o)
                0x0000000000112ae0                core::net::parser::<impl core::str::traits::FromStr for core::net::socket_addr::SocketAddrV4>::from_str
 .text._ZN4core3net6parser54_$LT$impl$u20$core..net..socket_addr..SocketAddrV6$GT$11parse_ascii17hbe6498756ef255a7E
                0x0000000000112bdc       0x7c ./gen/../tecsrustUART/target/armv7a-none-eabi/release/libitron.a(core-d049573bc16596f9.core.5587a85061e7188a-cgu.0.rcgu.o)
                0x0000000000112bdc                core::net::parser::<impl core::net::socket_addr::SocketAddrV6>::parse_ascii
 .text._ZN4core3net6parser93_$LT$impl$u20$core..str..traits..FromStr$u20$for$u20$core..net..socket_addr..SocketAddrV6$GT$8from_str17hf8a18b6a5bf3759eE
                0x0000000000112c58       0x7c ./gen/../tecsrustUART/target/armv7a-none-eabi/release/libitron.a(core-d049573bc16596f9.core.5587a85061e7188a-cgu.0.rcgu.o)
                0x0000000000112c58                core::net::parser::<impl core::str::traits::FromStr for core::net::socket_addr::SocketAddrV6>::from_str
 .text._ZN4core3net6parser52_$LT$impl$u20$core..net..socket_addr..SocketAddr$GT$11parse_ascii17h32c0686e61a62a97E
                0x0000000000112cd4      0x18c ./gen/../tecsrustUART/target/armv7a-none-eabi/release/libitron.a(core-d049573bc16596f9.core.5587a85061e7188a-cgu.0.rcgu.o)
                0x0000000000112cd4                core::net::parser::<impl core::net::socket_addr::SocketAddr>::parse_ascii
 .text._ZN4core3net6parser91_$LT$impl$u20$core..str..traits..FromStr$u20$for$u20$core..net..socket_addr..SocketAddr$GT$8from_str17he89fdbe831fc4256E
                0x0000000000112e60       0x10 ./gen/../tecsrustUART/target/armv7a-none-eabi/release/libitron.a(core-d049573bc16596f9.core.5587a85061e7188a-cgu.0.rcgu.o)
                0x0000000000112e60                core::net::parser::<impl core::str::traits::FromStr for core::net::socket_addr::SocketAddr>::from_str
 .text._ZN72_$LT$core..net..parser..AddrParseError$u20$as$u20$core..fmt..Display$GT$3fmt17hd7f7df04664d2864E
                0x0000000000112e70       0x38 ./gen/../tecsrustUART/target/armv7a-none-eabi/release/libitron.a(core-d049573bc16596f9.core.5587a85061e7188a-cgu.0.rcgu.o)
                0x0000000000112e70                <core::net::parser::AddrParseError as core::fmt::Display>::fmt
 .text._ZN73_$LT$core..net..socket_addr..SocketAddr$u20$as$u20$core..fmt..Display$GT$3fmt17hd0e981e04411525aE
                0x0000000000112ea8       0x2c ./gen/../tecsrustUART/target/armv7a-none-eabi/release/libitron.a(core-d049573bc16596f9.core.5587a85061e7188a-cgu.0.rcgu.o)
                0x0000000000112ea8                <core::net::socket_addr::SocketAddr as core::fmt::Display>::fmt
 .text._ZN71_$LT$core..net..socket_addr..SocketAddr$u20$as$u20$core..fmt..Debug$GT$3fmt17hd95cf7ae4353c951E
                0x0000000000112ed4       0x2c ./gen/../tecsrustUART/target/armv7a-none-eabi/release/libitron.a(core-d049573bc16596f9.core.5587a85061e7188a-cgu.0.rcgu.o)
                0x0000000000112ed4                <core::net::socket_addr::SocketAddr as core::fmt::Debug>::fmt
 .text._ZN75_$LT$core..net..socket_addr..SocketAddrV4$u20$as$u20$core..fmt..Display$GT$3fmt17hb358e369cb8dcc74E
                0x0000000000112f00      0x16c ./gen/../tecsrustUART/target/armv7a-none-eabi/release/libitron.a(core-d049573bc16596f9.core.5587a85061e7188a-cgu.0.rcgu.o)
                0x0000000000112f00                <core::net::socket_addr::SocketAddrV4 as core::fmt::Display>::fmt
 .text._ZN73_$LT$core..net..socket_addr..SocketAddrV4$u20$as$u20$core..fmt..Debug$GT$3fmt17h47d2c03dbc6abbf5E
                0x000000000011306c       0x10 ./gen/../tecsrustUART/target/armv7a-none-eabi/release/libitron.a(core-d049573bc16596f9.core.5587a85061e7188a-cgu.0.rcgu.o)
                0x000000000011306c                <core::net::socket_addr::SocketAddrV4 as core::fmt::Debug>::fmt
 .text._ZN75_$LT$core..net..socket_addr..SocketAddrV6$u20$as$u20$core..fmt..Display$GT$3fmt17hb242d5ced67c2003E
                0x000000000011307c      0x298 ./gen/../tecsrustUART/target/armv7a-none-eabi/release/libitron.a(core-d049573bc16596f9.core.5587a85061e7188a-cgu.0.rcgu.o)
                0x000000000011307c                <core::net::socket_addr::SocketAddrV6 as core::fmt::Display>::fmt
 .text._ZN73_$LT$core..net..socket_addr..SocketAddrV6$u20$as$u20$core..fmt..Debug$GT$3fmt17h008793ff64f0e572E
                0x0000000000113314       0x10 ./gen/../tecsrustUART/target/armv7a-none-eabi/release/libitron.a(core-d049573bc16596f9.core.5587a85061e7188a-cgu.0.rcgu.o)
                0x0000000000113314                <core::net::socket_addr::SocketAddrV6 as core::fmt::Debug>::fmt
 .text.unlikely._ZN4core6option13unwrap_failed17h39a76a4d9e444e97E
                0x0000000000113324       0x1c ./gen/../tecsrustUART/target/armv7a-none-eabi/release/libitron.a(core-d049573bc16596f9.core.5587a85061e7188a-cgu.0.rcgu.o)
                0x0000000000113324                core::option::unwrap_failed
 .text.unlikely._ZN4core6option13expect_failed17hf032828b69e8f9cdE
                0x0000000000113340       0x58 ./gen/../tecsrustUART/target/armv7a-none-eabi/release/libitron.a(core-d049573bc16596f9.core.5587a85061e7188a-cgu.0.rcgu.o)
                0x0000000000113340                core::option::expect_failed
 .text._ZN73_$LT$core..panic..panic_info..PanicInfo$u20$as$u20$core..fmt..Display$GT$3fmt17he8ae0930573845dbE
                0x0000000000113398       0xfc ./gen/../tecsrustUART/target/armv7a-none-eabi/release/libitron.a(core-d049573bc16596f9.core.5587a85061e7188a-cgu.0.rcgu.o)
                0x0000000000113398                <core::panic::panic_info::PanicInfo as core::fmt::Display>::fmt
 .text.unlikely._ZN4core9panicking9panic_fmt17h5145975cf535bc42E
                0x0000000000113494       0x20 ./gen/../tecsrustUART/target/armv7a-none-eabi/release/libitron.a(core-d049573bc16596f9.core.5587a85061e7188a-cgu.0.rcgu.o)
                0x0000000000113494                core::panicking::panic_fmt
 .text.unlikely._ZN4core9panicking18panic_nounwind_fmt17h7e174a309b689b0fE
                0x00000000001134b4       0x38 ./gen/../tecsrustUART/target/armv7a-none-eabi/release/libitron.a(core-d049573bc16596f9.core.5587a85061e7188a-cgu.0.rcgu.o)
                0x00000000001134b4                core::panicking::panic_nounwind_fmt
 .text.unlikely._ZN4core9panicking5panic17h04eb6169f90051c3E
                0x00000000001134ec       0x44 ./gen/../tecsrustUART/target/armv7a-none-eabi/release/libitron.a(core-d049573bc16596f9.core.5587a85061e7188a-cgu.0.rcgu.o)
                0x00000000001134ec                core::panicking::panic
 .text.unlikely._ZN4core9panicking14panic_nounwind17hb8efc6a66a7c1fb5E
                0x0000000000113530       0x48 ./gen/../tecsrustUART/target/armv7a-none-eabi/release/libitron.a(core-d049573bc16596f9.core.5587a85061e7188a-cgu.0.rcgu.o)
                0x0000000000113530                core::panicking::panic_nounwind
 .text.unlikely._ZN4core9panicking26panic_nounwind_nobacktrace17hcf6b6f7ce89f1dabE
                0x0000000000113578       0x48 ./gen/../tecsrustUART/target/armv7a-none-eabi/release/libitron.a(core-d049573bc16596f9.core.5587a85061e7188a-cgu.0.rcgu.o)
                0x0000000000113578                core::panicking::panic_nounwind_nobacktrace
 .text.unlikely._ZN4core9panicking14panic_explicit17he7bebe483a3bfe34E
                0x00000000001135c0       0x58 ./gen/../tecsrustUART/target/armv7a-none-eabi/release/libitron.a(core-d049573bc16596f9.core.5587a85061e7188a-cgu.0.rcgu.o)
                0x00000000001135c0                core::panicking::panic_explicit
 .text.unlikely._ZN4core9panicking18panic_bounds_check17he2f51b500041724aE
                0x0000000000113618       0x64 ./gen/../tecsrustUART/target/armv7a-none-eabi/release/libitron.a(core-d049573bc16596f9.core.5587a85061e7188a-cgu.0.rcgu.o)
                0x0000000000113618                core::panicking::panic_bounds_check
 .text.unlikely._ZN4core9panicking36panic_misaligned_pointer_dereference17hca8f56f08697e9a1E
                0x000000000011367c       0x6c ./gen/../tecsrustUART/target/armv7a-none-eabi/release/libitron.a(core-d049573bc16596f9.core.5587a85061e7188a-cgu.0.rcgu.o)
                0x000000000011367c                core::panicking::panic_misaligned_pointer_dereference
 .text.unlikely._ZN4core9panicking30panic_null_pointer_dereference17hd07e38dada2babd1E
                0x00000000001136e8       0x40 ./gen/../tecsrustUART/target/armv7a-none-eabi/release/libitron.a(core-d049573bc16596f9.core.5587a85061e7188a-cgu.0.rcgu.o)
                0x00000000001136e8                core::panicking::panic_null_pointer_dereference
 .text.unlikely._ZN4core9panicking19panic_cannot_unwind17h88003aad7d959a86E
                0x0000000000113728       0x18 ./gen/../tecsrustUART/target/armv7a-none-eabi/release/libitron.a(core-d049573bc16596f9.core.5587a85061e7188a-cgu.0.rcgu.o)
                0x0000000000113728                core::panicking::panic_cannot_unwind
 .text.unlikely._ZN4core9panicking16panic_in_cleanup17he6ef00938a5a6327E
                0x0000000000113740       0x18 ./gen/../tecsrustUART/target/armv7a-none-eabi/release/libitron.a(core-d049573bc16596f9.core.5587a85061e7188a-cgu.0.rcgu.o)
                0x0000000000113740                core::panicking::panic_in_cleanup
 .text.unlikely._ZN4core9panicking15const_panic_fmt17h6a5d3cae6d10461cE
                0x0000000000113758       0x7c ./gen/../tecsrustUART/target/armv7a-none-eabi/release/libitron.a(core-d049573bc16596f9.core.5587a85061e7188a-cgu.0.rcgu.o)
                0x0000000000113758                core::panicking::const_panic_fmt
 .text.unlikely._ZN4core9panicking13assert_failed17h2f1d8849fc674a9bE
                0x00000000001137d4       0x30 ./gen/../tecsrustUART/target/armv7a-none-eabi/release/libitron.a(core-d049573bc16596f9.core.5587a85061e7188a-cgu.0.rcgu.o)
                0x00000000001137d4                core::panicking::assert_failed
 .text.unlikely._ZN4core9panicking13assert_failed17h8a42116d81ae2397E
                0x0000000000113804       0x30 ./gen/../tecsrustUART/target/armv7a-none-eabi/release/libitron.a(core-d049573bc16596f9.core.5587a85061e7188a-cgu.0.rcgu.o)
                0x0000000000113804                core::panicking::assert_failed
 .text._ZN84_$LT$core..panicking..assert_matches_failed..Pattern$u20$as$u20$core..fmt..Debug$GT$3fmt17h3bf79b8a4bc8fc51E
                0x0000000000113834       0x24 ./gen/../tecsrustUART/target/armv7a-none-eabi/release/libitron.a(core-d049573bc16596f9.core.5587a85061e7188a-cgu.0.rcgu.o)
                0x0000000000113834                <core::panicking::assert_matches_failed::Pattern as core::fmt::Debug>::fmt
 .text.unlikely._ZN4core9panicking19assert_failed_inner17h1f0479933a2bc628E
                0x0000000000113858      0x120 ./gen/../tecsrustUART/target/armv7a-none-eabi/release/libitron.a(core-d049573bc16596f9.core.5587a85061e7188a-cgu.0.rcgu.o)
                0x0000000000113858                core::panicking::assert_failed_inner
 .text._ZN48_$LT$char$u20$as$u20$core..pat..RangePattern$GT$7sub_one17hc1333cb071cfc1b6E
                0x0000000000113978       0x58 ./gen/../tecsrustUART/target/armv7a-none-eabi/release/libitron.a(core-d049573bc16596f9.core.5587a85061e7188a-cgu.0.rcgu.o)
                0x0000000000113978                <char as core::pat::RangePattern>::sub_one
 .text.unlikely._ZN4core6result13unwrap_failed17h238a41f9432ebe61E
                0x00000000001139d0       0x6c ./gen/../tecsrustUART/target/armv7a-none-eabi/release/libitron.a(core-d049573bc16596f9.core.5587a85061e7188a-cgu.0.rcgu.o)
                0x00000000001139d0                core::result::unwrap_failed
 .text._ZN67_$LT$core..sync..atomic..AtomicBool$u20$as$u20$core..fmt..Debug$GT$3fmt17h36e87f0defe65ad8E
                0x0000000000113a3c       0x48 ./gen/../tecsrustUART/target/armv7a-none-eabi/release/libitron.a(core-d049573bc16596f9.core.5587a85061e7188a-cgu.0.rcgu.o)
                0x0000000000113a3c                <core::sync::atomic::AtomicBool as core::fmt::Debug>::fmt
 .text._ZN4core3fmt8builders10PadAdapter4wrap17h8cec362b75ec2f49E
                0x0000000000113a84       0x38 ./gen/../tecsrustUART/target/armv7a-none-eabi/release/libitron.a(core-d049573bc16596f9.core.5587a85061e7188a-cgu.0.rcgu.o)
                0x0000000000113a84                core::fmt::builders::PadAdapter::wrap
 .text._ZN68_$LT$core..fmt..builders..PadAdapter$u20$as$u20$core..fmt..Write$GT$9write_str17hc81ad4e78c0c990cE
                0x0000000000113abc      0x270 ./gen/../tecsrustUART/target/armv7a-none-eabi/release/libitron.a(core-d049573bc16596f9.core.5587a85061e7188a-cgu.0.rcgu.o)
                0x0000000000113abc                <core::fmt::builders::PadAdapter as core::fmt::Write>::write_str
 .text._ZN68_$LT$core..fmt..builders..PadAdapter$u20$as$u20$core..fmt..Write$GT$10write_char17h121f3a024053ccfbE
                0x0000000000113d2c       0x6c ./gen/../tecsrustUART/target/armv7a-none-eabi/release/libitron.a(core-d049573bc16596f9.core.5587a85061e7188a-cgu.0.rcgu.o)
                0x0000000000113d2c                <core::fmt::builders::PadAdapter as core::fmt::Write>::write_char
 .text._ZN4core3fmt8builders11DebugStruct5field17h118827344b19fbe7E
                0x0000000000113d98      0x1d0 ./gen/../tecsrustUART/target/armv7a-none-eabi/release/libitron.a(core-d049573bc16596f9.core.5587a85061e7188a-cgu.0.rcgu.o)
                0x0000000000113d98                core::fmt::builders::DebugStruct::field
 .text._ZN4core3fmt8builders11DebugStruct21finish_non_exhaustive17ha59f74934d70120cE
                0x0000000000113f68       0xd4 ./gen/../tecsrustUART/target/armv7a-none-eabi/release/libitron.a(core-d049573bc16596f9.core.5587a85061e7188a-cgu.0.rcgu.o)
                0x0000000000113f68                core::fmt::builders::DebugStruct::finish_non_exhaustive
 .text._ZN4core3fmt8builders11DebugStruct6finish17h62dcffc385683e70E
                0x000000000011403c       0x84 ./gen/../tecsrustUART/target/armv7a-none-eabi/release/libitron.a(core-d049573bc16596f9.core.5587a85061e7188a-cgu.0.rcgu.o)
                0x000000000011403c                core::fmt::builders::DebugStruct::finish
 .text._ZN4core3fmt8builders10DebugTuple5field17hd25f2ea26ee9220fE
                0x00000000001140c0      0x184 ./gen/../tecsrustUART/target/armv7a-none-eabi/release/libitron.a(core-d049573bc16596f9.core.5587a85061e7188a-cgu.0.rcgu.o)
                0x00000000001140c0                core::fmt::builders::DebugTuple::field
 .text._ZN4core3fmt8builders10DebugTuple21finish_non_exhaustive17hbea2c5cc6d18b83cE
                0x0000000000114244       0xe8 ./gen/../tecsrustUART/target/armv7a-none-eabi/release/libitron.a(core-d049573bc16596f9.core.5587a85061e7188a-cgu.0.rcgu.o)
                0x0000000000114244                core::fmt::builders::DebugTuple::finish_non_exhaustive
 .text._ZN4core3fmt8builders10DebugTuple6finish17h75fa298d273b9537E
                0x000000000011432c       0xb8 ./gen/../tecsrustUART/target/armv7a-none-eabi/release/libitron.a(core-d049573bc16596f9.core.5587a85061e7188a-cgu.0.rcgu.o)
                0x000000000011432c                core::fmt::builders::DebugTuple::finish
 .text._ZN4core3fmt8builders8DebugSet5entry17h6f9f49712cdf1c8aE
                0x00000000001143e4      0x174 ./gen/../tecsrustUART/target/armv7a-none-eabi/release/libitron.a(core-d049573bc16596f9.core.5587a85061e7188a-cgu.0.rcgu.o)
                0x00000000001143e4                core::fmt::builders::DebugSet::entry
                0x00000000001143e4                core::fmt::builders::DebugList::entry
 .text._ZN4core3fmt8builders8DebugSet21finish_non_exhaustive17h056b5628e91579d3E
                0x0000000000114558       0xd4 ./gen/../tecsrustUART/target/armv7a-none-eabi/release/libitron.a(core-d049573bc16596f9.core.5587a85061e7188a-cgu.0.rcgu.o)
                0x0000000000114558                core::fmt::builders::DebugSet::finish_non_exhaustive
 .text._ZN4core3fmt8builders8DebugSet6finish17hb775269289642050E
                0x000000000011462c       0x40 ./gen/../tecsrustUART/target/armv7a-none-eabi/release/libitron.a(core-d049573bc16596f9.core.5587a85061e7188a-cgu.0.rcgu.o)
                0x000000000011462c                core::fmt::builders::DebugSet::finish
 .text._ZN4core3fmt8builders9DebugList21finish_non_exhaustive17h0964252c95243519E
                0x000000000011466c       0xe4 ./gen/../tecsrustUART/target/armv7a-none-eabi/release/libitron.a(core-d049573bc16596f9.core.5587a85061e7188a-cgu.0.rcgu.o)
                0x000000000011466c                core::fmt::builders::DebugList::finish_non_exhaustive
 .text._ZN4core3fmt8builders9DebugList6finish17h95901bb8c72ebeaaE
                0x0000000000114750       0x40 ./gen/../tecsrustUART/target/armv7a-none-eabi/release/libitron.a(core-d049573bc16596f9.core.5587a85061e7188a-cgu.0.rcgu.o)
                0x0000000000114750                core::fmt::builders::DebugList::finish
 .text._ZN4core3fmt8builders8DebugMap5entry17hb5fe3985090a797eE
                0x0000000000114790      0x134 ./gen/../tecsrustUART/target/armv7a-none-eabi/release/libitron.a(core-d049573bc16596f9.core.5587a85061e7188a-cgu.0.rcgu.o)
                0x0000000000114790                core::fmt::builders::DebugMap::entry
 .text._ZN4core3fmt8builders8DebugMap3key17he972b5db7c272a06E
                0x00000000001148c4      0x204 ./gen/../tecsrustUART/target/armv7a-none-eabi/release/libitron.a(core-d049573bc16596f9.core.5587a85061e7188a-cgu.0.rcgu.o)
                0x00000000001148c4                core::fmt::builders::DebugMap::key
 .text._ZN4core3fmt8builders8DebugMap5value17hc3fc83e3ff16426eE
                0x0000000000114ac8      0x158 ./gen/../tecsrustUART/target/armv7a-none-eabi/release/libitron.a(core-d049573bc16596f9.core.5587a85061e7188a-cgu.0.rcgu.o)
                0x0000000000114ac8                core::fmt::builders::DebugMap::value
 .text._ZN4core3fmt8builders8DebugMap21finish_non_exhaustive17h1d063c8fc17c4fa1E
                0x0000000000114c20      0x118 ./gen/../tecsrustUART/target/armv7a-none-eabi/release/libitron.a(core-d049573bc16596f9.core.5587a85061e7188a-cgu.0.rcgu.o)
                0x0000000000114c20                core::fmt::builders::DebugMap::finish_non_exhaustive
 .text._ZN4core3fmt8builders8DebugMap6finish17h87c976a15d36c1beE
                0x0000000000114d38       0x8c ./gen/../tecsrustUART/target/armv7a-none-eabi/release/libitron.a(core-d049573bc16596f9.core.5587a85061e7188a-cgu.0.rcgu.o)
                0x0000000000114d38                core::fmt::builders::DebugMap::finish
 .text._ZN4core3fmt5float29float_to_decimal_common_exact17h7d85dbe2887defb2E
                0x0000000000114dc4      0x354 ./gen/../tecsrustUART/target/armv7a-none-eabi/release/libitron.a(core-d049573bc16596f9.core.5587a85061e7188a-cgu.0.rcgu.o)
 .text._ZN4core3fmt5float29float_to_decimal_common_exact17hb8ecc3a298064d1fE
                0x0000000000115118      0x318 ./gen/../tecsrustUART/target/armv7a-none-eabi/release/libitron.a(core-d049573bc16596f9.core.5587a85061e7188a-cgu.0.rcgu.o)
 .text._ZN4core3fmt5float29float_to_decimal_common_exact17hc4ee8b5197ebb838E
                0x0000000000115430      0x328 ./gen/../tecsrustUART/target/armv7a-none-eabi/release/libitron.a(core-d049573bc16596f9.core.5587a85061e7188a-cgu.0.rcgu.o)
 .text._ZN4core3fmt5float32float_to_decimal_common_shortest17h57f1a97492206944E
                0x0000000000115758      0x258 ./gen/../tecsrustUART/target/armv7a-none-eabi/release/libitron.a(core-d049573bc16596f9.core.5587a85061e7188a-cgu.0.rcgu.o)
 .text._ZN4core3fmt5float32float_to_decimal_common_shortest17hd1530ac16dbab458E
                0x00000000001159b0      0x29c ./gen/../tecsrustUART/target/armv7a-none-eabi/release/libitron.a(core-d049573bc16596f9.core.5587a85061e7188a-cgu.0.rcgu.o)
 .text._ZN4core3fmt5float32float_to_decimal_common_shortest17hf774af481b6739e1E
                0x0000000000115c4c      0x268 ./gen/../tecsrustUART/target/armv7a-none-eabi/release/libitron.a(core-d049573bc16596f9.core.5587a85061e7188a-cgu.0.rcgu.o)
 .text._ZN4core3fmt5float33float_to_exponential_common_exact17h475946fbe25c96b4E
                0x0000000000115eb4      0x350 ./gen/../tecsrustUART/target/armv7a-none-eabi/release/libitron.a(core-d049573bc16596f9.core.5587a85061e7188a-cgu.0.rcgu.o)
 .text._ZN4core3fmt5float33float_to_exponential_common_exact17h58c854a839c522b9E
                0x0000000000116204      0x348 ./gen/../tecsrustUART/target/armv7a-none-eabi/release/libitron.a(core-d049573bc16596f9.core.5587a85061e7188a-cgu.0.rcgu.o)
 .text._ZN4core3fmt5float33float_to_exponential_common_exact17hf8c347a31f005498E
                0x000000000011654c      0x394 ./gen/../tecsrustUART/target/armv7a-none-eabi/release/libitron.a(core-d049573bc16596f9.core.5587a85061e7188a-cgu.0.rcgu.o)
 .text._ZN4core3fmt5float36float_to_exponential_common_shortest17h110c73098256b07dE
                0x00000000001168e0      0x300 ./gen/../tecsrustUART/target/armv7a-none-eabi/release/libitron.a(core-d049573bc16596f9.core.5587a85061e7188a-cgu.0.rcgu.o)
 .text._ZN4core3fmt5float36float_to_exponential_common_shortest17hc2048c8ca710d24cE
                0x0000000000116be0      0x35c ./gen/../tecsrustUART/target/armv7a-none-eabi/release/libitron.a(core-d049573bc16596f9.core.5587a85061e7188a-cgu.0.rcgu.o)
 .text._ZN4core3fmt5float36float_to_exponential_common_shortest17hded788cc3690643fE
                0x0000000000116f3c      0x320 ./gen/../tecsrustUART/target/armv7a-none-eabi/release/libitron.a(core-d049573bc16596f9.core.5587a85061e7188a-cgu.0.rcgu.o)
 .text._ZN4core3fmt3num14parse_u64_into17hdae6f27d721cd177E
                0x000000000011725c      0x494 ./gen/../tecsrustUART/target/armv7a-none-eabi/release/libitron.a(core-d049573bc16596f9.core.5587a85061e7188a-cgu.0.rcgu.o)
 .text._ZN4core3fmt3num53_$LT$impl$u20$core..fmt..Display$u20$for$u20$u128$GT$3fmt17he162d142fdfbe23dE
                0x00000000001176f0       0x30 ./gen/../tecsrustUART/target/armv7a-none-eabi/release/libitron.a(core-d049573bc16596f9.core.5587a85061e7188a-cgu.0.rcgu.o)
                0x00000000001176f0                core::fmt::num::<impl core::fmt::Display for u128>::fmt
 .text._ZN4core3fmt3num53_$LT$impl$u20$core..fmt..Display$u20$for$u20$i128$GT$3fmt17h41041c0cb7d944acE
                0x0000000000117720       0x54 ./gen/../tecsrustUART/target/armv7a-none-eabi/release/libitron.a(core-d049573bc16596f9.core.5587a85061e7188a-cgu.0.rcgu.o)
                0x0000000000117720                core::fmt::num::<impl core::fmt::Display for i128>::fmt
 .text._ZN4core3fmt3num8fmt_u12817h3ce49e52aad09f7aE
                0x0000000000117774      0x2b0 ./gen/../tecsrustUART/target/armv7a-none-eabi/release/libitron.a(core-d049573bc16596f9.core.5587a85061e7188a-cgu.0.rcgu.o)
 .text._ZN4core3fmt5Write10write_char17h0deb656a130510dcE
                0x0000000000117a24       0xec ./gen/../tecsrustUART/target/armv7a-none-eabi/release/libitron.a(core-d049573bc16596f9.core.5587a85061e7188a-cgu.0.rcgu.o)
 .text._ZN4core3fmt5Write10write_char17h121006013e2c64bdE
                0x0000000000117b10       0xec ./gen/../tecsrustUART/target/armv7a-none-eabi/release/libitron.a(core-d049573bc16596f9.core.5587a85061e7188a-cgu.0.rcgu.o)
 .text._ZN4core3fmt5Write10write_char17h20c6982f67c5a14cE
                0x0000000000117bfc       0xec ./gen/../tecsrustUART/target/armv7a-none-eabi/release/libitron.a(core-d049573bc16596f9.core.5587a85061e7188a-cgu.0.rcgu.o)
 .text._ZN4core3fmt5Write10write_char17h884d76389de57237E
                0x0000000000117ce8       0xec ./gen/../tecsrustUART/target/armv7a-none-eabi/release/libitron.a(core-d049573bc16596f9.core.5587a85061e7188a-cgu.0.rcgu.o)
 .text._ZN4core3fmt5Write9write_fmt17h07c1169efed3c695E
                0x0000000000117dd4       0x1c ./gen/../tecsrustUART/target/armv7a-none-eabi/release/libitron.a(core-d049573bc16596f9.core.5587a85061e7188a-cgu.0.rcgu.o)
 .text._ZN4core3fmt5Write9write_fmt17h32196b9e35a8bbc2E
                0x0000000000117df0       0x1c ./gen/../tecsrustUART/target/armv7a-none-eabi/release/libitron.a(core-d049573bc16596f9.core.5587a85061e7188a-cgu.0.rcgu.o)
 .text._ZN4core3fmt5Write9write_fmt17h8420373094f7f4f3E
                0x0000000000117e0c       0x1c ./gen/../tecsrustUART/target/armv7a-none-eabi/release/libitron.a(core-d049573bc16596f9.core.5587a85061e7188a-cgu.0.rcgu.o)
 .text._ZN4core3fmt5Write9write_fmt17ha93132b80607745fE
                0x0000000000117e28       0x1c ./gen/../tecsrustUART/target/armv7a-none-eabi/release/libitron.a(core-d049573bc16596f9.core.5587a85061e7188a-cgu.0.rcgu.o)
 .text._ZN4core3fmt5Write9write_fmt17he315d962ad1b87f3E
                0x0000000000117e44       0x1c ./gen/../tecsrustUART/target/armv7a-none-eabi/release/libitron.a(core-d049573bc16596f9.core.5587a85061e7188a-cgu.0.rcgu.o)
 .text._ZN4core3fmt17FormattingOptions8get_fill17ha364eba16e39e9f9E
                0x0000000000117e60       0x14 ./gen/../tecsrustUART/target/armv7a-none-eabi/release/libitron.a(core-d049573bc16596f9.core.5587a85061e7188a-cgu.0.rcgu.o)
                0x0000000000117e60                core::fmt::FormattingOptions::get_fill
 .text._ZN57_$LT$core..fmt..Arguments$u20$as$u20$core..fmt..Debug$GT$3fmt17hecd0089d3e424aecE
                0x0000000000117e74       0x18 ./gen/../tecsrustUART/target/armv7a-none-eabi/release/libitron.a(core-d049573bc16596f9.core.5587a85061e7188a-cgu.0.rcgu.o)
                0x0000000000117e74                <core::fmt::Arguments as core::fmt::Debug>::fmt
 .text._ZN59_$LT$core..fmt..Arguments$u20$as$u20$core..fmt..Display$GT$3fmt17hcd13995007f793f4E
                0x0000000000117e8c       0x18 ./gen/../tecsrustUART/target/armv7a-none-eabi/release/libitron.a(core-d049573bc16596f9.core.5587a85061e7188a-cgu.0.rcgu.o)
                0x0000000000117e8c                <core::fmt::Arguments as core::fmt::Display>::fmt
 .text._ZN4core3fmt5write17hb714253c1b9e952cE
                0x0000000000117ea4      0x208 ./gen/../tecsrustUART/target/armv7a-none-eabi/release/libitron.a(core-d049573bc16596f9.core.5587a85061e7188a-cgu.0.rcgu.o)
                0x0000000000117ea4                core::fmt::write
 .text._ZN4core3fmt9Formatter12pad_integral17hec47f37da301c049E
                0x00000000001180ac      0x300 ./gen/../tecsrustUART/target/armv7a-none-eabi/release/libitron.a(core-d049573bc16596f9.core.5587a85061e7188a-cgu.0.rcgu.o)
                0x00000000001180ac                core::fmt::Formatter::pad_integral
 .text._ZN4core3fmt9Formatter12pad_integral12write_prefix17hc4c0a7a0c94985adE
                0x00000000001183ac       0x68 ./gen/../tecsrustUART/target/armv7a-none-eabi/release/libitron.a(core-d049573bc16596f9.core.5587a85061e7188a-cgu.0.rcgu.o)
 .text._ZN4core3fmt9Formatter3pad17h8e247c0c6f258b85E
                0x0000000000118414      0x228 ./gen/../tecsrustUART/target/armv7a-none-eabi/release/libitron.a(core-d049573bc16596f9.core.5587a85061e7188a-cgu.0.rcgu.o)
                0x0000000000118414                core::fmt::Formatter::pad
 .text._ZN4core3fmt9Formatter19pad_formatted_parts17ha476f236f4259153E
                0x000000000011863c      0x26c ./gen/../tecsrustUART/target/armv7a-none-eabi/release/libitron.a(core-d049573bc16596f9.core.5587a85061e7188a-cgu.0.rcgu.o)
 .text._ZN4core3fmt9Formatter21write_formatted_parts17h76662c6af77af83aE
                0x00000000001188a8      0x280 ./gen/../tecsrustUART/target/armv7a-none-eabi/release/libitron.a(core-d049573bc16596f9.core.5587a85061e7188a-cgu.0.rcgu.o)
 .text._ZN4core3fmt9Formatter9write_str17hdfb7ca2c4bb7964eE
                0x0000000000118b28       0x18 ./gen/../tecsrustUART/target/armv7a-none-eabi/release/libitron.a(core-d049573bc16596f9.core.5587a85061e7188a-cgu.0.rcgu.o)
                0x0000000000118b28                <core::fmt::Formatter as core::fmt::Write>::write_str
                0x0000000000118b28                core::fmt::Formatter::write_str
 .text._ZN4core3fmt9Formatter4fill17hffaa17a0e6fadb77E
                0x0000000000118b40       0x14 ./gen/../tecsrustUART/target/armv7a-none-eabi/release/libitron.a(core-d049573bc16596f9.core.5587a85061e7188a-cgu.0.rcgu.o)
                0x0000000000118b40                core::fmt::Formatter::fill
 .text._ZN4core3fmt9Formatter12debug_struct17he204134461ecf684E
                0x0000000000118b54       0x3c ./gen/../tecsrustUART/target/armv7a-none-eabi/release/libitron.a(core-d049573bc16596f9.core.5587a85061e7188a-cgu.0.rcgu.o)
                0x0000000000118b54                core::fmt::Formatter::debug_struct
 .text._ZN4core3fmt9Formatter26debug_struct_field1_finish17hfc5577f397af5417E
                0x0000000000118b90       0xc8 ./gen/../tecsrustUART/target/armv7a-none-eabi/release/libitron.a(core-d049573bc16596f9.core.5587a85061e7188a-cgu.0.rcgu.o)
                0x0000000000118b90                core::fmt::Formatter::debug_struct_field1_finish
 .text._ZN4core3fmt9Formatter26debug_struct_field2_finish17h250937b50b7d91dbE
                0x0000000000118c58       0xdc ./gen/../tecsrustUART/target/armv7a-none-eabi/release/libitron.a(core-d049573bc16596f9.core.5587a85061e7188a-cgu.0.rcgu.o)
                0x0000000000118c58                core::fmt::Formatter::debug_struct_field2_finish
 .text._ZN4core3fmt9Formatter26debug_struct_field3_finish17h2e39e36ff7dea516E
                0x0000000000118d34       0xf0 ./gen/../tecsrustUART/target/armv7a-none-eabi/release/libitron.a(core-d049573bc16596f9.core.5587a85061e7188a-cgu.0.rcgu.o)
                0x0000000000118d34                core::fmt::Formatter::debug_struct_field3_finish
 .text._ZN4core3fmt9Formatter26debug_struct_field4_finish17hd85fc51ea53a6480E
                0x0000000000118e24      0x104 ./gen/../tecsrustUART/target/armv7a-none-eabi/release/libitron.a(core-d049573bc16596f9.core.5587a85061e7188a-cgu.0.rcgu.o)
                0x0000000000118e24                core::fmt::Formatter::debug_struct_field4_finish
 .text._ZN4core3fmt9Formatter26debug_struct_field5_finish17haacbff9cf3eec5ccE
                0x0000000000118f28      0x118 ./gen/../tecsrustUART/target/armv7a-none-eabi/release/libitron.a(core-d049573bc16596f9.core.5587a85061e7188a-cgu.0.rcgu.o)
                0x0000000000118f28                core::fmt::Formatter::debug_struct_field5_finish
 .text._ZN4core3fmt9Formatter26debug_struct_fields_finish17hbc4a9600e0d1f479E
                0x0000000000119040      0x114 ./gen/../tecsrustUART/target/armv7a-none-eabi/release/libitron.a(core-d049573bc16596f9.core.5587a85061e7188a-cgu.0.rcgu.o)
                0x0000000000119040                core::fmt::Formatter::debug_struct_fields_finish
 .text._ZN4core3fmt9Formatter11debug_tuple17h940ad0dd22d147c8E
                0x0000000000119154       0x44 ./gen/../tecsrustUART/target/armv7a-none-eabi/release/libitron.a(core-d049573bc16596f9.core.5587a85061e7188a-cgu.0.rcgu.o)
                0x0000000000119154                core::fmt::Formatter::debug_tuple
 .text._ZN4core3fmt9Formatter25debug_tuple_field1_finish17h3462a89b33c73d6eE
                0x0000000000119198      0x180 ./gen/../tecsrustUART/target/armv7a-none-eabi/release/libitron.a(core-d049573bc16596f9.core.5587a85061e7188a-cgu.0.rcgu.o)
                0x0000000000119198                core::fmt::Formatter::debug_tuple_field1_finish
 .text._ZN4core3fmt9Formatter25debug_tuple_field2_finish17hc4dc9b596154de93E
                0x0000000000119318      0x1fc ./gen/../tecsrustUART/target/armv7a-none-eabi/release/libitron.a(core-d049573bc16596f9.core.5587a85061e7188a-cgu.0.rcgu.o)
                0x0000000000119318                core::fmt::Formatter::debug_tuple_field2_finish
 .text._ZN4core3fmt9Formatter25debug_tuple_field3_finish17h164749d4d77ab572E
                0x0000000000119514      0x2b8 ./gen/../tecsrustUART/target/armv7a-none-eabi/release/libitron.a(core-d049573bc16596f9.core.5587a85061e7188a-cgu.0.rcgu.o)
                0x0000000000119514                core::fmt::Formatter::debug_tuple_field3_finish
 .text._ZN4core3fmt9Formatter25debug_tuple_field4_finish17h87085ebfbf56e53eE
                0x00000000001197cc      0x370 ./gen/../tecsrustUART/target/armv7a-none-eabi/release/libitron.a(core-d049573bc16596f9.core.5587a85061e7188a-cgu.0.rcgu.o)
                0x00000000001197cc                core::fmt::Formatter::debug_tuple_field4_finish
 .text._ZN4core3fmt9Formatter25debug_tuple_field5_finish17he4dec699aac9d2a9E
                0x0000000000119b3c      0x428 ./gen/../tecsrustUART/target/armv7a-none-eabi/release/libitron.a(core-d049573bc16596f9.core.5587a85061e7188a-cgu.0.rcgu.o)
                0x0000000000119b3c                core::fmt::Formatter::debug_tuple_field5_finish
 .text._ZN4core3fmt9Formatter25debug_tuple_fields_finish17hb3065dfeca0f69b2E
                0x0000000000119f64      0x2c4 ./gen/../tecsrustUART/target/armv7a-none-eabi/release/libitron.a(core-d049573bc16596f9.core.5587a85061e7188a-cgu.0.rcgu.o)
                0x0000000000119f64                core::fmt::Formatter::debug_tuple_fields_finish
 .text._ZN4core3fmt9Formatter10debug_list17h324a4227e38e4e1cE
                0x000000000011a228       0x3c ./gen/../tecsrustUART/target/armv7a-none-eabi/release/libitron.a(core-d049573bc16596f9.core.5587a85061e7188a-cgu.0.rcgu.o)
                0x000000000011a228                core::fmt::Formatter::debug_list
 .text._ZN4core3fmt9Formatter9debug_set17h8342974783863c44E
                0x000000000011a264       0x3c ./gen/../tecsrustUART/target/armv7a-none-eabi/release/libitron.a(core-d049573bc16596f9.core.5587a85061e7188a-cgu.0.rcgu.o)
                0x000000000011a264                core::fmt::Formatter::debug_set
 .text._ZN4core3fmt9Formatter9debug_map17hd46370b77cf960edE
                0x000000000011a2a0       0x44 ./gen/../tecsrustUART/target/armv7a-none-eabi/release/libitron.a(core-d049573bc16596f9.core.5587a85061e7188a-cgu.0.rcgu.o)
                0x000000000011a2a0                core::fmt::Formatter::debug_map
 .text._ZN57_$LT$core..fmt..Formatter$u20$as$u20$core..fmt..Write$GT$10write_char17ha022f916fb525171E
                0x000000000011a2e4       0x18 ./gen/../tecsrustUART/target/armv7a-none-eabi/release/libitron.a(core-d049573bc16596f9.core.5587a85061e7188a-cgu.0.rcgu.o)
                0x000000000011a2e4                <core::fmt::Formatter as core::fmt::Write>::write_char
 .text._ZN55_$LT$core..fmt..Error$u20$as$u20$core..fmt..Display$GT$3fmt17h603b7f267edd160dE
                0x000000000011a2fc       0x20 ./gen/../tecsrustUART/target/armv7a-none-eabi/release/libitron.a(core-d049573bc16596f9.core.5587a85061e7188a-cgu.0.rcgu.o)
                0x000000000011a2fc                <core::fmt::Error as core::fmt::Display>::fmt
 .text._ZN43_$LT$bool$u20$as$u20$core..fmt..Display$GT$3fmt17h37b2e11049775da3E
                0x000000000011a31c       0x48 ./gen/../tecsrustUART/target/armv7a-none-eabi/release/libitron.a(core-d049573bc16596f9.core.5587a85061e7188a-cgu.0.rcgu.o)
                0x000000000011a31c                <bool as core::fmt::Display>::fmt
 .text._ZN40_$LT$str$u20$as$u20$core..fmt..Debug$GT$3fmt17hbfa9400b4ed4d146E
                0x000000000011a364      0x3e0 ./gen/../tecsrustUART/target/armv7a-none-eabi/release/libitron.a(core-d049573bc16596f9.core.5587a85061e7188a-cgu.0.rcgu.o)
                0x000000000011a364                <str as core::fmt::Debug>::fmt
 .text._ZN42_$LT$str$u20$as$u20$core..fmt..Display$GT$3fmt17h1a2739d2b1badf3eE
                0x000000000011a744       0x20 ./gen/../tecsrustUART/target/armv7a-none-eabi/release/libitron.a(core-d049573bc16596f9.core.5587a85061e7188a-cgu.0.rcgu.o)
                0x000000000011a744                <str as core::fmt::Display>::fmt
 .text._ZN41_$LT$char$u20$as$u20$core..fmt..Debug$GT$3fmt17hf8537c7d284af8e9E
                0x000000000011a764       0xb4 ./gen/../tecsrustUART/target/armv7a-none-eabi/release/libitron.a(core-d049573bc16596f9.core.5587a85061e7188a-cgu.0.rcgu.o)
                0x000000000011a764                <char as core::fmt::Debug>::fmt
 .text._ZN43_$LT$char$u20$as$u20$core..fmt..Display$GT$3fmt17h759ac83f19cee971E
                0x000000000011a818       0xec ./gen/../tecsrustUART/target/armv7a-none-eabi/release/libitron.a(core-d049573bc16596f9.core.5587a85061e7188a-cgu.0.rcgu.o)
                0x000000000011a818                <char as core::fmt::Display>::fmt
 .text._ZN4core3fmt17pointer_fmt_inner17h83d31351164c23f2E
                0x000000000011a904       0xa4 ./gen/../tecsrustUART/target/armv7a-none-eabi/release/libitron.a(core-d049573bc16596f9.core.5587a85061e7188a-cgu.0.rcgu.o)
                0x000000000011a904                core::fmt::pointer_fmt_inner
 .text._ZN52_$LT$$BP$const$u20$T$u20$as$u20$core..fmt..Debug$GT$3fmt17h52f0d6dcd4868dc8E
                0x000000000011a9a8       0xa8 ./gen/../tecsrustUART/target/armv7a-none-eabi/release/libitron.a(core-d049573bc16596f9.core.5587a85061e7188a-cgu.0.rcgu.o)
 .text._ZN4core5slice6memchr14memchr_aligned17hf608187b782eb764E
                0x000000000011aa50       0xfc ./gen/../tecsrustUART/target/armv7a-none-eabi/release/libitron.a(core-d049573bc16596f9.core.5587a85061e7188a-cgu.0.rcgu.o)
                0x000000000011aa50                core::slice::memchr::memchr_aligned
 .text._ZN4core5slice6memchr7memrchr17h1b5e6bee0cdc7e3cE
                0x000000000011ab4c      0x23c ./gen/../tecsrustUART/target/armv7a-none-eabi/release/libitron.a(core-d049573bc16596f9.core.5587a85061e7188a-cgu.0.rcgu.o)
                0x000000000011ab4c                core::slice::memchr::memrchr
 .text._ZN4core5slice4sort6stable5drift11sqrt_approx17heb7d8e344c813c3bE
                0x000000000011ad88       0x2c ./gen/../tecsrustUART/target/armv7a-none-eabi/release/libitron.a(core-d049573bc16596f9.core.5587a85061e7188a-cgu.0.rcgu.o)
                0x000000000011ad88                core::slice::sort::stable::drift::sqrt_approx
 .text.unlikely._ZN4core5slice4sort6shared9smallsort22panic_on_ord_violation17h26f42ac12335c738E
                0x000000000011adb4       0x44 ./gen/../tecsrustUART/target/armv7a-none-eabi/release/libitron.a(core-d049573bc16596f9.core.5587a85061e7188a-cgu.0.rcgu.o)
                0x000000000011adb4                core::slice::sort::shared::smallsort::panic_on_ord_violation
 .text._ZN105_$LT$core..slice..ascii..EscapeAscii$u20$as$u20$core..iter..traits..double_ended..DoubleEndedIterator$GT$9next_back17h58b0f7ecc71c56abE
                0x000000000011adf8      0x208 ./gen/../tecsrustUART/target/armv7a-none-eabi/release/libitron.a(core-d049573bc16596f9.core.5587a85061e7188a-cgu.0.rcgu.o)
                0x000000000011adf8                <core::slice::ascii::EscapeAscii as core::iter::traits::double_ended::DoubleEndedIterator>::next_back
 .text._ZN70_$LT$core..slice..ascii..EscapeAscii$u20$as$u20$core..fmt..Display$GT$3fmt17h29e51c0221cfc6f4E
                0x000000000011b000      0x268 ./gen/../tecsrustUART/target/armv7a-none-eabi/release/libitron.a(core-d049573bc16596f9.core.5587a85061e7188a-cgu.0.rcgu.o)
                0x000000000011b000                <core::slice::ascii::EscapeAscii as core::fmt::Display>::fmt
 .text._ZN68_$LT$core..slice..ascii..EscapeAscii$u20$as$u20$core..fmt..Debug$GT$3fmt17hbb33b900076cece0E
                0x000000000011b268       0x54 ./gen/../tecsrustUART/target/armv7a-none-eabi/release/libitron.a(core-d049573bc16596f9.core.5587a85061e7188a-cgu.0.rcgu.o)
                0x000000000011b268                <core::slice::ascii::EscapeAscii as core::fmt::Debug>::fmt
 .text.unlikely._ZN4core5slice5index26slice_start_index_len_fail17h38c824b450734dfcE
                0x000000000011b2bc        0xc ./gen/../tecsrustUART/target/armv7a-none-eabi/release/libitron.a(core-d049573bc16596f9.core.5587a85061e7188a-cgu.0.rcgu.o)
                0x000000000011b2bc                core::slice::index::slice_start_index_len_fail
 .text.unlikely._ZN4core5slice5index24slice_end_index_len_fail17hf4eb2611058c09afE
                0x000000000011b2c8        0xc ./gen/../tecsrustUART/target/armv7a-none-eabi/release/libitron.a(core-d049573bc16596f9.core.5587a85061e7188a-cgu.0.rcgu.o)
                0x000000000011b2c8                core::slice::index::slice_end_index_len_fail
 .text.unlikely._ZN4core5slice5index22slice_index_order_fail17hb31f14bd82bfcb5bE
                0x000000000011b2d4        0xc ./gen/../tecsrustUART/target/armv7a-none-eabi/release/libitron.a(core-d049573bc16596f9.core.5587a85061e7188a-cgu.0.rcgu.o)
                0x000000000011b2d4                core::slice::index::slice_index_order_fail
 .text.unlikely._ZN4core5slice5index31slice_start_index_overflow_fail17h682402ba819c482dE
                0x000000000011b2e0       0x40 ./gen/../tecsrustUART/target/armv7a-none-eabi/release/libitron.a(core-d049573bc16596f9.core.5587a85061e7188a-cgu.0.rcgu.o)
                0x000000000011b2e0                core::slice::index::slice_start_index_overflow_fail
 .text.unlikely._ZN4core5slice5index29slice_end_index_overflow_fail17h6d8526257621818dE
                0x000000000011b320       0x40 ./gen/../tecsrustUART/target/armv7a-none-eabi/release/libitron.a(core-d049573bc16596f9.core.5587a85061e7188a-cgu.0.rcgu.o)
                0x000000000011b320                core::slice::index::slice_end_index_overflow_fail
 .text._ZN4core5slice5index10into_range17h838d5809396762d6E
                0x000000000011b360       0x74 ./gen/../tecsrustUART/target/armv7a-none-eabi/release/libitron.a(core-d049573bc16596f9.core.5587a85061e7188a-cgu.0.rcgu.o)
                0x000000000011b360                core::slice::index::into_range
 .text._ZN4core5slice5index16into_slice_range17h4e76af1b067ea36eE
                0x000000000011b3d4       0x78 ./gen/../tecsrustUART/target/armv7a-none-eabi/release/libitron.a(core-d049573bc16596f9.core.5587a85061e7188a-cgu.0.rcgu.o)
                0x000000000011b3d4                core::slice::index::into_slice_range
 .text.unlikely._ZN4core5slice29_$LT$impl$u20$$u5b$T$u5d$$GT$15copy_from_slice17len_mismatch_fail17hf3c6b69109ca94ceE
                0x000000000011b44c       0x18 ./gen/../tecsrustUART/target/armv7a-none-eabi/release/libitron.a(core-d049573bc16596f9.core.5587a85061e7188a-cgu.0.rcgu.o)
                0x000000000011b44c                core::slice::<impl [T]>::copy_from_slice::len_mismatch_fail
 .text._ZN4core5slice29_$LT$impl$u20$$u5b$T$u5d$$GT$16align_to_offsets3gcd17h9ccf75cedf78b32bE
                0x000000000011b464       0x38 ./gen/../tecsrustUART/target/armv7a-none-eabi/release/libitron.a(core-d049573bc16596f9.core.5587a85061e7188a-cgu.0.rcgu.o)
                0x000000000011b464                core::slice::<impl [T]>::align_to_offsets::gcd
 .text._ZN71_$LT$core..slice..GetDisjointMutError$u20$as$u20$core..fmt..Display$GT$3fmt17h67ba63dcac76d19cE
                0x000000000011b49c       0x48 ./gen/../tecsrustUART/target/armv7a-none-eabi/release/libitron.a(core-d049573bc16596f9.core.5587a85061e7188a-cgu.0.rcgu.o)
                0x000000000011b49c                <core::slice::GetDisjointMutError as core::fmt::Display>::fmt
 .text._ZN4core3str8converts9from_utf817h69ed1439eba52b92E
                0x000000000011b4e4      0x260 ./gen/../tecsrustUART/target/armv7a-none-eabi/release/libitron.a(core-d049573bc16596f9.core.5587a85061e7188a-cgu.0.rcgu.o)
                0x000000000011b4e4                core::str::converts::from_utf8
 .text._ZN4core3str8converts13from_utf8_mut17h4e3a295159d63a91E
                0x000000000011b744      0x260 ./gen/../tecsrustUART/target/armv7a-none-eabi/release/libitron.a(core-d049573bc16596f9.core.5587a85061e7188a-cgu.0.rcgu.o)
                0x000000000011b744                core::str::converts::from_utf8_mut
 .text._ZN4core3str5count14do_count_chars17h9cffd9e3dec45553E
                0x000000000011b9a4      0x240 ./gen/../tecsrustUART/target/armv7a-none-eabi/release/libitron.a(core-d049573bc16596f9.core.5587a85061e7188a-cgu.0.rcgu.o)
                0x000000000011b9a4                core::str::count::do_count_chars
 .text._ZN4core3str5count23char_count_general_case17h4d4c6ce16c4d1906E
                0x000000000011bbe4       0x34 ./gen/../tecsrustUART/target/armv7a-none-eabi/release/libitron.a(core-d049573bc16596f9.core.5587a85061e7188a-cgu.0.rcgu.o)
                0x000000000011bbe4                core::str::count::char_count_general_case
 .text._ZN66_$LT$core..str..error..Utf8Error$u20$as$u20$core..fmt..Display$GT$3fmt17h291d6cbe57b75336E
                0x000000000011bc18       0xb8 ./gen/../tecsrustUART/target/armv7a-none-eabi/release/libitron.a(core-d049573bc16596f9.core.5587a85061e7188a-cgu.0.rcgu.o)
                0x000000000011bc18                <core::str::error::Utf8Error as core::fmt::Display>::fmt
 .text._ZN71_$LT$core..str..error..ParseBoolError$u20$as$u20$core..fmt..Display$GT$3fmt17h8ff3dff7cf95e9f3E
                0x000000000011bcd0       0x20 ./gen/../tecsrustUART/target/armv7a-none-eabi/release/libitron.a(core-d049573bc16596f9.core.5587a85061e7188a-cgu.0.rcgu.o)
                0x000000000011bcd0                <core::str::error::ParseBoolError as core::fmt::Display>::fmt
 .text._ZN59_$LT$core..str..iter..Chars$u20$as$u20$core..fmt..Debug$GT$3fmt17hc296714f5aca8f63E
                0x000000000011bcf0      0x720 ./gen/../tecsrustUART/target/armv7a-none-eabi/release/libitron.a(core-d049573bc16596f9.core.5587a85061e7188a-cgu.0.rcgu.o)
                0x000000000011bcf0                <core::str::iter::Chars as core::fmt::Debug>::fmt
 .text._ZN65_$LT$core..str..iter..EncodeUtf16$u20$as$u20$core..fmt..Debug$GT$3fmt17h470f6ac5da350b32E
                0x000000000011c410       0x54 ./gen/../tecsrustUART/target/armv7a-none-eabi/release/libitron.a(core-d049573bc16596f9.core.5587a85061e7188a-cgu.0.rcgu.o)
                0x000000000011c410                <core::str::iter::EncodeUtf16 as core::fmt::Debug>::fmt
 .text.unlikely._ZN4core3str6traits23str_index_overflow_fail17h8bf11899d5e405f7E
                0x000000000011c464       0x40 ./gen/../tecsrustUART/target/armv7a-none-eabi/release/libitron.a(core-d049573bc16596f9.core.5587a85061e7188a-cgu.0.rcgu.o)
                0x000000000011c464                core::str::traits::str_index_overflow_fail
 .text._ZN4core3str7pattern11StrSearcher3new17h9540c37606476449E
                0x000000000011c4a4      0x4a4 ./gen/../tecsrustUART/target/armv7a-none-eabi/release/libitron.a(core-d049573bc16596f9.core.5587a85061e7188a-cgu.0.rcgu.o)
                0x000000000011c4a4                core::str::pattern::StrSearcher::new
 .text._ZN60_$LT$core..str..lossy..Debug$u20$as$u20$core..fmt..Debug$GT$3fmt17h8e77771fab7a2f70E
                0x000000000011c948      0x430 ./gen/../tecsrustUART/target/armv7a-none-eabi/release/libitron.a(core-d049573bc16596f9.core.5587a85061e7188a-cgu.0.rcgu.o)
                0x000000000011c948                <core::str::lossy::Debug as core::fmt::Debug>::fmt
 .text._ZN87_$LT$core..str..lossy..Utf8Chunks$u20$as$u20$core..iter..traits..iterator..Iterator$GT$4next17he7d6cc4011e7786bE
                0x000000000011cd78      0x1e0 ./gen/../tecsrustUART/target/armv7a-none-eabi/release/libitron.a(core-d049573bc16596f9.core.5587a85061e7188a-cgu.0.rcgu.o)
                0x000000000011cd78                <core::str::lossy::Utf8Chunks as core::iter::traits::iterator::Iterator>::next
 .text._ZN65_$LT$core..str..lossy..Utf8Chunks$u20$as$u20$core..fmt..Debug$GT$3fmt17h9c45e8ae8211e985E
                0x000000000011cf58       0xe8 ./gen/../tecsrustUART/target/armv7a-none-eabi/release/libitron.a(core-d049573bc16596f9.core.5587a85061e7188a-cgu.0.rcgu.o)
                0x000000000011cf58                <core::str::lossy::Utf8Chunks as core::fmt::Debug>::fmt
 .text.unlikely._ZN4core3str16slice_error_fail17h4d59bc1e755bbe4fE
                0x000000000011d040       0x18 ./gen/../tecsrustUART/target/armv7a-none-eabi/release/libitron.a(core-d049573bc16596f9.core.5587a85061e7188a-cgu.0.rcgu.o)
                0x000000000011d040                core::str::slice_error_fail
 .text.unlikely._ZN4core3str19slice_error_fail_ct17hb73804428b3ba7caE
                0x000000000011d058       0x40 ./gen/../tecsrustUART/target/armv7a-none-eabi/release/libitron.a(core-d049573bc16596f9.core.5587a85061e7188a-cgu.0.rcgu.o)
                0x000000000011d058                core::str::slice_error_fail_ct
 .text._ZN4core3str19slice_error_fail_rt17h7b2b73d8d28473e0E
                0x000000000011d098      0x3d4 ./gen/../tecsrustUART/target/armv7a-none-eabi/release/libitron.a(core-d049573bc16596f9.core.5587a85061e7188a-cgu.0.rcgu.o)
                0x000000000011d098                core::str::slice_error_fail_rt
 .text._ZN4core3str21_$LT$impl$u20$str$GT$9from_utf817h9c50c6b49793a8caE
                0x000000000011d46c       0x10 ./gen/../tecsrustUART/target/armv7a-none-eabi/release/libitron.a(core-d049573bc16596f9.core.5587a85061e7188a-cgu.0.rcgu.o)
                0x000000000011d46c                core::str::<impl str>::from_utf8
 .text._ZN4core3str21_$LT$impl$u20$str$GT$13from_utf8_mut17hf789198352a0c0d6E
                0x000000000011d47c       0x10 ./gen/../tecsrustUART/target/armv7a-none-eabi/release/libitron.a(core-d049573bc16596f9.core.5587a85061e7188a-cgu.0.rcgu.o)
                0x000000000011d47c                core::str::<impl str>::from_utf8_mut
 .text._ZN4core3str21_$LT$impl$u20$str$GT$18split_at_unchecked17h522070e8531a247cE
                0x000000000011d48c       0x20 ./gen/../tecsrustUART/target/armv7a-none-eabi/release/libitron.a(core-d049573bc16596f9.core.5587a85061e7188a-cgu.0.rcgu.o)
                0x000000000011d48c                core::str::<impl str>::split_at_unchecked
 .text._ZN4core3str21_$LT$impl$u20$str$GT$22split_at_mut_unchecked17h188b8cf0a61e80b3E
                0x000000000011d4ac       0x20 ./gen/../tecsrustUART/target/armv7a-none-eabi/release/libitron.a(core-d049573bc16596f9.core.5587a85061e7188a-cgu.0.rcgu.o)
                0x000000000011d4ac                core::str::<impl str>::split_at_mut_unchecked
 .text._ZN4core3str21_$LT$impl$u20$str$GT$12escape_debug17h4c843b37cf90aab8E
                0x000000000011d4cc      0x13c ./gen/../tecsrustUART/target/armv7a-none-eabi/release/libitron.a(core-d049573bc16596f9.core.5587a85061e7188a-cgu.0.rcgu.o)
                0x000000000011d4cc                core::str::<impl str>::escape_debug
 .text._ZN4core3str21_$LT$impl$u20$str$GT$12substr_range17ha623b8a5a8d1bca1E
                0x000000000011d608       0x30 ./gen/../tecsrustUART/target/armv7a-none-eabi/release/libitron.a(core-d049573bc16596f9.core.5587a85061e7188a-cgu.0.rcgu.o)
                0x000000000011d608                core::str::<impl str>::substr_range
 .text._ZN57_$LT$core..time..Duration$u20$as$u20$core..fmt..Debug$GT$3fmt17hcd9ec431bc2fce92E
                0x000000000011d638      0x160 ./gen/../tecsrustUART/target/armv7a-none-eabi/release/libitron.a(core-d049573bc16596f9.core.5587a85061e7188a-cgu.0.rcgu.o)
                0x000000000011d638                <core::time::Duration as core::fmt::Debug>::fmt
 .text._ZN57_$LT$core..time..Duration$u20$as$u20$core..fmt..Debug$GT$3fmt11fmt_decimal17h7fdaad1885d942cdE
                0x000000000011d798      0x730 ./gen/../tecsrustUART/target/armv7a-none-eabi/release/libitron.a(core-d049573bc16596f9.core.5587a85061e7188a-cgu.0.rcgu.o)
 .text._ZN57_$LT$core..time..Duration$u20$as$u20$core..fmt..Debug$GT$3fmt11fmt_decimal28_$u7b$$u7b$closure$u7d$$u7d$17hbee2c0b3604668e7E
                0x000000000011dec8      0x260 ./gen/../tecsrustUART/target/armv7a-none-eabi/release/libitron.a(core-d049573bc16596f9.core.5587a85061e7188a-cgu.0.rcgu.o)
 .text._ZN72_$LT$core..time..TryFromFloatSecsError$u20$as$u20$core..fmt..Display$GT$3fmt17hbbacbc01f2a2ba20E
                0x000000000011e128       0x48 ./gen/../tecsrustUART/target/armv7a-none-eabi/release/libitron.a(core-d049573bc16596f9.core.5587a85061e7188a-cgu.0.rcgu.o)
                0x000000000011e128                <core::time::TryFromFloatSecsError as core::fmt::Display>::fmt
 .text._ZN4core7unicode9printable5check17hc9e6c3ef98e586f8E
                0x000000000011e170      0x124 ./gen/../tecsrustUART/target/armv7a-none-eabi/release/libitron.a(core-d049573bc16596f9.core.5587a85061e7188a-cgu.0.rcgu.o)
 .text._ZN4core7unicode9printable12is_printable17he99174ef5bcc9597E
                0x000000000011e294      0x1c0 ./gen/../tecsrustUART/target/armv7a-none-eabi/release/libitron.a(core-d049573bc16596f9.core.5587a85061e7188a-cgu.0.rcgu.o)
                0x000000000011e294                core::unicode::printable::is_printable
 .text._ZN62_$LT$core..task..wake..Context$u20$as$u20$core..fmt..Debug$GT$3fmt17h2b9656f805ec1368E
                0x000000000011e454       0xdc ./gen/../tecsrustUART/target/armv7a-none-eabi/release/libitron.a(core-d049573bc16596f9.core.5587a85061e7188a-cgu.0.rcgu.o)
                0x000000000011e454                <core::task::wake::Context as core::fmt::Debug>::fmt
 .text._ZN60_$LT$core..task..wake..Waker$u20$as$u20$core..fmt..Debug$GT$3fmt17h961c0fb15e9f08e6E
                0x000000000011e530      0x104 ./gen/../tecsrustUART/target/armv7a-none-eabi/release/libitron.a(core-d049573bc16596f9.core.5587a85061e7188a-cgu.0.rcgu.o)
                0x000000000011e530                <core::task::wake::Waker as core::fmt::Debug>::fmt
 .text._ZN65_$LT$core..task..wake..LocalWaker$u20$as$u20$core..fmt..Debug$GT$3fmt17h9f8823dc3c851087E
                0x000000000011e634      0x104 ./gen/../tecsrustUART/target/armv7a-none-eabi/release/libitron.a(core-d049573bc16596f9.core.5587a85061e7188a-cgu.0.rcgu.o)
                0x000000000011e634                <core::task::wake::LocalWaker as core::fmt::Debug>::fmt
 .text._ZN4core5alloc6layout6Layout19is_size_align_valid17hf9c352be39c461d0E
                0x000000000011e738       0x34 ./gen/../tecsrustUART/target/armv7a-none-eabi/release/libitron.a(core-d049573bc16596f9.core.5587a85061e7188a-cgu.0.rcgu.o)
                0x000000000011e738                core::alloc::layout::Layout::is_size_align_valid
 .text._ZN71_$LT$core..alloc..layout..LayoutError$u20$as$u20$core..fmt..Display$GT$3fmt17hdfc7ce4964ee7964E
                0x000000000011e76c       0x24 ./gen/../tecsrustUART/target/armv7a-none-eabi/release/libitron.a(core-d049573bc16596f9.core.5587a85061e7188a-cgu.0.rcgu.o)
                0x000000000011e76c                <core::alloc::layout::LayoutError as core::fmt::Display>::fmt
 .text._ZN62_$LT$core..alloc..AllocError$u20$as$u20$core..fmt..Display$GT$3fmt17h096a3621f7a659a9E
                0x000000000011e790       0x24 ./gen/../tecsrustUART/target/armv7a-none-eabi/release/libitron.a(core-d049573bc16596f9.core.5587a85061e7188a-cgu.0.rcgu.o)
                0x000000000011e790                <core::alloc::AllocError as core::fmt::Display>::fmt
 .text.unlikely._ZN4core3f3221_$LT$impl$u20$f32$GT$5clamp8do_panic7runtime17hd78a99da53448aa4E
                0x000000000011e7b4       0x64 ./gen/../tecsrustUART/target/armv7a-none-eabi/release/libitron.a(core-d049573bc16596f9.core.5587a85061e7188a-cgu.0.rcgu.o)
                0x000000000011e7b4                core::f32::<impl f32>::clamp::do_panic::runtime
 .text.unlikely._ZN4core3f6421_$LT$impl$u20$f64$GT$5clamp8do_panic7runtime17h70e260bb90954182E
                0x000000000011e818       0x64 ./gen/../tecsrustUART/target/armv7a-none-eabi/release/libitron.a(core-d049573bc16596f9.core.5587a85061e7188a-cgu.0.rcgu.o)
                0x000000000011e818                core::f64::<impl f64>::clamp::do_panic::runtime
 .text._ZN49_$LT$u8$u20$as$u20$core..num..bignum..FullOps$GT$12full_div_rem17h2cc384f2d3e77a4fE
                0x000000000011e87c       0x3c ./gen/../tecsrustUART/target/armv7a-none-eabi/release/libitron.a(core-d049573bc16596f9.core.5587a85061e7188a-cgu.0.rcgu.o)
                0x000000000011e87c                <u8 as core::num::bignum::FullOps>::full_div_rem
 .text._ZN50_$LT$u16$u20$as$u20$core..num..bignum..FullOps$GT$12full_div_rem17h895795127941bc5fE
                0x000000000011e8b8       0x3c ./gen/../tecsrustUART/target/armv7a-none-eabi/release/libitron.a(core-d049573bc16596f9.core.5587a85061e7188a-cgu.0.rcgu.o)
                0x000000000011e8b8                <u16 as core::num::bignum::FullOps>::full_div_rem
 .text._ZN50_$LT$u32$u20$as$u20$core..num..bignum..FullOps$GT$12full_div_rem17h28797f3a608675a0E
                0x000000000011e8f4       0x3c ./gen/../tecsrustUART/target/armv7a-none-eabi/release/libitron.a(core-d049573bc16596f9.core.5587a85061e7188a-cgu.0.rcgu.o)
                0x000000000011e8f4                <u32 as core::num::bignum::FullOps>::full_div_rem
 .text._ZN4core3num6bignum8Big32x408from_u6417hdb3b6b903cdc3a74E
                0x000000000011e930       0x48 ./gen/../tecsrustUART/target/armv7a-none-eabi/release/libitron.a(core-d049573bc16596f9.core.5587a85061e7188a-cgu.0.rcgu.o)
                0x000000000011e930                core::num::bignum::Big32x40::from_u64
 .text._ZN4core3num6bignum8Big32x406digits17hc74a7300cf748785E
                0x000000000011e978       0x28 ./gen/../tecsrustUART/target/armv7a-none-eabi/release/libitron.a(core-d049573bc16596f9.core.5587a85061e7188a-cgu.0.rcgu.o)
                0x000000000011e978                core::num::bignum::Big32x40::digits
 .text._ZN4core3num6bignum8Big32x407get_bit17hae59a386b0269424E
                0x000000000011e9a0       0x3c ./gen/../tecsrustUART/target/armv7a-none-eabi/release/libitron.a(core-d049573bc16596f9.core.5587a85061e7188a-cgu.0.rcgu.o)
                0x000000000011e9a0                core::num::bignum::Big32x40::get_bit
 .text._ZN4core3num6bignum8Big32x407is_zero17h00d7531c94d29d9dE
                0x000000000011e9dc       0x54 ./gen/../tecsrustUART/target/armv7a-none-eabi/release/libitron.a(core-d049573bc16596f9.core.5587a85061e7188a-cgu.0.rcgu.o)
                0x000000000011e9dc                core::num::bignum::Big32x40::is_zero
 .text._ZN4core3num6bignum8Big32x4010bit_length17h970dea92bc07a054E
                0x000000000011ea30       0x88 ./gen/../tecsrustUART/target/armv7a-none-eabi/release/libitron.a(core-d049573bc16596f9.core.5587a85061e7188a-cgu.0.rcgu.o)
                0x000000000011ea30                core::num::bignum::Big32x40::bit_length
 .text._ZN4core3num6bignum8Big32x403add17hf98911729d873c67E
                0x000000000011eab8       0xbc ./gen/../tecsrustUART/target/armv7a-none-eabi/release/libitron.a(core-d049573bc16596f9.core.5587a85061e7188a-cgu.0.rcgu.o)
                0x000000000011eab8                core::num::bignum::Big32x40::add
 .text._ZN4core3num6bignum8Big32x409add_small17hae56cb6d24b5dd80E
                0x000000000011eb74      0x34c ./gen/../tecsrustUART/target/armv7a-none-eabi/release/libitron.a(core-d049573bc16596f9.core.5587a85061e7188a-cgu.0.rcgu.o)
                0x000000000011eb74                core::num::bignum::Big32x40::add_small
 .text._ZN4core3num6bignum8Big32x403sub17h8543d30192c621ccE
                0x000000000011eec0       0xa0 ./gen/../tecsrustUART/target/armv7a-none-eabi/release/libitron.a(core-d049573bc16596f9.core.5587a85061e7188a-cgu.0.rcgu.o)
                0x000000000011eec0                core::num::bignum::Big32x40::sub
 .text._ZN4core3num6bignum8Big32x409mul_small17h34ad2799e68baebeE
                0x000000000011ef60       0xa0 ./gen/../tecsrustUART/target/armv7a-none-eabi/release/libitron.a(core-d049573bc16596f9.core.5587a85061e7188a-cgu.0.rcgu.o)
                0x000000000011ef60                core::num::bignum::Big32x40::mul_small
 .text._ZN4core3num6bignum8Big32x408mul_pow217h15e29a86c60dd6baE
                0x000000000011f000      0x314 ./gen/../tecsrustUART/target/armv7a-none-eabi/release/libitron.a(core-d049573bc16596f9.core.5587a85061e7188a-cgu.0.rcgu.o)
                0x000000000011f000                core::num::bignum::Big32x40::mul_pow2
 .text._ZN4core3num6bignum8Big32x408mul_pow517h4477c92c4a717ba9E
                0x000000000011f314      0x130 ./gen/../tecsrustUART/target/armv7a-none-eabi/release/libitron.a(core-d049573bc16596f9.core.5587a85061e7188a-cgu.0.rcgu.o)
                0x000000000011f314                core::num::bignum::Big32x40::mul_pow5
 .text._ZN4core3num6bignum8Big32x4010mul_digits17hc6f1ffa637e3696eE
                0x000000000011f444      0x2f0 ./gen/../tecsrustUART/target/armv7a-none-eabi/release/libitron.a(core-d049573bc16596f9.core.5587a85061e7188a-cgu.0.rcgu.o)
                0x000000000011f444                core::num::bignum::Big32x40::mul_digits
 .text._ZN4core3num6bignum8Big32x4013div_rem_small17hddc1707b10a22fddE
                0x000000000011f734       0x98 ./gen/../tecsrustUART/target/armv7a-none-eabi/release/libitron.a(core-d049573bc16596f9.core.5587a85061e7188a-cgu.0.rcgu.o)
                0x000000000011f734                core::num::bignum::Big32x40::div_rem_small
 .text._ZN4core3num6bignum8Big32x407div_rem17h0bf0c17f8e59470eE
                0x000000000011f7cc      0x294 ./gen/../tecsrustUART/target/armv7a-none-eabi/release/libitron.a(core-d049573bc16596f9.core.5587a85061e7188a-cgu.0.rcgu.o)
                0x000000000011f7cc                core::num::bignum::Big32x40::div_rem
 .text._ZN68_$LT$core..num..bignum..Big32x40$u20$as$u20$core..cmp..PartialEq$GT$2eq17h2b3b2b69262323daE
                0x000000000011fa60       0x1c ./gen/../tecsrustUART/target/armv7a-none-eabi/release/libitron.a(core-d049573bc16596f9.core.5587a85061e7188a-cgu.0.rcgu.o)
                0x000000000011fa60                <core::num::bignum::Big32x40 as core::cmp::PartialEq>::eq
 .text._ZN69_$LT$core..num..bignum..Big32x40$u20$as$u20$core..cmp..PartialOrd$GT$11partial_cmp17hfaa047bbd7529c6dE
                0x000000000011fa7c       0x80 ./gen/../tecsrustUART/target/armv7a-none-eabi/release/libitron.a(core-d049573bc16596f9.core.5587a85061e7188a-cgu.0.rcgu.o)
                0x000000000011fa7c                <core::num::bignum::Big32x40 as core::cmp::PartialOrd>::partial_cmp
 .text._ZN62_$LT$core..num..bignum..Big32x40$u20$as$u20$core..cmp..Ord$GT$3cmp17h3a927d79b9dd52acE
                0x000000000011fafc       0x80 ./gen/../tecsrustUART/target/armv7a-none-eabi/release/libitron.a(core-d049573bc16596f9.core.5587a85061e7188a-cgu.0.rcgu.o)
                0x000000000011fafc                <core::num::bignum::Big32x40 as core::cmp::Ord>::cmp
 .text._ZN64_$LT$core..num..bignum..Big32x40$u20$as$u20$core..fmt..Debug$GT$3fmt17hc2049124d32db79eE
                0x000000000011fb7c      0x154 ./gen/../tecsrustUART/target/armv7a-none-eabi/release/libitron.a(core-d049573bc16596f9.core.5587a85061e7188a-cgu.0.rcgu.o)
                0x000000000011fb7c                <core::num::bignum::Big32x40 as core::fmt::Debug>::fmt
 .text._ZN4core3num6bignum5tests6Big8x38from_u6417hd68b6d9a5152475dE
                0x000000000011fcd0       0x98 ./gen/../tecsrustUART/target/armv7a-none-eabi/release/libitron.a(core-d049573bc16596f9.core.5587a85061e7188a-cgu.0.rcgu.o)
                0x000000000011fcd0                core::num::bignum::tests::Big8x3::from_u64
 .text._ZN4core3num6bignum5tests6Big8x36digits17he3519563a60c1407E
                0x000000000011fd68       0x2c ./gen/../tecsrustUART/target/armv7a-none-eabi/release/libitron.a(core-d049573bc16596f9.core.5587a85061e7188a-cgu.0.rcgu.o)
                0x000000000011fd68                core::num::bignum::tests::Big8x3::digits
 .text._ZN4core3num6bignum5tests6Big8x37get_bit17h3c0e105d94bd5b13E
                0x000000000011fd94       0x3c ./gen/../tecsrustUART/target/armv7a-none-eabi/release/libitron.a(core-d049573bc16596f9.core.5587a85061e7188a-cgu.0.rcgu.o)
                0x000000000011fd94                core::num::bignum::tests::Big8x3::get_bit
 .text._ZN4core3num6bignum5tests6Big8x37is_zero17h32e72f5d7dbb5adbE
                0x000000000011fdd0       0x90 ./gen/../tecsrustUART/target/armv7a-none-eabi/release/libitron.a(core-d049573bc16596f9.core.5587a85061e7188a-cgu.0.rcgu.o)
                0x000000000011fdd0                core::num::bignum::tests::Big8x3::is_zero
 .text._ZN4core3num6bignum5tests6Big8x310bit_length17h83652b24f2592b66E
                0x000000000011fe60       0xd4 ./gen/../tecsrustUART/target/armv7a-none-eabi/release/libitron.a(core-d049573bc16596f9.core.5587a85061e7188a-cgu.0.rcgu.o)
                0x000000000011fe60                core::num::bignum::tests::Big8x3::bit_length
 .text._ZN4core3num6bignum5tests6Big8x33add17h0ea9b7b009d144c0E
                0x000000000011ff34       0xd4 ./gen/../tecsrustUART/target/armv7a-none-eabi/release/libitron.a(core-d049573bc16596f9.core.5587a85061e7188a-cgu.0.rcgu.o)
                0x000000000011ff34                core::num::bignum::tests::Big8x3::add
 .text._ZN4core3num6bignum5tests6Big8x39add_small17hfb578bb3ef3121e5E
                0x0000000000120008       0x80 ./gen/../tecsrustUART/target/armv7a-none-eabi/release/libitron.a(core-d049573bc16596f9.core.5587a85061e7188a-cgu.0.rcgu.o)
                0x0000000000120008                core::num::bignum::tests::Big8x3::add_small
 .text._ZN4core3num6bignum5tests6Big8x33sub17he7cc307db19dcf38E
                0x0000000000120088       0xb4 ./gen/../tecsrustUART/target/armv7a-none-eabi/release/libitron.a(core-d049573bc16596f9.core.5587a85061e7188a-cgu.0.rcgu.o)
                0x0000000000120088                core::num::bignum::tests::Big8x3::sub
 .text._ZN4core3num6bignum5tests6Big8x39mul_small17h88500d5dffbe03a5E
                0x000000000012013c       0xc8 ./gen/../tecsrustUART/target/armv7a-none-eabi/release/libitron.a(core-d049573bc16596f9.core.5587a85061e7188a-cgu.0.rcgu.o)
                0x000000000012013c                core::num::bignum::tests::Big8x3::mul_small
 .text._ZN4core3num6bignum5tests6Big8x38mul_pow217h7241f869c32bebc8E
                0x0000000000120204      0x164 ./gen/../tecsrustUART/target/armv7a-none-eabi/release/libitron.a(core-d049573bc16596f9.core.5587a85061e7188a-cgu.0.rcgu.o)
                0x0000000000120204                core::num::bignum::tests::Big8x3::mul_pow2
 .text._ZN4core3num6bignum5tests6Big8x38mul_pow517hbf8d1887a577d4b9E
                0x0000000000120368      0x174 ./gen/../tecsrustUART/target/armv7a-none-eabi/release/libitron.a(core-d049573bc16596f9.core.5587a85061e7188a-cgu.0.rcgu.o)
                0x0000000000120368                core::num::bignum::tests::Big8x3::mul_pow5
 .text._ZN4core3num6bignum5tests6Big8x310mul_digits17hc92e3128bf16df9bE
                0x00000000001204dc      0x404 ./gen/../tecsrustUART/target/armv7a-none-eabi/release/libitron.a(core-d049573bc16596f9.core.5587a85061e7188a-cgu.0.rcgu.o)
                0x00000000001204dc                core::num::bignum::tests::Big8x3::mul_digits
 .text._ZN4core3num6bignum5tests6Big8x313div_rem_small17h3d76b4dc7e13bdf9E
                0x00000000001208e0       0xdc ./gen/../tecsrustUART/target/armv7a-none-eabi/release/libitron.a(core-d049573bc16596f9.core.5587a85061e7188a-cgu.0.rcgu.o)
                0x00000000001208e0                core::num::bignum::tests::Big8x3::div_rem_small
 .text._ZN4core3num6bignum5tests6Big8x37div_rem17hd07a45cafecfa95dE
                0x00000000001209bc      0x30c ./gen/../tecsrustUART/target/armv7a-none-eabi/release/libitron.a(core-d049573bc16596f9.core.5587a85061e7188a-cgu.0.rcgu.o)
                0x00000000001209bc                core::num::bignum::tests::Big8x3::div_rem
 .text._ZN73_$LT$core..num..bignum..tests..Big8x3$u20$as$u20$core..cmp..PartialEq$GT$2eq17h2a5bec94bf0063b9E
                0x0000000000120cc8       0x24 ./gen/../tecsrustUART/target/armv7a-none-eabi/release/libitron.a(core-d049573bc16596f9.core.5587a85061e7188a-cgu.0.rcgu.o)
                0x0000000000120cc8                <core::num::bignum::tests::Big8x3 as core::cmp::PartialEq>::eq
 .text._ZN74_$LT$core..num..bignum..tests..Big8x3$u20$as$u20$core..cmp..PartialOrd$GT$11partial_cmp17h48d5846d2573a5e1E
                0x0000000000120cec       0xbc ./gen/../tecsrustUART/target/armv7a-none-eabi/release/libitron.a(core-d049573bc16596f9.core.5587a85061e7188a-cgu.0.rcgu.o)
                0x0000000000120cec                <core::num::bignum::tests::Big8x3 as core::cmp::PartialOrd>::partial_cmp
 .text._ZN67_$LT$core..num..bignum..tests..Big8x3$u20$as$u20$core..cmp..Ord$GT$3cmp17h8a7502baf7f3c9a5E
                0x0000000000120da8       0xbc ./gen/../tecsrustUART/target/armv7a-none-eabi/release/libitron.a(core-d049573bc16596f9.core.5587a85061e7188a-cgu.0.rcgu.o)
                0x0000000000120da8                <core::num::bignum::tests::Big8x3 as core::cmp::Ord>::cmp
 .text._ZN69_$LT$core..num..bignum..tests..Big8x3$u20$as$u20$core..fmt..Debug$GT$3fmt17hf9300f71b8428542E
                0x0000000000120e64      0x13c ./gen/../tecsrustUART/target/armv7a-none-eabi/release/libitron.a(core-d049573bc16596f9.core.5587a85061e7188a-cgu.0.rcgu.o)
                0x0000000000120e64                <core::num::bignum::tests::Big8x3 as core::fmt::Debug>::fmt
 .text._ZN4core3num7dec2flt60_$LT$impl$u20$core..str..traits..FromStr$u20$for$u20$f16$GT$8from_str17h0d34f16cb03d4084E
                0x0000000000120fa0      0x638 ./gen/../tecsrustUART/target/armv7a-none-eabi/release/libitron.a(core-d049573bc16596f9.core.5587a85061e7188a-cgu.0.rcgu.o)
                0x0000000000120fa0                core::num::dec2flt::<impl core::str::traits::FromStr for f16>::from_str
 .text._ZN4core3num7dec2flt60_$LT$impl$u20$core..str..traits..FromStr$u20$for$u20$f32$GT$8from_str17haab41bb9ce3e1e69E
                0x00000000001215d8      0x608 ./gen/../tecsrustUART/target/armv7a-none-eabi/release/libitron.a(core-d049573bc16596f9.core.5587a85061e7188a-cgu.0.rcgu.o)
                0x00000000001215d8                core::num::dec2flt::<impl core::str::traits::FromStr for f32>::from_str
 .text._ZN4core3num7dec2flt60_$LT$impl$u20$core..str..traits..FromStr$u20$for$u20$f64$GT$8from_str17h9934b968a57533b4E
                0x0000000000121be0      0x668 ./gen/../tecsrustUART/target/armv7a-none-eabi/release/libitron.a(core-d049573bc16596f9.core.5587a85061e7188a-cgu.0.rcgu.o)
                0x0000000000121be0                core::num::dec2flt::<impl core::str::traits::FromStr for f64>::from_str
 .text._ZN73_$LT$core..num..nonzero..NonZero$LT$T$GT$$u20$as$u20$core..fmt..Debug$GT$3fmt17hfee7ea0a19225bacE
                0x0000000000122248       0xc0 ./gen/../tecsrustUART/target/armv7a-none-eabi/release/libitron.a(core-d049573bc16596f9.core.5587a85061e7188a-cgu.0.rcgu.o)
 .text._ZN84_$LT$core..num..nonzero..NonZero$LT$u8$GT$$u20$as$u20$core..str..traits..FromStr$GT$8from_str17ha566d71859ee37bcE
                0x0000000000122308      0x148 ./gen/../tecsrustUART/target/armv7a-none-eabi/release/libitron.a(core-d049573bc16596f9.core.5587a85061e7188a-cgu.0.rcgu.o)
                0x0000000000122308                <core::num::nonzero::NonZero<u8> as core::str::traits::FromStr>::from_str
 .text._ZN85_$LT$core..num..nonzero..NonZero$LT$u16$GT$$u20$as$u20$core..str..traits..FromStr$GT$8from_str17h22aefbcb4cc26c68E
                0x0000000000122450      0x14c ./gen/../tecsrustUART/target/armv7a-none-eabi/release/libitron.a(core-d049573bc16596f9.core.5587a85061e7188a-cgu.0.rcgu.o)
                0x0000000000122450                <core::num::nonzero::NonZero<u16> as core::str::traits::FromStr>::from_str
 .text._ZN85_$LT$core..num..nonzero..NonZero$LT$u32$GT$$u20$as$u20$core..str..traits..FromStr$GT$8from_str17h957fe3dbd5a241bcE
                0x000000000012259c      0x150 ./gen/../tecsrustUART/target/armv7a-none-eabi/release/libitron.a(core-d049573bc16596f9.core.5587a85061e7188a-cgu.0.rcgu.o)
                0x000000000012259c                <core::num::nonzero::NonZero<u32> as core::str::traits::FromStr>::from_str
 .text._ZN85_$LT$core..num..nonzero..NonZero$LT$u64$GT$$u20$as$u20$core..str..traits..FromStr$GT$8from_str17hb05b038cb220d66cE
                0x00000000001226ec      0x158 ./gen/../tecsrustUART/target/armv7a-none-eabi/release/libitron.a(core-d049573bc16596f9.core.5587a85061e7188a-cgu.0.rcgu.o)
                0x00000000001226ec                <core::num::nonzero::NonZero<u64> as core::str::traits::FromStr>::from_str
 .text._ZN86_$LT$core..num..nonzero..NonZero$LT$u128$GT$$u20$as$u20$core..str..traits..FromStr$GT$8from_str17hce0b07860262ce09E
                0x0000000000122844      0x1c8 ./gen/../tecsrustUART/target/armv7a-none-eabi/release/libitron.a(core-d049573bc16596f9.core.5587a85061e7188a-cgu.0.rcgu.o)
                0x0000000000122844                <core::num::nonzero::NonZero<u128> as core::str::traits::FromStr>::from_str
 .text._ZN87_$LT$core..num..nonzero..NonZero$LT$usize$GT$$u20$as$u20$core..str..traits..FromStr$GT$8from_str17h1733288da9636848E
                0x0000000000122a0c      0x130 ./gen/../tecsrustUART/target/armv7a-none-eabi/release/libitron.a(core-d049573bc16596f9.core.5587a85061e7188a-cgu.0.rcgu.o)
                0x0000000000122a0c                <core::num::nonzero::NonZero<usize> as core::str::traits::FromStr>::from_str
 .text._ZN84_$LT$core..num..nonzero..NonZero$LT$i8$GT$$u20$as$u20$core..str..traits..FromStr$GT$8from_str17hebe21d8ddaff9330E
                0x0000000000122b3c      0x238 ./gen/../tecsrustUART/target/armv7a-none-eabi/release/libitron.a(core-d049573bc16596f9.core.5587a85061e7188a-cgu.0.rcgu.o)
                0x0000000000122b3c                <core::num::nonzero::NonZero<i8> as core::str::traits::FromStr>::from_str
 .text._ZN85_$LT$core..num..nonzero..NonZero$LT$i16$GT$$u20$as$u20$core..str..traits..FromStr$GT$8from_str17h5460cf01298f7943E
                0x0000000000122d74      0x230 ./gen/../tecsrustUART/target/armv7a-none-eabi/release/libitron.a(core-d049573bc16596f9.core.5587a85061e7188a-cgu.0.rcgu.o)
                0x0000000000122d74                <core::num::nonzero::NonZero<i16> as core::str::traits::FromStr>::from_str
 .text._ZN85_$LT$core..num..nonzero..NonZero$LT$i32$GT$$u20$as$u20$core..str..traits..FromStr$GT$8from_str17h82302f5d78c06a81E
                0x0000000000122fa4      0x1e4 ./gen/../tecsrustUART/target/armv7a-none-eabi/release/libitron.a(core-d049573bc16596f9.core.5587a85061e7188a-cgu.0.rcgu.o)
                0x0000000000122fa4                <core::num::nonzero::NonZero<isize> as core::str::traits::FromStr>::from_str
                0x0000000000122fa4                <core::num::nonzero::NonZero<i32> as core::str::traits::FromStr>::from_str
 .text._ZN85_$LT$core..num..nonzero..NonZero$LT$i64$GT$$u20$as$u20$core..str..traits..FromStr$GT$8from_str17hf63377f21a3fb6baE
                0x0000000000123188      0x240 ./gen/../tecsrustUART/target/armv7a-none-eabi/release/libitron.a(core-d049573bc16596f9.core.5587a85061e7188a-cgu.0.rcgu.o)
                0x0000000000123188                <core::num::nonzero::NonZero<i64> as core::str::traits::FromStr>::from_str
 .text._ZN86_$LT$core..num..nonzero..NonZero$LT$i128$GT$$u20$as$u20$core..str..traits..FromStr$GT$8from_str17h404bcfcc368805b5E
                0x00000000001233c8      0x334 ./gen/../tecsrustUART/target/armv7a-none-eabi/release/libitron.a(core-d049573bc16596f9.core.5587a85061e7188a-cgu.0.rcgu.o)
                0x00000000001233c8                <core::num::nonzero::NonZero<i128> as core::str::traits::FromStr>::from_str
 .text._ZN72_$LT$core..num..niche_types..Nanoseconds$u20$as$u20$core..fmt..Debug$GT$3fmt17h6df87c1b0e86c542E
                0x00000000001236fc       0xc0 ./gen/../tecsrustUART/target/armv7a-none-eabi/release/libitron.a(core-d049573bc16596f9.core.5587a85061e7188a-cgu.0.rcgu.o)
                0x00000000001236fc                <core::num::niche_types::Nanoseconds as core::fmt::Debug>::fmt
 .text._ZN75_$LT$core..num..niche_types..NonZeroU8Inner$u20$as$u20$core..fmt..Debug$GT$3fmt17h9934d86d94d3ba9dE
                0x00000000001237bc       0x14 ./gen/../tecsrustUART/target/armv7a-none-eabi/release/libitron.a(core-d049573bc16596f9.core.5587a85061e7188a-cgu.0.rcgu.o)
                0x00000000001237bc                <core::num::niche_types::NonZeroU8Inner as core::fmt::Debug>::fmt
 .text._ZN76_$LT$core..num..niche_types..NonZeroU16Inner$u20$as$u20$core..fmt..Debug$GT$3fmt17h1e0f277c7c9985fdE
                0x00000000001237d0       0xc8 ./gen/../tecsrustUART/target/armv7a-none-eabi/release/libitron.a(core-d049573bc16596f9.core.5587a85061e7188a-cgu.0.rcgu.o)
                0x00000000001237d0                <core::num::niche_types::NonZeroU16Inner as core::fmt::Debug>::fmt
 .text._ZN76_$LT$core..num..niche_types..NonZeroU32Inner$u20$as$u20$core..fmt..Debug$GT$3fmt17h4208945a1918bf76E
                0x0000000000123898       0xc0 ./gen/../tecsrustUART/target/armv7a-none-eabi/release/libitron.a(core-d049573bc16596f9.core.5587a85061e7188a-cgu.0.rcgu.o)
                0x0000000000123898                <core::num::niche_types::NonZeroUsizeInner as core::fmt::Debug>::fmt
                0x0000000000123898                <core::num::niche_types::NonZeroU32Inner as core::fmt::Debug>::fmt
 .text._ZN76_$LT$core..num..niche_types..NonZeroU64Inner$u20$as$u20$core..fmt..Debug$GT$3fmt17hcec75d0956b73778E
                0x0000000000123958       0xe0 ./gen/../tecsrustUART/target/armv7a-none-eabi/release/libitron.a(core-d049573bc16596f9.core.5587a85061e7188a-cgu.0.rcgu.o)
                0x0000000000123958                <core::num::niche_types::NonZeroU64Inner as core::fmt::Debug>::fmt
 .text._ZN77_$LT$core..num..niche_types..NonZeroU128Inner$u20$as$u20$core..fmt..Debug$GT$3fmt17h5bc8c49a87650843E
                0x0000000000123a38      0x154 ./gen/../tecsrustUART/target/armv7a-none-eabi/release/libitron.a(core-d049573bc16596f9.core.5587a85061e7188a-cgu.0.rcgu.o)
                0x0000000000123a38                <core::num::niche_types::NonZeroU128Inner as core::fmt::Debug>::fmt
 .text._ZN75_$LT$core..num..niche_types..NonZeroI8Inner$u20$as$u20$core..fmt..Debug$GT$3fmt17hc1ad68564dffd6e0E
                0x0000000000123b8c       0x14 ./gen/../tecsrustUART/target/armv7a-none-eabi/release/libitron.a(core-d049573bc16596f9.core.5587a85061e7188a-cgu.0.rcgu.o)
                0x0000000000123b8c                <core::num::niche_types::NonZeroI8Inner as core::fmt::Debug>::fmt
 .text._ZN76_$LT$core..num..niche_types..NonZeroI16Inner$u20$as$u20$core..fmt..Debug$GT$3fmt17h1bae456063d3b38aE
                0x0000000000123ba0       0xc8 ./gen/../tecsrustUART/target/armv7a-none-eabi/release/libitron.a(core-d049573bc16596f9.core.5587a85061e7188a-cgu.0.rcgu.o)
                0x0000000000123ba0                <core::num::niche_types::NonZeroI16Inner as core::fmt::Debug>::fmt
 .text._ZN76_$LT$core..num..niche_types..NonZeroI32Inner$u20$as$u20$core..fmt..Debug$GT$3fmt17h22fbf48f72b85284E
                0x0000000000123c68       0xc0 ./gen/../tecsrustUART/target/armv7a-none-eabi/release/libitron.a(core-d049573bc16596f9.core.5587a85061e7188a-cgu.0.rcgu.o)
                0x0000000000123c68                <core::num::niche_types::NonZeroIsizeInner as core::fmt::Debug>::fmt
                0x0000000000123c68                <core::num::niche_types::NonZeroI32Inner as core::fmt::Debug>::fmt
 .text._ZN76_$LT$core..num..niche_types..NonZeroI64Inner$u20$as$u20$core..fmt..Debug$GT$3fmt17h8bb2c468a465aac2E
                0x0000000000123d28       0xe0 ./gen/../tecsrustUART/target/armv7a-none-eabi/release/libitron.a(core-d049573bc16596f9.core.5587a85061e7188a-cgu.0.rcgu.o)
                0x0000000000123d28                <core::num::niche_types::NonZeroI64Inner as core::fmt::Debug>::fmt
 .text._ZN77_$LT$core..num..niche_types..NonZeroI128Inner$u20$as$u20$core..fmt..Debug$GT$3fmt17h7658577fe72d6a93E
                0x0000000000123e08      0x170 ./gen/../tecsrustUART/target/armv7a-none-eabi/release/libitron.a(core-d049573bc16596f9.core.5587a85061e7188a-cgu.0.rcgu.o)
                0x0000000000123e08                <core::num::niche_types::NonZeroI128Inner as core::fmt::Debug>::fmt
 .text._ZN75_$LT$core..num..niche_types..UsizeNoHighBit$u20$as$u20$core..fmt..Debug$GT$3fmt17h77e5bca56126e0b7E
                0x0000000000123f78       0xc0 ./gen/../tecsrustUART/target/armv7a-none-eabi/release/libitron.a(core-d049573bc16596f9.core.5587a85061e7188a-cgu.0.rcgu.o)
                0x0000000000123f78                <core::num::niche_types::UsizeNoHighBit as core::fmt::Debug>::fmt
 .text._ZN74_$LT$core..num..niche_types..U32NotAllOnes$u20$as$u20$core..fmt..Debug$GT$3fmt17hdae2b85bd7a76fa0E
                0x0000000000124038       0xc0 ./gen/../tecsrustUART/target/armv7a-none-eabi/release/libitron.a(core-d049573bc16596f9.core.5587a85061e7188a-cgu.0.rcgu.o)
                0x0000000000124038                <core::num::niche_types::U32NotAllOnes as core::fmt::Debug>::fmt
 .text._ZN74_$LT$core..num..niche_types..I32NotAllOnes$u20$as$u20$core..fmt..Debug$GT$3fmt17ha30c204f41712d0cE
                0x00000000001240f8       0xc0 ./gen/../tecsrustUART/target/armv7a-none-eabi/release/libitron.a(core-d049573bc16596f9.core.5587a85061e7188a-cgu.0.rcgu.o)
                0x00000000001240f8                <core::num::niche_types::I32NotAllOnes as core::fmt::Debug>::fmt
 .text._ZN74_$LT$core..num..niche_types..U64NotAllOnes$u20$as$u20$core..fmt..Debug$GT$3fmt17h9aae2314a6753889E
                0x00000000001241b8       0xe0 ./gen/../tecsrustUART/target/armv7a-none-eabi/release/libitron.a(core-d049573bc16596f9.core.5587a85061e7188a-cgu.0.rcgu.o)
                0x00000000001241b8                <core::num::niche_types::U64NotAllOnes as core::fmt::Debug>::fmt
 .text._ZN74_$LT$core..num..niche_types..I64NotAllOnes$u20$as$u20$core..fmt..Debug$GT$3fmt17hcd11c67aaecfa5cdE
                0x0000000000124298       0xe0 ./gen/../tecsrustUART/target/armv7a-none-eabi/release/libitron.a(core-d049573bc16596f9.core.5587a85061e7188a-cgu.0.rcgu.o)
                0x0000000000124298                <core::num::niche_types::I64NotAllOnes as core::fmt::Debug>::fmt
 .text.unlikely._ZN4core3num22from_ascii_radix_panic8do_panic7runtime17h20bf34c324abd015E
                0x0000000000124378       0x54 ./gen/../tecsrustUART/target/armv7a-none-eabi/release/libitron.a(core-d049573bc16596f9.core.5587a85061e7188a-cgu.0.rcgu.o)
                0x0000000000124378                core::num::from_ascii_radix_panic::do_panic::runtime
 .text.unlikely._ZN4core10intrinsics3mir11PtrMetadata19panic_cold_explicit17h38f2b2d764b9fcc9E
                0x00000000001243cc        0xc ./gen/../tecsrustUART/target/armv7a-none-eabi/release/libitron.a(core-d049573bc16596f9.core.5587a85061e7188a-cgu.0.rcgu.o)
                0x00000000001243cc                core::intrinsics::mir::__debuginfo::panic_cold_explicit
                0x00000000001243cc                core::intrinsics::mir::CastPtrToPtr::panic_cold_explicit
                0x00000000001243cc                core::intrinsics::mir::UnwindUnreachable::panic_cold_explicit
                0x00000000001243cc                core::intrinsics::mir::ReturnTo::panic_cold_explicit
                0x00000000001243cc                core::intrinsics::mir::UnwindResume::panic_cold_explicit
                0x00000000001243cc                core::intrinsics::mir::Retag::panic_cold_explicit
                0x00000000001243cc                core::intrinsics::mir::Unreachable::panic_cold_explicit
                0x00000000001243cc                core::intrinsics::mir::Offset::panic_cold_explicit
                0x00000000001243cc                core::intrinsics::mir::CastTransmute::panic_cold_explicit
                0x00000000001243cc                core::intrinsics::mir::Checked::panic_cold_explicit
                0x00000000001243cc                core::intrinsics::mir::Static::panic_cold_explicit
                0x00000000001243cc                core::intrinsics::mir::TailCall::panic_cold_explicit
                0x00000000001243cc                core::intrinsics::mir::Drop::panic_cold_explicit
                0x00000000001243cc                core::intrinsics::mir::Variant::panic_cold_explicit
                0x00000000001243cc                core::intrinsics::mir::CopyForDeref::panic_cold_explicit
                0x00000000001243cc                core::intrinsics::mir::Discriminant::panic_cold_explicit
                0x00000000001243cc                core::intrinsics::mir::Call::panic_cold_explicit
                0x00000000001243cc                core::intrinsics::mir::UnwindCleanup::panic_cold_explicit
                0x00000000001243cc                core::intrinsics::mir::UnwindTerminate::panic_cold_explicit
                0x00000000001243cc                core::intrinsics::mir::Assume::panic_cold_explicit
                0x00000000001243cc                core::intrinsics::mir::UnwindContinue::panic_cold_explicit
                0x00000000001243cc                core::intrinsics::mir::SetDiscriminant::panic_cold_explicit
                0x00000000001243cc                core::intrinsics::mir::StorageLive::panic_cold_explicit
                0x00000000001243cc                core::intrinsics::mir::StaticMut::panic_cold_explicit
                0x00000000001243cc                core::intrinsics::mir::Deinit::panic_cold_explicit
                0x00000000001243cc                core::intrinsics::mir::PtrMetadata::panic_cold_explicit
                0x00000000001243cc                core::intrinsics::mir::Return::panic_cold_explicit
                0x00000000001243cc                core::intrinsics::mir::Len::panic_cold_explicit
                0x00000000001243cc                core::intrinsics::mir::Goto::panic_cold_explicit
                0x00000000001243cc                core::intrinsics::mir::StorageDead::panic_cold_explicit
                0x00000000001243cc                core::intrinsics::mir::Field::panic_cold_explicit
                0x00000000001243cc                core::intrinsics::mir::Move::panic_cold_explicit
                0x00000000001243cc                core::intrinsics::mir::__internal_make_place::panic_cold_explicit
 .text._ZN85_$LT$core..marker..variance..PhantomCovariantLifetime$u20$as$u20$core..fmt..Debug$GT$3fmt17h092ab231f6840623E
                0x00000000001243d8       0x24 ./gen/../tecsrustUART/target/armv7a-none-eabi/release/libitron.a(core-d049573bc16596f9.core.5587a85061e7188a-cgu.0.rcgu.o)
                0x00000000001243d8                <core::marker::variance::PhantomCovariantLifetime as core::fmt::Debug>::fmt
 .text._ZN89_$LT$core..marker..variance..PhantomContravariantLifetime$u20$as$u20$core..fmt..Debug$GT$3fmt17hc36f606a10431dddE
                0x00000000001243fc       0x24 ./gen/../tecsrustUART/target/armv7a-none-eabi/release/libitron.a(core-d049573bc16596f9.core.5587a85061e7188a-cgu.0.rcgu.o)
                0x00000000001243fc                <core::marker::variance::PhantomContravariantLifetime as core::fmt::Debug>::fmt
 .text._ZN85_$LT$core..marker..variance..PhantomInvariantLifetime$u20$as$u20$core..fmt..Debug$GT$3fmt17h310726426d633410E
                0x0000000000124420       0x24 ./gen/../tecsrustUART/target/armv7a-none-eabi/release/libitron.a(core-d049573bc16596f9.core.5587a85061e7188a-cgu.0.rcgu.o)
                0x0000000000124420                <core::marker::variance::PhantomInvariantLifetime as core::fmt::Debug>::fmt
 .text.unlikely._ZN4core4char7methods15encode_utf8_raw8do_panic7runtime17h8d77bbd109129b2bE
                0x0000000000124444       0x80 ./gen/../tecsrustUART/target/armv7a-none-eabi/release/libitron.a(core-d049573bc16596f9.core.5587a85061e7188a-cgu.0.rcgu.o)
                0x0000000000124444                core::char::methods::encode_utf8_raw::do_panic::runtime
 .text.unlikely._ZN4core4char7methods16encode_utf16_raw8do_panic7runtime17h780c16f034ec0cfdE
                0x00000000001244c4       0x80 ./gen/../tecsrustUART/target/armv7a-none-eabi/release/libitron.a(core-d049573bc16596f9.core.5587a85061e7188a-cgu.0.rcgu.o)
                0x00000000001244c4                core::char::methods::encode_utf16_raw::do_panic::runtime
 .text._ZN82_$LT$core..char..ToLowercase$u20$as$u20$core..iter..traits..iterator..Iterator$GT$4next17hb1b5d710b70686acE
                0x0000000000124544       0x28 ./gen/../tecsrustUART/target/armv7a-none-eabi/release/libitron.a(core-d049573bc16596f9.core.5587a85061e7188a-cgu.0.rcgu.o)
                0x0000000000124544                <core::char::ToUppercase as core::iter::traits::iterator::Iterator>::next
                0x0000000000124544                <core::char::ToLowercase as core::iter::traits::iterator::Iterator>::next
 .text._ZN82_$LT$core..char..ToLowercase$u20$as$u20$core..iter..traits..iterator..Iterator$GT$5count17h491b5e4cf6ec5bd0E
                0x000000000012456c       0x14 ./gen/../tecsrustUART/target/armv7a-none-eabi/release/libitron.a(core-d049573bc16596f9.core.5587a85061e7188a-cgu.0.rcgu.o)
                0x000000000012456c                <core::char::ToLowercase as core::iter::traits::iterator::Iterator>::count
                0x000000000012456c                <core::char::ToUppercase as core::iter::traits::iterator::Iterator>::count
 .text._ZN82_$LT$core..char..ToLowercase$u20$as$u20$core..iter..traits..iterator..Iterator$GT$4last17h2be1d7bd83ecbf83E
                0x0000000000124580       0x40 ./gen/../tecsrustUART/target/armv7a-none-eabi/release/libitron.a(core-d049573bc16596f9.core.5587a85061e7188a-cgu.0.rcgu.o)
                0x0000000000124580                <core::char::ToUppercase as core::iter::traits::iterator::Iterator>::last
                0x0000000000124580                <core::char::ToLowercase as core::iter::traits::iterator::Iterator>::last
 .text._ZN82_$LT$core..char..ToLowercase$u20$as$u20$core..iter..traits..iterator..Iterator$GT$10advance_by17h472a89f7f4a2644dE
                0x00000000001245c0       0x28 ./gen/../tecsrustUART/target/armv7a-none-eabi/release/libitron.a(core-d049573bc16596f9.core.5587a85061e7188a-cgu.0.rcgu.o)
                0x00000000001245c0                <core::char::ToLowercase as core::iter::traits::iterator::Iterator>::advance_by
                0x00000000001245c0                <core::char::ToUppercase as core::iter::traits::iterator::Iterator>::advance_by
 .text._ZN82_$LT$core..char..ToLowercase$u20$as$u20$core..iter..traits..iterator..Iterator$GT$24__iterator_get_unchecked17h3837a4656c9589c7E
                0x00000000001245e8       0x1c ./gen/../tecsrustUART/target/armv7a-none-eabi/release/libitron.a(core-d049573bc16596f9.core.5587a85061e7188a-cgu.0.rcgu.o)
                0x00000000001245e8                <core::char::ToUppercase as core::iter::traits::iterator::Iterator>::__iterator_get_unchecked
                0x00000000001245e8                <core::char::ToLowercase as core::iter::traits::iterator::Iterator>::__iterator_get_unchecked
 .text._ZN97_$LT$core..char..ToLowercase$u20$as$u20$core..iter..traits..double_ended..DoubleEndedIterator$GT$9next_back17h3de266f316e266adE
                0x0000000000124604       0x2c ./gen/../tecsrustUART/target/armv7a-none-eabi/release/libitron.a(core-d049573bc16596f9.core.5587a85061e7188a-cgu.0.rcgu.o)
                0x0000000000124604                <core::char::ToLowercase as core::iter::traits::double_ended::DoubleEndedIterator>::next_back
                0x0000000000124604                <core::char::ToUppercase as core::iter::traits::double_ended::DoubleEndedIterator>::next_back
 .text._ZN97_$LT$core..char..ToLowercase$u20$as$u20$core..iter..traits..double_ended..DoubleEndedIterator$GT$15advance_back_by17h5316befd367a240aE
                0x0000000000124630       0x28 ./gen/../tecsrustUART/target/armv7a-none-eabi/release/libitron.a(core-d049573bc16596f9.core.5587a85061e7188a-cgu.0.rcgu.o)
                0x0000000000124630                <core::char::ToLowercase as core::iter::traits::double_ended::DoubleEndedIterator>::advance_back_by
                0x0000000000124630                <core::char::ToUppercase as core::iter::traits::double_ended::DoubleEndedIterator>::advance_back_by
 .text._ZN62_$LT$core..char..ToLowercase$u20$as$u20$core..fmt..Display$GT$3fmt17hba63d2a00808b5c9E
                0x0000000000124658       0xdc ./gen/../tecsrustUART/target/armv7a-none-eabi/release/libitron.a(core-d049573bc16596f9.core.5587a85061e7188a-cgu.0.rcgu.o)
                0x0000000000124658                <core::char::ToLowercase as core::fmt::Display>::fmt
                0x0000000000124658                <core::char::ToUppercase as core::fmt::Display>::fmt
 .text._ZN77_$LT$core..net..ip_addr..Ipv4Addr$u20$as$u20$core..ops..bit..BitAndAssign$GT$13bitand_assign17h4b36b47131fa5cc4E
                0x0000000000124734       0x3c ./gen/../tecsrustUART/target/armv7a-none-eabi/release/libitron.a(core-d049573bc16596f9.core.5587a85061e7188a-cgu.0.rcgu.o)
                0x0000000000124734                <core::net::ip_addr::Ipv4Addr as core::ops::bit::BitAndAssign>::bitand_assign
 .text._ZN117_$LT$core..net..ip_addr..Ipv4Addr$u20$as$u20$core..ops..bit..BitAndAssign$LT$$RF$core..net..ip_addr..Ipv4Addr$GT$$GT$13bitand_assign17h0229d9be4c328c70E
                0x0000000000124770       0x4c ./gen/../tecsrustUART/target/armv7a-none-eabi/release/libitron.a(core-d049573bc16596f9.core.5587a85061e7188a-cgu.0.rcgu.o)
                0x0000000000124770                <core::net::ip_addr::Ipv4Addr as core::ops::bit::BitAndAssign<&core::net::ip_addr::Ipv4Addr>>::bitand_assign
 .text._ZN76_$LT$core..net..ip_addr..Ipv4Addr$u20$as$u20$core..ops..bit..BitOrAssign$GT$12bitor_assign17h5dbcc27e1bc263c6E
                0x00000000001247bc       0x3c ./gen/../tecsrustUART/target/armv7a-none-eabi/release/libitron.a(core-d049573bc16596f9.core.5587a85061e7188a-cgu.0.rcgu.o)
                0x00000000001247bc                <core::net::ip_addr::Ipv4Addr as core::ops::bit::BitOrAssign>::bitor_assign
 .text._ZN116_$LT$core..net..ip_addr..Ipv4Addr$u20$as$u20$core..ops..bit..BitOrAssign$LT$$RF$core..net..ip_addr..Ipv4Addr$GT$$GT$12bitor_assign17h44764761fe65c596E
                0x00000000001247f8       0x4c ./gen/../tecsrustUART/target/armv7a-none-eabi/release/libitron.a(core-d049573bc16596f9.core.5587a85061e7188a-cgu.0.rcgu.o)
                0x00000000001247f8                <core::net::ip_addr::Ipv4Addr as core::ops::bit::BitOrAssign<&core::net::ip_addr::Ipv4Addr>>::bitor_assign
 .text._ZN77_$LT$core..net..ip_addr..Ipv6Addr$u20$as$u20$core..ops..bit..BitAndAssign$GT$13bitand_assign17hdf1001071943e21cE
                0x0000000000124844      0x14c ./gen/../tecsrustUART/target/armv7a-none-eabi/release/libitron.a(core-d049573bc16596f9.core.5587a85061e7188a-cgu.0.rcgu.o)
                0x0000000000124844                <core::net::ip_addr::Ipv6Addr as core::ops::bit::BitAndAssign>::bitand_assign
 .text._ZN117_$LT$core..net..ip_addr..Ipv6Addr$u20$as$u20$core..ops..bit..BitAndAssign$LT$$RF$core..net..ip_addr..Ipv6Addr$GT$$GT$13bitand_assign17hecc377bff21d2c6fE
                0x0000000000124990      0x14c ./gen/../tecsrustUART/target/armv7a-none-eabi/release/libitron.a(core-d049573bc16596f9.core.5587a85061e7188a-cgu.0.rcgu.o)
                0x0000000000124990                <core::net::ip_addr::Ipv6Addr as core::ops::bit::BitAndAssign<&core::net::ip_addr::Ipv6Addr>>::bitand_assign
 .text._ZN76_$LT$core..net..ip_addr..Ipv6Addr$u20$as$u20$core..ops..bit..BitOrAssign$GT$12bitor_assign17h8802b9526f9e1ec3E
                0x0000000000124adc      0x14c ./gen/../tecsrustUART/target/armv7a-none-eabi/release/libitron.a(core-d049573bc16596f9.core.5587a85061e7188a-cgu.0.rcgu.o)
                0x0000000000124adc                <core::net::ip_addr::Ipv6Addr as core::ops::bit::BitOrAssign>::bitor_assign
 .text._ZN116_$LT$core..net..ip_addr..Ipv6Addr$u20$as$u20$core..ops..bit..BitOrAssign$LT$$RF$core..net..ip_addr..Ipv6Addr$GT$$GT$12bitor_assign17h15c5b2f4ea6a9f87E
                0x0000000000124c28      0x14c ./gen/../tecsrustUART/target/armv7a-none-eabi/release/libitron.a(core-d049573bc16596f9.core.5587a85061e7188a-cgu.0.rcgu.o)
                0x0000000000124c28                <core::net::ip_addr::Ipv6Addr as core::ops::bit::BitOrAssign<&core::net::ip_addr::Ipv6Addr>>::bitor_assign
 .text.unlikely._ZN4core9panicking11panic_const24panic_const_add_overflow17h518b917df10cd0eaE
                0x0000000000124d74       0x40 ./gen/../tecsrustUART/target/armv7a-none-eabi/release/libitron.a(core-d049573bc16596f9.core.5587a85061e7188a-cgu.0.rcgu.o)
                0x0000000000124d74                core::panicking::panic_const::panic_const_add_overflow
 .text.unlikely._ZN4core9panicking11panic_const24panic_const_sub_overflow17h60c8487e53d0d3c1E
                0x0000000000124db4       0x40 ./gen/../tecsrustUART/target/armv7a-none-eabi/release/libitron.a(core-d049573bc16596f9.core.5587a85061e7188a-cgu.0.rcgu.o)
                0x0000000000124db4                core::panicking::panic_const::panic_const_sub_overflow
 .text.unlikely._ZN4core9panicking11panic_const24panic_const_mul_overflow17h1a47d5361b03bf6eE
                0x0000000000124df4       0x40 ./gen/../tecsrustUART/target/armv7a-none-eabi/release/libitron.a(core-d049573bc16596f9.core.5587a85061e7188a-cgu.0.rcgu.o)
                0x0000000000124df4                core::panicking::panic_const::panic_const_mul_overflow
 .text.unlikely._ZN4core9panicking11panic_const24panic_const_div_overflow17heddbfb5e687a03bcE
                0x0000000000124e34       0x40 ./gen/../tecsrustUART/target/armv7a-none-eabi/release/libitron.a(core-d049573bc16596f9.core.5587a85061e7188a-cgu.0.rcgu.o)
                0x0000000000124e34                core::panicking::panic_const::panic_const_div_overflow
 .text.unlikely._ZN4core9panicking11panic_const24panic_const_rem_overflow17h3335d23af842c741E
                0x0000000000124e74       0x40 ./gen/../tecsrustUART/target/armv7a-none-eabi/release/libitron.a(core-d049573bc16596f9.core.5587a85061e7188a-cgu.0.rcgu.o)
                0x0000000000124e74                core::panicking::panic_const::panic_const_rem_overflow
 .text.unlikely._ZN4core9panicking11panic_const24panic_const_neg_overflow17hd6798e66c62ddff6E
                0x0000000000124eb4       0x40 ./gen/../tecsrustUART/target/armv7a-none-eabi/release/libitron.a(core-d049573bc16596f9.core.5587a85061e7188a-cgu.0.rcgu.o)
                0x0000000000124eb4                core::panicking::panic_const::panic_const_neg_overflow
 .text.unlikely._ZN4core9panicking11panic_const24panic_const_shr_overflow17hc596d1ddf3d71019E
                0x0000000000124ef4       0x40 ./gen/../tecsrustUART/target/armv7a-none-eabi/release/libitron.a(core-d049573bc16596f9.core.5587a85061e7188a-cgu.0.rcgu.o)
                0x0000000000124ef4                core::panicking::panic_const::panic_const_shr_overflow
 .text.unlikely._ZN4core9panicking11panic_const24panic_const_shl_overflow17hab60c2de69792ef8E
                0x0000000000124f34       0x40 ./gen/../tecsrustUART/target/armv7a-none-eabi/release/libitron.a(core-d049573bc16596f9.core.5587a85061e7188a-cgu.0.rcgu.o)
                0x0000000000124f34                core::panicking::panic_const::panic_const_shl_overflow
 .text.unlikely._ZN4core9panicking11panic_const23panic_const_div_by_zero17h841ebc415392a309E
                0x0000000000124f74       0x40 ./gen/../tecsrustUART/target/armv7a-none-eabi/release/libitron.a(core-d049573bc16596f9.core.5587a85061e7188a-cgu.0.rcgu.o)
                0x0000000000124f74                core::panicking::panic_const::panic_const_div_by_zero
 .text.unlikely._ZN4core9panicking11panic_const23panic_const_rem_by_zero17h84c76eadc69bd9a6E
                0x0000000000124fb4       0x40 ./gen/../tecsrustUART/target/armv7a-none-eabi/release/libitron.a(core-d049573bc16596f9.core.5587a85061e7188a-cgu.0.rcgu.o)
                0x0000000000124fb4                core::panicking::panic_const::panic_const_rem_by_zero
 .text.unlikely._ZN4core9panicking11panic_const29panic_const_coroutine_resumed17hc1fec1f49fb82aacE
                0x0000000000124ff4       0x40 ./gen/../tecsrustUART/target/armv7a-none-eabi/release/libitron.a(core-d049573bc16596f9.core.5587a85061e7188a-cgu.0.rcgu.o)
                0x0000000000124ff4                core::panicking::panic_const::panic_const_coroutine_resumed
 .text.unlikely._ZN4core9panicking11panic_const28panic_const_async_fn_resumed17h4c52fb4e1fc04b7eE
                0x0000000000125034       0x40 ./gen/../tecsrustUART/target/armv7a-none-eabi/release/libitron.a(core-d049573bc16596f9.core.5587a85061e7188a-cgu.0.rcgu.o)
                0x0000000000125034                core::panicking::panic_const::panic_const_async_fn_resumed
 .text.unlikely._ZN4core9panicking11panic_const32panic_const_async_gen_fn_resumed17hf6dc0ef665815d93E
                0x0000000000125074       0x40 ./gen/../tecsrustUART/target/armv7a-none-eabi/release/libitron.a(core-d049573bc16596f9.core.5587a85061e7188a-cgu.0.rcgu.o)
                0x0000000000125074                core::panicking::panic_const::panic_const_async_gen_fn_resumed
 .text.unlikely._ZN4core9panicking11panic_const23panic_const_gen_fn_none17h9943346b0c293476E
                0x00000000001250b4       0x40 ./gen/../tecsrustUART/target/armv7a-none-eabi/release/libitron.a(core-d049573bc16596f9.core.5587a85061e7188a-cgu.0.rcgu.o)
                0x00000000001250b4                core::panicking::panic_const::panic_const_gen_fn_none
 .text.unlikely._ZN4core9panicking11panic_const35panic_const_coroutine_resumed_panic17ha931fedc2d097cbcE
                0x00000000001250f4       0x40 ./gen/../tecsrustUART/target/armv7a-none-eabi/release/libitron.a(core-d049573bc16596f9.core.5587a85061e7188a-cgu.0.rcgu.o)
                0x00000000001250f4                core::panicking::panic_const::panic_const_coroutine_resumed_panic
 .text.unlikely._ZN4core9panicking11panic_const34panic_const_async_fn_resumed_panic17he3287dd12fe7b10fE
                0x0000000000125134       0x40 ./gen/../tecsrustUART/target/armv7a-none-eabi/release/libitron.a(core-d049573bc16596f9.core.5587a85061e7188a-cgu.0.rcgu.o)
                0x0000000000125134                core::panicking::panic_const::panic_const_async_fn_resumed_panic
 .text.unlikely._ZN4core9panicking11panic_const38panic_const_async_gen_fn_resumed_panic17hd2dc1333c03262feE
                0x0000000000125174       0x40 ./gen/../tecsrustUART/target/armv7a-none-eabi/release/libitron.a(core-d049573bc16596f9.core.5587a85061e7188a-cgu.0.rcgu.o)
                0x0000000000125174                core::panicking::panic_const::panic_const_async_gen_fn_resumed_panic
 .text.unlikely._ZN4core9panicking11panic_const29panic_const_gen_fn_none_panic17h5c1c229e3a40efecE
                0x00000000001251b4       0x40 ./gen/../tecsrustUART/target/armv7a-none-eabi/release/libitron.a(core-d049573bc16596f9.core.5587a85061e7188a-cgu.0.rcgu.o)
                0x00000000001251b4                core::panicking::panic_const::panic_const_gen_fn_none_panic
 .text.unlikely._ZN4core9panicking11panic_const34panic_const_coroutine_resumed_drop17h80f9fb05c90896faE
                0x00000000001251f4       0x40 ./gen/../tecsrustUART/target/armv7a-none-eabi/release/libitron.a(core-d049573bc16596f9.core.5587a85061e7188a-cgu.0.rcgu.o)
                0x00000000001251f4                core::panicking::panic_const::panic_const_coroutine_resumed_drop
 .text.unlikely._ZN4core9panicking11panic_const33panic_const_async_fn_resumed_drop17h372a153677563730E
                0x0000000000125234       0x40 ./gen/../tecsrustUART/target/armv7a-none-eabi/release/libitron.a(core-d049573bc16596f9.core.5587a85061e7188a-cgu.0.rcgu.o)
                0x0000000000125234                core::panicking::panic_const::panic_const_async_fn_resumed_drop
 .text.unlikely._ZN4core9panicking11panic_const37panic_const_async_gen_fn_resumed_drop17hf44454f4c0322d5eE
                0x0000000000125274       0x40 ./gen/../tecsrustUART/target/armv7a-none-eabi/release/libitron.a(core-d049573bc16596f9.core.5587a85061e7188a-cgu.0.rcgu.o)
                0x0000000000125274                core::panicking::panic_const::panic_const_async_gen_fn_resumed_drop
 .text.unlikely._ZN4core9panicking11panic_const28panic_const_gen_fn_none_drop17h79a2beef01222142E
                0x00000000001252b4       0x40 ./gen/../tecsrustUART/target/armv7a-none-eabi/release/libitron.a(core-d049573bc16596f9.core.5587a85061e7188a-cgu.0.rcgu.o)
                0x00000000001252b4                core::panicking::panic_const::panic_const_gen_fn_none_drop
 .text._ZN46_$LT$i8$u20$as$u20$core..pat..RangePattern$GT$7sub_one17h9c88d58a08cd9976E
                0x00000000001252f4       0x50 ./gen/../tecsrustUART/target/armv7a-none-eabi/release/libitron.a(core-d049573bc16596f9.core.5587a85061e7188a-cgu.0.rcgu.o)
                0x00000000001252f4                <i8 as core::pat::RangePattern>::sub_one
 .text._ZN47_$LT$i16$u20$as$u20$core..pat..RangePattern$GT$7sub_one17h0bea40a7c0a1898dE
                0x0000000000125344       0x50 ./gen/../tecsrustUART/target/armv7a-none-eabi/release/libitron.a(core-d049573bc16596f9.core.5587a85061e7188a-cgu.0.rcgu.o)
                0x0000000000125344                <i16 as core::pat::RangePattern>::sub_one
 .text._ZN47_$LT$i32$u20$as$u20$core..pat..RangePattern$GT$7sub_one17hee0294d19fcfed5eE
                0x0000000000125394       0x4c ./gen/../tecsrustUART/target/armv7a-none-eabi/release/libitron.a(core-d049573bc16596f9.core.5587a85061e7188a-cgu.0.rcgu.o)
                0x0000000000125394                <i32 as core::pat::RangePattern>::sub_one
                0x0000000000125394                <isize as core::pat::RangePattern>::sub_one
 .text._ZN47_$LT$i64$u20$as$u20$core..pat..RangePattern$GT$7sub_one17h7a71a5a054a38f79E
                0x00000000001253e0       0x58 ./gen/../tecsrustUART/target/armv7a-none-eabi/release/libitron.a(core-d049573bc16596f9.core.5587a85061e7188a-cgu.0.rcgu.o)
                0x00000000001253e0                <i64 as core::pat::RangePattern>::sub_one
 .text._ZN48_$LT$i128$u20$as$u20$core..pat..RangePattern$GT$7sub_one17hacd854531e93c0c5E
                0x0000000000125438       0x74 ./gen/../tecsrustUART/target/armv7a-none-eabi/release/libitron.a(core-d049573bc16596f9.core.5587a85061e7188a-cgu.0.rcgu.o)
                0x0000000000125438                <i128 as core::pat::RangePattern>::sub_one
 .text._ZN46_$LT$u8$u20$as$u20$core..pat..RangePattern$GT$7sub_one17h15e864f0213c9b05E
                0x00000000001254ac       0x48 ./gen/../tecsrustUART/target/armv7a-none-eabi/release/libitron.a(core-d049573bc16596f9.core.5587a85061e7188a-cgu.0.rcgu.o)
                0x00000000001254ac                <u8 as core::pat::RangePattern>::sub_one
 .text._ZN47_$LT$u16$u20$as$u20$core..pat..RangePattern$GT$7sub_one17h4335f9c9d4df86f6E
                0x00000000001254f4       0x4c ./gen/../tecsrustUART/target/armv7a-none-eabi/release/libitron.a(core-d049573bc16596f9.core.5587a85061e7188a-cgu.0.rcgu.o)
                0x00000000001254f4                <u16 as core::pat::RangePattern>::sub_one
 .text._ZN47_$LT$u32$u20$as$u20$core..pat..RangePattern$GT$7sub_one17h3378d20c1f54e79cE
                0x0000000000125540       0x48 ./gen/../tecsrustUART/target/armv7a-none-eabi/release/libitron.a(core-d049573bc16596f9.core.5587a85061e7188a-cgu.0.rcgu.o)
                0x0000000000125540                <usize as core::pat::RangePattern>::sub_one
                0x0000000000125540                <u32 as core::pat::RangePattern>::sub_one
 .text._ZN47_$LT$u64$u20$as$u20$core..pat..RangePattern$GT$7sub_one17h6e6e0a2318d9e1f3E
                0x0000000000125588       0x54 ./gen/../tecsrustUART/target/armv7a-none-eabi/release/libitron.a(core-d049573bc16596f9.core.5587a85061e7188a-cgu.0.rcgu.o)
                0x0000000000125588                <u64 as core::pat::RangePattern>::sub_one
 .text._ZN48_$LT$u128$u20$as$u20$core..pat..RangePattern$GT$7sub_one17h49e0f9c674b47932E
                0x00000000001255dc       0x74 ./gen/../tecsrustUART/target/armv7a-none-eabi/release/libitron.a(core-d049573bc16596f9.core.5587a85061e7188a-cgu.0.rcgu.o)
                0x00000000001255dc                <u128 as core::pat::RangePattern>::sub_one
 .text._ZN65_$LT$core..sync..atomic..AtomicI8$u20$as$u20$core..fmt..Debug$GT$3fmt17h98530b86a99569a1E
                0x0000000000125650       0x14 ./gen/../tecsrustUART/target/armv7a-none-eabi/release/libitron.a(core-d049573bc16596f9.core.5587a85061e7188a-cgu.0.rcgu.o)
                0x0000000000125650                <core::sync::atomic::AtomicI8 as core::fmt::Debug>::fmt
 .text._ZN65_$LT$core..sync..atomic..AtomicU8$u20$as$u20$core..fmt..Debug$GT$3fmt17h78ea702c9c6bc9f6E
                0x0000000000125664       0x14 ./gen/../tecsrustUART/target/armv7a-none-eabi/release/libitron.a(core-d049573bc16596f9.core.5587a85061e7188a-cgu.0.rcgu.o)
                0x0000000000125664                <core::sync::atomic::AtomicU8 as core::fmt::Debug>::fmt
 .text._ZN66_$LT$core..sync..atomic..AtomicI16$u20$as$u20$core..fmt..Debug$GT$3fmt17h5390cba2b0e4e3dcE
                0x0000000000125678       0xc8 ./gen/../tecsrustUART/target/armv7a-none-eabi/release/libitron.a(core-d049573bc16596f9.core.5587a85061e7188a-cgu.0.rcgu.o)
                0x0000000000125678                <core::sync::atomic::AtomicI16 as core::fmt::Debug>::fmt
 .text._ZN66_$LT$core..sync..atomic..AtomicU16$u20$as$u20$core..fmt..Debug$GT$3fmt17h2705d1d8027c0f42E
                0x0000000000125740       0xc8 ./gen/../tecsrustUART/target/armv7a-none-eabi/release/libitron.a(core-d049573bc16596f9.core.5587a85061e7188a-cgu.0.rcgu.o)
                0x0000000000125740                <core::sync::atomic::AtomicU16 as core::fmt::Debug>::fmt
 .text._ZN66_$LT$core..sync..atomic..AtomicI32$u20$as$u20$core..fmt..Debug$GT$3fmt17h00f7ed8238e72b79E
                0x0000000000125808       0xc0 ./gen/../tecsrustUART/target/armv7a-none-eabi/release/libitron.a(core-d049573bc16596f9.core.5587a85061e7188a-cgu.0.rcgu.o)
                0x0000000000125808                <core::sync::atomic::AtomicIsize as core::fmt::Debug>::fmt
                0x0000000000125808                <core::sync::atomic::AtomicI32 as core::fmt::Debug>::fmt
 .text._ZN66_$LT$core..sync..atomic..AtomicU32$u20$as$u20$core..fmt..Debug$GT$3fmt17hf9fe3a6abac6a243E
                0x00000000001258c8       0xc0 ./gen/../tecsrustUART/target/armv7a-none-eabi/release/libitron.a(core-d049573bc16596f9.core.5587a85061e7188a-cgu.0.rcgu.o)
                0x00000000001258c8                <core::sync::atomic::AtomicUsize as core::fmt::Debug>::fmt
                0x00000000001258c8                <core::sync::atomic::AtomicU32 as core::fmt::Debug>::fmt
 .text._ZN66_$LT$core..sync..atomic..AtomicI64$u20$as$u20$core..fmt..Debug$GT$3fmt17h553003e062ab2aeaE
                0x0000000000125988       0xec ./gen/../tecsrustUART/target/armv7a-none-eabi/release/libitron.a(core-d049573bc16596f9.core.5587a85061e7188a-cgu.0.rcgu.o)
                0x0000000000125988                <core::sync::atomic::AtomicI64 as core::fmt::Debug>::fmt
 .text._ZN66_$LT$core..sync..atomic..AtomicU64$u20$as$u20$core..fmt..Debug$GT$3fmt17h4837e1a6089e1848E
                0x0000000000125a74       0xec ./gen/../tecsrustUART/target/armv7a-none-eabi/release/libitron.a(core-d049573bc16596f9.core.5587a85061e7188a-cgu.0.rcgu.o)
                0x0000000000125a74                <core::sync::atomic::AtomicU64 as core::fmt::Debug>::fmt
 .text._ZN55_$LT$f32$u20$as$u20$core..fmt..float..GeneralFormat$GT$44already_rounded_value_should_use_exponential17hb22121c88fcaa0beE
                0x0000000000125b60       0x68 ./gen/../tecsrustUART/target/armv7a-none-eabi/release/libitron.a(core-d049573bc16596f9.core.5587a85061e7188a-cgu.0.rcgu.o)
                0x0000000000125b60                <f32 as core::fmt::float::GeneralFormat>::already_rounded_value_should_use_exponential
 .text._ZN55_$LT$f64$u20$as$u20$core..fmt..float..GeneralFormat$GT$44already_rounded_value_should_use_exponential17h8b724b9904cc9c26E
                0x0000000000125bc8       0x88 ./gen/../tecsrustUART/target/armv7a-none-eabi/release/libitron.a(core-d049573bc16596f9.core.5587a85061e7188a-cgu.0.rcgu.o)
                0x0000000000125bc8                <f64 as core::fmt::float::GeneralFormat>::already_rounded_value_should_use_exponential
 .text._ZN4core3fmt5float50_$LT$impl$u20$core..fmt..Debug$u20$for$u20$f32$GT$3fmt17h36f6f70bc5e41684E
                0x0000000000125c50       0xb8 ./gen/../tecsrustUART/target/armv7a-none-eabi/release/libitron.a(core-d049573bc16596f9.core.5587a85061e7188a-cgu.0.rcgu.o)
                0x0000000000125c50                core::fmt::float::<impl core::fmt::Debug for f32>::fmt
 .text._ZN4core3fmt5float52_$LT$impl$u20$core..fmt..Display$u20$for$u20$f32$GT$3fmt17h80810e25a018a288E
                0x0000000000125d08       0x44 ./gen/../tecsrustUART/target/armv7a-none-eabi/release/libitron.a(core-d049573bc16596f9.core.5587a85061e7188a-cgu.0.rcgu.o)
                0x0000000000125d08                core::fmt::float::<impl core::fmt::Display for f32>::fmt
 .text._ZN4core3fmt5float53_$LT$impl$u20$core..fmt..LowerExp$u20$for$u20$f32$GT$3fmt17h820dff1b1d643fd6E
                0x0000000000125d4c       0x54 ./gen/../tecsrustUART/target/armv7a-none-eabi/release/libitron.a(core-d049573bc16596f9.core.5587a85061e7188a-cgu.0.rcgu.o)
                0x0000000000125d4c                core::fmt::float::<impl core::fmt::LowerExp for f32>::fmt
 .text._ZN4core3fmt5float53_$LT$impl$u20$core..fmt..UpperExp$u20$for$u20$f32$GT$3fmt17hdf25f1d7057efea1E
                0x0000000000125da0       0x54 ./gen/../tecsrustUART/target/armv7a-none-eabi/release/libitron.a(core-d049573bc16596f9.core.5587a85061e7188a-cgu.0.rcgu.o)
                0x0000000000125da0                core::fmt::float::<impl core::fmt::UpperExp for f32>::fmt
 .text._ZN4core3fmt5float50_$LT$impl$u20$core..fmt..Debug$u20$for$u20$f64$GT$3fmt17h12b316315661d7a7E
                0x0000000000125df4      0x10c ./gen/../tecsrustUART/target/armv7a-none-eabi/release/libitron.a(core-d049573bc16596f9.core.5587a85061e7188a-cgu.0.rcgu.o)
                0x0000000000125df4                core::fmt::float::<impl core::fmt::Debug for f64>::fmt
 .text._ZN4core3fmt5float52_$LT$impl$u20$core..fmt..Display$u20$for$u20$f64$GT$3fmt17h1658c390055e8683E
                0x0000000000125f00       0x64 ./gen/../tecsrustUART/target/armv7a-none-eabi/release/libitron.a(core-d049573bc16596f9.core.5587a85061e7188a-cgu.0.rcgu.o)
                0x0000000000125f00                core::fmt::float::<impl core::fmt::Display for f64>::fmt
 .text._ZN4core3fmt5float53_$LT$impl$u20$core..fmt..LowerExp$u20$for$u20$f64$GT$3fmt17hab161d28c266dbf1E
                0x0000000000125f64       0x70 ./gen/../tecsrustUART/target/armv7a-none-eabi/release/libitron.a(core-d049573bc16596f9.core.5587a85061e7188a-cgu.0.rcgu.o)
                0x0000000000125f64                core::fmt::float::<impl core::fmt::LowerExp for f64>::fmt
 .text._ZN4core3fmt5float53_$LT$impl$u20$core..fmt..UpperExp$u20$for$u20$f64$GT$3fmt17hfdc423d0ad75608dE
                0x0000000000125fd4       0x70 ./gen/../tecsrustUART/target/armv7a-none-eabi/release/libitron.a(core-d049573bc16596f9.core.5587a85061e7188a-cgu.0.rcgu.o)
                0x0000000000125fd4                core::fmt::float::<impl core::fmt::UpperExp for f64>::fmt
 .text._ZN4core3fmt5float50_$LT$impl$u20$core..fmt..Debug$u20$for$u20$f16$GT$3fmt17h0275f4e20d5ac985E
                0x0000000000126044       0xc0 ./gen/../tecsrustUART/target/armv7a-none-eabi/release/libitron.a(core-d049573bc16596f9.core.5587a85061e7188a-cgu.0.rcgu.o)
                0x0000000000126044                core::fmt::float::<impl core::fmt::Debug for f16>::fmt
 .text._ZN4core3fmt5float52_$LT$impl$u20$core..fmt..Display$u20$for$u20$f16$GT$3fmt17h44d06f4ee009c844E
                0x0000000000126104       0x44 ./gen/../tecsrustUART/target/armv7a-none-eabi/release/libitron.a(core-d049573bc16596f9.core.5587a85061e7188a-cgu.0.rcgu.o)
                0x0000000000126104                core::fmt::float::<impl core::fmt::Display for f16>::fmt
 .text._ZN4core3fmt5float53_$LT$impl$u20$core..fmt..LowerExp$u20$for$u20$f16$GT$3fmt17h5cc0551d1f587a8bE
                0x0000000000126148       0x54 ./gen/../tecsrustUART/target/armv7a-none-eabi/release/libitron.a(core-d049573bc16596f9.core.5587a85061e7188a-cgu.0.rcgu.o)
                0x0000000000126148                core::fmt::float::<impl core::fmt::LowerExp for f16>::fmt
 .text._ZN4core3fmt5float53_$LT$impl$u20$core..fmt..UpperExp$u20$for$u20$f16$GT$3fmt17h2a0ba872876a6cb1E
                0x000000000012619c       0x54 ./gen/../tecsrustUART/target/armv7a-none-eabi/release/libitron.a(core-d049573bc16596f9.core.5587a85061e7188a-cgu.0.rcgu.o)
                0x000000000012619c                core::fmt::float::<impl core::fmt::UpperExp for f16>::fmt
 .text._ZN71_$LT$core..fmt..num..Binary$u20$as$u20$core..fmt..num..GenericRadix$GT$5digit17he4b6c679024b6753E
                0x00000000001261f0       0x7c ./gen/../tecsrustUART/target/armv7a-none-eabi/release/libitron.a(core-d049573bc16596f9.core.5587a85061e7188a-cgu.0.rcgu.o)
                0x00000000001261f0                <core::fmt::num::Binary as core::fmt::num::GenericRadix>::digit
 .text._ZN70_$LT$core..fmt..num..Octal$u20$as$u20$core..fmt..num..GenericRadix$GT$5digit17h6d524b5314e7839aE
                0x000000000012626c       0x7c ./gen/../tecsrustUART/target/armv7a-none-eabi/release/libitron.a(core-d049573bc16596f9.core.5587a85061e7188a-cgu.0.rcgu.o)
                0x000000000012626c                <core::fmt::num::Octal as core::fmt::num::GenericRadix>::digit
 .text._ZN73_$LT$core..fmt..num..LowerHex$u20$as$u20$core..fmt..num..GenericRadix$GT$5digit17h67093c0abfd72a34E
                0x00000000001262e8       0x88 ./gen/../tecsrustUART/target/armv7a-none-eabi/release/libitron.a(core-d049573bc16596f9.core.5587a85061e7188a-cgu.0.rcgu.o)
                0x00000000001262e8                <core::fmt::num::LowerHex as core::fmt::num::GenericRadix>::digit
 .text._ZN73_$LT$core..fmt..num..UpperHex$u20$as$u20$core..fmt..num..GenericRadix$GT$5digit17h2ebf7f3cf75c8942E
                0x0000000000126370       0x88 ./gen/../tecsrustUART/target/armv7a-none-eabi/release/libitron.a(core-d049573bc16596f9.core.5587a85061e7188a-cgu.0.rcgu.o)
                0x0000000000126370                <core::fmt::num::UpperHex as core::fmt::num::GenericRadix>::digit
 .text._ZN4core3fmt3num50_$LT$impl$u20$core..fmt..Binary$u20$for$u20$i8$GT$3fmt17hfb8e99514944e386E
                0x00000000001263f8       0x68 ./gen/../tecsrustUART/target/armv7a-none-eabi/release/libitron.a(core-d049573bc16596f9.core.5587a85061e7188a-cgu.0.rcgu.o)
                0x00000000001263f8                core::fmt::num::<impl core::fmt::Binary for u8>::fmt
                0x00000000001263f8                core::fmt::num::<impl core::fmt::Binary for i8>::fmt
 .text._ZN4core3fmt3num49_$LT$impl$u20$core..fmt..Octal$u20$for$u20$i8$GT$3fmt17h16740b96b647866aE
                0x0000000000126460       0x68 ./gen/../tecsrustUART/target/armv7a-none-eabi/release/libitron.a(core-d049573bc16596f9.core.5587a85061e7188a-cgu.0.rcgu.o)
                0x0000000000126460                core::fmt::num::<impl core::fmt::Octal for i8>::fmt
                0x0000000000126460                core::fmt::num::<impl core::fmt::Octal for u8>::fmt
 .text._ZN4core3fmt3num52_$LT$impl$u20$core..fmt..LowerHex$u20$for$u20$i8$GT$3fmt17ha38e82f4b36477dfE
                0x00000000001264c8       0x6c ./gen/../tecsrustUART/target/armv7a-none-eabi/release/libitron.a(core-d049573bc16596f9.core.5587a85061e7188a-cgu.0.rcgu.o)
                0x00000000001264c8                core::fmt::num::<impl core::fmt::LowerHex for i8>::fmt
                0x00000000001264c8                core::fmt::num::<impl core::fmt::LowerHex for u8>::fmt
 .text._ZN4core3fmt3num52_$LT$impl$u20$core..fmt..UpperHex$u20$for$u20$i8$GT$3fmt17hdbc78e6d81b9fc73E
                0x0000000000126534       0x6c ./gen/../tecsrustUART/target/armv7a-none-eabi/release/libitron.a(core-d049573bc16596f9.core.5587a85061e7188a-cgu.0.rcgu.o)
                0x0000000000126534                core::fmt::num::<impl core::fmt::UpperHex for i8>::fmt
                0x0000000000126534                core::fmt::num::<impl core::fmt::UpperHex for u8>::fmt
 .text._ZN4core3fmt3num51_$LT$impl$u20$core..fmt..Binary$u20$for$u20$i16$GT$3fmt17hd9dba8c56e1924baE
                0x00000000001265a0       0x68 ./gen/../tecsrustUART/target/armv7a-none-eabi/release/libitron.a(core-d049573bc16596f9.core.5587a85061e7188a-cgu.0.rcgu.o)
                0x00000000001265a0                core::fmt::num::<impl core::fmt::Binary for i16>::fmt
                0x00000000001265a0                core::fmt::num::<impl core::fmt::Binary for u16>::fmt
 .text._ZN4core3fmt3num50_$LT$impl$u20$core..fmt..Octal$u20$for$u20$i16$GT$3fmt17h673945bd6fb3acfeE
                0x0000000000126608       0x68 ./gen/../tecsrustUART/target/armv7a-none-eabi/release/libitron.a(core-d049573bc16596f9.core.5587a85061e7188a-cgu.0.rcgu.o)
                0x0000000000126608                core::fmt::num::<impl core::fmt::Octal for i16>::fmt
                0x0000000000126608                core::fmt::num::<impl core::fmt::Octal for u16>::fmt
 .text._ZN4core3fmt3num53_$LT$impl$u20$core..fmt..LowerHex$u20$for$u20$i16$GT$3fmt17hd32e4fcbce79670aE
                0x0000000000126670       0x70 ./gen/../tecsrustUART/target/armv7a-none-eabi/release/libitron.a(core-d049573bc16596f9.core.5587a85061e7188a-cgu.0.rcgu.o)
                0x0000000000126670                core::fmt::num::<impl core::fmt::LowerHex for i16>::fmt
                0x0000000000126670                core::fmt::num::<impl core::fmt::LowerHex for u16>::fmt
 .text._ZN4core3fmt3num53_$LT$impl$u20$core..fmt..UpperHex$u20$for$u20$i16$GT$3fmt17hc507e3445ac18ebeE
                0x00000000001266e0       0x70 ./gen/../tecsrustUART/target/armv7a-none-eabi/release/libitron.a(core-d049573bc16596f9.core.5587a85061e7188a-cgu.0.rcgu.o)
                0x00000000001266e0                core::fmt::num::<impl core::fmt::UpperHex for i16>::fmt
                0x00000000001266e0                core::fmt::num::<impl core::fmt::UpperHex for u16>::fmt
 .text._ZN4core3fmt3num51_$LT$impl$u20$core..fmt..Binary$u20$for$u20$i32$GT$3fmt17hd6aa21fb91002751E
                0x0000000000126750       0x68 ./gen/../tecsrustUART/target/armv7a-none-eabi/release/libitron.a(core-d049573bc16596f9.core.5587a85061e7188a-cgu.0.rcgu.o)
                0x0000000000126750                core::fmt::num::<impl core::fmt::Binary for isize>::fmt
                0x0000000000126750                core::fmt::num::<impl core::fmt::Binary for i32>::fmt
                0x0000000000126750                core::fmt::num::<impl core::fmt::Binary for usize>::fmt
                0x0000000000126750                core::fmt::num::<impl core::fmt::Binary for u32>::fmt
 .text._ZN4core3fmt3num50_$LT$impl$u20$core..fmt..Octal$u20$for$u20$i32$GT$3fmt17hdfdd079f8dc60dc7E
                0x00000000001267b8       0x68 ./gen/../tecsrustUART/target/armv7a-none-eabi/release/libitron.a(core-d049573bc16596f9.core.5587a85061e7188a-cgu.0.rcgu.o)
                0x00000000001267b8                core::fmt::num::<impl core::fmt::Octal for usize>::fmt
                0x00000000001267b8                core::fmt::num::<impl core::fmt::Octal for isize>::fmt
                0x00000000001267b8                core::fmt::num::<impl core::fmt::Octal for u32>::fmt
                0x00000000001267b8                core::fmt::num::<impl core::fmt::Octal for i32>::fmt
 .text._ZN4core3fmt3num53_$LT$impl$u20$core..fmt..LowerHex$u20$for$u20$i32$GT$3fmt17h1bfe37b07cf28800E
                0x0000000000126820       0x6c ./gen/../tecsrustUART/target/armv7a-none-eabi/release/libitron.a(core-d049573bc16596f9.core.5587a85061e7188a-cgu.0.rcgu.o)
                0x0000000000126820                core::fmt::num::<impl core::fmt::LowerHex for usize>::fmt
                0x0000000000126820                core::fmt::num::<impl core::fmt::LowerHex for isize>::fmt
                0x0000000000126820                core::fmt::num::<impl core::fmt::LowerHex for u32>::fmt
                0x0000000000126820                core::fmt::num::<impl core::fmt::LowerHex for i32>::fmt
 .text._ZN4core3fmt3num53_$LT$impl$u20$core..fmt..UpperHex$u20$for$u20$i32$GT$3fmt17hf4441f29103186f0E
                0x000000000012688c       0x6c ./gen/../tecsrustUART/target/armv7a-none-eabi/release/libitron.a(core-d049573bc16596f9.core.5587a85061e7188a-cgu.0.rcgu.o)
                0x000000000012688c                core::fmt::num::<impl core::fmt::UpperHex for u32>::fmt
                0x000000000012688c                core::fmt::num::<impl core::fmt::UpperHex for isize>::fmt
                0x000000000012688c                core::fmt::num::<impl core::fmt::UpperHex for usize>::fmt
                0x000000000012688c                core::fmt::num::<impl core::fmt::UpperHex for i32>::fmt
 .text._ZN4core3fmt3num51_$LT$impl$u20$core..fmt..Binary$u20$for$u20$i64$GT$3fmt17h2344af75f6c15b7fE
                0x00000000001268f8       0x70 ./gen/../tecsrustUART/target/armv7a-none-eabi/release/libitron.a(core-d049573bc16596f9.core.5587a85061e7188a-cgu.0.rcgu.o)
                0x00000000001268f8                core::fmt::num::<impl core::fmt::Binary for i64>::fmt
                0x00000000001268f8                core::fmt::num::<impl core::fmt::Binary for u64>::fmt
 .text._ZN4core3fmt3num50_$LT$impl$u20$core..fmt..Octal$u20$for$u20$i64$GT$3fmt17hc6f5294ea5289e43E
                0x0000000000126968       0x70 ./gen/../tecsrustUART/target/armv7a-none-eabi/release/libitron.a(core-d049573bc16596f9.core.5587a85061e7188a-cgu.0.rcgu.o)
                0x0000000000126968                core::fmt::num::<impl core::fmt::Octal for u64>::fmt
                0x0000000000126968                core::fmt::num::<impl core::fmt::Octal for i64>::fmt
 .text._ZN4core3fmt3num53_$LT$impl$u20$core..fmt..LowerHex$u20$for$u20$i64$GT$3fmt17hac7e501d59390ecfE
                0x00000000001269d8       0x78 ./gen/../tecsrustUART/target/armv7a-none-eabi/release/libitron.a(core-d049573bc16596f9.core.5587a85061e7188a-cgu.0.rcgu.o)
                0x00000000001269d8                core::fmt::num::<impl core::fmt::LowerHex for u64>::fmt
                0x00000000001269d8                core::fmt::num::<impl core::fmt::LowerHex for i64>::fmt
 .text._ZN4core3fmt3num53_$LT$impl$u20$core..fmt..UpperHex$u20$for$u20$i64$GT$3fmt17h51257ca6c0f8239cE
                0x0000000000126a50       0x78 ./gen/../tecsrustUART/target/armv7a-none-eabi/release/libitron.a(core-d049573bc16596f9.core.5587a85061e7188a-cgu.0.rcgu.o)
                0x0000000000126a50                core::fmt::num::<impl core::fmt::UpperHex for u64>::fmt
                0x0000000000126a50                core::fmt::num::<impl core::fmt::UpperHex for i64>::fmt
 .text._ZN4core3fmt3num52_$LT$impl$u20$core..fmt..Binary$u20$for$u20$i128$GT$3fmt17h7be091d3317e0d6cE
                0x0000000000126ac8       0xa4 ./gen/../tecsrustUART/target/armv7a-none-eabi/release/libitron.a(core-d049573bc16596f9.core.5587a85061e7188a-cgu.0.rcgu.o)
                0x0000000000126ac8                core::fmt::num::<impl core::fmt::Binary for i128>::fmt
                0x0000000000126ac8                core::fmt::num::<impl core::fmt::Binary for u128>::fmt
 .text._ZN4core3fmt3num51_$LT$impl$u20$core..fmt..Octal$u20$for$u20$i128$GT$3fmt17h5fb2ef3ead5b0ea5E
                0x0000000000126b6c       0xb0 ./gen/../tecsrustUART/target/armv7a-none-eabi/release/libitron.a(core-d049573bc16596f9.core.5587a85061e7188a-cgu.0.rcgu.o)
                0x0000000000126b6c                core::fmt::num::<impl core::fmt::Octal for u128>::fmt
                0x0000000000126b6c                core::fmt::num::<impl core::fmt::Octal for i128>::fmt
 .text._ZN4core3fmt3num54_$LT$impl$u20$core..fmt..LowerHex$u20$for$u20$i128$GT$3fmt17h4f123a38d1270953E
                0x0000000000126c1c       0xb8 ./gen/../tecsrustUART/target/armv7a-none-eabi/release/libitron.a(core-d049573bc16596f9.core.5587a85061e7188a-cgu.0.rcgu.o)
                0x0000000000126c1c                core::fmt::num::<impl core::fmt::LowerHex for i128>::fmt
                0x0000000000126c1c                core::fmt::num::<impl core::fmt::LowerHex for u128>::fmt
 .text._ZN4core3fmt3num54_$LT$impl$u20$core..fmt..UpperHex$u20$for$u20$i128$GT$3fmt17ha49e3851795cfdefE
                0x0000000000126cd4       0xb8 ./gen/../tecsrustUART/target/armv7a-none-eabi/release/libitron.a(core-d049573bc16596f9.core.5587a85061e7188a-cgu.0.rcgu.o)
                0x0000000000126cd4                core::fmt::num::<impl core::fmt::UpperHex for u128>::fmt
                0x0000000000126cd4                core::fmt::num::<impl core::fmt::UpperHex for i128>::fmt
 .text._ZN4core3fmt3num49_$LT$impl$u20$core..fmt..Debug$u20$for$u20$i8$GT$3fmt17h34acdd6c4c2b4cccE
                0x0000000000126d8c      0x16c ./gen/../tecsrustUART/target/armv7a-none-eabi/release/libitron.a(core-d049573bc16596f9.core.5587a85061e7188a-cgu.0.rcgu.o)
 .text._ZN4core3fmt3num49_$LT$impl$u20$core..fmt..Debug$u20$for$u20$u8$GT$3fmt17h8d8c411144315c72E
                0x0000000000126ef8      0x154 ./gen/../tecsrustUART/target/armv7a-none-eabi/release/libitron.a(core-d049573bc16596f9.core.5587a85061e7188a-cgu.0.rcgu.o)
 .text._ZN4core3fmt3num50_$LT$impl$u20$core..fmt..Debug$u20$for$u20$u32$GT$3fmt17h71bef540c929d311E
                0x000000000012704c       0xbc ./gen/../tecsrustUART/target/armv7a-none-eabi/release/libitron.a(core-d049573bc16596f9.core.5587a85061e7188a-cgu.0.rcgu.o)
 .text._ZN4core3fmt3num3imp51_$LT$impl$u20$core..fmt..Display$u20$for$u20$u8$GT$3fmt17hbcfcd188bf01c23fE
                0x0000000000127108       0xbc ./gen/../tecsrustUART/target/armv7a-none-eabi/release/libitron.a(core-d049573bc16596f9.core.5587a85061e7188a-cgu.0.rcgu.o)
                0x0000000000127108                core::fmt::num::imp::<impl core::fmt::Display for u8>::fmt
 .text._ZN4core3fmt3num3imp51_$LT$impl$u20$core..fmt..Display$u20$for$u20$i8$GT$3fmt17hff22c034098846a1E
                0x00000000001271c4       0xcc ./gen/../tecsrustUART/target/armv7a-none-eabi/release/libitron.a(core-d049573bc16596f9.core.5587a85061e7188a-cgu.0.rcgu.o)
                0x00000000001271c4                core::fmt::num::imp::<impl core::fmt::Display for i8>::fmt
 .text._ZN4core3fmt3num3imp20_$LT$impl$u20$u8$GT$4_fmt17hb5a7663e8a0544e3E
                0x0000000000127290       0x94 ./gen/../tecsrustUART/target/armv7a-none-eabi/release/libitron.a(core-d049573bc16596f9.core.5587a85061e7188a-cgu.0.rcgu.o)
                0x0000000000127290                core::fmt::num::imp::<impl u8>::_fmt
 .text._ZN4core3fmt3num3imp52_$LT$impl$u20$core..fmt..Display$u20$for$u20$u16$GT$3fmt17hb807d5b07197dd3cE
                0x0000000000127324      0x10c ./gen/../tecsrustUART/target/armv7a-none-eabi/release/libitron.a(core-d049573bc16596f9.core.5587a85061e7188a-cgu.0.rcgu.o)
                0x0000000000127324                core::fmt::num::imp::<impl core::fmt::Display for u16>::fmt
 .text._ZN4core3fmt3num3imp52_$LT$impl$u20$core..fmt..Display$u20$for$u20$i16$GT$3fmt17hd6d0d2db5935d675E
                0x0000000000127430      0x138 ./gen/../tecsrustUART/target/armv7a-none-eabi/release/libitron.a(core-d049573bc16596f9.core.5587a85061e7188a-cgu.0.rcgu.o)
                0x0000000000127430                core::fmt::num::imp::<impl core::fmt::Display for i16>::fmt
 .text._ZN4core3fmt3num3imp21_$LT$impl$u20$u16$GT$4_fmt17h2eab8ac218d2ab0cE
                0x0000000000127568      0x108 ./gen/../tecsrustUART/target/armv7a-none-eabi/release/libitron.a(core-d049573bc16596f9.core.5587a85061e7188a-cgu.0.rcgu.o)
                0x0000000000127568                core::fmt::num::imp::<impl u16>::_fmt
 .text._ZN4core3fmt3num3imp52_$LT$impl$u20$core..fmt..Display$u20$for$u20$u32$GT$3fmt17hfed0ce75b320fdfeE
                0x0000000000127670      0x174 ./gen/../tecsrustUART/target/armv7a-none-eabi/release/libitron.a(core-d049573bc16596f9.core.5587a85061e7188a-cgu.0.rcgu.o)
                0x0000000000127670                core::fmt::num::imp::<impl core::fmt::Display for u32>::fmt
                0x0000000000127670                core::fmt::num::imp::<impl core::fmt::Display for usize>::fmt
 .text._ZN4core3fmt3num3imp52_$LT$impl$u20$core..fmt..Display$u20$for$u20$i32$GT$3fmt17h6694708af44e6410E
                0x00000000001277e4      0x188 ./gen/../tecsrustUART/target/armv7a-none-eabi/release/libitron.a(core-d049573bc16596f9.core.5587a85061e7188a-cgu.0.rcgu.o)
                0x00000000001277e4                core::fmt::num::imp::<impl core::fmt::Display for i32>::fmt
                0x00000000001277e4                core::fmt::num::imp::<impl core::fmt::Display for isize>::fmt
 .text._ZN4core3fmt3num3imp21_$LT$impl$u20$u32$GT$4_fmt17he3f4180fb8f739b6E
                0x000000000012796c      0x15c ./gen/../tecsrustUART/target/armv7a-none-eabi/release/libitron.a(core-d049573bc16596f9.core.5587a85061e7188a-cgu.0.rcgu.o)
                0x000000000012796c                core::fmt::num::imp::<impl u32>::_fmt
                0x000000000012796c                core::fmt::num::imp::<impl usize>::_fmt
 .text._ZN4core3fmt3num3imp52_$LT$impl$u20$core..fmt..Display$u20$for$u20$u64$GT$3fmt17hca688f18ea3812f0E
                0x0000000000127ac8      0x198 ./gen/../tecsrustUART/target/armv7a-none-eabi/release/libitron.a(core-d049573bc16596f9.core.5587a85061e7188a-cgu.0.rcgu.o)
                0x0000000000127ac8                core::fmt::num::imp::<impl core::fmt::Display for u64>::fmt
 .text._ZN4core3fmt3num3imp52_$LT$impl$u20$core..fmt..Display$u20$for$u20$i64$GT$3fmt17h746d5f02f990caf3E
                0x0000000000127c60      0x1b4 ./gen/../tecsrustUART/target/armv7a-none-eabi/release/libitron.a(core-d049573bc16596f9.core.5587a85061e7188a-cgu.0.rcgu.o)
                0x0000000000127c60                core::fmt::num::imp::<impl core::fmt::Display for i64>::fmt
 .text._ZN4core3fmt3num3imp21_$LT$impl$u20$u64$GT$4_fmt17h5cad236623dacc7fE
                0x0000000000127e14      0x16c ./gen/../tecsrustUART/target/armv7a-none-eabi/release/libitron.a(core-d049573bc16596f9.core.5587a85061e7188a-cgu.0.rcgu.o)
                0x0000000000127e14                core::fmt::num::imp::<impl u64>::_fmt
 .text._ZN4core3fmt3num3imp7exp_u3217he01470f61c0319e7E
                0x0000000000127f80      0x428 ./gen/../tecsrustUART/target/armv7a-none-eabi/release/libitron.a(core-d049573bc16596f9.core.5587a85061e7188a-cgu.0.rcgu.o)
 .text._ZN4core3fmt3num3imp52_$LT$impl$u20$core..fmt..LowerExp$u20$for$u20$i8$GT$3fmt17hc0edf995b11d88a4E
                0x00000000001283a8       0x30 ./gen/../tecsrustUART/target/armv7a-none-eabi/release/libitron.a(core-d049573bc16596f9.core.5587a85061e7188a-cgu.0.rcgu.o)
                0x00000000001283a8                core::fmt::num::imp::<impl core::fmt::LowerExp for i8>::fmt
 .text._ZN4core3fmt3num3imp52_$LT$impl$u20$core..fmt..LowerExp$u20$for$u20$u8$GT$3fmt17h9f71b4e1975c97b3E
                0x00000000001283d8       0x20 ./gen/../tecsrustUART/target/armv7a-none-eabi/release/libitron.a(core-d049573bc16596f9.core.5587a85061e7188a-cgu.0.rcgu.o)
                0x00000000001283d8                core::fmt::num::imp::<impl core::fmt::LowerExp for u8>::fmt
 .text._ZN4core3fmt3num3imp53_$LT$impl$u20$core..fmt..LowerExp$u20$for$u20$i16$GT$3fmt17h2ec4792f26758582E
                0x00000000001283f8       0x30 ./gen/../tecsrustUART/target/armv7a-none-eabi/release/libitron.a(core-d049573bc16596f9.core.5587a85061e7188a-cgu.0.rcgu.o)
                0x00000000001283f8                core::fmt::num::imp::<impl core::fmt::LowerExp for i16>::fmt
 .text._ZN4core3fmt3num3imp53_$LT$impl$u20$core..fmt..LowerExp$u20$for$u20$u16$GT$3fmt17he1630ced7897f954E
                0x0000000000128428       0x20 ./gen/../tecsrustUART/target/armv7a-none-eabi/release/libitron.a(core-d049573bc16596f9.core.5587a85061e7188a-cgu.0.rcgu.o)
                0x0000000000128428                core::fmt::num::imp::<impl core::fmt::LowerExp for u16>::fmt
 .text._ZN4core3fmt3num3imp53_$LT$impl$u20$core..fmt..LowerExp$u20$for$u20$i32$GT$3fmt17hc830ff5284d762bdE
                0x0000000000128448       0x30 ./gen/../tecsrustUART/target/armv7a-none-eabi/release/libitron.a(core-d049573bc16596f9.core.5587a85061e7188a-cgu.0.rcgu.o)
                0x0000000000128448                core::fmt::num::imp::<impl core::fmt::LowerExp for isize>::fmt
                0x0000000000128448                core::fmt::num::imp::<impl core::fmt::LowerExp for i32>::fmt
 .text._ZN4core3fmt3num3imp53_$LT$impl$u20$core..fmt..LowerExp$u20$for$u20$u32$GT$3fmt17he84cd695e6f75fd8E
                0x0000000000128478       0x20 ./gen/../tecsrustUART/target/armv7a-none-eabi/release/libitron.a(core-d049573bc16596f9.core.5587a85061e7188a-cgu.0.rcgu.o)
                0x0000000000128478                core::fmt::num::imp::<impl core::fmt::LowerExp for usize>::fmt
                0x0000000000128478                core::fmt::num::imp::<impl core::fmt::LowerExp for u32>::fmt
 .text._ZN4core3fmt3num3imp52_$LT$impl$u20$core..fmt..UpperExp$u20$for$u20$i8$GT$3fmt17h3cc98f3a87f4ea66E
                0x0000000000128498       0x30 ./gen/../tecsrustUART/target/armv7a-none-eabi/release/libitron.a(core-d049573bc16596f9.core.5587a85061e7188a-cgu.0.rcgu.o)
                0x0000000000128498                core::fmt::num::imp::<impl core::fmt::UpperExp for i8>::fmt
 .text._ZN4core3fmt3num3imp52_$LT$impl$u20$core..fmt..UpperExp$u20$for$u20$u8$GT$3fmt17h04e779386a1b925eE
                0x00000000001284c8       0x20 ./gen/../tecsrustUART/target/armv7a-none-eabi/release/libitron.a(core-d049573bc16596f9.core.5587a85061e7188a-cgu.0.rcgu.o)
                0x00000000001284c8                core::fmt::num::imp::<impl core::fmt::UpperExp for u8>::fmt
 .text._ZN4core3fmt3num3imp53_$LT$impl$u20$core..fmt..UpperExp$u20$for$u20$i16$GT$3fmt17ha0dd815a12b4d383E
                0x00000000001284e8       0x30 ./gen/../tecsrustUART/target/armv7a-none-eabi/release/libitron.a(core-d049573bc16596f9.core.5587a85061e7188a-cgu.0.rcgu.o)
                0x00000000001284e8                core::fmt::num::imp::<impl core::fmt::UpperExp for i16>::fmt
 .text._ZN4core3fmt3num3imp53_$LT$impl$u20$core..fmt..UpperExp$u20$for$u20$u16$GT$3fmt17h07d48ce0e1e749dcE
                0x0000000000128518       0x20 ./gen/../tecsrustUART/target/armv7a-none-eabi/release/libitron.a(core-d049573bc16596f9.core.5587a85061e7188a-cgu.0.rcgu.o)
                0x0000000000128518                core::fmt::num::imp::<impl core::fmt::UpperExp for u16>::fmt
 .text._ZN4core3fmt3num3imp53_$LT$impl$u20$core..fmt..UpperExp$u20$for$u20$i32$GT$3fmt17hf0350addfa1667d3E
                0x0000000000128538       0x30 ./gen/../tecsrustUART/target/armv7a-none-eabi/release/libitron.a(core-d049573bc16596f9.core.5587a85061e7188a-cgu.0.rcgu.o)
                0x0000000000128538                core::fmt::num::imp::<impl core::fmt::UpperExp for isize>::fmt
                0x0000000000128538                core::fmt::num::imp::<impl core::fmt::UpperExp for i32>::fmt
 .text._ZN4core3fmt3num3imp53_$LT$impl$u20$core..fmt..UpperExp$u20$for$u20$u32$GT$3fmt17he78d3191f07bcd68E
                0x0000000000128568       0x20 ./gen/../tecsrustUART/target/armv7a-none-eabi/release/libitron.a(core-d049573bc16596f9.core.5587a85061e7188a-cgu.0.rcgu.o)
                0x0000000000128568                core::fmt::num::imp::<impl core::fmt::UpperExp for u32>::fmt
                0x0000000000128568                core::fmt::num::imp::<impl core::fmt::UpperExp for usize>::fmt
 .text._ZN4core3fmt3num3imp7exp_u6417h10bcc1a2e249db0dE
                0x0000000000128588      0x6a4 ./gen/../tecsrustUART/target/armv7a-none-eabi/release/libitron.a(core-d049573bc16596f9.core.5587a85061e7188a-cgu.0.rcgu.o)
 .text._ZN4core3fmt3num3imp53_$LT$impl$u20$core..fmt..LowerExp$u20$for$u20$i64$GT$3fmt17hcf4752f526debdaeE
                0x0000000000128c2c       0x40 ./gen/../tecsrustUART/target/armv7a-none-eabi/release/libitron.a(core-d049573bc16596f9.core.5587a85061e7188a-cgu.0.rcgu.o)
                0x0000000000128c2c                core::fmt::num::imp::<impl core::fmt::LowerExp for i64>::fmt
 .text._ZN4core3fmt3num3imp53_$LT$impl$u20$core..fmt..LowerExp$u20$for$u20$u64$GT$3fmt17h1137bee068b4f16aE
                0x0000000000128c6c       0x2c ./gen/../tecsrustUART/target/armv7a-none-eabi/release/libitron.a(core-d049573bc16596f9.core.5587a85061e7188a-cgu.0.rcgu.o)
                0x0000000000128c6c                core::fmt::num::imp::<impl core::fmt::LowerExp for u64>::fmt
 .text._ZN4core3fmt3num3imp53_$LT$impl$u20$core..fmt..UpperExp$u20$for$u20$i64$GT$3fmt17hb868ad8f77e533adE
                0x0000000000128c98       0x40 ./gen/../tecsrustUART/target/armv7a-none-eabi/release/libitron.a(core-d049573bc16596f9.core.5587a85061e7188a-cgu.0.rcgu.o)
                0x0000000000128c98                core::fmt::num::imp::<impl core::fmt::UpperExp for i64>::fmt
 .text._ZN4core3fmt3num3imp53_$LT$impl$u20$core..fmt..UpperExp$u20$for$u20$u64$GT$3fmt17h63c965249d38ffaaE
                0x0000000000128cd8       0x2c ./gen/../tecsrustUART/target/armv7a-none-eabi/release/libitron.a(core-d049573bc16596f9.core.5587a85061e7188a-cgu.0.rcgu.o)
                0x0000000000128cd8                core::fmt::num::imp::<impl core::fmt::UpperExp for u64>::fmt
 .text._ZN4core3fmt3num8exp_u12817hebe915adc93a3f65E
                0x0000000000128d04     0x3264 ./gen/../tecsrustUART/target/armv7a-none-eabi/release/libitron.a(core-d049573bc16596f9.core.5587a85061e7188a-cgu.0.rcgu.o)
 .text._ZN4core3fmt3num54_$LT$impl$u20$core..fmt..LowerExp$u20$for$u20$i128$GT$3fmt17h5da6959838468447E
                0x000000000012bf68       0x5c ./gen/../tecsrustUART/target/armv7a-none-eabi/release/libitron.a(core-d049573bc16596f9.core.5587a85061e7188a-cgu.0.rcgu.o)
                0x000000000012bf68                core::fmt::num::<impl core::fmt::LowerExp for i128>::fmt
 .text._ZN4core3fmt3num54_$LT$impl$u20$core..fmt..LowerExp$u20$for$u20$u128$GT$3fmt17h376c18320fa0ab27E
                0x000000000012bfc4       0x3c ./gen/../tecsrustUART/target/armv7a-none-eabi/release/libitron.a(core-d049573bc16596f9.core.5587a85061e7188a-cgu.0.rcgu.o)
                0x000000000012bfc4                core::fmt::num::<impl core::fmt::LowerExp for u128>::fmt
 .text._ZN4core3fmt3num54_$LT$impl$u20$core..fmt..UpperExp$u20$for$u20$i128$GT$3fmt17h4fa0aa44e9ac138bE
                0x000000000012c000       0x5c ./gen/../tecsrustUART/target/armv7a-none-eabi/release/libitron.a(core-d049573bc16596f9.core.5587a85061e7188a-cgu.0.rcgu.o)
                0x000000000012c000                core::fmt::num::<impl core::fmt::UpperExp for i128>::fmt
 .text._ZN4core3fmt3num54_$LT$impl$u20$core..fmt..UpperExp$u20$for$u20$u128$GT$3fmt17h8104a47a73970792E
                0x000000000012c05c       0x38 ./gen/../tecsrustUART/target/armv7a-none-eabi/release/libitron.a(core-d049573bc16596f9.core.5587a85061e7188a-cgu.0.rcgu.o)
                0x000000000012c05c                core::fmt::num::<impl core::fmt::UpperExp for u128>::fmt
 .text._ZN53_$LT$core..fmt..Error$u20$as$u20$core..fmt..Debug$GT$3fmt17h1fc33b0efc6d4457E
                0x000000000012c094       0x24 ./gen/../tecsrustUART/target/armv7a-none-eabi/release/libitron.a(core-d049573bc16596f9.core.5587a85061e7188a-cgu.0.rcgu.o)
 .text._ZN42_$LT$$RF$T$u20$as$u20$core..fmt..Debug$GT$3fmt17h24b88fa73242f32eE
                0x000000000012c0b8       0xc0 ./gen/../tecsrustUART/target/armv7a-none-eabi/release/libitron.a(core-d049573bc16596f9.core.5587a85061e7188a-cgu.0.rcgu.o)
 .text._ZN42_$LT$$RF$T$u20$as$u20$core..fmt..Debug$GT$3fmt17h2b8606028715b277E
                0x000000000012c178       0xd8 ./gen/../tecsrustUART/target/armv7a-none-eabi/release/libitron.a(core-d049573bc16596f9.core.5587a85061e7188a-cgu.0.rcgu.o)
 .text._ZN42_$LT$$RF$T$u20$as$u20$core..fmt..Debug$GT$3fmt17h2c94c47449fce077E
                0x000000000012c250       0x18 ./gen/../tecsrustUART/target/armv7a-none-eabi/release/libitron.a(core-d049573bc16596f9.core.5587a85061e7188a-cgu.0.rcgu.o)
 .text._ZN42_$LT$$RF$T$u20$as$u20$core..fmt..Debug$GT$3fmt17hf161bf64d7c0ef1eE
                0x000000000012c268       0x14 ./gen/../tecsrustUART/target/armv7a-none-eabi/release/libitron.a(core-d049573bc16596f9.core.5587a85061e7188a-cgu.0.rcgu.o)
 .text._ZN44_$LT$$RF$T$u20$as$u20$core..fmt..Display$GT$3fmt17h61386bb67a2fbd60E
                0x000000000012c27c       0x14 ./gen/../tecsrustUART/target/armv7a-none-eabi/release/libitron.a(core-d049573bc16596f9.core.5587a85061e7188a-cgu.0.rcgu.o)
 .text._ZN44_$LT$$RF$T$u20$as$u20$core..fmt..Display$GT$3fmt17h8f0befc82ddda638E
                0x000000000012c290       0x20 ./gen/../tecsrustUART/target/armv7a-none-eabi/release/libitron.a(core-d049573bc16596f9.core.5587a85061e7188a-cgu.0.rcgu.o)
 .text._ZN44_$LT$$RF$T$u20$as$u20$core..fmt..Display$GT$3fmt17hfac9eb6f9e514871E
                0x000000000012c2b0       0x14 ./gen/../tecsrustUART/target/armv7a-none-eabi/release/libitron.a(core-d049573bc16596f9.core.5587a85061e7188a-cgu.0.rcgu.o)
 .text._ZN44_$LT$$RF$T$u20$as$u20$core..fmt..Display$GT$3fmt17hfcf05cee7c9056f6E
                0x000000000012c2c4       0x14 ./gen/../tecsrustUART/target/armv7a-none-eabi/release/libitron.a(core-d049573bc16596f9.core.5587a85061e7188a-cgu.0.rcgu.o)
 .text._ZN45_$LT$$RF$T$u20$as$u20$core..fmt..LowerHex$GT$3fmt17ha26303ddcb46393bE
                0x000000000012c2d8       0x74 ./gen/../tecsrustUART/target/armv7a-none-eabi/release/libitron.a(core-d049573bc16596f9.core.5587a85061e7188a-cgu.0.rcgu.o)
 .text.unlikely._ZN4core5slice5index26slice_start_index_len_fail8do_panic7runtime17h6b9a2d72cc528d7dE
                0x000000000012c34c       0x64 ./gen/../tecsrustUART/target/armv7a-none-eabi/release/libitron.a(core-d049573bc16596f9.core.5587a85061e7188a-cgu.0.rcgu.o)
                0x000000000012c34c                core::slice::index::slice_start_index_len_fail::do_panic::runtime
 .text.unlikely._ZN4core5slice5index24slice_end_index_len_fail8do_panic7runtime17h389d609c37b06f43E
                0x000000000012c3b0       0x64 ./gen/../tecsrustUART/target/armv7a-none-eabi/release/libitron.a(core-d049573bc16596f9.core.5587a85061e7188a-cgu.0.rcgu.o)
                0x000000000012c3b0                core::slice::index::slice_end_index_len_fail::do_panic::runtime
 .text.unlikely._ZN4core5slice5index22slice_index_order_fail8do_panic7runtime17hba4d89077763ab27E
                0x000000000012c414       0x64 ./gen/../tecsrustUART/target/armv7a-none-eabi/release/libitron.a(core-d049573bc16596f9.core.5587a85061e7188a-cgu.0.rcgu.o)
                0x000000000012c414                core::slice::index::slice_index_order_fail::do_panic::runtime
 .text.unlikely._ZN4core5slice29_$LT$impl$u20$$u5b$T$u5d$$GT$15copy_from_slice17len_mismatch_fail8do_panic7runtime17ha2cc200a2ee383aeE
                0x000000000012c478       0x68 ./gen/../tecsrustUART/target/armv7a-none-eabi/release/libitron.a(core-d049573bc16596f9.core.5587a85061e7188a-cgu.0.rcgu.o)
                0x000000000012c478                core::slice::<impl [T]>::copy_from_slice::len_mismatch_fail::do_panic::runtime
 .text._ZN67_$LT$core..str..iter..EscapeDebug$u20$as$u20$core..fmt..Display$GT$3fmt17h2e2431f416ffb01dE
                0x000000000012c4e0      0x984 ./gen/../tecsrustUART/target/armv7a-none-eabi/release/libitron.a(core-d049573bc16596f9.core.5587a85061e7188a-cgu.0.rcgu.o)
                0x000000000012c4e0                <core::str::iter::EscapeDebug as core::fmt::Display>::fmt
 .text._ZN69_$LT$core..str..iter..EscapeDefault$u20$as$u20$core..fmt..Display$GT$3fmt17ha94bdd14781dc3d5E
                0x000000000012ce64      0x590 ./gen/../tecsrustUART/target/armv7a-none-eabi/release/libitron.a(core-d049573bc16596f9.core.5587a85061e7188a-cgu.0.rcgu.o)
                0x000000000012ce64                <core::str::iter::EscapeDefault as core::fmt::Display>::fmt
 .text._ZN69_$LT$core..str..iter..EscapeUnicode$u20$as$u20$core..fmt..Display$GT$3fmt17h5c27075c7f7ee5aeE
                0x000000000012d3f4      0x3ac ./gen/../tecsrustUART/target/armv7a-none-eabi/release/libitron.a(core-d049573bc16596f9.core.5587a85061e7188a-cgu.0.rcgu.o)
                0x000000000012d3f4                <core::str::iter::EscapeUnicode as core::fmt::Display>::fmt
 .text._ZN4core7unicode12unicode_data10alphabetic6lookup17h0425ea10b4aa7bf8E
                0x000000000012d7a0      0x118 ./gen/../tecsrustUART/target/armv7a-none-eabi/release/libitron.a(core-d049573bc16596f9.core.5587a85061e7188a-cgu.0.rcgu.o)
                0x000000000012d7a0                core::unicode::unicode_data::alphabetic::lookup
 .text._ZN4core7unicode12unicode_data14case_ignorable6lookup17ha88a31073cb4ea00E
                0x000000000012d8b8      0x118 ./gen/../tecsrustUART/target/armv7a-none-eabi/release/libitron.a(core-d049573bc16596f9.core.5587a85061e7188a-cgu.0.rcgu.o)
                0x000000000012d8b8                core::unicode::unicode_data::case_ignorable::lookup
 .text._ZN4core7unicode12unicode_data5cased6lookup17h855070ae3579273aE
                0x000000000012d9d0      0x104 ./gen/../tecsrustUART/target/armv7a-none-eabi/release/libitron.a(core-d049573bc16596f9.core.5587a85061e7188a-cgu.0.rcgu.o)
                0x000000000012d9d0                core::unicode::unicode_data::cased::lookup
 .text._ZN4core7unicode12unicode_data2cc6lookup17hbd92340422846ed5E
                0x000000000012dad4       0x2c ./gen/../tecsrustUART/target/armv7a-none-eabi/release/libitron.a(core-d049573bc16596f9.core.5587a85061e7188a-cgu.0.rcgu.o)
                0x000000000012dad4                core::unicode::unicode_data::cc::lookup
 .text._ZN4core7unicode12unicode_data15grapheme_extend11lookup_slow17ha0f2bcc528f4b24fE
                0x000000000012db00      0x118 ./gen/../tecsrustUART/target/armv7a-none-eabi/release/libitron.a(core-d049573bc16596f9.core.5587a85061e7188a-cgu.0.rcgu.o)
                0x000000000012db00                core::unicode::unicode_data::grapheme_extend::lookup_slow
 .text._ZN4core7unicode12unicode_data9lowercase6lookup17h25b6cb6d69b065d2E
                0x000000000012dc18      0x15c ./gen/../tecsrustUART/target/armv7a-none-eabi/release/libitron.a(core-d049573bc16596f9.core.5587a85061e7188a-cgu.0.rcgu.o)
                0x000000000012dc18                core::unicode::unicode_data::lowercase::lookup
 .text._ZN4core7unicode12unicode_data1n6lookup17hab35f8f69f966811E
                0x000000000012dd74      0x118 ./gen/../tecsrustUART/target/armv7a-none-eabi/release/libitron.a(core-d049573bc16596f9.core.5587a85061e7188a-cgu.0.rcgu.o)
                0x000000000012dd74                core::unicode::unicode_data::n::lookup
 .text._ZN4core7unicode12unicode_data9uppercase6lookup17h93e2abe42af36001E
                0x000000000012de8c      0x15c ./gen/../tecsrustUART/target/armv7a-none-eabi/release/libitron.a(core-d049573bc16596f9.core.5587a85061e7188a-cgu.0.rcgu.o)
                0x000000000012de8c                core::unicode::unicode_data::uppercase::lookup
 .text._ZN4core7unicode12unicode_data11conversions8to_lower17h8b23e01b2072e971E
                0x000000000012dfe8      0x158 ./gen/../tecsrustUART/target/armv7a-none-eabi/release/libitron.a(core-d049573bc16596f9.core.5587a85061e7188a-cgu.0.rcgu.o)
                0x000000000012dfe8                core::unicode::unicode_data::conversions::to_lower
 .text._ZN4core7unicode12unicode_data11conversions8to_upper17hb90ef9b0b7a7f5d4E
                0x000000000012e140      0x168 ./gen/../tecsrustUART/target/armv7a-none-eabi/release/libitron.a(core-d049573bc16596f9.core.5587a85061e7188a-cgu.0.rcgu.o)
                0x000000000012e140                core::unicode::unicode_data::conversions::to_upper
 .text.__aeabi_memset
                0x000000000012e2a8       0x84 ./gen/../tecsrustUART/target/armv7a-none-eabi/release/libitron.a(compiler_builtins-70f608aea3cde50d.compiler_builtins.5a681add74c93a61-cgu.162.rcgu.o)
                0x000000000012e2a8                __aeabi_memset
 .text.__aeabi_memcpy4
                0x000000000012e32c       0x2c ./gen/../tecsrustUART/target/armv7a-none-eabi/release/libitron.a(compiler_builtins-70f608aea3cde50d.compiler_builtins.5a681add74c93a61-cgu.174.rcgu.o)
                0x000000000012e32c                __aeabi_memcpy4
 .text.__aeabi_dmul
                0x000000000012e358       0x10 ./gen/../tecsrustUART/target/armv7a-none-eabi/release/libitron.a(compiler_builtins-70f608aea3cde50d.compiler_builtins.5a681add74c93a61-cgu.178.rcgu.o)
                0x000000000012e358                __aeabi_dmul
 .text.__aeabi_fcmplt
                0x000000000012e368       0x64 ./gen/../tecsrustUART/target/armv7a-none-eabi/release/libitron.a(compiler_builtins-70f608aea3cde50d.compiler_builtins.5a681add74c93a61-cgu.180.rcgu.o)
                0x000000000012e368                __aeabi_fcmplt
 .text.__aeabi_memclr4
                0x000000000012e3cc       0x44 ./gen/../tecsrustUART/target/armv7a-none-eabi/release/libitron.a(compiler_builtins-70f608aea3cde50d.compiler_builtins.5a681add74c93a61-cgu.201.rcgu.o)
                0x000000000012e3cc                __aeabi_memclr4
 .text.__aeabi_fcmpge
                0x000000000012e410       0x6c ./gen/../tecsrustUART/target/armv7a-none-eabi/release/libitron.a(compiler_builtins-70f608aea3cde50d.compiler_builtins.5a681add74c93a61-cgu.206.rcgu.o)
                0x000000000012e410                __aeabi_fcmpge
 .text.__aeabi_f2h
                0x000000000012e47c      0x128 ./gen/../tecsrustUART/target/armv7a-none-eabi/release/libitron.a(compiler_builtins-70f608aea3cde50d.compiler_builtins.5a681add74c93a61-cgu.210.rcgu.o)
                0x000000000012e47c                __aeabi_f2h
 .text.__aeabi_memcpy
                0x000000000012e5a4       0x10 ./gen/../tecsrustUART/target/armv7a-none-eabi/release/libitron.a(compiler_builtins-70f608aea3cde50d.compiler_builtins.5a681add74c93a61-cgu.223.rcgu.o)
                0x000000000012e5a4                __aeabi_memcpy
 .text.__aeabi_memcpy8
                0x000000000012e5b4       0x2c ./gen/../tecsrustUART/target/armv7a-none-eabi/release/libitron.a(compiler_builtins-70f608aea3cde50d.compiler_builtins.5a681add74c93a61-cgu.253.rcgu.o)
                0x000000000012e5b4                __aeabi_memcpy8
 .text.__aeabi_dcmplt
                0x000000000012e5e0       0x78 ./gen/../tecsrustUART/target/armv7a-none-eabi/release/libitron.a(compiler_builtins-70f608aea3cde50d.compiler_builtins.5a681add74c93a61-cgu.261.rcgu.o)
                0x000000000012e5e0                __aeabi_dcmplt
 .text.__aeabi_ddiv
                0x000000000012e658       0x10 ./gen/../tecsrustUART/target/armv7a-none-eabi/release/libitron.a(compiler_builtins-70f608aea3cde50d.compiler_builtins.5a681add74c93a61-cgu.263.rcgu.o)
                0x000000000012e658                __aeabi_ddiv
 .text.__aeabi_ul2d
                0x000000000012e668       0x88 ./gen/../tecsrustUART/target/armv7a-none-eabi/release/libitron.a(compiler_builtins-70f608aea3cde50d.compiler_builtins.5a681add74c93a61-cgu.270.rcgu.o)
                0x000000000012e668                __aeabi_ul2d
 .text.__aeabi_fcmpeq
                0x000000000012e6f0       0x54 ./gen/../tecsrustUART/target/armv7a-none-eabi/release/libitron.a(compiler_builtins-70f608aea3cde50d.compiler_builtins.5a681add74c93a61-cgu.283.rcgu.o)
                0x000000000012e6f0                __aeabi_fcmpeq
 .text.__aeabi_dcmpeq
                0x000000000012e744       0x68 ./gen/../tecsrustUART/target/armv7a-none-eabi/release/libitron.a(compiler_builtins-70f608aea3cde50d.compiler_builtins.5a681add74c93a61-cgu.287.rcgu.o)
                0x000000000012e744                __aeabi_dcmpeq
 .text.__aeabi_h2f
                0x000000000012e7ac       0x9c ./gen/../tecsrustUART/target/armv7a-none-eabi/release/libitron.a(compiler_builtins-70f608aea3cde50d.compiler_builtins.5a681add74c93a61-cgu.300.rcgu.o)
                0x000000000012e7ac                __aeabi_h2f
 .text.memcmp   0x000000000012e848       0x44 ./gen/../tecsrustUART/target/armv7a-none-eabi/release/libitron.a(compiler_builtins-70f608aea3cde50d.compiler_builtins.5a681add74c93a61-cgu.310.rcgu.o)
                0x000000000012e848                memcmp
 .text.__aeabi_fdiv
                0x000000000012e88c       0x10 ./gen/../tecsrustUART/target/armv7a-none-eabi/release/libitron.a(compiler_builtins-70f608aea3cde50d.compiler_builtins.5a681add74c93a61-cgu.355.rcgu.o)
                0x000000000012e88c                __aeabi_fdiv
 .text.__aeabi_dcmpge
                0x000000000012e89c       0x80 ./gen/../tecsrustUART/target/armv7a-none-eabi/release/libitron.a(compiler_builtins-70f608aea3cde50d.compiler_builtins.5a681add74c93a61-cgu.361.rcgu.o)
                0x000000000012e89c                __aeabi_dcmpge
 .text.__aeabi_ul2f
                0x000000000012e91c       0x74 ./gen/../tecsrustUART/target/armv7a-none-eabi/release/libitron.a(compiler_builtins-70f608aea3cde50d.compiler_builtins.5a681add74c93a61-cgu.365.rcgu.o)
                0x000000000012e91c                __aeabi_ul2f
 .text.__aeabi_memclr8
                0x000000000012e990       0x44 ./gen/../tecsrustUART/target/armv7a-none-eabi/release/libitron.a(compiler_builtins-70f608aea3cde50d.compiler_builtins.5a681add74c93a61-cgu.375.rcgu.o)
                0x000000000012e990                __aeabi_memclr8
 .text.__aeabi_fmul
                0x000000000012e9d4       0x10 ./gen/../tecsrustUART/target/armv7a-none-eabi/release/libitron.a(compiler_builtins-70f608aea3cde50d.compiler_builtins.5a681add74c93a61-cgu.393.rcgu.o)
                0x000000000012e9d4                __aeabi_fmul
 .text.__aeabi_memclr
                0x000000000012e9e4       0x80 ./gen/../tecsrustUART/target/armv7a-none-eabi/release/libitron.a(compiler_builtins-70f608aea3cde50d.compiler_builtins.5a681add74c93a61-cgu.395.rcgu.o)
                0x000000000012e9e4                __aeabi_memclr
 .text.__aeabi_uldivmod
                0x000000000012ea64       0x24 ./gen/../tecsrustUART/target/armv7a-none-eabi/release/libitron.a(compiler_builtins-70f608aea3cde50d.compiler_builtins.5a681add74c93a61-cgu.410.rcgu.o)
                0x000000000012ea64                __aeabi_uldivmod
 .text.__aeabi_uidivmod
                0x000000000012ea88       0x1c ./gen/../tecsrustUART/target/armv7a-none-eabi/release/libitron.a(compiler_builtins-70f608aea3cde50d.compiler_builtins.5a681add74c93a61-cgu.411.rcgu.o)
                0x000000000012ea88                __aeabi_uidivmod
 .text._ZN17compiler_builtins5float3div3div17he78d0620a7b75566E
                0x000000000012eaa4      0xbe8 ./gen/../tecsrustUART/target/armv7a-none-eabi/release/libitron.a(compiler_builtins-70f608aea3cde50d.compiler_builtins.5a681add74c93a61-cgu.000.rcgu.o)
                0x000000000012eaa4                compiler_builtins::float::div::div
 .text._ZN17compiler_builtins5float3div8__divsf317h2b1d2160bcddc788E
                0x000000000012f68c      0x258 ./gen/../tecsrustUART/target/armv7a-none-eabi/release/libitron.a(compiler_builtins-70f608aea3cde50d.compiler_builtins.5a681add74c93a61-cgu.000.rcgu.o)
                0x000000000012f68c                compiler_builtins::float::div::__divsf3
 .text._ZN17compiler_builtins5float3div8__divdf317hce8b9ad476be59d6E
                0x000000000012f8e4      0x3f8 ./gen/../tecsrustUART/target/armv7a-none-eabi/release/libitron.a(compiler_builtins-70f608aea3cde50d.compiler_builtins.5a681add74c93a61-cgu.000.rcgu.o)
                0x000000000012f8e4                compiler_builtins::float::div::__divdf3
 .text._ZN17compiler_builtins5float3mul3mul17hf2a17768751d3093E
                0x000000000012fcdc      0x6e8 ./gen/../tecsrustUART/target/armv7a-none-eabi/release/libitron.a(compiler_builtins-70f608aea3cde50d.compiler_builtins.5a681add74c93a61-cgu.004.rcgu.o)
                0x000000000012fcdc                compiler_builtins::float::mul::mul
 .text._ZN17compiler_builtins5float3mul8__mulsf317h25278f3241c059d4E
                0x00000000001303c4      0x1c4 ./gen/../tecsrustUART/target/armv7a-none-eabi/release/libitron.a(compiler_builtins-70f608aea3cde50d.compiler_builtins.5a681add74c93a61-cgu.004.rcgu.o)
                0x00000000001303c4                compiler_builtins::float::mul::__mulsf3
 .text._ZN17compiler_builtins5float3mul8__muldf317hccb81ca3c0286231E
                0x0000000000130588      0x34c ./gen/../tecsrustUART/target/armv7a-none-eabi/release/libitron.a(compiler_builtins-70f608aea3cde50d.compiler_builtins.5a681add74c93a61-cgu.004.rcgu.o)
                0x0000000000130588                compiler_builtins::float::mul::__muldf3
 .text._ZN17compiler_builtins3mem6memcpy17h2e27bf7b653d77b8E
                0x00000000001308d4      0x1d4 ./gen/../tecsrustUART/target/armv7a-none-eabi/release/libitron.a(compiler_builtins-70f608aea3cde50d.compiler_builtins.5a681add74c93a61-cgu.009.rcgu.o)
                0x00000000001308d4                compiler_builtins::mem::memcpy
 .text._ZN17compiler_builtins3mem7memmove17h5a3e1228d8082146E
                0x0000000000130aa8      0x438 ./gen/../tecsrustUART/target/armv7a-none-eabi/release/libitron.a(compiler_builtins-70f608aea3cde50d.compiler_builtins.5a681add74c93a61-cgu.009.rcgu.o)
                0x0000000000130aa8                compiler_builtins::mem::memmove
 .text._ZN17compiler_builtins3mem6memset17h37b1769849978255E
                0x0000000000130ee0       0x9c ./gen/../tecsrustUART/target/armv7a-none-eabi/release/libitron.a(compiler_builtins-70f608aea3cde50d.compiler_builtins.5a681add74c93a61-cgu.009.rcgu.o)
                0x0000000000130ee0                compiler_builtins::mem::memset
 .text._ZN17compiler_builtins3mem4bcmp17h6438afe9a882ff74E
                0x0000000000130f7c       0x44 ./gen/../tecsrustUART/target/armv7a-none-eabi/release/libitron.a(compiler_builtins-70f608aea3cde50d.compiler_builtins.5a681add74c93a61-cgu.009.rcgu.o)
                0x0000000000130f7c                compiler_builtins::mem::bcmp
                0x0000000000130f7c                compiler_builtins::mem::memcmp
 .text._ZN17compiler_builtins3mem6strlen17hdb1c52627ea21c52E
                0x0000000000130fc0       0x38 ./gen/../tecsrustUART/target/armv7a-none-eabi/release/libitron.a(compiler_builtins-70f608aea3cde50d.compiler_builtins.5a681add74c93a61-cgu.009.rcgu.o)
                0x0000000000130fc0                compiler_builtins::mem::strlen
 .text._ZN84_$LT$compiler_builtins..int..big..u256$u20$as$u20$core..ops..bit..Shr$LT$u32$GT$$GT$3shr17h700137e2b572ae43E
                0x0000000000130ff8      0x240 ./gen/../tecsrustUART/target/armv7a-none-eabi/release/libitron.a(compiler_builtins-70f608aea3cde50d.compiler_builtins.5a681add74c93a61-cgu.019.rcgu.o)
                0x0000000000130ff8                <compiler_builtins::int::big::u256 as core::ops::bit::Shr<u32>>::shr
 .text._ZN17compiler_builtins3int3big71_$LT$impl$u20$compiler_builtins..int..traits..HInt$u20$for$u20$u128$GT$14zero_widen_mul17h2a6f60738a72942fE
                0x0000000000131238      0x214 ./gen/../tecsrustUART/target/armv7a-none-eabi/release/libitron.a(compiler_builtins-70f608aea3cde50d.compiler_builtins.5a681add74c93a61-cgu.019.rcgu.o)
                0x0000000000131238                compiler_builtins::int::big::<impl compiler_builtins::int::traits::HInt for u128>::zero_widen_mul
 .text._ZN17compiler_builtins3int3big71_$LT$impl$u20$compiler_builtins..int..traits..HInt$u20$for$u20$i128$GT$14zero_widen_mul17h757cd97f511fe0d1E
                0x000000000013144c       0x40 ./gen/../tecsrustUART/target/armv7a-none-eabi/release/libitron.a(compiler_builtins-70f608aea3cde50d.compiler_builtins.5a681add74c93a61-cgu.019.rcgu.o)
                0x000000000013144c                compiler_builtins::int::big::<impl compiler_builtins::int::traits::HInt for i128>::zero_widen_mul
                0x000000000013144c                compiler_builtins::int::big::<impl compiler_builtins::int::traits::HInt for u128>::widen_mul
 .text.unlikely._ZN17compiler_builtins3int3big71_$LT$impl$u20$compiler_builtins..int..traits..HInt$u20$for$u20$i128$GT$9widen_mul17hbe745c677a8cf624E
                0x000000000013148c        0xc ./gen/../tecsrustUART/target/armv7a-none-eabi/release/libitron.a(compiler_builtins-70f608aea3cde50d.compiler_builtins.5a681add74c93a61-cgu.019.rcgu.o)
                0x000000000013148c                compiler_builtins::int::big::<impl compiler_builtins::int::traits::HInt for i128>::widen_mul
 .text.unlikely._ZN17compiler_builtins3int3big71_$LT$impl$u20$compiler_builtins..int..traits..HInt$u20$for$u20$i128$GT$8widen_hi17hd02f55ec31f3daf8E
                0x0000000000131498        0xc ./gen/../tecsrustUART/target/armv7a-none-eabi/release/libitron.a(compiler_builtins-70f608aea3cde50d.compiler_builtins.5a681add74c93a61-cgu.019.rcgu.o)
                0x0000000000131498                compiler_builtins::int::big::<impl compiler_builtins::int::traits::HInt for u128>::widen_hi
                0x0000000000131498                compiler_builtins::int::big::<impl compiler_builtins::int::traits::HInt for i128>::widen_hi
 .text._ZN90_$LT$compiler_builtins..int..big..i256$u20$as$u20$compiler_builtins..int..traits..DInt$GT$2lo17h7b22363a25d41783E
                0x00000000001314a4       0x1c ./gen/../tecsrustUART/target/armv7a-none-eabi/release/libitron.a(compiler_builtins-70f608aea3cde50d.compiler_builtins.5a681add74c93a61-cgu.019.rcgu.o)
                0x00000000001314a4                <compiler_builtins::int::big::i256 as compiler_builtins::int::traits::DInt>::lo
                0x00000000001314a4                <compiler_builtins::int::big::u256 as compiler_builtins::int::traits::DInt>::lo
 .text._ZN90_$LT$compiler_builtins..int..big..i256$u20$as$u20$compiler_builtins..int..traits..DInt$GT$2hi17h3540cc33fb75817bE
                0x00000000001314c0       0x20 ./gen/../tecsrustUART/target/armv7a-none-eabi/release/libitron.a(compiler_builtins-70f608aea3cde50d.compiler_builtins.5a681add74c93a61-cgu.019.rcgu.o)
                0x00000000001314c0                <compiler_builtins::int::big::u256 as compiler_builtins::int::traits::DInt>::hi
                0x00000000001314c0                <compiler_builtins::int::big::i256 as compiler_builtins::int::traits::DInt>::hi
 .text._ZN17compiler_builtins3int6traits4DInt5lo_hi17ha308a58add6cc6a0E
                0x00000000001314e0       0x2c ./gen/../tecsrustUART/target/armv7a-none-eabi/release/libitron.a(compiler_builtins-70f608aea3cde50d.compiler_builtins.5a681add74c93a61-cgu.019.rcgu.o)
                0x00000000001314e0                compiler_builtins::int::traits::DInt::lo_hi
 .text.unlikely._ZN84_$LT$compiler_builtins..int..big..i256$u20$as$u20$core..ops..bit..Shl$LT$u32$GT$$GT$3shl17h7aea36307c5c7502E
                0x000000000013150c        0xc ./gen/../tecsrustUART/target/armv7a-none-eabi/release/libitron.a(compiler_builtins-70f608aea3cde50d.compiler_builtins.5a681add74c93a61-cgu.019.rcgu.o)
                0x000000000013150c                <compiler_builtins::int::big::u256 as core::ops::bit::Shl<u32>>::shl
                0x000000000013150c                <compiler_builtins::int::big::i256 as core::ops::bit::Shl<u32>>::shl
 .text.__udivmoddi4
                0x0000000000131518       0x4c ./gen/../tecsrustUART/target/armv7a-none-eabi/release/libitron.a(compiler_builtins-70f608aea3cde50d.compiler_builtins.5a681add74c93a61-cgu.347.rcgu.o)
                0x0000000000131518                __udivmoddi4
 .text.__aeabi_idiv0
                0x0000000000131564        0x4 ./gen/../tecsrustUART/target/armv7a-none-eabi/release/libitron.a(63f8a0b8a638da8c-aeabi_div0.o)
                0x0000000000131564                __aeabi_idiv0
 .text.__aeabi_ldiv0
                0x0000000000131568        0x4 ./gen/../tecsrustUART/target/armv7a-none-eabi/release/libitron.a(63f8a0b8a638da8c-aeabi_div0.o)
                0x0000000000131568                __aeabi_ldiv0
 .text._ZN17compiler_builtins3int19specialized_div_rem12u128_div_rem17h745fc7146425b8c6E
                0x000000000013156c      0x698 ./gen/../tecsrustUART/target/armv7a-none-eabi/release/libitron.a(compiler_builtins-70f608aea3cde50d.compiler_builtins.5a681add74c93a61-cgu.010.rcgu.o)
                0x000000000013156c                compiler_builtins::int::specialized_div_rem::u128_div_rem
 .text._ZN17compiler_builtins3int19specialized_div_rem11u64_div_rem17h1dcded8ad6a6aa41E
                0x0000000000131c04      0x2d8 ./gen/../tecsrustUART/target/armv7a-none-eabi/release/libitron.a(compiler_builtins-70f608aea3cde50d.compiler_builtins.5a681add74c93a61-cgu.010.rcgu.o)
                0x0000000000131c04                compiler_builtins::int::specialized_div_rem::u64_div_rem
 *(.glue_7t)
 .glue_7t       0x0000000000131edc        0x0 linker stubs
 *(.glue_7)
 .glue_7        0x0000000000131edc        0x0 linker stubs
                0x0000000000131edc                __end_kernel = .
                0x0000000000131edc                _etext = .
                [!provide]                        PROVIDE (etext = .)

.vfp11_veneer   0x0000000000131edc        0x0
 .vfp11_veneer  0x0000000000131edc        0x0 linker stubs

.v4_bx          0x0000000000131edc        0x0
 .v4_bx         0x0000000000131edc        0x0 linker stubs

.iplt           0x0000000000131edc        0x0
 .iplt          0x0000000000131edc        0x0 objs/start.o

.rodata         0x0000000000131edc     0xf004
                0x0000000000131edc                __start_rodata = .
 *(.rodata)
 .rodata        0x0000000000131edc       0x31 objs/log_output.o
 *fill*         0x0000000000131f0d        0x3 
 .rodata        0x0000000000131f10       0x2d objs/t_perror.o
 *fill*         0x0000000000131f3d        0x3 
 .rodata        0x0000000000131f40      0x108 objs/strerror.o
 .rodata        0x0000000000132048        0x4 objs/tTask_rProcessor1Migratable_tecsgen.o
                0x0000000000132048                tTask_INIB_tab
 .rodata        0x000000000013204c        0x8 objs/tSemaphore_rProcessor1Migratable_tecsgen.o
                0x000000000013204c                tSemaphore_INIB_tab
 .rodata        0x0000000000132054        0x4 objs/tInterruptRequest_rProcessor1Migratable_tecsgen.o
                0x0000000000132054                tInterruptRequest_INIB_tab
 .rodata        0x0000000000132058        0x4 objs/tISR_rProcessor1Migratable_tecsgen.o
                0x0000000000132058                tISR_INIB_tab
 .rodata        0x000000000013205c        0x8 objs/tTerminateRoutine_rProcessor1Migratable_tecsgen.o
                0x000000000013205c                tTerminateRoutine_INIB_tab
 .rodata        0x0000000000132064       0x30 objs/tSerialPortMain_rProcessor1Migratable_tecsgen.o
                0x0000000000132064                tSerialPortMain_INIB_tab
                0x0000000000132074                rProcessor1Migratable_SerialPort1_SerialPortMain_eSerialPort_des
                0x000000000013207c                tSerialPortMain_eSerialPort_MT_
 .rodata        0x0000000000132094        0xc objs/tSerialAdapter_rProcessor1Migratable_tecsgen.o
                0x0000000000132094                tSerialAdapter_SINGLE_CELL_INIB
                0x000000000013209c                rProcessor1Migratable_SerialAdapter_cSerialPort
 .rodata        0x00000000001320a0       0x10 objs/tSysLog_rProcessor1Migratable_tecsgen.o
                0x00000000001320a0                tSysLog_SINGLE_CELL_INIB
 .rodata        0x00000000001320b0       0x14 objs/tLogTaskMain_rProcessor1Migratable_tecsgen.o
                0x00000000001320b0                rProcessor1Migratable_LogTask_LogTaskMain_eLogTaskTerminate_des
                0x00000000001320b8                tLogTaskMain_SINGLE_CELL_INIB
                0x00000000001320c0                tLogTaskMain_eLogTaskTerminate_MT_
 .rodata        0x00000000001320c4       0x18 objs/tXUartPs_rProcessor1Migratable_tecsgen.o
                0x00000000001320c4                tXUartPs_INIB_tab
                0x00000000001320d0                rProcessor1Migratable_SIOPortTarget1_XUartPs_eTerminate_des
                0x00000000001320d8                tXUartPs_eTerminate_MT_
 .rodata        0x00000000001320dc      0x63c objs/kernel_cfg.o
                0x00000000001320dc                _kernel_p_exc_table
                0x00000000001320e4                _kernel_exc_table_prc2
                0x0000000000132100                _kernel_exc_table_prc1
                0x000000000013211c                _kernel_p_intcfg_table
                0x0000000000132124                _kernel_intcfg_table_prc2
                0x0000000000132184                _kernel_intcfg_table_prc1
                0x00000000001321e4                _kernel_p_inh_table
                0x00000000001321ec                _kernel_inh_table_prc2
                0x000000000013236c                _kernel_inh_table_prc1
                0x00000000001324ec                _kernel_terrtnbb_table
                0x0000000000132504                _kernel_terrtnb_table_prc2
                0x000000000013250c                _kernel_terrtnb_table_prc1
                0x0000000000132524                _kernel_inirtnbb_table
                0x000000000013253c                _kernel_inirtnb_table_prc2
                0x0000000000132544                _kernel_inirtnb_table_prc1
                0x0000000000132554                _kernel_p_tevtcb_table
                0x000000000013255c                _kernel_p_tmevt_heap_table
                0x0000000000132564                _kernel_idstkpt_table
                0x000000000013256c                _kernel_istkpt_table
                0x0000000000132574                _kernel_istk_table
                0x000000000013257c                _kernel_istksz_table
                0x0000000000132584                _kernel_intinib_table
                0x0000000000132638                _kernel_tnum_cfg_intno
                0x000000000013263c                _kernel_p_almcb_table
                0x000000000013263c                _kernel_alminib_table
                0x000000000013263c                _kernel_tmax_almid
                0x0000000000132640                _kernel_cycinib_table
                0x0000000000132640                _kernel_p_cyccb_table
                0x0000000000132640                _kernel_tmax_cycid
                0x0000000000132644                _kernel_tmax_mpfid
                0x0000000000132644                _kernel_mpfinib_table
                0x0000000000132644                _kernel_p_mpfcb_table
                0x0000000000132648                _kernel_spninib_table
                0x0000000000132648                _kernel_tmax_spnid
                0x000000000013264c                _kernel_mtxinib_table
                0x000000000013264c                _kernel_p_mtxcb_table
                0x000000000013264c                _kernel_tmax_mtxid
                0x0000000000132650                _kernel_pdqinib_table
                0x0000000000132650                _kernel_tmax_pdqid
                0x0000000000132650                _kernel_p_pdqcb_table
                0x0000000000132654                _kernel_p_dtqcb_table
                0x0000000000132658                _kernel_dtqinib_table
                0x0000000000132664                _kernel_tmax_dtqid
                0x0000000000132668                _kernel_p_flgcb_table
                0x0000000000132668                _kernel_flginib_table
                0x0000000000132668                _kernel_tmax_flgid
                0x000000000013266c                _kernel_p_semcb_table
                0x0000000000132674                _kernel_seminib_table
                0x000000000013268c                _kernel_tmax_semid
                0x0000000000132690                _kernel_subprio_primap
                0x0000000000132694                _kernel_torder_table
                0x00000000001326a0                _kernel_p_tcb_table
                0x00000000001326ac                _kernel_tinib_table
                0x000000000013270c                _kernel_tmax_tskid
                0x0000000000132710                _kernel_p_pcb_table
 .rodata        0x0000000000132718        0x4 ./libkernel.a(target_kernel_impl.o)
                0x0000000000132718                arm_tnum_memory_area
 .rodata        0x000000000013271c       0x3c ./libkernel.a(core_kernel_impl.o)
 *(.rodata.*)
 .rodata.str1.4
                0x0000000000132758       0x36 objs/log_output.o
 *fill*         0x000000000013278e        0x2 
 .rodata.str1.4
                0x0000000000132790       0xd9 objs/strerror.o
 *fill*         0x0000000000132869        0x3 
 .rodata.str1.4
                0x000000000013286c       0x39 objs/tLogTaskMain.o
 *fill*         0x00000000001328a5        0x3 
 .rodata..Lanon.73c3b15625234ea8306216624ab66f44.0
                0x00000000001328a8       0x10 ./gen/../tecsrustUART/target/armv7a-none-eabi/release/libitron.a(itron-bd237d22add3b961.itron.ddb412ddd8428b4f-cgu.0.rcgu.o)
 .rodata..Lanon.73c3b15625234ea8306216624ab66f44.1
                0x00000000001328b8        0xc ./gen/../tecsrustUART/target/armv7a-none-eabi/release/libitron.a(itron-bd237d22add3b961.itron.ddb412ddd8428b4f-cgu.0.rcgu.o)
 .rodata..Lanon.73c3b15625234ea8306216624ab66f44.2
                0x00000000001328c4       0x27 ./gen/../tecsrustUART/target/armv7a-none-eabi/release/libitron.a(itron-bd237d22add3b961.itron.ddb412ddd8428b4f-cgu.0.rcgu.o)
 *fill*         0x00000000001328eb        0x1 
 .rodata..Lanon.73c3b15625234ea8306216624ab66f44.3
                0x00000000001328ec       0x10 ./gen/../tecsrustUART/target/armv7a-none-eabi/release/libitron.a(itron-bd237d22add3b961.itron.ddb412ddd8428b4f-cgu.0.rcgu.o)
 .rodata.cst32  0x00000000001328fc       0x20 ./gen/../tecsrustUART/target/armv7a-none-eabi/release/libitron.a(itron-bd237d22add3b961.itron.ddb412ddd8428b4f-cgu.0.rcgu.o)
 .rodata..Lanon.73c3b15625234ea8306216624ab66f44.5
                0x000000000013291c       0x10 ./gen/../tecsrustUART/target/armv7a-none-eabi/release/libitron.a(itron-bd237d22add3b961.itron.ddb412ddd8428b4f-cgu.0.rcgu.o)
 .rodata..Lanon.cdcacac2f3e4733548ac1a094073207f.0
                0x000000000013292c        0x5 ./gen/../tecsrustUART/target/armv7a-none-eabi/release/libitron.a(itron-fbcb73bf0b635dd5.itron.68e737fdf62a80e5-cgu.0.rcgu.o)
 .rodata..Lanon.cdcacac2f3e4733548ac1a094073207f.1
                0x0000000000132931        0x7 ./gen/../tecsrustUART/target/armv7a-none-eabi/release/libitron.a(itron-fbcb73bf0b635dd5.itron.68e737fdf62a80e5-cgu.0.rcgu.o)
 .rodata..Lanon.cdcacac2f3e4733548ac1a094073207f.2
                0x0000000000132938        0x6 ./gen/../tecsrustUART/target/armv7a-none-eabi/release/libitron.a(itron-fbcb73bf0b635dd5.itron.68e737fdf62a80e5-cgu.0.rcgu.o)
 .rodata..Lanon.cdcacac2f3e4733548ac1a094073207f.3
                0x000000000013293e        0x7 ./gen/../tecsrustUART/target/armv7a-none-eabi/release/libitron.a(itron-fbcb73bf0b635dd5.itron.68e737fdf62a80e5-cgu.0.rcgu.o)
 .rodata..Lanon.cdcacac2f3e4733548ac1a094073207f.4
                0x0000000000132945        0x5 ./gen/../tecsrustUART/target/armv7a-none-eabi/release/libitron.a(itron-fbcb73bf0b635dd5.itron.68e737fdf62a80e5-cgu.0.rcgu.o)
 .rodata.cst4   0x000000000013294a        0x4 ./gen/../tecsrustUART/target/armv7a-none-eabi/release/libitron.a(itron-fbcb73bf0b635dd5.itron.68e737fdf62a80e5-cgu.0.rcgu.o)
 .rodata..Lanon.cdcacac2f3e4733548ac1a094073207f.6
                0x000000000013294e        0x5 ./gen/../tecsrustUART/target/armv7a-none-eabi/release/libitron.a(itron-fbcb73bf0b635dd5.itron.68e737fdf62a80e5-cgu.0.rcgu.o)
 .rodata..Lanon.cdcacac2f3e4733548ac1a094073207f.7
                0x0000000000132953        0x6 ./gen/../tecsrustUART/target/armv7a-none-eabi/release/libitron.a(itron-fbcb73bf0b635dd5.itron.68e737fdf62a80e5-cgu.0.rcgu.o)
 .rodata..Lanon.cdcacac2f3e4733548ac1a094073207f.8
                0x0000000000132959        0x6 ./gen/../tecsrustUART/target/armv7a-none-eabi/release/libitron.a(itron-fbcb73bf0b635dd5.itron.68e737fdf62a80e5-cgu.0.rcgu.o)
 .rodata..Lanon.cdcacac2f3e4733548ac1a094073207f.9
                0x000000000013295f        0x7 ./gen/../tecsrustUART/target/armv7a-none-eabi/release/libitron.a(itron-fbcb73bf0b635dd5.itron.68e737fdf62a80e5-cgu.0.rcgu.o)
 .rodata..Lanon.cdcacac2f3e4733548ac1a094073207f.10
                0x0000000000132966        0x7 ./gen/../tecsrustUART/target/armv7a-none-eabi/release/libitron.a(itron-fbcb73bf0b635dd5.itron.68e737fdf62a80e5-cgu.0.rcgu.o)
 .rodata..Lanon.cdcacac2f3e4733548ac1a094073207f.11
                0x000000000013296d        0x6 ./gen/../tecsrustUART/target/armv7a-none-eabi/release/libitron.a(itron-fbcb73bf0b635dd5.itron.68e737fdf62a80e5-cgu.0.rcgu.o)
 .rodata..Lanon.cdcacac2f3e4733548ac1a094073207f.12
                0x0000000000132973        0x7 ./gen/../tecsrustUART/target/armv7a-none-eabi/release/libitron.a(itron-fbcb73bf0b635dd5.itron.68e737fdf62a80e5-cgu.0.rcgu.o)
 .rodata..Lanon.cdcacac2f3e4733548ac1a094073207f.13
                0x000000000013297a        0x5 ./gen/../tecsrustUART/target/armv7a-none-eabi/release/libitron.a(itron-fbcb73bf0b635dd5.itron.68e737fdf62a80e5-cgu.0.rcgu.o)
 .rodata..Lanon.cdcacac2f3e4733548ac1a094073207f.14
                0x000000000013297f        0x7 ./gen/../tecsrustUART/target/armv7a-none-eabi/release/libitron.a(itron-fbcb73bf0b635dd5.itron.68e737fdf62a80e5-cgu.0.rcgu.o)
 .rodata..Lanon.cdcacac2f3e4733548ac1a094073207f.15
                0x0000000000132986        0x6 ./gen/../tecsrustUART/target/armv7a-none-eabi/release/libitron.a(itron-fbcb73bf0b635dd5.itron.68e737fdf62a80e5-cgu.0.rcgu.o)
 .rodata..Lanon.cdcacac2f3e4733548ac1a094073207f.16
                0x000000000013298c        0x7 ./gen/../tecsrustUART/target/armv7a-none-eabi/release/libitron.a(itron-fbcb73bf0b635dd5.itron.68e737fdf62a80e5-cgu.0.rcgu.o)
 .rodata..Lanon.cdcacac2f3e4733548ac1a094073207f.17
                0x0000000000132993        0x7 ./gen/../tecsrustUART/target/armv7a-none-eabi/release/libitron.a(itron-fbcb73bf0b635dd5.itron.68e737fdf62a80e5-cgu.0.rcgu.o)
 .rodata..Lanon.cdcacac2f3e4733548ac1a094073207f.18
                0x000000000013299a        0x5 ./gen/../tecsrustUART/target/armv7a-none-eabi/release/libitron.a(itron-fbcb73bf0b635dd5.itron.68e737fdf62a80e5-cgu.0.rcgu.o)
 .rodata..Lanon.cdcacac2f3e4733548ac1a094073207f.19
                0x000000000013299f        0x5 ./gen/../tecsrustUART/target/armv7a-none-eabi/release/libitron.a(itron-fbcb73bf0b635dd5.itron.68e737fdf62a80e5-cgu.0.rcgu.o)
 .rodata.cst8   0x00000000001329a4       0x10 ./gen/../tecsrustUART/target/armv7a-none-eabi/release/libitron.a(itron-fbcb73bf0b635dd5.itron.68e737fdf62a80e5-cgu.0.rcgu.o)
 .rodata..Lanon.cdcacac2f3e4733548ac1a094073207f.21
                0x00000000001329b4        0x6 ./gen/../tecsrustUART/target/armv7a-none-eabi/release/libitron.a(itron-fbcb73bf0b635dd5.itron.68e737fdf62a80e5-cgu.0.rcgu.o)
 .rodata..Lanon.cdcacac2f3e4733548ac1a094073207f.22
                0x00000000001329ba        0x6 ./gen/../tecsrustUART/target/armv7a-none-eabi/release/libitron.a(itron-fbcb73bf0b635dd5.itron.68e737fdf62a80e5-cgu.0.rcgu.o)
 .rodata..Lanon.cdcacac2f3e4733548ac1a094073207f.23
                0x00000000001329c0        0x6 ./gen/../tecsrustUART/target/armv7a-none-eabi/release/libitron.a(itron-fbcb73bf0b635dd5.itron.68e737fdf62a80e5-cgu.0.rcgu.o)
 .rodata..Lanon.cdcacac2f3e4733548ac1a094073207f.25
                0x00000000001329c6        0xa ./gen/../tecsrustUART/target/armv7a-none-eabi/release/libitron.a(itron-fbcb73bf0b635dd5.itron.68e737fdf62a80e5-cgu.0.rcgu.o)
 .rodata..Lanon.cdcacac2f3e4733548ac1a094073207f.26
                0x00000000001329d0        0x1 ./gen/../tecsrustUART/target/armv7a-none-eabi/release/libitron.a(itron-fbcb73bf0b635dd5.itron.68e737fdf62a80e5-cgu.0.rcgu.o)
 *fill*         0x00000000001329d1        0x3 
 .rodata..Lanon.cdcacac2f3e4733548ac1a094073207f.27
                0x00000000001329d4       0x10 ./gen/../tecsrustUART/target/armv7a-none-eabi/release/libitron.a(itron-fbcb73bf0b635dd5.itron.68e737fdf62a80e5-cgu.0.rcgu.o)
 .rodata..Lanon.cdcacac2f3e4733548ac1a094073207f.28
                0x00000000001329e4        0xb ./gen/../tecsrustUART/target/armv7a-none-eabi/release/libitron.a(itron-fbcb73bf0b635dd5.itron.68e737fdf62a80e5-cgu.0.rcgu.o)
 *fill*         0x00000000001329ef        0x1 
 .rodata..Lanon.cdcacac2f3e4733548ac1a094073207f.29
                0x00000000001329f0       0x10 ./gen/../tecsrustUART/target/armv7a-none-eabi/release/libitron.a(itron-fbcb73bf0b635dd5.itron.68e737fdf62a80e5-cgu.0.rcgu.o)
 .rodata..Lanon.cdcacac2f3e4733548ac1a094073207f.30
                0x0000000000132a00        0x6 ./gen/../tecsrustUART/target/armv7a-none-eabi/release/libitron.a(itron-fbcb73bf0b635dd5.itron.68e737fdf62a80e5-cgu.0.rcgu.o)
 *fill*         0x0000000000132a06        0x2 
 .rodata..Lanon.cdcacac2f3e4733548ac1a094073207f.31
                0x0000000000132a08       0x10 ./gen/../tecsrustUART/target/armv7a-none-eabi/release/libitron.a(itron-fbcb73bf0b635dd5.itron.68e737fdf62a80e5-cgu.0.rcgu.o)
 .rodata..Lanon.cdcacac2f3e4733548ac1a094073207f.32
                0x0000000000132a18        0xa ./gen/../tecsrustUART/target/armv7a-none-eabi/release/libitron.a(itron-fbcb73bf0b635dd5.itron.68e737fdf62a80e5-cgu.0.rcgu.o)
 *fill*         0x0000000000132a22        0x2 
 .rodata..Lanon.cdcacac2f3e4733548ac1a094073207f.33
                0x0000000000132a24       0x10 ./gen/../tecsrustUART/target/armv7a-none-eabi/release/libitron.a(itron-fbcb73bf0b635dd5.itron.68e737fdf62a80e5-cgu.0.rcgu.o)
 .rodata..Lanon.cdcacac2f3e4733548ac1a094073207f.34
                0x0000000000132a34        0xa ./gen/../tecsrustUART/target/armv7a-none-eabi/release/libitron.a(itron-fbcb73bf0b635dd5.itron.68e737fdf62a80e5-cgu.0.rcgu.o)
 *fill*         0x0000000000132a3e        0x2 
 .rodata..Lanon.cdcacac2f3e4733548ac1a094073207f.35
                0x0000000000132a40       0x10 ./gen/../tecsrustUART/target/armv7a-none-eabi/release/libitron.a(itron-fbcb73bf0b635dd5.itron.68e737fdf62a80e5-cgu.0.rcgu.o)
 .rodata..Lanon.cdcacac2f3e4733548ac1a094073207f.36
                0x0000000000132a50        0x5 ./gen/../tecsrustUART/target/armv7a-none-eabi/release/libitron.a(itron-fbcb73bf0b635dd5.itron.68e737fdf62a80e5-cgu.0.rcgu.o)
 *fill*         0x0000000000132a55        0x3 
 .rodata..Lanon.cdcacac2f3e4733548ac1a094073207f.37
                0x0000000000132a58       0x10 ./gen/../tecsrustUART/target/armv7a-none-eabi/release/libitron.a(itron-fbcb73bf0b635dd5.itron.68e737fdf62a80e5-cgu.0.rcgu.o)
 .rodata..Lanon.cdcacac2f3e4733548ac1a094073207f.38
                0x0000000000132a68       0x59 ./gen/../tecsrustUART/target/armv7a-none-eabi/release/libitron.a(itron-fbcb73bf0b635dd5.itron.68e737fdf62a80e5-cgu.0.rcgu.o)
 *fill*         0x0000000000132ac1        0x3 
 .rodata..Lanon.cdcacac2f3e4733548ac1a094073207f.39
                0x0000000000132ac4       0x10 ./gen/../tecsrustUART/target/armv7a-none-eabi/release/libitron.a(itron-fbcb73bf0b635dd5.itron.68e737fdf62a80e5-cgu.0.rcgu.o)
 .rodata._ZN4core7unicode12unicode_data10alphabetic7OFFSETS17hdc526415903ccd82E
                0x0000000000132ad4      0x5eb ./gen/../tecsrustUART/target/armv7a-none-eabi/release/libitron.a(core-d049573bc16596f9.core.5587a85061e7188a-cgu.0.rcgu.o)
 .rodata._ZN4core7unicode12unicode_data14case_ignorable7OFFSETS17hde027294297a5b30E
                0x00000000001330bf      0x389 ./gen/../tecsrustUART/target/armv7a-none-eabi/release/libitron.a(core-d049573bc16596f9.core.5587a85061e7188a-cgu.0.rcgu.o)
 .rodata._ZN4core7unicode12unicode_data5cased7OFFSETS17h4d7f7f757bbbcd2fE
                0x0000000000133448      0x13f ./gen/../tecsrustUART/target/armv7a-none-eabi/release/libitron.a(core-d049573bc16596f9.core.5587a85061e7188a-cgu.0.rcgu.o)
 .rodata._ZN4core7unicode12unicode_data15grapheme_extend7OFFSETS17h10bd76417f3c2fd6E
                0x0000000000133587      0x2ef ./gen/../tecsrustUART/target/armv7a-none-eabi/release/libitron.a(core-d049573bc16596f9.core.5587a85061e7188a-cgu.0.rcgu.o)
 .rodata._ZN4core7unicode12unicode_data9lowercase17BITSET_CHUNKS_MAP17hffaf68f0f508fac7E
                0x0000000000133876       0x7b ./gen/../tecsrustUART/target/armv7a-none-eabi/release/libitron.a(core-d049573bc16596f9.core.5587a85061e7188a-cgu.0.rcgu.o)
                0x0000000000133876                core::unicode::unicode_data::lowercase::BITSET_CHUNKS_MAP
 .rodata._ZN4core7unicode12unicode_data1n7OFFSETS17hdb97b96c7cf27088E
                0x00000000001338f1      0x121 ./gen/../tecsrustUART/target/armv7a-none-eabi/release/libitron.a(core-d049573bc16596f9.core.5587a85061e7188a-cgu.0.rcgu.o)
 .rodata._ZN4core7unicode12unicode_data9uppercase17BITSET_CHUNKS_MAP17h6b9400355040de03E
                0x0000000000133a12       0x7d ./gen/../tecsrustUART/target/armv7a-none-eabi/release/libitron.a(core-d049573bc16596f9.core.5587a85061e7188a-cgu.0.rcgu.o)
                0x0000000000133a12                core::unicode::unicode_data::uppercase::BITSET_CHUNKS_MAP
 .rodata._ZN4core7unicode12unicode_data11white_space14WHITESPACE_MAP17h2de0024a71532bf3E
                0x0000000000133a8f      0x100 ./gen/../tecsrustUART/target/armv7a-none-eabi/release/libitron.a(core-d049573bc16596f9.core.5587a85061e7188a-cgu.0.rcgu.o)
                0x0000000000133a8f                core::unicode::unicode_data::white_space::WHITESPACE_MAP
 *fill*         0x0000000000133b8f        0x1 
 .rodata..Lanon.a0506fc3c6b36e5783e71ab63da9841e.0
                0x0000000000133b90       0x80 ./gen/../tecsrustUART/target/armv7a-none-eabi/release/libitron.a(core-d049573bc16596f9.core.5587a85061e7188a-cgu.0.rcgu.o)
 .rodata..Lanon.a0506fc3c6b36e5783e71ab63da9841e.1
                0x0000000000133c10       0x2b ./gen/../tecsrustUART/target/armv7a-none-eabi/release/libitron.a(core-d049573bc16596f9.core.5587a85061e7188a-cgu.0.rcgu.o)
 *fill*         0x0000000000133c3b        0x1 
 .rodata..Lanon.a0506fc3c6b36e5783e71ab63da9841e.2
                0x0000000000133c3c       0x10 ./gen/../tecsrustUART/target/armv7a-none-eabi/release/libitron.a(core-d049573bc16596f9.core.5587a85061e7188a-cgu.0.rcgu.o)
 .rodata..Lanon.a0506fc3c6b36e5783e71ab63da9841e.3
                0x0000000000133c4c       0x10 ./gen/../tecsrustUART/target/armv7a-none-eabi/release/libitron.a(core-d049573bc16596f9.core.5587a85061e7188a-cgu.0.rcgu.o)
 .rodata..Lanon.a0506fc3c6b36e5783e71ab63da9841e.4
                0x0000000000133c5c       0x10 ./gen/../tecsrustUART/target/armv7a-none-eabi/release/libitron.a(core-d049573bc16596f9.core.5587a85061e7188a-cgu.0.rcgu.o)
 .rodata..Lanon.a0506fc3c6b36e5783e71ab63da9841e.5
                0x0000000000133c6c       0x10 ./gen/../tecsrustUART/target/armv7a-none-eabi/release/libitron.a(core-d049573bc16596f9.core.5587a85061e7188a-cgu.0.rcgu.o)
 .rodata..Lanon.a0506fc3c6b36e5783e71ab63da9841e.6
                0x0000000000133c7c       0x10 ./gen/../tecsrustUART/target/armv7a-none-eabi/release/libitron.a(core-d049573bc16596f9.core.5587a85061e7188a-cgu.0.rcgu.o)
 .rodata..Lanon.a0506fc3c6b36e5783e71ab63da9841e.7
                0x0000000000133c8c       0x10 ./gen/../tecsrustUART/target/armv7a-none-eabi/release/libitron.a(core-d049573bc16596f9.core.5587a85061e7188a-cgu.0.rcgu.o)
 .rodata..Lanon.a0506fc3c6b36e5783e71ab63da9841e.8
                0x0000000000133c9c       0x82 ./gen/../tecsrustUART/target/armv7a-none-eabi/release/libitron.a(core-d049573bc16596f9.core.5587a85061e7188a-cgu.0.rcgu.o)
 .rodata..Lanon.a0506fc3c6b36e5783e71ab63da9841e.9
                0x0000000000133d1e      0x51c ./gen/../tecsrustUART/target/armv7a-none-eabi/release/libitron.a(core-d049573bc16596f9.core.5587a85061e7188a-cgu.0.rcgu.o)
 *fill*         0x000000000013423a        0x2 
 .rodata..Lanon.a0506fc3c6b36e5783e71ab63da9841e.10
                0x000000000013423c       0x10 ./gen/../tecsrustUART/target/armv7a-none-eabi/release/libitron.a(core-d049573bc16596f9.core.5587a85061e7188a-cgu.0.rcgu.o)
 .rodata..Lanon.a0506fc3c6b36e5783e71ab63da9841e.11
                0x000000000013424c       0x10 ./gen/../tecsrustUART/target/armv7a-none-eabi/release/libitron.a(core-d049573bc16596f9.core.5587a85061e7188a-cgu.0.rcgu.o)
 .rodata.cst16  0x000000000013425c       0x80 ./gen/../tecsrustUART/target/armv7a-none-eabi/release/libitron.a(core-d049573bc16596f9.core.5587a85061e7188a-cgu.0.rcgu.o)
 .rodata..Lanon.a0506fc3c6b36e5783e71ab63da9841e.13
                0x00000000001342dc       0x40 ./gen/../tecsrustUART/target/armv7a-none-eabi/release/libitron.a(core-d049573bc16596f9.core.5587a85061e7188a-cgu.0.rcgu.o)
 *fill*         0x000000000013431c        0x4 
 .rodata..Lanon.a0506fc3c6b36e5783e71ab63da9841e.14
                0x0000000000134320      0x100 ./gen/../tecsrustUART/target/armv7a-none-eabi/release/libitron.a(core-d049573bc16596f9.core.5587a85061e7188a-cgu.0.rcgu.o)
 .rodata..Lanon.a0506fc3c6b36e5783e71ab63da9841e.15
                0x0000000000134420       0x26 ./gen/../tecsrustUART/target/armv7a-none-eabi/release/libitron.a(core-d049573bc16596f9.core.5587a85061e7188a-cgu.0.rcgu.o)
 *fill*         0x0000000000134446        0x2 
 .rodata..Lanon.a0506fc3c6b36e5783e71ab63da9841e.16
                0x0000000000134448       0x10 ./gen/../tecsrustUART/target/armv7a-none-eabi/release/libitron.a(core-d049573bc16596f9.core.5587a85061e7188a-cgu.0.rcgu.o)
 .rodata..Lanon.a0506fc3c6b36e5783e71ab63da9841e.17
                0x0000000000134458       0x25 ./gen/../tecsrustUART/target/armv7a-none-eabi/release/libitron.a(core-d049573bc16596f9.core.5587a85061e7188a-cgu.0.rcgu.o)
 *fill*         0x000000000013447d        0x3 
 .rodata..Lanon.a0506fc3c6b36e5783e71ab63da9841e.18
                0x0000000000134480       0x10 ./gen/../tecsrustUART/target/armv7a-none-eabi/release/libitron.a(core-d049573bc16596f9.core.5587a85061e7188a-cgu.0.rcgu.o)
 .rodata..Lanon.a0506fc3c6b36e5783e71ab63da9841e.19
                0x0000000000134490       0x24 ./gen/../tecsrustUART/target/armv7a-none-eabi/release/libitron.a(core-d049573bc16596f9.core.5587a85061e7188a-cgu.0.rcgu.o)
 .rodata..Lanon.a0506fc3c6b36e5783e71ab63da9841e.20
                0x00000000001344b4       0x15 ./gen/../tecsrustUART/target/armv7a-none-eabi/release/libitron.a(core-d049573bc16596f9.core.5587a85061e7188a-cgu.0.rcgu.o)
 .rodata..Lanon.a0506fc3c6b36e5783e71ab63da9841e.21
                0x00000000001344c9       0x1d ./gen/../tecsrustUART/target/armv7a-none-eabi/release/libitron.a(core-d049573bc16596f9.core.5587a85061e7188a-cgu.0.rcgu.o)
 .rodata..Lanon.a0506fc3c6b36e5783e71ab63da9841e.22
                0x00000000001344e6       0x21 ./gen/../tecsrustUART/target/armv7a-none-eabi/release/libitron.a(core-d049573bc16596f9.core.5587a85061e7188a-cgu.0.rcgu.o)
 *fill*         0x0000000000134507        0x1 
 .rodata..Lanon.a0506fc3c6b36e5783e71ab63da9841e.23
                0x0000000000134508       0x10 ./gen/../tecsrustUART/target/armv7a-none-eabi/release/libitron.a(core-d049573bc16596f9.core.5587a85061e7188a-cgu.0.rcgu.o)
 .rodata..Lanon.a0506fc3c6b36e5783e71ab63da9841e.24
                0x0000000000134518       0x10 ./gen/../tecsrustUART/target/armv7a-none-eabi/release/libitron.a(core-d049573bc16596f9.core.5587a85061e7188a-cgu.0.rcgu.o)
 .rodata._ZN4core3num7flt2dec8strategy6dragon8POW5TO1617h9aa120b17aa06f22E
                0x0000000000134528        0x8 ./gen/../tecsrustUART/target/armv7a-none-eabi/release/libitron.a(core-d049573bc16596f9.core.5587a85061e7188a-cgu.0.rcgu.o)
 .rodata._ZN4core3num7flt2dec8strategy6dragon8POW5TO3217hd052c03e770190b7E
                0x0000000000134530        0xc ./gen/../tecsrustUART/target/armv7a-none-eabi/release/libitron.a(core-d049573bc16596f9.core.5587a85061e7188a-cgu.0.rcgu.o)
 .rodata._ZN4core3num7flt2dec8strategy6dragon8POW5TO6417h2dc1159c29093a1eE
                0x000000000013453c       0x14 ./gen/../tecsrustUART/target/armv7a-none-eabi/release/libitron.a(core-d049573bc16596f9.core.5587a85061e7188a-cgu.0.rcgu.o)
 .rodata._ZN4core3num7flt2dec8strategy6dragon9POW5TO12817ha974d5882b6b5763E
                0x0000000000134550       0x28 ./gen/../tecsrustUART/target/armv7a-none-eabi/release/libitron.a(core-d049573bc16596f9.core.5587a85061e7188a-cgu.0.rcgu.o)
 .rodata._ZN4core3num7flt2dec8strategy6dragon9POW5TO25617hec924f6a1e1f056cE
                0x0000000000134578       0x4c ./gen/../tecsrustUART/target/armv7a-none-eabi/release/libitron.a(core-d049573bc16596f9.core.5587a85061e7188a-cgu.0.rcgu.o)
 .rodata..Lanon.a0506fc3c6b36e5783e71ab63da9841e.25
                0x00000000001345c4       0x2f ./gen/../tecsrustUART/target/armv7a-none-eabi/release/libitron.a(core-d049573bc16596f9.core.5587a85061e7188a-cgu.0.rcgu.o)
 .rodata..Lanon.a0506fc3c6b36e5783e71ab63da9841e.26
                0x00000000001345f3       0x1c ./gen/../tecsrustUART/target/armv7a-none-eabi/release/libitron.a(core-d049573bc16596f9.core.5587a85061e7188a-cgu.0.rcgu.o)
 *fill*         0x000000000013460f        0x1 
 .rodata..Lanon.a0506fc3c6b36e5783e71ab63da9841e.27
                0x0000000000134610       0x10 ./gen/../tecsrustUART/target/armv7a-none-eabi/release/libitron.a(core-d049573bc16596f9.core.5587a85061e7188a-cgu.0.rcgu.o)
 .rodata..Lanon.a0506fc3c6b36e5783e71ab63da9841e.28
                0x0000000000134620       0x1d ./gen/../tecsrustUART/target/armv7a-none-eabi/release/libitron.a(core-d049573bc16596f9.core.5587a85061e7188a-cgu.0.rcgu.o)
 *fill*         0x000000000013463d        0x3 
 .rodata..Lanon.a0506fc3c6b36e5783e71ab63da9841e.29
                0x0000000000134640       0x10 ./gen/../tecsrustUART/target/armv7a-none-eabi/release/libitron.a(core-d049573bc16596f9.core.5587a85061e7188a-cgu.0.rcgu.o)
 .rodata..Lanon.a0506fc3c6b36e5783e71ab63da9841e.30
                0x0000000000134650       0x1c ./gen/../tecsrustUART/target/armv7a-none-eabi/release/libitron.a(core-d049573bc16596f9.core.5587a85061e7188a-cgu.0.rcgu.o)
 .rodata..Lanon.a0506fc3c6b36e5783e71ab63da9841e.31
                0x000000000013466c       0x10 ./gen/../tecsrustUART/target/armv7a-none-eabi/release/libitron.a(core-d049573bc16596f9.core.5587a85061e7188a-cgu.0.rcgu.o)
 .rodata..Lanon.a0506fc3c6b36e5783e71ab63da9841e.32
                0x000000000013467c       0x2d ./gen/../tecsrustUART/target/armv7a-none-eabi/release/libitron.a(core-d049573bc16596f9.core.5587a85061e7188a-cgu.0.rcgu.o)
 *fill*         0x00000000001346a9        0x3 
 .rodata..Lanon.a0506fc3c6b36e5783e71ab63da9841e.33
                0x00000000001346ac       0x10 ./gen/../tecsrustUART/target/armv7a-none-eabi/release/libitron.a(core-d049573bc16596f9.core.5587a85061e7188a-cgu.0.rcgu.o)
 .rodata..Lanon.a0506fc3c6b36e5783e71ab63da9841e.34
                0x00000000001346bc       0x10 ./gen/../tecsrustUART/target/armv7a-none-eabi/release/libitron.a(core-d049573bc16596f9.core.5587a85061e7188a-cgu.0.rcgu.o)
 .rodata..Lanon.a0506fc3c6b36e5783e71ab63da9841e.35
                0x00000000001346cc       0x10 ./gen/../tecsrustUART/target/armv7a-none-eabi/release/libitron.a(core-d049573bc16596f9.core.5587a85061e7188a-cgu.0.rcgu.o)
 .rodata..Lanon.a0506fc3c6b36e5783e71ab63da9841e.36
                0x00000000001346dc       0x10 ./gen/../tecsrustUART/target/armv7a-none-eabi/release/libitron.a(core-d049573bc16596f9.core.5587a85061e7188a-cgu.0.rcgu.o)
 .rodata..Lanon.a0506fc3c6b36e5783e71ab63da9841e.37
                0x00000000001346ec       0x37 ./gen/../tecsrustUART/target/armv7a-none-eabi/release/libitron.a(core-d049573bc16596f9.core.5587a85061e7188a-cgu.0.rcgu.o)
 *fill*         0x0000000000134723        0x1 
 .rodata..Lanon.a0506fc3c6b36e5783e71ab63da9841e.38
                0x0000000000134724       0x10 ./gen/../tecsrustUART/target/armv7a-none-eabi/release/libitron.a(core-d049573bc16596f9.core.5587a85061e7188a-cgu.0.rcgu.o)
 .rodata..Lanon.a0506fc3c6b36e5783e71ab63da9841e.39
                0x0000000000134734       0x36 ./gen/../tecsrustUART/target/armv7a-none-eabi/release/libitron.a(core-d049573bc16596f9.core.5587a85061e7188a-cgu.0.rcgu.o)
 *fill*         0x000000000013476a        0x2 
 .rodata..Lanon.a0506fc3c6b36e5783e71ab63da9841e.40
                0x000000000013476c       0x10 ./gen/../tecsrustUART/target/armv7a-none-eabi/release/libitron.a(core-d049573bc16596f9.core.5587a85061e7188a-cgu.0.rcgu.o)
 .rodata..Lanon.a0506fc3c6b36e5783e71ab63da9841e.41
                0x000000000013477c       0x10 ./gen/../tecsrustUART/target/armv7a-none-eabi/release/libitron.a(core-d049573bc16596f9.core.5587a85061e7188a-cgu.0.rcgu.o)
 .rodata..Lanon.a0506fc3c6b36e5783e71ab63da9841e.42
                0x000000000013478c       0x10 ./gen/../tecsrustUART/target/armv7a-none-eabi/release/libitron.a(core-d049573bc16596f9.core.5587a85061e7188a-cgu.0.rcgu.o)
 .rodata..Lanon.a0506fc3c6b36e5783e71ab63da9841e.43
                0x000000000013479c       0x10 ./gen/../tecsrustUART/target/armv7a-none-eabi/release/libitron.a(core-d049573bc16596f9.core.5587a85061e7188a-cgu.0.rcgu.o)
 .rodata..Lanon.a0506fc3c6b36e5783e71ab63da9841e.44
                0x00000000001347ac       0x10 ./gen/../tecsrustUART/target/armv7a-none-eabi/release/libitron.a(core-d049573bc16596f9.core.5587a85061e7188a-cgu.0.rcgu.o)
 .rodata..Lanon.a0506fc3c6b36e5783e71ab63da9841e.45
                0x00000000001347bc       0x10 ./gen/../tecsrustUART/target/armv7a-none-eabi/release/libitron.a(core-d049573bc16596f9.core.5587a85061e7188a-cgu.0.rcgu.o)
 .rodata..Lanon.a0506fc3c6b36e5783e71ab63da9841e.46
                0x00000000001347cc       0x10 ./gen/../tecsrustUART/target/armv7a-none-eabi/release/libitron.a(core-d049573bc16596f9.core.5587a85061e7188a-cgu.0.rcgu.o)
 .rodata..Lanon.a0506fc3c6b36e5783e71ab63da9841e.47
                0x00000000001347dc       0x10 ./gen/../tecsrustUART/target/armv7a-none-eabi/release/libitron.a(core-d049573bc16596f9.core.5587a85061e7188a-cgu.0.rcgu.o)
 .rodata..Lanon.a0506fc3c6b36e5783e71ab63da9841e.48
                0x00000000001347ec       0x10 ./gen/../tecsrustUART/target/armv7a-none-eabi/release/libitron.a(core-d049573bc16596f9.core.5587a85061e7188a-cgu.0.rcgu.o)
 .rodata..Lanon.a0506fc3c6b36e5783e71ab63da9841e.49
                0x00000000001347fc       0x10 ./gen/../tecsrustUART/target/armv7a-none-eabi/release/libitron.a(core-d049573bc16596f9.core.5587a85061e7188a-cgu.0.rcgu.o)
 .rodata..Lanon.a0506fc3c6b36e5783e71ab63da9841e.50
                0x000000000013480c       0x10 ./gen/../tecsrustUART/target/armv7a-none-eabi/release/libitron.a(core-d049573bc16596f9.core.5587a85061e7188a-cgu.0.rcgu.o)
 *fill*         0x000000000013481c        0x4 
 .rodata._ZN4core3num7flt2dec8strategy5grisu12CACHED_POW1017h9e7e1a5908bb56b3E
                0x0000000000134820      0x510 ./gen/../tecsrustUART/target/armv7a-none-eabi/release/libitron.a(core-d049573bc16596f9.core.5587a85061e7188a-cgu.0.rcgu.o)
                0x0000000000134820                core::num::flt2dec::strategy::grisu::CACHED_POW10
 .rodata..Lanon.a0506fc3c6b36e5783e71ab63da9841e.51
                0x0000000000134d30       0x2e ./gen/../tecsrustUART/target/armv7a-none-eabi/release/libitron.a(core-d049573bc16596f9.core.5587a85061e7188a-cgu.0.rcgu.o)
 *fill*         0x0000000000134d5e        0x2 
 .rodata..Lanon.a0506fc3c6b36e5783e71ab63da9841e.52
                0x0000000000134d60       0x10 ./gen/../tecsrustUART/target/armv7a-none-eabi/release/libitron.a(core-d049573bc16596f9.core.5587a85061e7188a-cgu.0.rcgu.o)
 .rodata..Lanon.a0506fc3c6b36e5783e71ab63da9841e.53
                0x0000000000134d70       0x10 ./gen/../tecsrustUART/target/armv7a-none-eabi/release/libitron.a(core-d049573bc16596f9.core.5587a85061e7188a-cgu.0.rcgu.o)
 .rodata..Lanon.a0506fc3c6b36e5783e71ab63da9841e.54
                0x0000000000134d80       0x10 ./gen/../tecsrustUART/target/armv7a-none-eabi/release/libitron.a(core-d049573bc16596f9.core.5587a85061e7188a-cgu.0.rcgu.o)
 .rodata..Lanon.a0506fc3c6b36e5783e71ab63da9841e.55
                0x0000000000134d90       0x10 ./gen/../tecsrustUART/target/armv7a-none-eabi/release/libitron.a(core-d049573bc16596f9.core.5587a85061e7188a-cgu.0.rcgu.o)
 .rodata..Lanon.a0506fc3c6b36e5783e71ab63da9841e.56
                0x0000000000134da0       0x10 ./gen/../tecsrustUART/target/armv7a-none-eabi/release/libitron.a(core-d049573bc16596f9.core.5587a85061e7188a-cgu.0.rcgu.o)
 .rodata..Lanon.a0506fc3c6b36e5783e71ab63da9841e.57
                0x0000000000134db0       0x2d ./gen/../tecsrustUART/target/armv7a-none-eabi/release/libitron.a(core-d049573bc16596f9.core.5587a85061e7188a-cgu.0.rcgu.o)
 *fill*         0x0000000000134ddd        0x3 
 .rodata..Lanon.a0506fc3c6b36e5783e71ab63da9841e.58
                0x0000000000134de0       0x10 ./gen/../tecsrustUART/target/armv7a-none-eabi/release/libitron.a(core-d049573bc16596f9.core.5587a85061e7188a-cgu.0.rcgu.o)
 .rodata..Lanon.a0506fc3c6b36e5783e71ab63da9841e.59
                0x0000000000134df0       0x10 ./gen/../tecsrustUART/target/armv7a-none-eabi/release/libitron.a(core-d049573bc16596f9.core.5587a85061e7188a-cgu.0.rcgu.o)
 .rodata..Lanon.a0506fc3c6b36e5783e71ab63da9841e.60
                0x0000000000134e00       0x10 ./gen/../tecsrustUART/target/armv7a-none-eabi/release/libitron.a(core-d049573bc16596f9.core.5587a85061e7188a-cgu.0.rcgu.o)
 .rodata..Lanon.a0506fc3c6b36e5783e71ab63da9841e.61
                0x0000000000134e10       0x10 ./gen/../tecsrustUART/target/armv7a-none-eabi/release/libitron.a(core-d049573bc16596f9.core.5587a85061e7188a-cgu.0.rcgu.o)
 .rodata..Lanon.a0506fc3c6b36e5783e71ab63da9841e.62
                0x0000000000134e20       0x10 ./gen/../tecsrustUART/target/armv7a-none-eabi/release/libitron.a(core-d049573bc16596f9.core.5587a85061e7188a-cgu.0.rcgu.o)
 .rodata..Lanon.a0506fc3c6b36e5783e71ab63da9841e.63
                0x0000000000134e30       0x10 ./gen/../tecsrustUART/target/armv7a-none-eabi/release/libitron.a(core-d049573bc16596f9.core.5587a85061e7188a-cgu.0.rcgu.o)
 .rodata..Lanon.a0506fc3c6b36e5783e71ab63da9841e.64
                0x0000000000134e40       0x21 ./gen/../tecsrustUART/target/armv7a-none-eabi/release/libitron.a(core-d049573bc16596f9.core.5587a85061e7188a-cgu.0.rcgu.o)
 *fill*         0x0000000000134e61        0x3 
 .rodata..Lanon.a0506fc3c6b36e5783e71ab63da9841e.65
                0x0000000000134e64       0x10 ./gen/../tecsrustUART/target/armv7a-none-eabi/release/libitron.a(core-d049573bc16596f9.core.5587a85061e7188a-cgu.0.rcgu.o)
 .rodata..Lanon.a0506fc3c6b36e5783e71ab63da9841e.66
                0x0000000000134e74       0x24 ./gen/../tecsrustUART/target/armv7a-none-eabi/release/libitron.a(core-d049573bc16596f9.core.5587a85061e7188a-cgu.0.rcgu.o)
 .rodata..Lanon.a0506fc3c6b36e5783e71ab63da9841e.67
                0x0000000000134e98       0x10 ./gen/../tecsrustUART/target/armv7a-none-eabi/release/libitron.a(core-d049573bc16596f9.core.5587a85061e7188a-cgu.0.rcgu.o)
 .rodata..Lanon.a0506fc3c6b36e5783e71ab63da9841e.68
                0x0000000000134ea8       0x10 ./gen/../tecsrustUART/target/armv7a-none-eabi/release/libitron.a(core-d049573bc16596f9.core.5587a85061e7188a-cgu.0.rcgu.o)
 .rodata..Lanon.a0506fc3c6b36e5783e71ab63da9841e.69
                0x0000000000134eb8       0x28 ./gen/../tecsrustUART/target/armv7a-none-eabi/release/libitron.a(core-d049573bc16596f9.core.5587a85061e7188a-cgu.0.rcgu.o)
 .rodata..Lanon.a0506fc3c6b36e5783e71ab63da9841e.70
                0x0000000000134ee0       0x10 ./gen/../tecsrustUART/target/armv7a-none-eabi/release/libitron.a(core-d049573bc16596f9.core.5587a85061e7188a-cgu.0.rcgu.o)
 .rodata..Lanon.a0506fc3c6b36e5783e71ab63da9841e.71
                0x0000000000134ef0       0x10 ./gen/../tecsrustUART/target/armv7a-none-eabi/release/libitron.a(core-d049573bc16596f9.core.5587a85061e7188a-cgu.0.rcgu.o)
 .rodata..Lanon.a0506fc3c6b36e5783e71ab63da9841e.72
                0x0000000000134f00       0x10 ./gen/../tecsrustUART/target/armv7a-none-eabi/release/libitron.a(core-d049573bc16596f9.core.5587a85061e7188a-cgu.0.rcgu.o)
 .rodata..Lanon.a0506fc3c6b36e5783e71ab63da9841e.73
                0x0000000000134f10       0x10 ./gen/../tecsrustUART/target/armv7a-none-eabi/release/libitron.a(core-d049573bc16596f9.core.5587a85061e7188a-cgu.0.rcgu.o)
 .rodata..Lanon.a0506fc3c6b36e5783e71ab63da9841e.74
                0x0000000000134f20       0x10 ./gen/../tecsrustUART/target/armv7a-none-eabi/release/libitron.a(core-d049573bc16596f9.core.5587a85061e7188a-cgu.0.rcgu.o)
 .rodata..Lanon.a0506fc3c6b36e5783e71ab63da9841e.75
                0x0000000000134f30       0x10 ./gen/../tecsrustUART/target/armv7a-none-eabi/release/libitron.a(core-d049573bc16596f9.core.5587a85061e7188a-cgu.0.rcgu.o)
 .rodata..Lanon.a0506fc3c6b36e5783e71ab63da9841e.76
                0x0000000000134f40       0x23 ./gen/../tecsrustUART/target/armv7a-none-eabi/release/libitron.a(core-d049573bc16596f9.core.5587a85061e7188a-cgu.0.rcgu.o)
 *fill*         0x0000000000134f63        0x1 
 .rodata..Lanon.a0506fc3c6b36e5783e71ab63da9841e.77
                0x0000000000134f64       0x10 ./gen/../tecsrustUART/target/armv7a-none-eabi/release/libitron.a(core-d049573bc16596f9.core.5587a85061e7188a-cgu.0.rcgu.o)
 .rodata..Lanon.a0506fc3c6b36e5783e71ab63da9841e.78
                0x0000000000134f74       0x1f ./gen/../tecsrustUART/target/armv7a-none-eabi/release/libitron.a(core-d049573bc16596f9.core.5587a85061e7188a-cgu.0.rcgu.o)
 *fill*         0x0000000000134f93        0x1 
 .rodata..Lanon.a0506fc3c6b36e5783e71ab63da9841e.79
                0x0000000000134f94       0x10 ./gen/../tecsrustUART/target/armv7a-none-eabi/release/libitron.a(core-d049573bc16596f9.core.5587a85061e7188a-cgu.0.rcgu.o)
 .rodata..Lanon.a0506fc3c6b36e5783e71ab63da9841e.80
                0x0000000000134fa4       0x22 ./gen/../tecsrustUART/target/armv7a-none-eabi/release/libitron.a(core-d049573bc16596f9.core.5587a85061e7188a-cgu.0.rcgu.o)
 *fill*         0x0000000000134fc6        0x2 
 .rodata..Lanon.a0506fc3c6b36e5783e71ab63da9841e.81
                0x0000000000134fc8       0x10 ./gen/../tecsrustUART/target/armv7a-none-eabi/release/libitron.a(core-d049573bc16596f9.core.5587a85061e7188a-cgu.0.rcgu.o)
 .rodata..Lanon.a0506fc3c6b36e5783e71ab63da9841e.82
                0x0000000000134fd8        0x1 ./gen/../tecsrustUART/target/armv7a-none-eabi/release/libitron.a(core-d049573bc16596f9.core.5587a85061e7188a-cgu.0.rcgu.o)
 .rodata..Lanon.a0506fc3c6b36e5783e71ab63da9841e.83
                0x0000000000134fd9        0x2 ./gen/../tecsrustUART/target/armv7a-none-eabi/release/libitron.a(core-d049573bc16596f9.core.5587a85061e7188a-cgu.0.rcgu.o)
 *fill*         0x0000000000134fdb        0x1 
 .rodata..Lanon.a0506fc3c6b36e5783e71ab63da9841e.84
                0x0000000000134fdc       0x10 ./gen/../tecsrustUART/target/armv7a-none-eabi/release/libitron.a(core-d049573bc16596f9.core.5587a85061e7188a-cgu.0.rcgu.o)
 .rodata..Lanon.a0506fc3c6b36e5783e71ab63da9841e.85
                0x0000000000134fec       0x10 ./gen/../tecsrustUART/target/armv7a-none-eabi/release/libitron.a(core-d049573bc16596f9.core.5587a85061e7188a-cgu.0.rcgu.o)
 .rodata..Lanon.a0506fc3c6b36e5783e71ab63da9841e.86
                0x0000000000134ffc       0x22 ./gen/../tecsrustUART/target/armv7a-none-eabi/release/libitron.a(core-d049573bc16596f9.core.5587a85061e7188a-cgu.0.rcgu.o)
 *fill*         0x000000000013501e        0x2 
 .rodata..Lanon.a0506fc3c6b36e5783e71ab63da9841e.87
                0x0000000000135020       0x10 ./gen/../tecsrustUART/target/armv7a-none-eabi/release/libitron.a(core-d049573bc16596f9.core.5587a85061e7188a-cgu.0.rcgu.o)
 .rodata..Lanon.a0506fc3c6b36e5783e71ab63da9841e.88
                0x0000000000135030        0x1 ./gen/../tecsrustUART/target/armv7a-none-eabi/release/libitron.a(core-d049573bc16596f9.core.5587a85061e7188a-cgu.0.rcgu.o)
 .rodata..Lanon.a0506fc3c6b36e5783e71ab63da9841e.89
                0x0000000000135031        0x1 ./gen/../tecsrustUART/target/armv7a-none-eabi/release/libitron.a(core-d049573bc16596f9.core.5587a85061e7188a-cgu.0.rcgu.o)
 .rodata..Lanon.a0506fc3c6b36e5783e71ab63da9841e.90
                0x0000000000135032        0x2 ./gen/../tecsrustUART/target/armv7a-none-eabi/release/libitron.a(core-d049573bc16596f9.core.5587a85061e7188a-cgu.0.rcgu.o)
 .rodata..Lanon.a0506fc3c6b36e5783e71ab63da9841e.91
                0x0000000000135034        0x2 ./gen/../tecsrustUART/target/armv7a-none-eabi/release/libitron.a(core-d049573bc16596f9.core.5587a85061e7188a-cgu.0.rcgu.o)
 .rodata..Lanon.a0506fc3c6b36e5783e71ab63da9841e.92
                0x0000000000135036        0x1 ./gen/../tecsrustUART/target/armv7a-none-eabi/release/libitron.a(core-d049573bc16596f9.core.5587a85061e7188a-cgu.0.rcgu.o)
 .rodata..Lanon.a0506fc3c6b36e5783e71ab63da9841e.93
                0x0000000000135037        0x1 ./gen/../tecsrustUART/target/armv7a-none-eabi/release/libitron.a(core-d049573bc16596f9.core.5587a85061e7188a-cgu.0.rcgu.o)
 .rodata..Lanon.a0506fc3c6b36e5783e71ab63da9841e.94
                0x0000000000135038        0x3 ./gen/../tecsrustUART/target/armv7a-none-eabi/release/libitron.a(core-d049573bc16596f9.core.5587a85061e7188a-cgu.0.rcgu.o)
 .rodata..Lanon.a0506fc3c6b36e5783e71ab63da9841e.95
                0x000000000013503b        0x3 ./gen/../tecsrustUART/target/armv7a-none-eabi/release/libitron.a(core-d049573bc16596f9.core.5587a85061e7188a-cgu.0.rcgu.o)
 .rodata..Lanon.a0506fc3c6b36e5783e71ab63da9841e.96
                0x000000000013503e        0x1 ./gen/../tecsrustUART/target/armv7a-none-eabi/release/libitron.a(core-d049573bc16596f9.core.5587a85061e7188a-cgu.0.rcgu.o)
 .rodata..Lanon.a0506fc3c6b36e5783e71ab63da9841e.97
                0x000000000013503f        0x3 ./gen/../tecsrustUART/target/armv7a-none-eabi/release/libitron.a(core-d049573bc16596f9.core.5587a85061e7188a-cgu.0.rcgu.o)
 .rodata..Lanon.a0506fc3c6b36e5783e71ab63da9841e.98
                0x0000000000135042        0x3 ./gen/../tecsrustUART/target/armv7a-none-eabi/release/libitron.a(core-d049573bc16596f9.core.5587a85061e7188a-cgu.0.rcgu.o)
 .rodata..Lanon.a0506fc3c6b36e5783e71ab63da9841e.99
                0x0000000000135045       0x1d ./gen/../tecsrustUART/target/armv7a-none-eabi/release/libitron.a(core-d049573bc16596f9.core.5587a85061e7188a-cgu.0.rcgu.o)
 *fill*         0x0000000000135062        0x2 
 .rodata..Lanon.a0506fc3c6b36e5783e71ab63da9841e.100
                0x0000000000135064       0x10 ./gen/../tecsrustUART/target/armv7a-none-eabi/release/libitron.a(core-d049573bc16596f9.core.5587a85061e7188a-cgu.0.rcgu.o)
 .rodata..Lanon.a0506fc3c6b36e5783e71ab63da9841e.101
                0x0000000000135074        0x2 ./gen/../tecsrustUART/target/armv7a-none-eabi/release/libitron.a(core-d049573bc16596f9.core.5587a85061e7188a-cgu.0.rcgu.o)
 .rodata..Lanon.a0506fc3c6b36e5783e71ab63da9841e.102
                0x0000000000135076        0x2 ./gen/../tecsrustUART/target/armv7a-none-eabi/release/libitron.a(core-d049573bc16596f9.core.5587a85061e7188a-cgu.0.rcgu.o)
 .rodata..Lanon.a0506fc3c6b36e5783e71ab63da9841e.103
                0x0000000000135078       0x3d ./gen/../tecsrustUART/target/armv7a-none-eabi/release/libitron.a(core-d049573bc16596f9.core.5587a85061e7188a-cgu.0.rcgu.o)
 *fill*         0x00000000001350b5        0x3 
 .rodata..Lanon.a0506fc3c6b36e5783e71ab63da9841e.104
                0x00000000001350b8       0x10 ./gen/../tecsrustUART/target/armv7a-none-eabi/release/libitron.a(core-d049573bc16596f9.core.5587a85061e7188a-cgu.0.rcgu.o)
 .rodata..Lanon.a0506fc3c6b36e5783e71ab63da9841e.105
                0x00000000001350c8       0x10 ./gen/../tecsrustUART/target/armv7a-none-eabi/release/libitron.a(core-d049573bc16596f9.core.5587a85061e7188a-cgu.0.rcgu.o)
 .rodata..Lanon.a0506fc3c6b36e5783e71ab63da9841e.106
                0x00000000001350d8       0x25 ./gen/../tecsrustUART/target/armv7a-none-eabi/release/libitron.a(core-d049573bc16596f9.core.5587a85061e7188a-cgu.0.rcgu.o)
 *fill*         0x00000000001350fd        0x3 
 .rodata..Lanon.a0506fc3c6b36e5783e71ab63da9841e.107
                0x0000000000135100       0x10 ./gen/../tecsrustUART/target/armv7a-none-eabi/release/libitron.a(core-d049573bc16596f9.core.5587a85061e7188a-cgu.0.rcgu.o)
 .rodata..Lanon.a0506fc3c6b36e5783e71ab63da9841e.108
                0x0000000000135110       0x1b ./gen/../tecsrustUART/target/armv7a-none-eabi/release/libitron.a(core-d049573bc16596f9.core.5587a85061e7188a-cgu.0.rcgu.o)
 *fill*         0x000000000013512b        0x1 
 .rodata..Lanon.a0506fc3c6b36e5783e71ab63da9841e.109
                0x000000000013512c       0x10 ./gen/../tecsrustUART/target/armv7a-none-eabi/release/libitron.a(core-d049573bc16596f9.core.5587a85061e7188a-cgu.0.rcgu.o)
 .rodata..Lanon.a0506fc3c6b36e5783e71ab63da9841e.110
                0x000000000013513c       0x10 ./gen/../tecsrustUART/target/armv7a-none-eabi/release/libitron.a(core-d049573bc16596f9.core.5587a85061e7188a-cgu.0.rcgu.o)
 .rodata..Lanon.a0506fc3c6b36e5783e71ab63da9841e.111
                0x000000000013514c       0x10 ./gen/../tecsrustUART/target/armv7a-none-eabi/release/libitron.a(core-d049573bc16596f9.core.5587a85061e7188a-cgu.0.rcgu.o)
 .rodata..Lanon.a0506fc3c6b36e5783e71ab63da9841e.112
                0x000000000013515c       0x2f ./gen/../tecsrustUART/target/armv7a-none-eabi/release/libitron.a(core-d049573bc16596f9.core.5587a85061e7188a-cgu.0.rcgu.o)
 .rodata..Lanon.a0506fc3c6b36e5783e71ab63da9841e.113
                0x000000000013518b       0x26 ./gen/../tecsrustUART/target/armv7a-none-eabi/release/libitron.a(core-d049573bc16596f9.core.5587a85061e7188a-cgu.0.rcgu.o)
 .rodata..Lanon.a0506fc3c6b36e5783e71ab63da9841e.114
                0x00000000001351b1       0x1d ./gen/../tecsrustUART/target/armv7a-none-eabi/release/libitron.a(core-d049573bc16596f9.core.5587a85061e7188a-cgu.0.rcgu.o)
 .rodata..Lanon.a0506fc3c6b36e5783e71ab63da9841e.115
                0x00000000001351ce       0x26 ./gen/../tecsrustUART/target/armv7a-none-eabi/release/libitron.a(core-d049573bc16596f9.core.5587a85061e7188a-cgu.0.rcgu.o)
 .rodata..Lanon.a0506fc3c6b36e5783e71ab63da9841e.116
                0x00000000001351f4       0x26 ./gen/../tecsrustUART/target/armv7a-none-eabi/release/libitron.a(core-d049573bc16596f9.core.5587a85061e7188a-cgu.0.rcgu.o)
 .rodata..Lanon.a0506fc3c6b36e5783e71ab63da9841e.117
                0x000000000013521a       0x26 ./gen/../tecsrustUART/target/armv7a-none-eabi/release/libitron.a(core-d049573bc16596f9.core.5587a85061e7188a-cgu.0.rcgu.o)
 .rodata..Lanon.a0506fc3c6b36e5783e71ab63da9841e.118
                0x0000000000135240       0x2e ./gen/../tecsrustUART/target/armv7a-none-eabi/release/libitron.a(core-d049573bc16596f9.core.5587a85061e7188a-cgu.0.rcgu.o)
 *fill*         0x000000000013526e        0x2 
 .rodata..Lanon.a0506fc3c6b36e5783e71ab63da9841e.119
                0x0000000000135270        0x8 ./gen/../tecsrustUART/target/armv7a-none-eabi/release/libitron.a(core-d049573bc16596f9.core.5587a85061e7188a-cgu.0.rcgu.o)
 .rodata..Lanon.a0506fc3c6b36e5783e71ab63da9841e.120
                0x0000000000135278       0x32 ./gen/../tecsrustUART/target/armv7a-none-eabi/release/libitron.a(core-d049573bc16596f9.core.5587a85061e7188a-cgu.0.rcgu.o)
 *fill*         0x00000000001352aa        0x2 
 .rodata..Lanon.a0506fc3c6b36e5783e71ab63da9841e.121
                0x00000000001352ac        0x8 ./gen/../tecsrustUART/target/armv7a-none-eabi/release/libitron.a(core-d049573bc16596f9.core.5587a85061e7188a-cgu.0.rcgu.o)
 .rodata..Lanon.a0506fc3c6b36e5783e71ab63da9841e.122
                0x00000000001352b4       0x1c ./gen/../tecsrustUART/target/armv7a-none-eabi/release/libitron.a(core-d049573bc16596f9.core.5587a85061e7188a-cgu.0.rcgu.o)
 .rodata..Lanon.a0506fc3c6b36e5783e71ab63da9841e.123
                0x00000000001352d0        0x8 ./gen/../tecsrustUART/target/armv7a-none-eabi/release/libitron.a(core-d049573bc16596f9.core.5587a85061e7188a-cgu.0.rcgu.o)
 .rodata..Lanon.a0506fc3c6b36e5783e71ab63da9841e.124
                0x00000000001352d8       0x21 ./gen/../tecsrustUART/target/armv7a-none-eabi/release/libitron.a(core-d049573bc16596f9.core.5587a85061e7188a-cgu.0.rcgu.o)
 *fill*         0x00000000001352f9        0x3 
 .rodata..Lanon.a0506fc3c6b36e5783e71ab63da9841e.125
                0x00000000001352fc        0x8 ./gen/../tecsrustUART/target/armv7a-none-eabi/release/libitron.a(core-d049573bc16596f9.core.5587a85061e7188a-cgu.0.rcgu.o)
 .rodata..Lanon.a0506fc3c6b36e5783e71ab63da9841e.126
                0x0000000000135304       0x21 ./gen/../tecsrustUART/target/armv7a-none-eabi/release/libitron.a(core-d049573bc16596f9.core.5587a85061e7188a-cgu.0.rcgu.o)
 *fill*         0x0000000000135325        0x3 
 .rodata..Lanon.a0506fc3c6b36e5783e71ab63da9841e.127
                0x0000000000135328        0x8 ./gen/../tecsrustUART/target/armv7a-none-eabi/release/libitron.a(core-d049573bc16596f9.core.5587a85061e7188a-cgu.0.rcgu.o)
 .rodata..Lanon.a0506fc3c6b36e5783e71ab63da9841e.128
                0x0000000000135330       0x1f ./gen/../tecsrustUART/target/armv7a-none-eabi/release/libitron.a(core-d049573bc16596f9.core.5587a85061e7188a-cgu.0.rcgu.o)
 *fill*         0x000000000013534f        0x1 
 .rodata..Lanon.a0506fc3c6b36e5783e71ab63da9841e.129
                0x0000000000135350        0x8 ./gen/../tecsrustUART/target/armv7a-none-eabi/release/libitron.a(core-d049573bc16596f9.core.5587a85061e7188a-cgu.0.rcgu.o)
 .rodata..Lanon.a0506fc3c6b36e5783e71ab63da9841e.130
                0x0000000000135358       0x30 ./gen/../tecsrustUART/target/armv7a-none-eabi/release/libitron.a(core-d049573bc16596f9.core.5587a85061e7188a-cgu.0.rcgu.o)
 .rodata..Lanon.a0506fc3c6b36e5783e71ab63da9841e.131
                0x0000000000135388        0x8 ./gen/../tecsrustUART/target/armv7a-none-eabi/release/libitron.a(core-d049573bc16596f9.core.5587a85061e7188a-cgu.0.rcgu.o)
 .rodata..Lanon.a0506fc3c6b36e5783e71ab63da9841e.132
                0x0000000000135390       0x1f ./gen/../tecsrustUART/target/armv7a-none-eabi/release/libitron.a(core-d049573bc16596f9.core.5587a85061e7188a-cgu.0.rcgu.o)
 *fill*         0x00000000001353af        0x1 
 .rodata..Lanon.a0506fc3c6b36e5783e71ab63da9841e.133
                0x00000000001353b0        0x8 ./gen/../tecsrustUART/target/armv7a-none-eabi/release/libitron.a(core-d049573bc16596f9.core.5587a85061e7188a-cgu.0.rcgu.o)
 .rodata..Lanon.a0506fc3c6b36e5783e71ab63da9841e.134
                0x00000000001353b8       0x24 ./gen/../tecsrustUART/target/armv7a-none-eabi/release/libitron.a(core-d049573bc16596f9.core.5587a85061e7188a-cgu.0.rcgu.o)
 .rodata..Lanon.a0506fc3c6b36e5783e71ab63da9841e.135
                0x00000000001353dc        0x8 ./gen/../tecsrustUART/target/armv7a-none-eabi/release/libitron.a(core-d049573bc16596f9.core.5587a85061e7188a-cgu.0.rcgu.o)
 .rodata..Lanon.a0506fc3c6b36e5783e71ab63da9841e.136
                0x00000000001353e4       0x23 ./gen/../tecsrustUART/target/armv7a-none-eabi/release/libitron.a(core-d049573bc16596f9.core.5587a85061e7188a-cgu.0.rcgu.o)
 *fill*         0x0000000000135407        0x1 
 .rodata..Lanon.a0506fc3c6b36e5783e71ab63da9841e.137
                0x0000000000135408        0x8 ./gen/../tecsrustUART/target/armv7a-none-eabi/release/libitron.a(core-d049573bc16596f9.core.5587a85061e7188a-cgu.0.rcgu.o)
 .rodata..Lanon.a0506fc3c6b36e5783e71ab63da9841e.138
                0x0000000000135410        0x7 ./gen/../tecsrustUART/target/armv7a-none-eabi/release/libitron.a(core-d049573bc16596f9.core.5587a85061e7188a-cgu.0.rcgu.o)
 .rodata..Lanon.a0506fc3c6b36e5783e71ab63da9841e.139
                0x0000000000135417        0x1 ./gen/../tecsrustUART/target/armv7a-none-eabi/release/libitron.a(core-d049573bc16596f9.core.5587a85061e7188a-cgu.0.rcgu.o)
 .rodata..Lanon.a0506fc3c6b36e5783e71ab63da9841e.140
                0x0000000000135418       0x18 ./gen/../tecsrustUART/target/armv7a-none-eabi/release/libitron.a(core-d049573bc16596f9.core.5587a85061e7188a-cgu.0.rcgu.o)
 .rodata..Lanon.a0506fc3c6b36e5783e71ab63da9841e.141
                0x0000000000135430        0x7 ./gen/../tecsrustUART/target/armv7a-none-eabi/release/libitron.a(core-d049573bc16596f9.core.5587a85061e7188a-cgu.0.rcgu.o)
 .rodata..Lanon.a0506fc3c6b36e5783e71ab63da9841e.142
                0x0000000000135437        0x2 ./gen/../tecsrustUART/target/armv7a-none-eabi/release/libitron.a(core-d049573bc16596f9.core.5587a85061e7188a-cgu.0.rcgu.o)
 .rodata..Lanon.a0506fc3c6b36e5783e71ab63da9841e.143
                0x0000000000135439        0x3 ./gen/../tecsrustUART/target/armv7a-none-eabi/release/libitron.a(core-d049573bc16596f9.core.5587a85061e7188a-cgu.0.rcgu.o)
 .rodata..Lanon.a0506fc3c6b36e5783e71ab63da9841e.144
                0x000000000013543c        0x7 ./gen/../tecsrustUART/target/armv7a-none-eabi/release/libitron.a(core-d049573bc16596f9.core.5587a85061e7188a-cgu.0.rcgu.o)
 *fill*         0x0000000000135443        0x1 
 .rodata..Lanon.a0506fc3c6b36e5783e71ab63da9841e.145
                0x0000000000135444       0x10 ./gen/../tecsrustUART/target/armv7a-none-eabi/release/libitron.a(core-d049573bc16596f9.core.5587a85061e7188a-cgu.0.rcgu.o)
 .rodata..Lanon.a0506fc3c6b36e5783e71ab63da9841e.146
                0x0000000000135454       0x18 ./gen/../tecsrustUART/target/armv7a-none-eabi/release/libitron.a(core-d049573bc16596f9.core.5587a85061e7188a-cgu.0.rcgu.o)
 .rodata..Lanon.a0506fc3c6b36e5783e71ab63da9841e.148
                0x000000000013546c        0xd ./gen/../tecsrustUART/target/armv7a-none-eabi/release/libitron.a(core-d049573bc16596f9.core.5587a85061e7188a-cgu.0.rcgu.o)
 .rodata..Lanon.a0506fc3c6b36e5783e71ab63da9841e.149
                0x0000000000135479        0x1 ./gen/../tecsrustUART/target/armv7a-none-eabi/release/libitron.a(core-d049573bc16596f9.core.5587a85061e7188a-cgu.0.rcgu.o)
 *fill*         0x000000000013547a        0x2 
 .rodata.cst8   0x000000000013547c       0x20 ./gen/../tecsrustUART/target/armv7a-none-eabi/release/libitron.a(core-d049573bc16596f9.core.5587a85061e7188a-cgu.0.rcgu.o)
                                         0x28 (size before relaxing)
 .rodata..Lanon.a0506fc3c6b36e5783e71ab63da9841e.151
                0x000000000013549c        0x2 ./gen/../tecsrustUART/target/armv7a-none-eabi/release/libitron.a(core-d049573bc16596f9.core.5587a85061e7188a-cgu.0.rcgu.o)
 .rodata..Lanon.a0506fc3c6b36e5783e71ab63da9841e.152
                0x000000000013549e        0x3 ./gen/../tecsrustUART/target/armv7a-none-eabi/release/libitron.a(core-d049573bc16596f9.core.5587a85061e7188a-cgu.0.rcgu.o)
 .rodata..Lanon.a0506fc3c6b36e5783e71ab63da9841e.153
                0x00000000001354a1       0x2e ./gen/../tecsrustUART/target/armv7a-none-eabi/release/libitron.a(core-d049573bc16596f9.core.5587a85061e7188a-cgu.0.rcgu.o)
 *fill*         0x00000000001354cf        0x1 
 .rodata..Lanon.a0506fc3c6b36e5783e71ab63da9841e.154
                0x00000000001354d0        0x8 ./gen/../tecsrustUART/target/armv7a-none-eabi/release/libitron.a(core-d049573bc16596f9.core.5587a85061e7188a-cgu.0.rcgu.o)
 .rodata..Lanon.a0506fc3c6b36e5783e71ab63da9841e.155
                0x00000000001354d8       0x1d ./gen/../tecsrustUART/target/armv7a-none-eabi/release/libitron.a(core-d049573bc16596f9.core.5587a85061e7188a-cgu.0.rcgu.o)
 *fill*         0x00000000001354f5        0x3 
 .rodata..Lanon.a0506fc3c6b36e5783e71ab63da9841e.156
                0x00000000001354f8       0x10 ./gen/../tecsrustUART/target/armv7a-none-eabi/release/libitron.a(core-d049573bc16596f9.core.5587a85061e7188a-cgu.0.rcgu.o)
 .rodata..Lanon.a0506fc3c6b36e5783e71ab63da9841e.157
                0x0000000000135508        0xb ./gen/../tecsrustUART/target/armv7a-none-eabi/release/libitron.a(core-d049573bc16596f9.core.5587a85061e7188a-cgu.0.rcgu.o)
 .rodata..Lanon.a0506fc3c6b36e5783e71ab63da9841e.158
                0x0000000000135513       0x18 ./gen/../tecsrustUART/target/armv7a-none-eabi/release/libitron.a(core-d049573bc16596f9.core.5587a85061e7188a-cgu.0.rcgu.o)
 .rodata..Lanon.a0506fc3c6b36e5783e71ab63da9841e.159
                0x000000000013552b        0xe ./gen/../tecsrustUART/target/armv7a-none-eabi/release/libitron.a(core-d049573bc16596f9.core.5587a85061e7188a-cgu.0.rcgu.o)
 .rodata..Lanon.a0506fc3c6b36e5783e71ab63da9841e.161
                0x0000000000135539       0x12 ./gen/../tecsrustUART/target/armv7a-none-eabi/release/libitron.a(core-d049573bc16596f9.core.5587a85061e7188a-cgu.0.rcgu.o)
 *fill*         0x000000000013554b        0x1 
 .rodata..Lanon.a0506fc3c6b36e5783e71ab63da9841e.162
                0x000000000013554c        0x8 ./gen/../tecsrustUART/target/armv7a-none-eabi/release/libitron.a(core-d049573bc16596f9.core.5587a85061e7188a-cgu.0.rcgu.o)
 .rodata..Lanon.a0506fc3c6b36e5783e71ab63da9841e.163
                0x0000000000135554       0x1a ./gen/../tecsrustUART/target/armv7a-none-eabi/release/libitron.a(core-d049573bc16596f9.core.5587a85061e7188a-cgu.0.rcgu.o)
 *fill*         0x000000000013556e        0x2 
 .rodata..Lanon.a0506fc3c6b36e5783e71ab63da9841e.164
                0x0000000000135570        0x8 ./gen/../tecsrustUART/target/armv7a-none-eabi/release/libitron.a(core-d049573bc16596f9.core.5587a85061e7188a-cgu.0.rcgu.o)
 .rodata..Lanon.a0506fc3c6b36e5783e71ab63da9841e.165
                0x0000000000135578       0x23 ./gen/../tecsrustUART/target/armv7a-none-eabi/release/libitron.a(core-d049573bc16596f9.core.5587a85061e7188a-cgu.0.rcgu.o)
 .rodata..Lanon.a0506fc3c6b36e5783e71ab63da9841e.166
                0x000000000013559b       0x1d ./gen/../tecsrustUART/target/armv7a-none-eabi/release/libitron.a(core-d049573bc16596f9.core.5587a85061e7188a-cgu.0.rcgu.o)
 .rodata..Lanon.a0506fc3c6b36e5783e71ab63da9841e.167
                0x00000000001355b8       0x29 ./gen/../tecsrustUART/target/armv7a-none-eabi/release/libitron.a(core-d049573bc16596f9.core.5587a85061e7188a-cgu.0.rcgu.o)
 .rodata..Lanon.a0506fc3c6b36e5783e71ab63da9841e.168
                0x00000000001355e1       0x1a ./gen/../tecsrustUART/target/armv7a-none-eabi/release/libitron.a(core-d049573bc16596f9.core.5587a85061e7188a-cgu.0.rcgu.o)
 *fill*         0x00000000001355fb        0x1 
 .rodata..Lanon.a0506fc3c6b36e5783e71ab63da9841e.169
                0x00000000001355fc        0x8 ./gen/../tecsrustUART/target/armv7a-none-eabi/release/libitron.a(core-d049573bc16596f9.core.5587a85061e7188a-cgu.0.rcgu.o)
 .rodata..Lanon.a0506fc3c6b36e5783e71ab63da9841e.170
                0x0000000000135604       0x47 ./gen/../tecsrustUART/target/armv7a-none-eabi/release/libitron.a(core-d049573bc16596f9.core.5587a85061e7188a-cgu.0.rcgu.o)
 *fill*         0x000000000013564b        0x1 
 .rodata..Lanon.a0506fc3c6b36e5783e71ab63da9841e.171
                0x000000000013564c        0x8 ./gen/../tecsrustUART/target/armv7a-none-eabi/release/libitron.a(core-d049573bc16596f9.core.5587a85061e7188a-cgu.0.rcgu.o)
 .rodata.cst32  0x0000000000135654       0xa0 ./gen/../tecsrustUART/target/armv7a-none-eabi/release/libitron.a(core-d049573bc16596f9.core.5587a85061e7188a-cgu.0.rcgu.o)
 .rodata..Lanon.a0506fc3c6b36e5783e71ab63da9841e.173
                0x00000000001356f4       0x10 ./gen/../tecsrustUART/target/armv7a-none-eabi/release/libitron.a(core-d049573bc16596f9.core.5587a85061e7188a-cgu.0.rcgu.o)
 .rodata..Lanon.a0506fc3c6b36e5783e71ab63da9841e.174
                0x0000000000135704       0x1f ./gen/../tecsrustUART/target/armv7a-none-eabi/release/libitron.a(core-d049573bc16596f9.core.5587a85061e7188a-cgu.0.rcgu.o)
 .rodata..Lanon.a0506fc3c6b36e5783e71ab63da9841e.175
                0x0000000000135723       0x24 ./gen/../tecsrustUART/target/armv7a-none-eabi/release/libitron.a(core-d049573bc16596f9.core.5587a85061e7188a-cgu.0.rcgu.o)
 *fill*         0x0000000000135747        0x1 
 .rodata..Lanon.a0506fc3c6b36e5783e71ab63da9841e.176
                0x0000000000135748       0x10 ./gen/../tecsrustUART/target/armv7a-none-eabi/release/libitron.a(core-d049573bc16596f9.core.5587a85061e7188a-cgu.0.rcgu.o)
 .rodata..Lanon.a0506fc3c6b36e5783e71ab63da9841e.177
                0x0000000000135758       0x2b ./gen/../tecsrustUART/target/armv7a-none-eabi/release/libitron.a(core-d049573bc16596f9.core.5587a85061e7188a-cgu.0.rcgu.o)
 .rodata..Lanon.a0506fc3c6b36e5783e71ab63da9841e.178
                0x0000000000135783       0x23 ./gen/../tecsrustUART/target/armv7a-none-eabi/release/libitron.a(core-d049573bc16596f9.core.5587a85061e7188a-cgu.0.rcgu.o)
 .rodata..Lanon.a0506fc3c6b36e5783e71ab63da9841e.179
                0x00000000001357a6        0xd ./gen/../tecsrustUART/target/armv7a-none-eabi/release/libitron.a(core-d049573bc16596f9.core.5587a85061e7188a-cgu.0.rcgu.o)
 *fill*         0x00000000001357b3        0x1 
 .rodata..Lanon.a0506fc3c6b36e5783e71ab63da9841e.180
                0x00000000001357b4        0x8 ./gen/../tecsrustUART/target/armv7a-none-eabi/release/libitron.a(core-d049573bc16596f9.core.5587a85061e7188a-cgu.0.rcgu.o)
 .rodata..Lanon.a0506fc3c6b36e5783e71ab63da9841e.181
                0x00000000001357bc        0x9 ./gen/../tecsrustUART/target/armv7a-none-eabi/release/libitron.a(core-d049573bc16596f9.core.5587a85061e7188a-cgu.0.rcgu.o)
 *fill*         0x00000000001357c5        0x3 
 .rodata..Lanon.a0506fc3c6b36e5783e71ab63da9841e.182
                0x00000000001357c8        0x8 ./gen/../tecsrustUART/target/armv7a-none-eabi/release/libitron.a(core-d049573bc16596f9.core.5587a85061e7188a-cgu.0.rcgu.o)
 .rodata..Lanon.a0506fc3c6b36e5783e71ab63da9841e.183
                0x00000000001357d0        0x6 ./gen/../tecsrustUART/target/armv7a-none-eabi/release/libitron.a(core-d049573bc16596f9.core.5587a85061e7188a-cgu.0.rcgu.o)
 .rodata..Lanon.a0506fc3c6b36e5783e71ab63da9841e.184
                0x00000000001357d6        0xb ./gen/../tecsrustUART/target/armv7a-none-eabi/release/libitron.a(core-d049573bc16596f9.core.5587a85061e7188a-cgu.0.rcgu.o)
 *fill*         0x00000000001357e1        0x3 
 .rodata..Lanon.a0506fc3c6b36e5783e71ab63da9841e.185
                0x00000000001357e4       0x10 ./gen/../tecsrustUART/target/armv7a-none-eabi/release/libitron.a(core-d049573bc16596f9.core.5587a85061e7188a-cgu.0.rcgu.o)
 .rodata.cst4   0x00000000001357f4       0x18 ./gen/../tecsrustUART/target/armv7a-none-eabi/release/libitron.a(core-d049573bc16596f9.core.5587a85061e7188a-cgu.0.rcgu.o)
 .rodata..Lanon.a0506fc3c6b36e5783e71ab63da9841e.187
                0x000000000013580c        0x6 ./gen/../tecsrustUART/target/armv7a-none-eabi/release/libitron.a(core-d049573bc16596f9.core.5587a85061e7188a-cgu.0.rcgu.o)
 *fill*         0x0000000000135812        0x2 
 .rodata..Lanon.a0506fc3c6b36e5783e71ab63da9841e.189
                0x0000000000135814       0x20 ./gen/../tecsrustUART/target/armv7a-none-eabi/release/libitron.a(core-d049573bc16596f9.core.5587a85061e7188a-cgu.0.rcgu.o)
 .rodata..Lanon.a0506fc3c6b36e5783e71ab63da9841e.190
                0x0000000000135834       0x26 ./gen/../tecsrustUART/target/armv7a-none-eabi/release/libitron.a(core-d049573bc16596f9.core.5587a85061e7188a-cgu.0.rcgu.o)
 *fill*         0x000000000013585a        0x2 
 .rodata..Lanon.a0506fc3c6b36e5783e71ab63da9841e.191
                0x000000000013585c       0x10 ./gen/../tecsrustUART/target/armv7a-none-eabi/release/libitron.a(core-d049573bc16596f9.core.5587a85061e7188a-cgu.0.rcgu.o)
 .rodata..Lanon.a0506fc3c6b36e5783e71ab63da9841e.192
                0x000000000013586c       0x10 ./gen/../tecsrustUART/target/armv7a-none-eabi/release/libitron.a(core-d049573bc16596f9.core.5587a85061e7188a-cgu.0.rcgu.o)
 .rodata..Lanon.a0506fc3c6b36e5783e71ab63da9841e.193
                0x000000000013587c       0x2b ./gen/../tecsrustUART/target/armv7a-none-eabi/release/libitron.a(core-d049573bc16596f9.core.5587a85061e7188a-cgu.0.rcgu.o)
 .rodata..Lanon.a0506fc3c6b36e5783e71ab63da9841e.194
                0x00000000001358a7       0x1f ./gen/../tecsrustUART/target/armv7a-none-eabi/release/libitron.a(core-d049573bc16596f9.core.5587a85061e7188a-cgu.0.rcgu.o)
 *fill*         0x00000000001358c6        0x2 
 .rodata..Lanon.a0506fc3c6b36e5783e71ab63da9841e.195
                0x00000000001358c8       0x10 ./gen/../tecsrustUART/target/armv7a-none-eabi/release/libitron.a(core-d049573bc16596f9.core.5587a85061e7188a-cgu.0.rcgu.o)
 .rodata..Lanon.a0506fc3c6b36e5783e71ab63da9841e.196
                0x00000000001358d8       0x10 ./gen/../tecsrustUART/target/armv7a-none-eabi/release/libitron.a(core-d049573bc16596f9.core.5587a85061e7188a-cgu.0.rcgu.o)
 .rodata..Lanon.a0506fc3c6b36e5783e71ab63da9841e.197
                0x00000000001358e8        0x7 ./gen/../tecsrustUART/target/armv7a-none-eabi/release/libitron.a(core-d049573bc16596f9.core.5587a85061e7188a-cgu.0.rcgu.o)
 *fill*         0x00000000001358ef        0x1 
 .rodata..Lanon.a0506fc3c6b36e5783e71ab63da9841e.198
                0x00000000001358f0        0x8 ./gen/../tecsrustUART/target/armv7a-none-eabi/release/libitron.a(core-d049573bc16596f9.core.5587a85061e7188a-cgu.0.rcgu.o)
 .rodata..Lanon.a0506fc3c6b36e5783e71ab63da9841e.199
                0x00000000001358f8        0x2 ./gen/../tecsrustUART/target/armv7a-none-eabi/release/libitron.a(core-d049573bc16596f9.core.5587a85061e7188a-cgu.0.rcgu.o)
 *fill*         0x00000000001358fa        0x2 
 .rodata..Lanon.a0506fc3c6b36e5783e71ab63da9841e.200
                0x00000000001358fc       0x10 ./gen/../tecsrustUART/target/armv7a-none-eabi/release/libitron.a(core-d049573bc16596f9.core.5587a85061e7188a-cgu.0.rcgu.o)
 .rodata..Lanon.a0506fc3c6b36e5783e71ab63da9841e.201
                0x000000000013590c       0x1e ./gen/../tecsrustUART/target/armv7a-none-eabi/release/libitron.a(core-d049573bc16596f9.core.5587a85061e7188a-cgu.0.rcgu.o)
 *fill*         0x000000000013592a        0x2 
 .rodata..Lanon.a0506fc3c6b36e5783e71ab63da9841e.202
                0x000000000013592c       0x10 ./gen/../tecsrustUART/target/armv7a-none-eabi/release/libitron.a(core-d049573bc16596f9.core.5587a85061e7188a-cgu.0.rcgu.o)
 .rodata..Lanon.a0506fc3c6b36e5783e71ab63da9841e.203
                0x000000000013593c       0x10 ./gen/../tecsrustUART/target/armv7a-none-eabi/release/libitron.a(core-d049573bc16596f9.core.5587a85061e7188a-cgu.0.rcgu.o)
 .rodata..Lanon.a0506fc3c6b36e5783e71ab63da9841e.204
                0x000000000013594c       0x10 ./gen/../tecsrustUART/target/armv7a-none-eabi/release/libitron.a(core-d049573bc16596f9.core.5587a85061e7188a-cgu.0.rcgu.o)
 .rodata..Lanon.a0506fc3c6b36e5783e71ab63da9841e.205
                0x000000000013595c       0x19 ./gen/../tecsrustUART/target/armv7a-none-eabi/release/libitron.a(core-d049573bc16596f9.core.5587a85061e7188a-cgu.0.rcgu.o)
 .rodata..Lanon.a0506fc3c6b36e5783e71ab63da9841e.206
                0x0000000000135975       0x1b ./gen/../tecsrustUART/target/armv7a-none-eabi/release/libitron.a(core-d049573bc16596f9.core.5587a85061e7188a-cgu.0.rcgu.o)
 .rodata..Lanon.a0506fc3c6b36e5783e71ab63da9841e.207
                0x0000000000135990       0x1b ./gen/../tecsrustUART/target/armv7a-none-eabi/release/libitron.a(core-d049573bc16596f9.core.5587a85061e7188a-cgu.0.rcgu.o)
 .rodata..Lanon.a0506fc3c6b36e5783e71ab63da9841e.208
                0x00000000001359ab       0x1d ./gen/../tecsrustUART/target/armv7a-none-eabi/release/libitron.a(core-d049573bc16596f9.core.5587a85061e7188a-cgu.0.rcgu.o)
 .rodata..Lanon.a0506fc3c6b36e5783e71ab63da9841e.209
                0x00000000001359c8       0x22 ./gen/../tecsrustUART/target/armv7a-none-eabi/release/libitron.a(core-d049573bc16596f9.core.5587a85061e7188a-cgu.0.rcgu.o)
 .rodata..Lanon.a0506fc3c6b36e5783e71ab63da9841e.210
                0x00000000001359ea       0x22 ./gen/../tecsrustUART/target/armv7a-none-eabi/release/libitron.a(core-d049573bc16596f9.core.5587a85061e7188a-cgu.0.rcgu.o)
 .rodata..Lanon.a0506fc3c6b36e5783e71ab63da9841e.211
                0x0000000000135a0c        0x1 ./gen/../tecsrustUART/target/armv7a-none-eabi/release/libitron.a(core-d049573bc16596f9.core.5587a85061e7188a-cgu.0.rcgu.o)
 *fill*         0x0000000000135a0d        0x3 
 .rodata..Lanon.a0506fc3c6b36e5783e71ab63da9841e.212
                0x0000000000135a10       0x10 ./gen/../tecsrustUART/target/armv7a-none-eabi/release/libitron.a(core-d049573bc16596f9.core.5587a85061e7188a-cgu.0.rcgu.o)
 .rodata..Lanon.a0506fc3c6b36e5783e71ab63da9841e.213
                0x0000000000135a20       0x23 ./gen/../tecsrustUART/target/armv7a-none-eabi/release/libitron.a(core-d049573bc16596f9.core.5587a85061e7188a-cgu.0.rcgu.o)
 *fill*         0x0000000000135a43        0x1 
 .rodata..Lanon.a0506fc3c6b36e5783e71ab63da9841e.214
                0x0000000000135a44       0x10 ./gen/../tecsrustUART/target/armv7a-none-eabi/release/libitron.a(core-d049573bc16596f9.core.5587a85061e7188a-cgu.0.rcgu.o)
 .rodata..Lanon.a0506fc3c6b36e5783e71ab63da9841e.215
                0x0000000000135a54        0x1 ./gen/../tecsrustUART/target/armv7a-none-eabi/release/libitron.a(core-d049573bc16596f9.core.5587a85061e7188a-cgu.0.rcgu.o)
 .rodata..Lanon.a0506fc3c6b36e5783e71ab63da9841e.216
                0x0000000000135a55        0x2 ./gen/../tecsrustUART/target/armv7a-none-eabi/release/libitron.a(core-d049573bc16596f9.core.5587a85061e7188a-cgu.0.rcgu.o)
 *fill*         0x0000000000135a57        0x1 
 .rodata..Lanon.a0506fc3c6b36e5783e71ab63da9841e.217
                0x0000000000135a58       0x10 ./gen/../tecsrustUART/target/armv7a-none-eabi/release/libitron.a(core-d049573bc16596f9.core.5587a85061e7188a-cgu.0.rcgu.o)
 .rodata..Lanon.a0506fc3c6b36e5783e71ab63da9841e.218
                0x0000000000135a68        0x1 ./gen/../tecsrustUART/target/armv7a-none-eabi/release/libitron.a(core-d049573bc16596f9.core.5587a85061e7188a-cgu.0.rcgu.o)
 *fill*         0x0000000000135a69        0x3 
 .rodata..Lanon.a0506fc3c6b36e5783e71ab63da9841e.219
                0x0000000000135a6c       0x18 ./gen/../tecsrustUART/target/armv7a-none-eabi/release/libitron.a(core-d049573bc16596f9.core.5587a85061e7188a-cgu.0.rcgu.o)
 .rodata..Lanon.a0506fc3c6b36e5783e71ab63da9841e.220
                0x0000000000135a84       0x10 ./gen/../tecsrustUART/target/armv7a-none-eabi/release/libitron.a(core-d049573bc16596f9.core.5587a85061e7188a-cgu.0.rcgu.o)
 .rodata..Lanon.a0506fc3c6b36e5783e71ab63da9841e.221
                0x0000000000135a94       0x2b ./gen/../tecsrustUART/target/armv7a-none-eabi/release/libitron.a(core-d049573bc16596f9.core.5587a85061e7188a-cgu.0.rcgu.o)
 *fill*         0x0000000000135abf        0x1 
 .rodata..Lanon.a0506fc3c6b36e5783e71ab63da9841e.222
                0x0000000000135ac0       0x18 ./gen/../tecsrustUART/target/armv7a-none-eabi/release/libitron.a(core-d049573bc16596f9.core.5587a85061e7188a-cgu.0.rcgu.o)
 .rodata..Lanon.a0506fc3c6b36e5783e71ab63da9841e.223
                0x0000000000135ad8        0xc ./gen/../tecsrustUART/target/armv7a-none-eabi/release/libitron.a(core-d049573bc16596f9.core.5587a85061e7188a-cgu.0.rcgu.o)
 .rodata..Lanon.a0506fc3c6b36e5783e71ab63da9841e.224
                0x0000000000135ae4        0x2 ./gen/../tecsrustUART/target/armv7a-none-eabi/release/libitron.a(core-d049573bc16596f9.core.5587a85061e7188a-cgu.0.rcgu.o)
 .rodata..Lanon.a0506fc3c6b36e5783e71ab63da9841e.225
                0x0000000000135ae6       0x1d ./gen/../tecsrustUART/target/armv7a-none-eabi/release/libitron.a(core-d049573bc16596f9.core.5587a85061e7188a-cgu.0.rcgu.o)
 *fill*         0x0000000000135b03        0x1 
 .rodata..Lanon.a0506fc3c6b36e5783e71ab63da9841e.226
                0x0000000000135b04       0x10 ./gen/../tecsrustUART/target/armv7a-none-eabi/release/libitron.a(core-d049573bc16596f9.core.5587a85061e7188a-cgu.0.rcgu.o)
 .rodata..Lanon.a0506fc3c6b36e5783e71ab63da9841e.227
                0x0000000000135b14       0x10 ./gen/../tecsrustUART/target/armv7a-none-eabi/release/libitron.a(core-d049573bc16596f9.core.5587a85061e7188a-cgu.0.rcgu.o)
 .rodata..Lanon.a0506fc3c6b36e5783e71ab63da9841e.228
                0x0000000000135b24        0xe ./gen/../tecsrustUART/target/armv7a-none-eabi/release/libitron.a(core-d049573bc16596f9.core.5587a85061e7188a-cgu.0.rcgu.o)
 *fill*         0x0000000000135b32        0x2 
 .rodata..Lanon.a0506fc3c6b36e5783e71ab63da9841e.229
                0x0000000000135b34        0x8 ./gen/../tecsrustUART/target/armv7a-none-eabi/release/libitron.a(core-d049573bc16596f9.core.5587a85061e7188a-cgu.0.rcgu.o)
 .rodata..Lanon.a0506fc3c6b36e5783e71ab63da9841e.231
                0x0000000000135b3c       0x12 ./gen/../tecsrustUART/target/armv7a-none-eabi/release/libitron.a(core-d049573bc16596f9.core.5587a85061e7188a-cgu.0.rcgu.o)
 *fill*         0x0000000000135b4e        0x2 
 .rodata..Lanon.a0506fc3c6b36e5783e71ab63da9841e.232
                0x0000000000135b50       0x10 ./gen/../tecsrustUART/target/armv7a-none-eabi/release/libitron.a(core-d049573bc16596f9.core.5587a85061e7188a-cgu.0.rcgu.o)
 .rodata..Lanon.a0506fc3c6b36e5783e71ab63da9841e.233
                0x0000000000135b60       0x3e ./gen/../tecsrustUART/target/armv7a-none-eabi/release/libitron.a(core-d049573bc16596f9.core.5587a85061e7188a-cgu.0.rcgu.o)
 *fill*         0x0000000000135b9e        0x2 
 .rodata..Lanon.a0506fc3c6b36e5783e71ab63da9841e.235
                0x0000000000135ba0       0x10 ./gen/../tecsrustUART/target/armv7a-none-eabi/release/libitron.a(core-d049573bc16596f9.core.5587a85061e7188a-cgu.0.rcgu.o)
 .rodata..Lanon.a0506fc3c6b36e5783e71ab63da9841e.236
                0x0000000000135bb0       0x30 ./gen/../tecsrustUART/target/armv7a-none-eabi/release/libitron.a(core-d049573bc16596f9.core.5587a85061e7188a-cgu.0.rcgu.o)
 .rodata..Lanon.a0506fc3c6b36e5783e71ab63da9841e.237
                0x0000000000135be0       0x21 ./gen/../tecsrustUART/target/armv7a-none-eabi/release/libitron.a(core-d049573bc16596f9.core.5587a85061e7188a-cgu.0.rcgu.o)
 *fill*         0x0000000000135c01        0x3 
 .rodata..Lanon.a0506fc3c6b36e5783e71ab63da9841e.238
                0x0000000000135c04        0x8 ./gen/../tecsrustUART/target/armv7a-none-eabi/release/libitron.a(core-d049573bc16596f9.core.5587a85061e7188a-cgu.0.rcgu.o)
 .rodata..Lanon.a0506fc3c6b36e5783e71ab63da9841e.239
                0x0000000000135c0c       0x26 ./gen/../tecsrustUART/target/armv7a-none-eabi/release/libitron.a(core-d049573bc16596f9.core.5587a85061e7188a-cgu.0.rcgu.o)
 .rodata..Lanon.a0506fc3c6b36e5783e71ab63da9841e.240
                0x0000000000135c32       0x24 ./gen/../tecsrustUART/target/armv7a-none-eabi/release/libitron.a(core-d049573bc16596f9.core.5587a85061e7188a-cgu.0.rcgu.o)
 *fill*         0x0000000000135c56        0x2 
 .rodata..Lanon.a0506fc3c6b36e5783e71ab63da9841e.241
                0x0000000000135c58       0x10 ./gen/../tecsrustUART/target/armv7a-none-eabi/release/libitron.a(core-d049573bc16596f9.core.5587a85061e7188a-cgu.0.rcgu.o)
 .rodata..Lanon.a0506fc3c6b36e5783e71ab63da9841e.242
                0x0000000000135c68       0x10 ./gen/../tecsrustUART/target/armv7a-none-eabi/release/libitron.a(core-d049573bc16596f9.core.5587a85061e7188a-cgu.0.rcgu.o)
 .rodata..Lanon.a0506fc3c6b36e5783e71ab63da9841e.243
                0x0000000000135c78       0x10 ./gen/../tecsrustUART/target/armv7a-none-eabi/release/libitron.a(core-d049573bc16596f9.core.5587a85061e7188a-cgu.0.rcgu.o)
 .rodata..Lanon.a0506fc3c6b36e5783e71ab63da9841e.244
                0x0000000000135c88        0x2 ./gen/../tecsrustUART/target/armv7a-none-eabi/release/libitron.a(core-d049573bc16596f9.core.5587a85061e7188a-cgu.0.rcgu.o)
 .rodata..Lanon.a0506fc3c6b36e5783e71ab63da9841e.245
                0x0000000000135c8a        0x2 ./gen/../tecsrustUART/target/armv7a-none-eabi/release/libitron.a(core-d049573bc16596f9.core.5587a85061e7188a-cgu.0.rcgu.o)
 .rodata..Lanon.a0506fc3c6b36e5783e71ab63da9841e.246
                0x0000000000135c8c        0x7 ./gen/../tecsrustUART/target/armv7a-none-eabi/release/libitron.a(core-d049573bc16596f9.core.5587a85061e7188a-cgu.0.rcgu.o)
 .rodata..Lanon.a0506fc3c6b36e5783e71ab63da9841e.248
                0x0000000000135c93       0x17 ./gen/../tecsrustUART/target/armv7a-none-eabi/release/libitron.a(core-d049573bc16596f9.core.5587a85061e7188a-cgu.0.rcgu.o)
 .rodata..Lanon.a0506fc3c6b36e5783e71ab63da9841e.249
                0x0000000000135caa        0x9 ./gen/../tecsrustUART/target/armv7a-none-eabi/release/libitron.a(core-d049573bc16596f9.core.5587a85061e7188a-cgu.0.rcgu.o)
 *fill*         0x0000000000135cb3        0x1 
 .rodata..Lanon.a0506fc3c6b36e5783e71ab63da9841e.250
                0x0000000000135cb4       0x18 ./gen/../tecsrustUART/target/armv7a-none-eabi/release/libitron.a(core-d049573bc16596f9.core.5587a85061e7188a-cgu.0.rcgu.o)
 .rodata..Lanon.a0506fc3c6b36e5783e71ab63da9841e.252
                0x0000000000135ccc        0x9 ./gen/../tecsrustUART/target/armv7a-none-eabi/release/libitron.a(core-d049573bc16596f9.core.5587a85061e7188a-cgu.0.rcgu.o)
 *fill*         0x0000000000135cd5        0x3 
 .rodata..Lanon.a0506fc3c6b36e5783e71ab63da9841e.253
                0x0000000000135cd8       0x20 ./gen/../tecsrustUART/target/armv7a-none-eabi/release/libitron.a(core-d049573bc16596f9.core.5587a85061e7188a-cgu.0.rcgu.o)
 .rodata..Lanon.a0506fc3c6b36e5783e71ab63da9841e.254
                0x0000000000135cf8       0x27 ./gen/../tecsrustUART/target/armv7a-none-eabi/release/libitron.a(core-d049573bc16596f9.core.5587a85061e7188a-cgu.0.rcgu.o)
 *fill*         0x0000000000135d1f        0x1 
 .rodata..Lanon.a0506fc3c6b36e5783e71ab63da9841e.255
                0x0000000000135d20        0x8 ./gen/../tecsrustUART/target/armv7a-none-eabi/release/libitron.a(core-d049573bc16596f9.core.5587a85061e7188a-cgu.0.rcgu.o)
 .rodata..Lanon.a0506fc3c6b36e5783e71ab63da9841e.256
                0x0000000000135d28        0x2 ./gen/../tecsrustUART/target/armv7a-none-eabi/release/libitron.a(core-d049573bc16596f9.core.5587a85061e7188a-cgu.0.rcgu.o)
 *fill*         0x0000000000135d2a        0x2 
 .rodata..Lanon.a0506fc3c6b36e5783e71ab63da9841e.257
                0x0000000000135d2c       0x10 ./gen/../tecsrustUART/target/armv7a-none-eabi/release/libitron.a(core-d049573bc16596f9.core.5587a85061e7188a-cgu.0.rcgu.o)
 .rodata..Lanon.a0506fc3c6b36e5783e71ab63da9841e.258
                0x0000000000135d3c       0x18 ./gen/../tecsrustUART/target/armv7a-none-eabi/release/libitron.a(core-d049573bc16596f9.core.5587a85061e7188a-cgu.0.rcgu.o)
 .rodata..Lanon.a0506fc3c6b36e5783e71ab63da9841e.260
                0x0000000000135d54        0x3 ./gen/../tecsrustUART/target/armv7a-none-eabi/release/libitron.a(core-d049573bc16596f9.core.5587a85061e7188a-cgu.0.rcgu.o)
 .rodata..Lanon.a0506fc3c6b36e5783e71ab63da9841e.261
                0x0000000000135d57        0x2 ./gen/../tecsrustUART/target/armv7a-none-eabi/release/libitron.a(core-d049573bc16596f9.core.5587a85061e7188a-cgu.0.rcgu.o)
 .rodata..Lanon.a0506fc3c6b36e5783e71ab63da9841e.262
                0x0000000000135d59        0x3 ./gen/../tecsrustUART/target/armv7a-none-eabi/release/libitron.a(core-d049573bc16596f9.core.5587a85061e7188a-cgu.0.rcgu.o)
 .rodata..Lanon.a0506fc3c6b36e5783e71ab63da9841e.263
                0x0000000000135d5c        0x2 ./gen/../tecsrustUART/target/armv7a-none-eabi/release/libitron.a(core-d049573bc16596f9.core.5587a85061e7188a-cgu.0.rcgu.o)
 .rodata..Lanon.a0506fc3c6b36e5783e71ab63da9841e.264
                0x0000000000135d5e        0x7 ./gen/../tecsrustUART/target/armv7a-none-eabi/release/libitron.a(core-d049573bc16596f9.core.5587a85061e7188a-cgu.0.rcgu.o)
 .rodata..Lanon.a0506fc3c6b36e5783e71ab63da9841e.265
                0x0000000000135d65        0x6 ./gen/../tecsrustUART/target/armv7a-none-eabi/release/libitron.a(core-d049573bc16596f9.core.5587a85061e7188a-cgu.0.rcgu.o)
 .rodata..Lanon.a0506fc3c6b36e5783e71ab63da9841e.266
                0x0000000000135d6b        0x3 ./gen/../tecsrustUART/target/armv7a-none-eabi/release/libitron.a(core-d049573bc16596f9.core.5587a85061e7188a-cgu.0.rcgu.o)
 .rodata..Lanon.a0506fc3c6b36e5783e71ab63da9841e.267
                0x0000000000135d6e        0x1 ./gen/../tecsrustUART/target/armv7a-none-eabi/release/libitron.a(core-d049573bc16596f9.core.5587a85061e7188a-cgu.0.rcgu.o)
 .rodata..Lanon.a0506fc3c6b36e5783e71ab63da9841e.268
                0x0000000000135d6f        0x2 ./gen/../tecsrustUART/target/armv7a-none-eabi/release/libitron.a(core-d049573bc16596f9.core.5587a85061e7188a-cgu.0.rcgu.o)
 .rodata..Lanon.a0506fc3c6b36e5783e71ab63da9841e.269
                0x0000000000135d71        0x1 ./gen/../tecsrustUART/target/armv7a-none-eabi/release/libitron.a(core-d049573bc16596f9.core.5587a85061e7188a-cgu.0.rcgu.o)
 .rodata..Lanon.a0506fc3c6b36e5783e71ab63da9841e.270
                0x0000000000135d72        0x2 ./gen/../tecsrustUART/target/armv7a-none-eabi/release/libitron.a(core-d049573bc16596f9.core.5587a85061e7188a-cgu.0.rcgu.o)
 .rodata..Lanon.a0506fc3c6b36e5783e71ab63da9841e.272
                0x0000000000135d74        0x5 ./gen/../tecsrustUART/target/armv7a-none-eabi/release/libitron.a(core-d049573bc16596f9.core.5587a85061e7188a-cgu.0.rcgu.o)
 .rodata..Lanon.a0506fc3c6b36e5783e71ab63da9841e.273
                0x0000000000135d79        0x1 ./gen/../tecsrustUART/target/armv7a-none-eabi/release/libitron.a(core-d049573bc16596f9.core.5587a85061e7188a-cgu.0.rcgu.o)
 .rodata..Lanon.a0506fc3c6b36e5783e71ab63da9841e.274
                0x0000000000135d7a        0x1 ./gen/../tecsrustUART/target/armv7a-none-eabi/release/libitron.a(core-d049573bc16596f9.core.5587a85061e7188a-cgu.0.rcgu.o)
 .rodata..Lanon.a0506fc3c6b36e5783e71ab63da9841e.275
                0x0000000000135d7b        0x1 ./gen/../tecsrustUART/target/armv7a-none-eabi/release/libitron.a(core-d049573bc16596f9.core.5587a85061e7188a-cgu.0.rcgu.o)
 .rodata..Lanon.a0506fc3c6b36e5783e71ab63da9841e.276
                0x0000000000135d7c        0x3 ./gen/../tecsrustUART/target/armv7a-none-eabi/release/libitron.a(core-d049573bc16596f9.core.5587a85061e7188a-cgu.0.rcgu.o)
 .rodata..Lanon.a0506fc3c6b36e5783e71ab63da9841e.277
                0x0000000000135d7f        0x5 ./gen/../tecsrustUART/target/armv7a-none-eabi/release/libitron.a(core-d049573bc16596f9.core.5587a85061e7188a-cgu.0.rcgu.o)
 .rodata..Lanon.a0506fc3c6b36e5783e71ab63da9841e.278
                0x0000000000135d84        0x3 ./gen/../tecsrustUART/target/armv7a-none-eabi/release/libitron.a(core-d049573bc16596f9.core.5587a85061e7188a-cgu.0.rcgu.o)
 .rodata..Lanon.a0506fc3c6b36e5783e71ab63da9841e.279
                0x0000000000135d87        0x5 ./gen/../tecsrustUART/target/armv7a-none-eabi/release/libitron.a(core-d049573bc16596f9.core.5587a85061e7188a-cgu.0.rcgu.o)
 .rodata..Lanon.a0506fc3c6b36e5783e71ab63da9841e.280
                0x0000000000135d8c        0x1 ./gen/../tecsrustUART/target/armv7a-none-eabi/release/libitron.a(core-d049573bc16596f9.core.5587a85061e7188a-cgu.0.rcgu.o)
 .rodata..Lanon.a0506fc3c6b36e5783e71ab63da9841e.281
                0x0000000000135d8d       0x46 ./gen/../tecsrustUART/target/armv7a-none-eabi/release/libitron.a(core-d049573bc16596f9.core.5587a85061e7188a-cgu.0.rcgu.o)
 *fill*         0x0000000000135dd3        0x1 
 .rodata..Lanon.a0506fc3c6b36e5783e71ab63da9841e.282
                0x0000000000135dd4        0x8 ./gen/../tecsrustUART/target/armv7a-none-eabi/release/libitron.a(core-d049573bc16596f9.core.5587a85061e7188a-cgu.0.rcgu.o)
 .rodata..Lanon.a0506fc3c6b36e5783e71ab63da9841e.284
                0x0000000000135ddc       0x10 ./gen/../tecsrustUART/target/armv7a-none-eabi/release/libitron.a(core-d049573bc16596f9.core.5587a85061e7188a-cgu.0.rcgu.o)
 .rodata..Lanon.a0506fc3c6b36e5783e71ab63da9841e.285
                0x0000000000135dec       0x2e ./gen/../tecsrustUART/target/armv7a-none-eabi/release/libitron.a(core-d049573bc16596f9.core.5587a85061e7188a-cgu.0.rcgu.o)
 *fill*         0x0000000000135e1a        0x2 
 .rodata..Lanon.a0506fc3c6b36e5783e71ab63da9841e.286
                0x0000000000135e1c        0x8 ./gen/../tecsrustUART/target/armv7a-none-eabi/release/libitron.a(core-d049573bc16596f9.core.5587a85061e7188a-cgu.0.rcgu.o)
 .rodata..Lanon.a0506fc3c6b36e5783e71ab63da9841e.287
                0x0000000000135e24       0x10 ./gen/../tecsrustUART/target/armv7a-none-eabi/release/libitron.a(core-d049573bc16596f9.core.5587a85061e7188a-cgu.0.rcgu.o)
 .rodata..Lanon.a0506fc3c6b36e5783e71ab63da9841e.288
                0x0000000000135e34       0x2e ./gen/../tecsrustUART/target/armv7a-none-eabi/release/libitron.a(core-d049573bc16596f9.core.5587a85061e7188a-cgu.0.rcgu.o)
 *fill*         0x0000000000135e62        0x2 
 .rodata..Lanon.a0506fc3c6b36e5783e71ab63da9841e.289
                0x0000000000135e64        0x8 ./gen/../tecsrustUART/target/armv7a-none-eabi/release/libitron.a(core-d049573bc16596f9.core.5587a85061e7188a-cgu.0.rcgu.o)
 .rodata..Lanon.a0506fc3c6b36e5783e71ab63da9841e.290
                0x0000000000135e6c       0x10 ./gen/../tecsrustUART/target/armv7a-none-eabi/release/libitron.a(core-d049573bc16596f9.core.5587a85061e7188a-cgu.0.rcgu.o)
 .rodata..Lanon.a0506fc3c6b36e5783e71ab63da9841e.291
                0x0000000000135e7c       0x10 ./gen/../tecsrustUART/target/armv7a-none-eabi/release/libitron.a(core-d049573bc16596f9.core.5587a85061e7188a-cgu.0.rcgu.o)
 .rodata..Lanon.a0506fc3c6b36e5783e71ab63da9841e.292
                0x0000000000135e8c       0x1b ./gen/../tecsrustUART/target/armv7a-none-eabi/release/libitron.a(core-d049573bc16596f9.core.5587a85061e7188a-cgu.0.rcgu.o)
 *fill*         0x0000000000135ea7        0x1 
 .rodata..Lanon.a0506fc3c6b36e5783e71ab63da9841e.293
                0x0000000000135ea8       0x10 ./gen/../tecsrustUART/target/armv7a-none-eabi/release/libitron.a(core-d049573bc16596f9.core.5587a85061e7188a-cgu.0.rcgu.o)
 .rodata..Lanon.a0506fc3c6b36e5783e71ab63da9841e.294
                0x0000000000135eb8        0x2 ./gen/../tecsrustUART/target/armv7a-none-eabi/release/libitron.a(core-d049573bc16596f9.core.5587a85061e7188a-cgu.0.rcgu.o)
 .rodata..Lanon.a0506fc3c6b36e5783e71ab63da9841e.295
                0x0000000000135eba        0x2 ./gen/../tecsrustUART/target/armv7a-none-eabi/release/libitron.a(core-d049573bc16596f9.core.5587a85061e7188a-cgu.0.rcgu.o)
 .rodata..Lanon.a0506fc3c6b36e5783e71ab63da9841e.296
                0x0000000000135ebc        0x2 ./gen/../tecsrustUART/target/armv7a-none-eabi/release/libitron.a(core-d049573bc16596f9.core.5587a85061e7188a-cgu.0.rcgu.o)
 .rodata..Lanon.a0506fc3c6b36e5783e71ab63da9841e.297
                0x0000000000135ebe       0xc8 ./gen/../tecsrustUART/target/armv7a-none-eabi/release/libitron.a(core-d049573bc16596f9.core.5587a85061e7188a-cgu.0.rcgu.o)
 .rodata..Lanon.a0506fc3c6b36e5783e71ab63da9841e.298
                0x0000000000135f86       0x1c ./gen/../tecsrustUART/target/armv7a-none-eabi/release/libitron.a(core-d049573bc16596f9.core.5587a85061e7188a-cgu.0.rcgu.o)
 *fill*         0x0000000000135fa2        0x2 
 .rodata..Lanon.a0506fc3c6b36e5783e71ab63da9841e.299
                0x0000000000135fa4       0x10 ./gen/../tecsrustUART/target/armv7a-none-eabi/release/libitron.a(core-d049573bc16596f9.core.5587a85061e7188a-cgu.0.rcgu.o)
 .rodata..Lanon.a0506fc3c6b36e5783e71ab63da9841e.300
                0x0000000000135fb4       0x18 ./gen/../tecsrustUART/target/armv7a-none-eabi/release/libitron.a(core-d049573bc16596f9.core.5587a85061e7188a-cgu.0.rcgu.o)
 .rodata..Lanon.a0506fc3c6b36e5783e71ab63da9841e.301
                0x0000000000135fcc       0x18 ./gen/../tecsrustUART/target/armv7a-none-eabi/release/libitron.a(core-d049573bc16596f9.core.5587a85061e7188a-cgu.0.rcgu.o)
 .rodata..Lanon.a0506fc3c6b36e5783e71ab63da9841e.302
                0x0000000000135fe4       0x18 ./gen/../tecsrustUART/target/armv7a-none-eabi/release/libitron.a(core-d049573bc16596f9.core.5587a85061e7188a-cgu.0.rcgu.o)
 .rodata..Lanon.a0506fc3c6b36e5783e71ab63da9841e.303
                0x0000000000135ffc       0x18 ./gen/../tecsrustUART/target/armv7a-none-eabi/release/libitron.a(core-d049573bc16596f9.core.5587a85061e7188a-cgu.0.rcgu.o)
 .rodata..Lanon.a0506fc3c6b36e5783e71ab63da9841e.304
                0x0000000000136014       0x40 ./gen/../tecsrustUART/target/armv7a-none-eabi/release/libitron.a(core-d049573bc16596f9.core.5587a85061e7188a-cgu.0.rcgu.o)
 .rodata..Lanon.a0506fc3c6b36e5783e71ab63da9841e.305
                0x0000000000136054       0x1b ./gen/../tecsrustUART/target/armv7a-none-eabi/release/libitron.a(core-d049573bc16596f9.core.5587a85061e7188a-cgu.0.rcgu.o)
 *fill*         0x000000000013606f        0x1 
 .rodata..Lanon.a0506fc3c6b36e5783e71ab63da9841e.306
                0x0000000000136070       0x10 ./gen/../tecsrustUART/target/armv7a-none-eabi/release/libitron.a(core-d049573bc16596f9.core.5587a85061e7188a-cgu.0.rcgu.o)
 .rodata..Lanon.a0506fc3c6b36e5783e71ab63da9841e.307
                0x0000000000136080       0x10 ./gen/../tecsrustUART/target/armv7a-none-eabi/release/libitron.a(core-d049573bc16596f9.core.5587a85061e7188a-cgu.0.rcgu.o)
 .rodata..Lanon.a0506fc3c6b36e5783e71ab63da9841e.308
                0x0000000000136090       0x2d ./gen/../tecsrustUART/target/armv7a-none-eabi/release/libitron.a(core-d049573bc16596f9.core.5587a85061e7188a-cgu.0.rcgu.o)
 .rodata..Lanon.a0506fc3c6b36e5783e71ab63da9841e.309
                0x00000000001360bd        0x5 ./gen/../tecsrustUART/target/armv7a-none-eabi/release/libitron.a(core-d049573bc16596f9.core.5587a85061e7188a-cgu.0.rcgu.o)
 *fill*         0x00000000001360c2        0x2 
 .rodata..Lanon.a0506fc3c6b36e5783e71ab63da9841e.311
                0x00000000001360c4       0x10 ./gen/../tecsrustUART/target/armv7a-none-eabi/release/libitron.a(core-d049573bc16596f9.core.5587a85061e7188a-cgu.0.rcgu.o)
 .rodata..Lanon.a0506fc3c6b36e5783e71ab63da9841e.312
                0x00000000001360d4       0x10 ./gen/../tecsrustUART/target/armv7a-none-eabi/release/libitron.a(core-d049573bc16596f9.core.5587a85061e7188a-cgu.0.rcgu.o)
 .rodata..Lanon.a0506fc3c6b36e5783e71ab63da9841e.314
                0x00000000001360e4       0x10 ./gen/../tecsrustUART/target/armv7a-none-eabi/release/libitron.a(core-d049573bc16596f9.core.5587a85061e7188a-cgu.0.rcgu.o)
 .rodata..Lanon.a0506fc3c6b36e5783e71ab63da9841e.315
                0x00000000001360f4       0x10 ./gen/../tecsrustUART/target/armv7a-none-eabi/release/libitron.a(core-d049573bc16596f9.core.5587a85061e7188a-cgu.0.rcgu.o)
 .rodata..Lanon.a0506fc3c6b36e5783e71ab63da9841e.316
                0x0000000000136104       0x4c ./gen/../tecsrustUART/target/armv7a-none-eabi/release/libitron.a(core-d049573bc16596f9.core.5587a85061e7188a-cgu.0.rcgu.o)
 .rodata..Lanon.a0506fc3c6b36e5783e71ab63da9841e.317
                0x0000000000136150        0x8 ./gen/../tecsrustUART/target/armv7a-none-eabi/release/libitron.a(core-d049573bc16596f9.core.5587a85061e7188a-cgu.0.rcgu.o)
 .rodata..Lanon.a0506fc3c6b36e5783e71ab63da9841e.318
                0x0000000000136158       0x2f ./gen/../tecsrustUART/target/armv7a-none-eabi/release/libitron.a(core-d049573bc16596f9.core.5587a85061e7188a-cgu.0.rcgu.o)
 *fill*         0x0000000000136187        0x1 
 .rodata..Lanon.a0506fc3c6b36e5783e71ab63da9841e.319
                0x0000000000136188       0x10 ./gen/../tecsrustUART/target/armv7a-none-eabi/release/libitron.a(core-d049573bc16596f9.core.5587a85061e7188a-cgu.0.rcgu.o)
 .rodata..Lanon.a0506fc3c6b36e5783e71ab63da9841e.320
                0x0000000000136198        0xb ./gen/../tecsrustUART/target/armv7a-none-eabi/release/libitron.a(core-d049573bc16596f9.core.5587a85061e7188a-cgu.0.rcgu.o)
 .rodata..Lanon.a0506fc3c6b36e5783e71ab63da9841e.321
                0x00000000001361a3       0x31 ./gen/../tecsrustUART/target/armv7a-none-eabi/release/libitron.a(core-d049573bc16596f9.core.5587a85061e7188a-cgu.0.rcgu.o)
 .rodata..Lanon.a0506fc3c6b36e5783e71ab63da9841e.322
                0x00000000001361d4        0x8 ./gen/../tecsrustUART/target/armv7a-none-eabi/release/libitron.a(core-d049573bc16596f9.core.5587a85061e7188a-cgu.0.rcgu.o)
 .rodata..Lanon.a0506fc3c6b36e5783e71ab63da9841e.323
                0x00000000001361dc       0x2c ./gen/../tecsrustUART/target/armv7a-none-eabi/release/libitron.a(core-d049573bc16596f9.core.5587a85061e7188a-cgu.0.rcgu.o)
 .rodata..Lanon.a0506fc3c6b36e5783e71ab63da9841e.324
                0x0000000000136208        0x8 ./gen/../tecsrustUART/target/armv7a-none-eabi/release/libitron.a(core-d049573bc16596f9.core.5587a85061e7188a-cgu.0.rcgu.o)
 .rodata..Lanon.a0506fc3c6b36e5783e71ab63da9841e.325
                0x0000000000136210       0x1f ./gen/../tecsrustUART/target/armv7a-none-eabi/release/libitron.a(core-d049573bc16596f9.core.5587a85061e7188a-cgu.0.rcgu.o)
 *fill*         0x000000000013622f        0x1 
 .rodata..Lanon.a0506fc3c6b36e5783e71ab63da9841e.326
                0x0000000000136230       0x10 ./gen/../tecsrustUART/target/armv7a-none-eabi/release/libitron.a(core-d049573bc16596f9.core.5587a85061e7188a-cgu.0.rcgu.o)
 .rodata..Lanon.a0506fc3c6b36e5783e71ab63da9841e.327
                0x0000000000136240       0x10 ./gen/../tecsrustUART/target/armv7a-none-eabi/release/libitron.a(core-d049573bc16596f9.core.5587a85061e7188a-cgu.0.rcgu.o)
 .rodata..Lanon.a0506fc3c6b36e5783e71ab63da9841e.328
                0x0000000000136250       0x19 ./gen/../tecsrustUART/target/armv7a-none-eabi/release/libitron.a(core-d049573bc16596f9.core.5587a85061e7188a-cgu.0.rcgu.o)
 .rodata..Lanon.a0506fc3c6b36e5783e71ab63da9841e.329
                0x0000000000136269       0x1e ./gen/../tecsrustUART/target/armv7a-none-eabi/release/libitron.a(core-d049573bc16596f9.core.5587a85061e7188a-cgu.0.rcgu.o)
 .rodata..Lanon.a0506fc3c6b36e5783e71ab63da9841e.330
                0x0000000000136287       0x1a ./gen/../tecsrustUART/target/armv7a-none-eabi/release/libitron.a(core-d049573bc16596f9.core.5587a85061e7188a-cgu.0.rcgu.o)
 .rodata..Lanon.a0506fc3c6b36e5783e71ab63da9841e.331
                0x00000000001362a1       0x12 ./gen/../tecsrustUART/target/armv7a-none-eabi/release/libitron.a(core-d049573bc16596f9.core.5587a85061e7188a-cgu.0.rcgu.o)
 *fill*         0x00000000001362b3        0x1 
 .rodata..Lanon.a0506fc3c6b36e5783e71ab63da9841e.332
                0x00000000001362b4       0x10 ./gen/../tecsrustUART/target/armv7a-none-eabi/release/libitron.a(core-d049573bc16596f9.core.5587a85061e7188a-cgu.0.rcgu.o)
 .rodata..Lanon.a0506fc3c6b36e5783e71ab63da9841e.333
                0x00000000001362c4       0x2a ./gen/../tecsrustUART/target/armv7a-none-eabi/release/libitron.a(core-d049573bc16596f9.core.5587a85061e7188a-cgu.0.rcgu.o)
 *fill*         0x00000000001362ee        0x2 
 .rodata..Lanon.a0506fc3c6b36e5783e71ab63da9841e.334
                0x00000000001362f0        0x8 ./gen/../tecsrustUART/target/armv7a-none-eabi/release/libitron.a(core-d049573bc16596f9.core.5587a85061e7188a-cgu.0.rcgu.o)
 .rodata..Lanon.a0506fc3c6b36e5783e71ab63da9841e.335
                0x00000000001362f8       0x29 ./gen/../tecsrustUART/target/armv7a-none-eabi/release/libitron.a(core-d049573bc16596f9.core.5587a85061e7188a-cgu.0.rcgu.o)
 .rodata..Lanon.a0506fc3c6b36e5783e71ab63da9841e.336
                0x0000000000136321        0x6 ./gen/../tecsrustUART/target/armv7a-none-eabi/release/libitron.a(core-d049573bc16596f9.core.5587a85061e7188a-cgu.0.rcgu.o)
 .rodata..Lanon.a0506fc3c6b36e5783e71ab63da9841e.337
                0x0000000000136327        0xb ./gen/../tecsrustUART/target/armv7a-none-eabi/release/libitron.a(core-d049573bc16596f9.core.5587a85061e7188a-cgu.0.rcgu.o)
 .rodata..Lanon.a0506fc3c6b36e5783e71ab63da9841e.338
                0x0000000000136332       0x2a ./gen/../tecsrustUART/target/armv7a-none-eabi/release/libitron.a(core-d049573bc16596f9.core.5587a85061e7188a-cgu.0.rcgu.o)
 .rodata..Lanon.a0506fc3c6b36e5783e71ab63da9841e.339
                0x000000000013635c        0x8 ./gen/../tecsrustUART/target/armv7a-none-eabi/release/libitron.a(core-d049573bc16596f9.core.5587a85061e7188a-cgu.0.rcgu.o)
 .rodata..Lanon.a0506fc3c6b36e5783e71ab63da9841e.340
                0x0000000000136364       0x1b ./gen/../tecsrustUART/target/armv7a-none-eabi/release/libitron.a(core-d049573bc16596f9.core.5587a85061e7188a-cgu.0.rcgu.o)
 .rodata..Lanon.a0506fc3c6b36e5783e71ab63da9841e.341
                0x000000000013637f      0x100 ./gen/../tecsrustUART/target/armv7a-none-eabi/release/libitron.a(core-d049573bc16596f9.core.5587a85061e7188a-cgu.0.rcgu.o)
 .rodata..Lanon.a0506fc3c6b36e5783e71ab63da9841e.342
                0x000000000013647f       0x1f ./gen/../tecsrustUART/target/armv7a-none-eabi/release/libitron.a(core-d049573bc16596f9.core.5587a85061e7188a-cgu.0.rcgu.o)
 *fill*         0x000000000013649e        0x2 
 .rodata..Lanon.a0506fc3c6b36e5783e71ab63da9841e.343
                0x00000000001364a0       0x10 ./gen/../tecsrustUART/target/armv7a-none-eabi/release/libitron.a(core-d049573bc16596f9.core.5587a85061e7188a-cgu.0.rcgu.o)
 .rodata..Lanon.a0506fc3c6b36e5783e71ab63da9841e.344
                0x00000000001364b0       0x10 ./gen/../tecsrustUART/target/armv7a-none-eabi/release/libitron.a(core-d049573bc16596f9.core.5587a85061e7188a-cgu.0.rcgu.o)
 .rodata..Lanon.a0506fc3c6b36e5783e71ab63da9841e.345
                0x00000000001364c0       0x10 ./gen/../tecsrustUART/target/armv7a-none-eabi/release/libitron.a(core-d049573bc16596f9.core.5587a85061e7188a-cgu.0.rcgu.o)
 .rodata..Lanon.a0506fc3c6b36e5783e71ab63da9841e.346
                0x00000000001364d0       0x10 ./gen/../tecsrustUART/target/armv7a-none-eabi/release/libitron.a(core-d049573bc16596f9.core.5587a85061e7188a-cgu.0.rcgu.o)
 .rodata..Lanon.a0506fc3c6b36e5783e71ab63da9841e.347
                0x00000000001364e0       0x10 ./gen/../tecsrustUART/target/armv7a-none-eabi/release/libitron.a(core-d049573bc16596f9.core.5587a85061e7188a-cgu.0.rcgu.o)
 .rodata..Lanon.a0506fc3c6b36e5783e71ab63da9841e.348
                0x00000000001364f0       0x1d ./gen/../tecsrustUART/target/armv7a-none-eabi/release/libitron.a(core-d049573bc16596f9.core.5587a85061e7188a-cgu.0.rcgu.o)
 *fill*         0x000000000013650d        0x3 
 .rodata..Lanon.a0506fc3c6b36e5783e71ab63da9841e.349
                0x0000000000136510       0x10 ./gen/../tecsrustUART/target/armv7a-none-eabi/release/libitron.a(core-d049573bc16596f9.core.5587a85061e7188a-cgu.0.rcgu.o)
 .rodata..Lanon.a0506fc3c6b36e5783e71ab63da9841e.350
                0x0000000000136520        0x2 ./gen/../tecsrustUART/target/armv7a-none-eabi/release/libitron.a(core-d049573bc16596f9.core.5587a85061e7188a-cgu.0.rcgu.o)
 *fill*         0x0000000000136522        0x2 
 .rodata..Lanon.a0506fc3c6b36e5783e71ab63da9841e.351
                0x0000000000136524        0x8 ./gen/../tecsrustUART/target/armv7a-none-eabi/release/libitron.a(core-d049573bc16596f9.core.5587a85061e7188a-cgu.0.rcgu.o)
 .rodata..Lanon.a0506fc3c6b36e5783e71ab63da9841e.352
                0x000000000013652c       0x18 ./gen/../tecsrustUART/target/armv7a-none-eabi/release/libitron.a(core-d049573bc16596f9.core.5587a85061e7188a-cgu.0.rcgu.o)
 .rodata..Lanon.a0506fc3c6b36e5783e71ab63da9841e.353
                0x0000000000136544       0x10 ./gen/../tecsrustUART/target/armv7a-none-eabi/release/libitron.a(core-d049573bc16596f9.core.5587a85061e7188a-cgu.0.rcgu.o)
 .rodata.str1.1
                0x0000000000136554        0x1 ./gen/../tecsrustUART/target/armv7a-none-eabi/release/libitron.a(core-d049573bc16596f9.core.5587a85061e7188a-cgu.0.rcgu.o)
 .rodata..Lanon.a0506fc3c6b36e5783e71ab63da9841e.355
                0x0000000000136555        0xa ./gen/../tecsrustUART/target/armv7a-none-eabi/release/libitron.a(core-d049573bc16596f9.core.5587a85061e7188a-cgu.0.rcgu.o)
 *fill*         0x000000000013655f        0x1 
 .rodata..Lanon.a0506fc3c6b36e5783e71ab63da9841e.356
                0x0000000000136560       0x10 ./gen/../tecsrustUART/target/armv7a-none-eabi/release/libitron.a(core-d049573bc16596f9.core.5587a85061e7188a-cgu.0.rcgu.o)
 .rodata..Lanon.a0506fc3c6b36e5783e71ab63da9841e.357
                0x0000000000136570        0x6 ./gen/../tecsrustUART/target/armv7a-none-eabi/release/libitron.a(core-d049573bc16596f9.core.5587a85061e7188a-cgu.0.rcgu.o)
 .rodata..Lanon.a0506fc3c6b36e5783e71ab63da9841e.358
                0x0000000000136576       0x16 ./gen/../tecsrustUART/target/armv7a-none-eabi/release/libitron.a(core-d049573bc16596f9.core.5587a85061e7188a-cgu.0.rcgu.o)
 .rodata..Lanon.a0506fc3c6b36e5783e71ab63da9841e.359
                0x000000000013658c        0x8 ./gen/../tecsrustUART/target/armv7a-none-eabi/release/libitron.a(core-d049573bc16596f9.core.5587a85061e7188a-cgu.0.rcgu.o)
 .rodata..Lanon.a0506fc3c6b36e5783e71ab63da9841e.360
                0x0000000000136594        0x5 ./gen/../tecsrustUART/target/armv7a-none-eabi/release/libitron.a(core-d049573bc16596f9.core.5587a85061e7188a-cgu.0.rcgu.o)
 .rodata..Lanon.a0506fc3c6b36e5783e71ab63da9841e.361
                0x0000000000136599        0xe ./gen/../tecsrustUART/target/armv7a-none-eabi/release/libitron.a(core-d049573bc16596f9.core.5587a85061e7188a-cgu.0.rcgu.o)
 .rodata..Lanon.a0506fc3c6b36e5783e71ab63da9841e.364
                0x00000000001365a7        0x1 ./gen/../tecsrustUART/target/armv7a-none-eabi/release/libitron.a(core-d049573bc16596f9.core.5587a85061e7188a-cgu.0.rcgu.o)
 .rodata..Lanon.a0506fc3c6b36e5783e71ab63da9841e.365
                0x00000000001365a8       0x20 ./gen/../tecsrustUART/target/armv7a-none-eabi/release/libitron.a(core-d049573bc16596f9.core.5587a85061e7188a-cgu.0.rcgu.o)
 .rodata..Lanon.a0506fc3c6b36e5783e71ab63da9841e.366
                0x00000000001365c8        0xb ./gen/../tecsrustUART/target/armv7a-none-eabi/release/libitron.a(core-d049573bc16596f9.core.5587a85061e7188a-cgu.0.rcgu.o)
 .rodata..Lanon.a0506fc3c6b36e5783e71ab63da9841e.367
                0x00000000001365d3       0x26 ./gen/../tecsrustUART/target/armv7a-none-eabi/release/libitron.a(core-d049573bc16596f9.core.5587a85061e7188a-cgu.0.rcgu.o)
 .rodata..Lanon.a0506fc3c6b36e5783e71ab63da9841e.369
                0x00000000001365f9        0x6 ./gen/../tecsrustUART/target/armv7a-none-eabi/release/libitron.a(core-d049573bc16596f9.core.5587a85061e7188a-cgu.0.rcgu.o)
 *fill*         0x00000000001365ff        0x1 
 .rodata..Lanon.a0506fc3c6b36e5783e71ab63da9841e.370
                0x0000000000136600       0x28 ./gen/../tecsrustUART/target/armv7a-none-eabi/release/libitron.a(core-d049573bc16596f9.core.5587a85061e7188a-cgu.0.rcgu.o)
 .rodata..Lanon.a0506fc3c6b36e5783e71ab63da9841e.371
                0x0000000000136628       0x16 ./gen/../tecsrustUART/target/armv7a-none-eabi/release/libitron.a(core-d049573bc16596f9.core.5587a85061e7188a-cgu.0.rcgu.o)
 *fill*         0x000000000013663e        0x2 
 .rodata..Lanon.a0506fc3c6b36e5783e71ab63da9841e.372
                0x0000000000136640       0x18 ./gen/../tecsrustUART/target/armv7a-none-eabi/release/libitron.a(core-d049573bc16596f9.core.5587a85061e7188a-cgu.0.rcgu.o)
 .rodata..Lanon.a0506fc3c6b36e5783e71ab63da9841e.373
                0x0000000000136658       0x10 ./gen/../tecsrustUART/target/armv7a-none-eabi/release/libitron.a(core-d049573bc16596f9.core.5587a85061e7188a-cgu.0.rcgu.o)
 .rodata..Lanon.a0506fc3c6b36e5783e71ab63da9841e.374
                0x0000000000136668        0x2 ./gen/../tecsrustUART/target/armv7a-none-eabi/release/libitron.a(core-d049573bc16596f9.core.5587a85061e7188a-cgu.0.rcgu.o)
 .rodata..Lanon.a0506fc3c6b36e5783e71ab63da9841e.375
                0x000000000013666a        0x3 ./gen/../tecsrustUART/target/armv7a-none-eabi/release/libitron.a(core-d049573bc16596f9.core.5587a85061e7188a-cgu.0.rcgu.o)
 .rodata..Lanon.a0506fc3c6b36e5783e71ab63da9841e.376
                0x000000000013666d        0x2 ./gen/../tecsrustUART/target/armv7a-none-eabi/release/libitron.a(core-d049573bc16596f9.core.5587a85061e7188a-cgu.0.rcgu.o)
 .rodata..Lanon.a0506fc3c6b36e5783e71ab63da9841e.377
                0x000000000013666f        0x1 ./gen/../tecsrustUART/target/armv7a-none-eabi/release/libitron.a(core-d049573bc16596f9.core.5587a85061e7188a-cgu.0.rcgu.o)
 .rodata..Lanon.a0506fc3c6b36e5783e71ab63da9841e.378
                0x0000000000136670       0x18 ./gen/../tecsrustUART/target/armv7a-none-eabi/release/libitron.a(core-d049573bc16596f9.core.5587a85061e7188a-cgu.0.rcgu.o)
 .rodata..Lanon.a0506fc3c6b36e5783e71ab63da9841e.379
                0x0000000000136688       0x10 ./gen/../tecsrustUART/target/armv7a-none-eabi/release/libitron.a(core-d049573bc16596f9.core.5587a85061e7188a-cgu.0.rcgu.o)
 .rodata..Lanon.a0506fc3c6b36e5783e71ab63da9841e.381
                0x0000000000136698       0x14 ./gen/../tecsrustUART/target/armv7a-none-eabi/release/libitron.a(core-d049573bc16596f9.core.5587a85061e7188a-cgu.0.rcgu.o)
 .rodata..Lanon.a0506fc3c6b36e5783e71ab63da9841e.382
                0x00000000001366ac       0x10 ./gen/../tecsrustUART/target/armv7a-none-eabi/release/libitron.a(core-d049573bc16596f9.core.5587a85061e7188a-cgu.0.rcgu.o)
 .rodata..Lanon.a0506fc3c6b36e5783e71ab63da9841e.383
                0x00000000001366bc       0x10 ./gen/../tecsrustUART/target/armv7a-none-eabi/release/libitron.a(core-d049573bc16596f9.core.5587a85061e7188a-cgu.0.rcgu.o)
 .rodata..Lanon.a0506fc3c6b36e5783e71ab63da9841e.384
                0x00000000001366cc        0x8 ./gen/../tecsrustUART/target/armv7a-none-eabi/release/libitron.a(core-d049573bc16596f9.core.5587a85061e7188a-cgu.0.rcgu.o)
 .rodata..Lanon.a0506fc3c6b36e5783e71ab63da9841e.385
                0x00000000001366d4       0x18 ./gen/../tecsrustUART/target/armv7a-none-eabi/release/libitron.a(core-d049573bc16596f9.core.5587a85061e7188a-cgu.0.rcgu.o)
 .rodata..Lanon.a0506fc3c6b36e5783e71ab63da9841e.387
                0x00000000001366ec        0x8 ./gen/../tecsrustUART/target/armv7a-none-eabi/release/libitron.a(core-d049573bc16596f9.core.5587a85061e7188a-cgu.0.rcgu.o)
 .rodata..Lanon.a0506fc3c6b36e5783e71ab63da9841e.388
                0x00000000001366f4       0x10 ./gen/../tecsrustUART/target/armv7a-none-eabi/release/libitron.a(core-d049573bc16596f9.core.5587a85061e7188a-cgu.0.rcgu.o)
 .rodata..Lanon.a0506fc3c6b36e5783e71ab63da9841e.389
                0x0000000000136704       0x3b ./gen/../tecsrustUART/target/armv7a-none-eabi/release/libitron.a(core-d049573bc16596f9.core.5587a85061e7188a-cgu.0.rcgu.o)
 .rodata..Lanon.a0506fc3c6b36e5783e71ab63da9841e.390
                0x000000000013673f       0x48 ./gen/../tecsrustUART/target/armv7a-none-eabi/release/libitron.a(core-d049573bc16596f9.core.5587a85061e7188a-cgu.0.rcgu.o)
 .rodata..Lanon.a0506fc3c6b36e5783e71ab63da9841e.391
                0x0000000000136787       0x25 ./gen/../tecsrustUART/target/armv7a-none-eabi/release/libitron.a(core-d049573bc16596f9.core.5587a85061e7188a-cgu.0.rcgu.o)
 .rodata..Lanon.a0506fc3c6b36e5783e71ab63da9841e.392
                0x00000000001367ac       0x10 ./gen/../tecsrustUART/target/armv7a-none-eabi/release/libitron.a(core-d049573bc16596f9.core.5587a85061e7188a-cgu.0.rcgu.o)
 .rodata..Lanon.a0506fc3c6b36e5783e71ab63da9841e.393
                0x00000000001367bc       0x10 ./gen/../tecsrustUART/target/armv7a-none-eabi/release/libitron.a(core-d049573bc16596f9.core.5587a85061e7188a-cgu.0.rcgu.o)
 .rodata..Lanon.a0506fc3c6b36e5783e71ab63da9841e.394
                0x00000000001367cc       0x58 ./gen/../tecsrustUART/target/armv7a-none-eabi/release/libitron.a(core-d049573bc16596f9.core.5587a85061e7188a-cgu.0.rcgu.o)
 .rodata..Lanon.a0506fc3c6b36e5783e71ab63da9841e.395
                0x0000000000136824       0xd0 ./gen/../tecsrustUART/target/armv7a-none-eabi/release/libitron.a(core-d049573bc16596f9.core.5587a85061e7188a-cgu.0.rcgu.o)
 .rodata..Lanon.a0506fc3c6b36e5783e71ab63da9841e.396
                0x00000000001368f4      0x1e6 ./gen/../tecsrustUART/target/armv7a-none-eabi/release/libitron.a(core-d049573bc16596f9.core.5587a85061e7188a-cgu.0.rcgu.o)
 .rodata..Lanon.a0506fc3c6b36e5783e71ab63da9841e.397
                0x0000000000136ada       0x50 ./gen/../tecsrustUART/target/armv7a-none-eabi/release/libitron.a(core-d049573bc16596f9.core.5587a85061e7188a-cgu.0.rcgu.o)
 .rodata..Lanon.a0506fc3c6b36e5783e71ab63da9841e.398
                0x0000000000136b2a      0x122 ./gen/../tecsrustUART/target/armv7a-none-eabi/release/libitron.a(core-d049573bc16596f9.core.5587a85061e7188a-cgu.0.rcgu.o)
 .rodata..Lanon.a0506fc3c6b36e5783e71ab63da9841e.399
                0x0000000000136c4c      0x129 ./gen/../tecsrustUART/target/armv7a-none-eabi/release/libitron.a(core-d049573bc16596f9.core.5587a85061e7188a-cgu.0.rcgu.o)
 .rodata..Lanon.a0506fc3c6b36e5783e71ab63da9841e.400
                0x0000000000136d75       0x28 ./gen/../tecsrustUART/target/armv7a-none-eabi/release/libitron.a(core-d049573bc16596f9.core.5587a85061e7188a-cgu.0.rcgu.o)
 *fill*         0x0000000000136d9d        0x3 
 .rodata..Lanon.a0506fc3c6b36e5783e71ab63da9841e.401
                0x0000000000136da0       0x10 ./gen/../tecsrustUART/target/armv7a-none-eabi/release/libitron.a(core-d049573bc16596f9.core.5587a85061e7188a-cgu.0.rcgu.o)
 .rodata..Lanon.a0506fc3c6b36e5783e71ab63da9841e.402
                0x0000000000136db0       0x10 ./gen/../tecsrustUART/target/armv7a-none-eabi/release/libitron.a(core-d049573bc16596f9.core.5587a85061e7188a-cgu.0.rcgu.o)
 .rodata..Lanon.a0506fc3c6b36e5783e71ab63da9841e.403
                0x0000000000136dc0       0x10 ./gen/../tecsrustUART/target/armv7a-none-eabi/release/libitron.a(core-d049573bc16596f9.core.5587a85061e7188a-cgu.0.rcgu.o)
 .rodata..Lanon.a0506fc3c6b36e5783e71ab63da9841e.404
                0x0000000000136dd0        0x7 ./gen/../tecsrustUART/target/armv7a-none-eabi/release/libitron.a(core-d049573bc16596f9.core.5587a85061e7188a-cgu.0.rcgu.o)
 *fill*         0x0000000000136dd7        0x1 
 .rodata..Lanon.a0506fc3c6b36e5783e71ab63da9841e.405
                0x0000000000136dd8       0x10 ./gen/../tecsrustUART/target/armv7a-none-eabi/release/libitron.a(core-d049573bc16596f9.core.5587a85061e7188a-cgu.0.rcgu.o)
 .rodata..Lanon.a0506fc3c6b36e5783e71ab63da9841e.406
                0x0000000000136de8        0x5 ./gen/../tecsrustUART/target/armv7a-none-eabi/release/libitron.a(core-d049573bc16596f9.core.5587a85061e7188a-cgu.0.rcgu.o)
 .rodata..Lanon.a0506fc3c6b36e5783e71ab63da9841e.407
                0x0000000000136ded        0x5 ./gen/../tecsrustUART/target/armv7a-none-eabi/release/libitron.a(core-d049573bc16596f9.core.5587a85061e7188a-cgu.0.rcgu.o)
 *fill*         0x0000000000136df2        0x2 
 .rodata..Lanon.a0506fc3c6b36e5783e71ab63da9841e.408
                0x0000000000136df4       0x10 ./gen/../tecsrustUART/target/armv7a-none-eabi/release/libitron.a(core-d049573bc16596f9.core.5587a85061e7188a-cgu.0.rcgu.o)
 .rodata..Lanon.a0506fc3c6b36e5783e71ab63da9841e.410
                0x0000000000136e04       0x10 ./gen/../tecsrustUART/target/armv7a-none-eabi/release/libitron.a(core-d049573bc16596f9.core.5587a85061e7188a-cgu.0.rcgu.o)
 .rodata..Lanon.a0506fc3c6b36e5783e71ab63da9841e.411
                0x0000000000136e14        0x6 ./gen/../tecsrustUART/target/armv7a-none-eabi/release/libitron.a(core-d049573bc16596f9.core.5587a85061e7188a-cgu.0.rcgu.o)
 .rodata..Lanon.a0506fc3c6b36e5783e71ab63da9841e.412
                0x0000000000136e1a        0xa ./gen/../tecsrustUART/target/armv7a-none-eabi/release/libitron.a(core-d049573bc16596f9.core.5587a85061e7188a-cgu.0.rcgu.o)
 .rodata..Lanon.a0506fc3c6b36e5783e71ab63da9841e.413
                0x0000000000136e24       0x2d ./gen/../tecsrustUART/target/armv7a-none-eabi/release/libitron.a(core-d049573bc16596f9.core.5587a85061e7188a-cgu.0.rcgu.o)
 .rodata..Lanon.a0506fc3c6b36e5783e71ab63da9841e.414
                0x0000000000136e51       0x18 ./gen/../tecsrustUART/target/armv7a-none-eabi/release/libitron.a(core-d049573bc16596f9.core.5587a85061e7188a-cgu.0.rcgu.o)
 .rodata..Lanon.a0506fc3c6b36e5783e71ab63da9841e.415
                0x0000000000136e69      0x100 ./gen/../tecsrustUART/target/armv7a-none-eabi/release/libitron.a(core-d049573bc16596f9.core.5587a85061e7188a-cgu.0.rcgu.o)
 .rodata..Lanon.a0506fc3c6b36e5783e71ab63da9841e.416
                0x0000000000136f69       0x24 ./gen/../tecsrustUART/target/armv7a-none-eabi/release/libitron.a(core-d049573bc16596f9.core.5587a85061e7188a-cgu.0.rcgu.o)
 *fill*         0x0000000000136f8d        0x3 
 .rodata..Lanon.a0506fc3c6b36e5783e71ab63da9841e.418
                0x0000000000136f90       0x10 ./gen/../tecsrustUART/target/armv7a-none-eabi/release/libitron.a(core-d049573bc16596f9.core.5587a85061e7188a-cgu.0.rcgu.o)
 .rodata..Lanon.a0506fc3c6b36e5783e71ab63da9841e.419
                0x0000000000136fa0       0x1e ./gen/../tecsrustUART/target/armv7a-none-eabi/release/libitron.a(core-d049573bc16596f9.core.5587a85061e7188a-cgu.0.rcgu.o)
 *fill*         0x0000000000136fbe        0x2 
 .rodata..Lanon.a0506fc3c6b36e5783e71ab63da9841e.420
                0x0000000000136fc0       0x10 ./gen/../tecsrustUART/target/armv7a-none-eabi/release/libitron.a(core-d049573bc16596f9.core.5587a85061e7188a-cgu.0.rcgu.o)
 .rodata..Lanon.a0506fc3c6b36e5783e71ab63da9841e.421
                0x0000000000136fd0       0x10 ./gen/../tecsrustUART/target/armv7a-none-eabi/release/libitron.a(core-d049573bc16596f9.core.5587a85061e7188a-cgu.0.rcgu.o)
 .rodata..Lanon.a0506fc3c6b36e5783e71ab63da9841e.422
                0x0000000000136fe0       0x1a ./gen/../tecsrustUART/target/armv7a-none-eabi/release/libitron.a(core-d049573bc16596f9.core.5587a85061e7188a-cgu.0.rcgu.o)
 .rodata..Lanon.a0506fc3c6b36e5783e71ab63da9841e.423
                0x0000000000136ffa       0x1d ./gen/../tecsrustUART/target/armv7a-none-eabi/release/libitron.a(core-d049573bc16596f9.core.5587a85061e7188a-cgu.0.rcgu.o)
 .rodata..Lanon.a0506fc3c6b36e5783e71ab63da9841e.424
                0x0000000000137017       0x1b ./gen/../tecsrustUART/target/armv7a-none-eabi/release/libitron.a(core-d049573bc16596f9.core.5587a85061e7188a-cgu.0.rcgu.o)
 .rodata..Lanon.a0506fc3c6b36e5783e71ab63da9841e.425
                0x0000000000137032       0x1e ./gen/../tecsrustUART/target/armv7a-none-eabi/release/libitron.a(core-d049573bc16596f9.core.5587a85061e7188a-cgu.0.rcgu.o)
 .rodata..Lanon.a0506fc3c6b36e5783e71ab63da9841e.426
                0x0000000000137050       0x18 ./gen/../tecsrustUART/target/armv7a-none-eabi/release/libitron.a(core-d049573bc16596f9.core.5587a85061e7188a-cgu.0.rcgu.o)
 .rodata..Lanon.a0506fc3c6b36e5783e71ab63da9841e.427
                0x0000000000137068        0x1 ./gen/../tecsrustUART/target/armv7a-none-eabi/release/libitron.a(core-d049573bc16596f9.core.5587a85061e7188a-cgu.0.rcgu.o)
 *fill*         0x0000000000137069        0x3 
 .rodata..Lanon.a0506fc3c6b36e5783e71ab63da9841e.428
                0x000000000013706c        0x8 ./gen/../tecsrustUART/target/armv7a-none-eabi/release/libitron.a(core-d049573bc16596f9.core.5587a85061e7188a-cgu.0.rcgu.o)
 .rodata..Lanon.a0506fc3c6b36e5783e71ab63da9841e.429
                0x0000000000137074       0x18 ./gen/../tecsrustUART/target/armv7a-none-eabi/release/libitron.a(core-d049573bc16596f9.core.5587a85061e7188a-cgu.0.rcgu.o)
 .rodata..Lanon.a0506fc3c6b36e5783e71ab63da9841e.430
                0x000000000013708c       0x10 ./gen/../tecsrustUART/target/armv7a-none-eabi/release/libitron.a(core-d049573bc16596f9.core.5587a85061e7188a-cgu.0.rcgu.o)
 .rodata..Lanon.a0506fc3c6b36e5783e71ab63da9841e.431
                0x000000000013709c       0x1c ./gen/../tecsrustUART/target/armv7a-none-eabi/release/libitron.a(core-d049573bc16596f9.core.5587a85061e7188a-cgu.0.rcgu.o)
 .rodata._ZN4core3num7dec2flt5table17POWER_OF_FIVE_12817h60379a77b3c83400E
                0x00000000001370b8     0x28b0 ./gen/../tecsrustUART/target/armv7a-none-eabi/release/libitron.a(core-d049573bc16596f9.core.5587a85061e7188a-cgu.0.rcgu.o)
 .rodata..Lanon.a0506fc3c6b36e5783e71ab63da9841e.432
                0x0000000000139968       0x40 ./gen/../tecsrustUART/target/armv7a-none-eabi/release/libitron.a(core-d049573bc16596f9.core.5587a85061e7188a-cgu.0.rcgu.o)
 .rodata..Lanon.a0506fc3c6b36e5783e71ab63da9841e.433
                0x00000000001399a8        0x8 ./gen/../tecsrustUART/target/armv7a-none-eabi/release/libitron.a(core-d049573bc16596f9.core.5587a85061e7188a-cgu.0.rcgu.o)
 .rodata..Lanon.a0506fc3c6b36e5783e71ab63da9841e.434
                0x00000000001399b0       0x18 ./gen/../tecsrustUART/target/armv7a-none-eabi/release/libitron.a(core-d049573bc16596f9.core.5587a85061e7188a-cgu.0.rcgu.o)
 .rodata..Lanon.a0506fc3c6b36e5783e71ab63da9841e.435
                0x00000000001399c8       0x1c ./gen/../tecsrustUART/target/armv7a-none-eabi/release/libitron.a(core-d049573bc16596f9.core.5587a85061e7188a-cgu.0.rcgu.o)
 .rodata..Lanon.a0506fc3c6b36e5783e71ab63da9841e.436
                0x00000000001399e4       0x18 ./gen/../tecsrustUART/target/armv7a-none-eabi/release/libitron.a(core-d049573bc16596f9.core.5587a85061e7188a-cgu.0.rcgu.o)
 .rodata..Lanon.a0506fc3c6b36e5783e71ab63da9841e.437
                0x00000000001399fc       0x12 ./gen/../tecsrustUART/target/armv7a-none-eabi/release/libitron.a(core-d049573bc16596f9.core.5587a85061e7188a-cgu.0.rcgu.o)
 .rodata..Lanon.a0506fc3c6b36e5783e71ab63da9841e.438
                0x0000000000139a0e       0x13 ./gen/../tecsrustUART/target/armv7a-none-eabi/release/libitron.a(core-d049573bc16596f9.core.5587a85061e7188a-cgu.0.rcgu.o)
 .rodata..Lanon.a0506fc3c6b36e5783e71ab63da9841e.439
                0x0000000000139a21       0x15 ./gen/../tecsrustUART/target/armv7a-none-eabi/release/libitron.a(core-d049573bc16596f9.core.5587a85061e7188a-cgu.0.rcgu.o)
 *fill*         0x0000000000139a36        0x2 
 .rodata..Lanon.a0506fc3c6b36e5783e71ab63da9841e.440
                0x0000000000139a38       0x18 ./gen/../tecsrustUART/target/armv7a-none-eabi/release/libitron.a(core-d049573bc16596f9.core.5587a85061e7188a-cgu.0.rcgu.o)
 .rodata..Lanon.a0506fc3c6b36e5783e71ab63da9841e.441
                0x0000000000139a50       0x48 ./gen/../tecsrustUART/target/armv7a-none-eabi/release/libitron.a(core-d049573bc16596f9.core.5587a85061e7188a-cgu.0.rcgu.o)
 .rodata..Lanon.a0506fc3c6b36e5783e71ab63da9841e.442
                0x0000000000139a98       0x13 ./gen/../tecsrustUART/target/armv7a-none-eabi/release/libitron.a(core-d049573bc16596f9.core.5587a85061e7188a-cgu.0.rcgu.o)
 *fill*         0x0000000000139aab        0x1 
 .rodata..Lanon.a0506fc3c6b36e5783e71ab63da9841e.443
                0x0000000000139aac       0x18 ./gen/../tecsrustUART/target/armv7a-none-eabi/release/libitron.a(core-d049573bc16596f9.core.5587a85061e7188a-cgu.0.rcgu.o)
 .rodata..Lanon.a0506fc3c6b36e5783e71ab63da9841e.444
                0x0000000000139ac4       0x19 ./gen/../tecsrustUART/target/armv7a-none-eabi/release/libitron.a(core-d049573bc16596f9.core.5587a85061e7188a-cgu.0.rcgu.o)
 *fill*         0x0000000000139add        0x3 
 .rodata..Lanon.a0506fc3c6b36e5783e71ab63da9841e.445
                0x0000000000139ae0        0x8 ./gen/../tecsrustUART/target/armv7a-none-eabi/release/libitron.a(core-d049573bc16596f9.core.5587a85061e7188a-cgu.0.rcgu.o)
 .rodata..Lanon.a0506fc3c6b36e5783e71ab63da9841e.446
                0x0000000000139ae8       0x39 ./gen/../tecsrustUART/target/armv7a-none-eabi/release/libitron.a(core-d049573bc16596f9.core.5587a85061e7188a-cgu.0.rcgu.o)
 *fill*         0x0000000000139b21        0x3 
 .rodata..Lanon.a0506fc3c6b36e5783e71ab63da9841e.447
                0x0000000000139b24        0x8 ./gen/../tecsrustUART/target/armv7a-none-eabi/release/libitron.a(core-d049573bc16596f9.core.5587a85061e7188a-cgu.0.rcgu.o)
 .rodata..Lanon.a0506fc3c6b36e5783e71ab63da9841e.448
                0x0000000000139b2c       0x22 ./gen/../tecsrustUART/target/armv7a-none-eabi/release/libitron.a(core-d049573bc16596f9.core.5587a85061e7188a-cgu.0.rcgu.o)
 *fill*         0x0000000000139b4e        0x2 
 .rodata..Lanon.a0506fc3c6b36e5783e71ab63da9841e.449
                0x0000000000139b50        0x8 ./gen/../tecsrustUART/target/armv7a-none-eabi/release/libitron.a(core-d049573bc16596f9.core.5587a85061e7188a-cgu.0.rcgu.o)
 .rodata..Lanon.a0506fc3c6b36e5783e71ab63da9841e.450
                0x0000000000139b58       0x23 ./gen/../tecsrustUART/target/armv7a-none-eabi/release/libitron.a(core-d049573bc16596f9.core.5587a85061e7188a-cgu.0.rcgu.o)
 *fill*         0x0000000000139b7b        0x1 
 .rodata..Lanon.a0506fc3c6b36e5783e71ab63da9841e.451
                0x0000000000139b7c        0x8 ./gen/../tecsrustUART/target/armv7a-none-eabi/release/libitron.a(core-d049573bc16596f9.core.5587a85061e7188a-cgu.0.rcgu.o)
 .rodata..Lanon.a0506fc3c6b36e5783e71ab63da9841e.452
                0x0000000000139b84       0x27 ./gen/../tecsrustUART/target/armv7a-none-eabi/release/libitron.a(core-d049573bc16596f9.core.5587a85061e7188a-cgu.0.rcgu.o)
 *fill*         0x0000000000139bab        0x1 
 .rodata..Lanon.a0506fc3c6b36e5783e71ab63da9841e.453
                0x0000000000139bac        0x8 ./gen/../tecsrustUART/target/armv7a-none-eabi/release/libitron.a(core-d049573bc16596f9.core.5587a85061e7188a-cgu.0.rcgu.o)
 .rodata..Lanon.a0506fc3c6b36e5783e71ab63da9841e.454
                0x0000000000139bb4       0x3b ./gen/../tecsrustUART/target/armv7a-none-eabi/release/libitron.a(core-d049573bc16596f9.core.5587a85061e7188a-cgu.0.rcgu.o)
 *fill*         0x0000000000139bef        0x1 
 .rodata..Lanon.a0506fc3c6b36e5783e71ab63da9841e.455
                0x0000000000139bf0        0x8 ./gen/../tecsrustUART/target/armv7a-none-eabi/release/libitron.a(core-d049573bc16596f9.core.5587a85061e7188a-cgu.0.rcgu.o)
 .rodata..Lanon.a0506fc3c6b36e5783e71ab63da9841e.456
                0x0000000000139bf8       0x21 ./gen/../tecsrustUART/target/armv7a-none-eabi/release/libitron.a(core-d049573bc16596f9.core.5587a85061e7188a-cgu.0.rcgu.o)
 *fill*         0x0000000000139c19        0x3 
 .rodata..Lanon.a0506fc3c6b36e5783e71ab63da9841e.457
                0x0000000000139c1c        0x8 ./gen/../tecsrustUART/target/armv7a-none-eabi/release/libitron.a(core-d049573bc16596f9.core.5587a85061e7188a-cgu.0.rcgu.o)
 .rodata..Lanon.a0506fc3c6b36e5783e71ab63da9841e.458
                0x0000000000139c24       0x22 ./gen/../tecsrustUART/target/armv7a-none-eabi/release/libitron.a(core-d049573bc16596f9.core.5587a85061e7188a-cgu.0.rcgu.o)
 *fill*         0x0000000000139c46        0x2 
 .rodata..Lanon.a0506fc3c6b36e5783e71ab63da9841e.459
                0x0000000000139c48        0x8 ./gen/../tecsrustUART/target/armv7a-none-eabi/release/libitron.a(core-d049573bc16596f9.core.5587a85061e7188a-cgu.0.rcgu.o)
 .rodata..Lanon.a0506fc3c6b36e5783e71ab63da9841e.460
                0x0000000000139c50       0x26 ./gen/../tecsrustUART/target/armv7a-none-eabi/release/libitron.a(core-d049573bc16596f9.core.5587a85061e7188a-cgu.0.rcgu.o)
 *fill*         0x0000000000139c76        0x2 
 .rodata..Lanon.a0506fc3c6b36e5783e71ab63da9841e.461
                0x0000000000139c78        0x8 ./gen/../tecsrustUART/target/armv7a-none-eabi/release/libitron.a(core-d049573bc16596f9.core.5587a85061e7188a-cgu.0.rcgu.o)
 .rodata..Lanon.a0506fc3c6b36e5783e71ab63da9841e.462
                0x0000000000139c80       0x3a ./gen/../tecsrustUART/target/armv7a-none-eabi/release/libitron.a(core-d049573bc16596f9.core.5587a85061e7188a-cgu.0.rcgu.o)
 *fill*         0x0000000000139cba        0x2 
 .rodata..Lanon.a0506fc3c6b36e5783e71ab63da9841e.463
                0x0000000000139cbc        0x8 ./gen/../tecsrustUART/target/armv7a-none-eabi/release/libitron.a(core-d049573bc16596f9.core.5587a85061e7188a-cgu.0.rcgu.o)
 .rodata..Lanon.a0506fc3c6b36e5783e71ab63da9841e.464
                0x0000000000139cc4       0x22 ./gen/../tecsrustUART/target/armv7a-none-eabi/release/libitron.a(core-d049573bc16596f9.core.5587a85061e7188a-cgu.0.rcgu.o)
 *fill*         0x0000000000139ce6        0x2 
 .rodata..Lanon.a0506fc3c6b36e5783e71ab63da9841e.465
                0x0000000000139ce8        0x8 ./gen/../tecsrustUART/target/armv7a-none-eabi/release/libitron.a(core-d049573bc16596f9.core.5587a85061e7188a-cgu.0.rcgu.o)
 .rodata..Lanon.a0506fc3c6b36e5783e71ab63da9841e.466
                0x0000000000139cf0       0x23 ./gen/../tecsrustUART/target/armv7a-none-eabi/release/libitron.a(core-d049573bc16596f9.core.5587a85061e7188a-cgu.0.rcgu.o)
 *fill*         0x0000000000139d13        0x1 
 .rodata..Lanon.a0506fc3c6b36e5783e71ab63da9841e.467
                0x0000000000139d14        0x8 ./gen/../tecsrustUART/target/armv7a-none-eabi/release/libitron.a(core-d049573bc16596f9.core.5587a85061e7188a-cgu.0.rcgu.o)
 .rodata..Lanon.a0506fc3c6b36e5783e71ab63da9841e.468
                0x0000000000139d1c       0x27 ./gen/../tecsrustUART/target/armv7a-none-eabi/release/libitron.a(core-d049573bc16596f9.core.5587a85061e7188a-cgu.0.rcgu.o)
 *fill*         0x0000000000139d43        0x1 
 .rodata..Lanon.a0506fc3c6b36e5783e71ab63da9841e.469
                0x0000000000139d44        0x8 ./gen/../tecsrustUART/target/armv7a-none-eabi/release/libitron.a(core-d049573bc16596f9.core.5587a85061e7188a-cgu.0.rcgu.o)
 .rodata..Lanon.a0506fc3c6b36e5783e71ab63da9841e.470
                0x0000000000139d4c       0x21 ./gen/../tecsrustUART/target/armv7a-none-eabi/release/libitron.a(core-d049573bc16596f9.core.5587a85061e7188a-cgu.0.rcgu.o)
 *fill*         0x0000000000139d6d        0x3 
 .rodata..Lanon.a0506fc3c6b36e5783e71ab63da9841e.471
                0x0000000000139d70        0x8 ./gen/../tecsrustUART/target/armv7a-none-eabi/release/libitron.a(core-d049573bc16596f9.core.5587a85061e7188a-cgu.0.rcgu.o)
 .rodata..Lanon.a0506fc3c6b36e5783e71ab63da9841e.472
                0x0000000000139d78       0x2c ./gen/../tecsrustUART/target/armv7a-none-eabi/release/libitron.a(core-d049573bc16596f9.core.5587a85061e7188a-cgu.0.rcgu.o)
 .rodata..Lanon.a0506fc3c6b36e5783e71ab63da9841e.473
                0x0000000000139da4        0x8 ./gen/../tecsrustUART/target/armv7a-none-eabi/release/libitron.a(core-d049573bc16596f9.core.5587a85061e7188a-cgu.0.rcgu.o)
 .rodata..Lanon.a0506fc3c6b36e5783e71ab63da9841e.474
                0x0000000000139dac        0x1 ./gen/../tecsrustUART/target/armv7a-none-eabi/release/libitron.a(core-d049573bc16596f9.core.5587a85061e7188a-cgu.0.rcgu.o)
 .rodata..Lanon.a0506fc3c6b36e5783e71ab63da9841e.475
                0x0000000000139dad       0x1c ./gen/../tecsrustUART/target/armv7a-none-eabi/release/libitron.a(core-d049573bc16596f9.core.5587a85061e7188a-cgu.0.rcgu.o)
 *fill*         0x0000000000139dc9        0x3 
 .rodata..Lanon.a0506fc3c6b36e5783e71ab63da9841e.476
                0x0000000000139dcc       0x10 ./gen/../tecsrustUART/target/armv7a-none-eabi/release/libitron.a(core-d049573bc16596f9.core.5587a85061e7188a-cgu.0.rcgu.o)
 .rodata..Lanon.a0506fc3c6b36e5783e71ab63da9841e.477
                0x0000000000139ddc       0x10 ./gen/../tecsrustUART/target/armv7a-none-eabi/release/libitron.a(core-d049573bc16596f9.core.5587a85061e7188a-cgu.0.rcgu.o)
 .rodata..Lanon.a0506fc3c6b36e5783e71ab63da9841e.478
                0x0000000000139dec        0x1 ./gen/../tecsrustUART/target/armv7a-none-eabi/release/libitron.a(core-d049573bc16596f9.core.5587a85061e7188a-cgu.0.rcgu.o)
 *fill*         0x0000000000139ded        0x3 
 .rodata..Lanon.a0506fc3c6b36e5783e71ab63da9841e.479
                0x0000000000139df0       0x10 ./gen/../tecsrustUART/target/armv7a-none-eabi/release/libitron.a(core-d049573bc16596f9.core.5587a85061e7188a-cgu.0.rcgu.o)
 .rodata..Lanon.a0506fc3c6b36e5783e71ab63da9841e.480
                0x0000000000139e00        0x1 ./gen/../tecsrustUART/target/armv7a-none-eabi/release/libitron.a(core-d049573bc16596f9.core.5587a85061e7188a-cgu.0.rcgu.o)
 *fill*         0x0000000000139e01        0x3 
 .rodata..Lanon.a0506fc3c6b36e5783e71ab63da9841e.481
                0x0000000000139e04       0x10 ./gen/../tecsrustUART/target/armv7a-none-eabi/release/libitron.a(core-d049573bc16596f9.core.5587a85061e7188a-cgu.0.rcgu.o)
 .rodata..Lanon.a0506fc3c6b36e5783e71ab63da9841e.482
                0x0000000000139e14       0x10 ./gen/../tecsrustUART/target/armv7a-none-eabi/release/libitron.a(core-d049573bc16596f9.core.5587a85061e7188a-cgu.0.rcgu.o)
 .rodata..Lanon.a0506fc3c6b36e5783e71ab63da9841e.483
                0x0000000000139e24       0x10 ./gen/../tecsrustUART/target/armv7a-none-eabi/release/libitron.a(core-d049573bc16596f9.core.5587a85061e7188a-cgu.0.rcgu.o)
 .rodata..Lanon.a0506fc3c6b36e5783e71ab63da9841e.484
                0x0000000000139e34       0x10 ./gen/../tecsrustUART/target/armv7a-none-eabi/release/libitron.a(core-d049573bc16596f9.core.5587a85061e7188a-cgu.0.rcgu.o)
 .rodata..Lanon.a0506fc3c6b36e5783e71ab63da9841e.485
                0x0000000000139e44       0x10 ./gen/../tecsrustUART/target/armv7a-none-eabi/release/libitron.a(core-d049573bc16596f9.core.5587a85061e7188a-cgu.0.rcgu.o)
 .rodata..Lanon.a0506fc3c6b36e5783e71ab63da9841e.486
                0x0000000000139e54        0x5 ./gen/../tecsrustUART/target/armv7a-none-eabi/release/libitron.a(core-d049573bc16596f9.core.5587a85061e7188a-cgu.0.rcgu.o)
 .rodata..Lanon.a0506fc3c6b36e5783e71ab63da9841e.487
                0x0000000000139e59       0x12 ./gen/../tecsrustUART/target/armv7a-none-eabi/release/libitron.a(core-d049573bc16596f9.core.5587a85061e7188a-cgu.0.rcgu.o)
 .rodata..Lanon.a0506fc3c6b36e5783e71ab63da9841e.488
                0x0000000000139e6b       0x22 ./gen/../tecsrustUART/target/armv7a-none-eabi/release/libitron.a(core-d049573bc16596f9.core.5587a85061e7188a-cgu.0.rcgu.o)
 *fill*         0x0000000000139e8d        0x3 
 .rodata..Lanon.a0506fc3c6b36e5783e71ab63da9841e.489
                0x0000000000139e90       0x10 ./gen/../tecsrustUART/target/armv7a-none-eabi/release/libitron.a(core-d049573bc16596f9.core.5587a85061e7188a-cgu.0.rcgu.o)
 .rodata..Lanon.a0506fc3c6b36e5783e71ab63da9841e.491
                0x0000000000139ea0       0x10 ./gen/../tecsrustUART/target/armv7a-none-eabi/release/libitron.a(core-d049573bc16596f9.core.5587a85061e7188a-cgu.0.rcgu.o)
 .rodata..Lanon.a0506fc3c6b36e5783e71ab63da9841e.492
                0x0000000000139eb0       0x16 ./gen/../tecsrustUART/target/armv7a-none-eabi/release/libitron.a(core-d049573bc16596f9.core.5587a85061e7188a-cgu.0.rcgu.o)
 .rodata..Lanon.a0506fc3c6b36e5783e71ab63da9841e.493
                0x0000000000139ec6        0xd ./gen/../tecsrustUART/target/armv7a-none-eabi/release/libitron.a(core-d049573bc16596f9.core.5587a85061e7188a-cgu.0.rcgu.o)
 *fill*         0x0000000000139ed3        0x1 
 .rodata..Lanon.a0506fc3c6b36e5783e71ab63da9841e.494
                0x0000000000139ed4       0x10 ./gen/../tecsrustUART/target/armv7a-none-eabi/release/libitron.a(core-d049573bc16596f9.core.5587a85061e7188a-cgu.0.rcgu.o)
 .rodata..Lanon.a0506fc3c6b36e5783e71ab63da9841e.495
                0x0000000000139ee4       0x26 ./gen/../tecsrustUART/target/armv7a-none-eabi/release/libitron.a(core-d049573bc16596f9.core.5587a85061e7188a-cgu.0.rcgu.o)
 .rodata..Lanon.a0506fc3c6b36e5783e71ab63da9841e.496
                0x0000000000139f0a       0x2b ./gen/../tecsrustUART/target/armv7a-none-eabi/release/libitron.a(core-d049573bc16596f9.core.5587a85061e7188a-cgu.0.rcgu.o)
 *fill*         0x0000000000139f35        0x3 
 .rodata..Lanon.a0506fc3c6b36e5783e71ab63da9841e.497
                0x0000000000139f38       0x18 ./gen/../tecsrustUART/target/armv7a-none-eabi/release/libitron.a(core-d049573bc16596f9.core.5587a85061e7188a-cgu.0.rcgu.o)
 .rodata._ZN4core7unicode12unicode_data10alphabetic17SHORT_OFFSET_RUNS17he6009c709dd16101E
                0x0000000000139f50       0xd4 ./gen/../tecsrustUART/target/armv7a-none-eabi/release/libitron.a(core-d049573bc16596f9.core.5587a85061e7188a-cgu.0.rcgu.o)
 .rodata._ZN4core7unicode12unicode_data14case_ignorable17SHORT_OFFSET_RUNS17h4fbf63569f64a625E
                0x000000000013a024       0x94 ./gen/../tecsrustUART/target/armv7a-none-eabi/release/libitron.a(core-d049573bc16596f9.core.5587a85061e7188a-cgu.0.rcgu.o)
 .rodata._ZN4core7unicode12unicode_data5cased17SHORT_OFFSET_RUNS17h7a479c119684b2a6E
                0x000000000013a0b8       0x58 ./gen/../tecsrustUART/target/armv7a-none-eabi/release/libitron.a(core-d049573bc16596f9.core.5587a85061e7188a-cgu.0.rcgu.o)
 .rodata._ZN4core7unicode12unicode_data15grapheme_extend17SHORT_OFFSET_RUNS17hee57a88206e414ebE
                0x000000000013a110       0x88 ./gen/../tecsrustUART/target/armv7a-none-eabi/release/libitron.a(core-d049573bc16596f9.core.5587a85061e7188a-cgu.0.rcgu.o)
 .rodata._ZN4core7unicode12unicode_data9lowercase19BITSET_INDEX_CHUNKS17h4f138acca8fa2dc8E
                0x000000000013a198      0x140 ./gen/../tecsrustUART/target/armv7a-none-eabi/release/libitron.a(core-d049573bc16596f9.core.5587a85061e7188a-cgu.0.rcgu.o)
                0x000000000013a198                core::unicode::unicode_data::lowercase::BITSET_INDEX_CHUNKS
 .rodata._ZN4core7unicode12unicode_data9lowercase16BITSET_CANONICAL17h84c1f118f954263cE
                0x000000000013a2d8      0x1c0 ./gen/../tecsrustUART/target/armv7a-none-eabi/release/libitron.a(core-d049573bc16596f9.core.5587a85061e7188a-cgu.0.rcgu.o)
                0x000000000013a2d8                core::unicode::unicode_data::lowercase::BITSET_CANONICAL
 .rodata._ZN4core7unicode12unicode_data9lowercase14BITSET_MAPPING17h458e7a7802856e65E
                0x000000000013a498       0x2c ./gen/../tecsrustUART/target/armv7a-none-eabi/release/libitron.a(core-d049573bc16596f9.core.5587a85061e7188a-cgu.0.rcgu.o)
                0x000000000013a498                core::unicode::unicode_data::lowercase::BITSET_MAPPING
 .rodata._ZN4core7unicode12unicode_data1n17SHORT_OFFSET_RUNS17hbac430b5adf8ef6aE
                0x000000000013a4c4       0xa8 ./gen/../tecsrustUART/target/armv7a-none-eabi/release/libitron.a(core-d049573bc16596f9.core.5587a85061e7188a-cgu.0.rcgu.o)
 .rodata._ZN4core7unicode12unicode_data9uppercase19BITSET_INDEX_CHUNKS17h5ca318c69d422039E
                0x000000000013a56c      0x110 ./gen/../tecsrustUART/target/armv7a-none-eabi/release/libitron.a(core-d049573bc16596f9.core.5587a85061e7188a-cgu.0.rcgu.o)
                0x000000000013a56c                core::unicode::unicode_data::uppercase::BITSET_INDEX_CHUNKS
 *fill*         0x000000000013a67c        0x4 
 .rodata._ZN4core7unicode12unicode_data9uppercase16BITSET_CANONICAL17hb8eb186001405e7eE
                0x000000000013a680      0x160 ./gen/../tecsrustUART/target/armv7a-none-eabi/release/libitron.a(core-d049573bc16596f9.core.5587a85061e7188a-cgu.0.rcgu.o)
                0x000000000013a680                core::unicode::unicode_data::uppercase::BITSET_CANONICAL
 .rodata._ZN4core7unicode12unicode_data9uppercase14BITSET_MAPPING17h940f90362d1b786fE
                0x000000000013a7e0       0x32 ./gen/../tecsrustUART/target/armv7a-none-eabi/release/libitron.a(core-d049573bc16596f9.core.5587a85061e7188a-cgu.0.rcgu.o)
                0x000000000013a7e0                core::unicode::unicode_data::uppercase::BITSET_MAPPING
 *fill*         0x000000000013a812        0x2 
 .rodata..Lanon.a0506fc3c6b36e5783e71ab63da9841e.498
                0x000000000013a814       0x10 ./gen/../tecsrustUART/target/armv7a-none-eabi/release/libitron.a(core-d049573bc16596f9.core.5587a85061e7188a-cgu.0.rcgu.o)
 .rodata..Lanon.a0506fc3c6b36e5783e71ab63da9841e.499
                0x000000000013a824       0x10 ./gen/../tecsrustUART/target/armv7a-none-eabi/release/libitron.a(core-d049573bc16596f9.core.5587a85061e7188a-cgu.0.rcgu.o)
 .rodata..Lanon.a0506fc3c6b36e5783e71ab63da9841e.500
                0x000000000013a834     0x2cd0 ./gen/../tecsrustUART/target/armv7a-none-eabi/release/libitron.a(core-d049573bc16596f9.core.5587a85061e7188a-cgu.0.rcgu.o)
 .rodata..Lanon.a0506fc3c6b36e5783e71ab63da9841e.501
                0x000000000013d504     0x2fb0 ./gen/../tecsrustUART/target/armv7a-none-eabi/release/libitron.a(core-d049573bc16596f9.core.5587a85061e7188a-cgu.0.rcgu.o)
 .rodata..Lanon.a0506fc3c6b36e5783e71ab63da9841e.502
                0x00000000001404b4      0x4c8 ./gen/../tecsrustUART/target/armv7a-none-eabi/release/libitron.a(core-d049573bc16596f9.core.5587a85061e7188a-cgu.0.rcgu.o)
 .rodata..Lanon.a0506fc3c6b36e5783e71ab63da9841e.503
                0x000000000014097c       0x14 ./gen/../tecsrustUART/target/armv7a-none-eabi/release/libitron.a(core-d049573bc16596f9.core.5587a85061e7188a-cgu.0.rcgu.o)
 .rodata..Lswitch.table._ZN70_$LT$core..num..error..ParseIntError$u20$as$u20$core..fmt..Display$GT$3fmt17hbaea7be47c23092bE
                0x0000000000140990       0x14 ./gen/../tecsrustUART/target/armv7a-none-eabi/release/libitron.a(core-d049573bc16596f9.core.5587a85061e7188a-cgu.0.rcgu.o)
 .rodata..Lswitch.table._ZN70_$LT$core..num..error..ParseIntError$u20$as$u20$core..fmt..Display$GT$3fmt17hbaea7be47c23092bE.269
                0x00000000001409a4       0x14 ./gen/../tecsrustUART/target/armv7a-none-eabi/release/libitron.a(core-d049573bc16596f9.core.5587a85061e7188a-cgu.0.rcgu.o)
 .rodata..Lswitch.table._ZN72_$LT$core..net..parser..AddrParseError$u20$as$u20$core..fmt..Display$GT$3fmt17hd7f7df04664d2864E
                0x00000000001409b8       0x18 ./gen/../tecsrustUART/target/armv7a-none-eabi/release/libitron.a(core-d049573bc16596f9.core.5587a85061e7188a-cgu.0.rcgu.o)
 .rodata..Lswitch.table._ZN72_$LT$core..net..parser..AddrParseError$u20$as$u20$core..fmt..Display$GT$3fmt17hd7f7df04664d2864E.270
                0x00000000001409d0       0x18 ./gen/../tecsrustUART/target/armv7a-none-eabi/release/libitron.a(core-d049573bc16596f9.core.5587a85061e7188a-cgu.0.rcgu.o)
 .rodata..Lswitch.table._ZN4core9panicking19assert_failed_inner17h1f0479933a2bc628E
                0x00000000001409e8        0xc ./gen/../tecsrustUART/target/armv7a-none-eabi/release/libitron.a(core-d049573bc16596f9.core.5587a85061e7188a-cgu.0.rcgu.o)
 .rodata..Lswitch.table._ZN4core9panicking19assert_failed_inner17h1f0479933a2bc628E.271
                0x00000000001409f4        0xc ./gen/../tecsrustUART/target/armv7a-none-eabi/release/libitron.a(core-d049573bc16596f9.core.5587a85061e7188a-cgu.0.rcgu.o)
 .rodata.str1.4
                0x0000000000140a00       0x83 ./libkernel.a(gic_kernel_impl.o)
 *fill*         0x0000000000140a83        0x1 
 .rodata.str1.4
                0x0000000000140a84      0x305 ./libkernel.a(core_kernel_impl.o)
 *fill*         0x0000000000140d89        0x3 
 .rodata.str1.4
                0x0000000000140d8c       0x42 ./libkernel.a(startup.o)
 *fill*         0x0000000000140dce        0x2 
 .rodata.str1.4
                0x0000000000140dd0       0x37 ./libkernel.a(task.o)
 *fill*         0x0000000000140e07        0x1 
 .rodata.str1.4
                0x0000000000140e08       0x75 ./libkernel.a(wait.o)
                                         0xaf (size before relaxing)
 *fill*         0x0000000000140e7d        0x3 
 .rodata.str1.4
                0x0000000000140e80       0x56 ./libkernel.a(time_event.o)
                                         0x7e (size before relaxing)
 .rodata.str1.4
                0x0000000000140ed6       0x34 ./libkernel.a(task_sync.o)
 .rodata.str1.4
                0x0000000000140ed6       0x37 ./libkernel.a(semaphore.o)
 .rodata.str1.4
                0x0000000000140ed6       0x37 ./libkernel.a(dataqueue.o)
                0x0000000000140f10                . = ALIGN (0x4)
 *fill*         0x0000000000140ed6        0x2 
                0x0000000000140ed8                _ctor_list = .
 *(SORT_BY_NAME(.init_array.*))
 *(.init_array)
                0x0000000000140ed8        0x4 LONG 0x0
                0x0000000000140edc                _dtor_list = .
 *(.fini_array)
 *(SORT_BY_NAME(.fini_array.*))
                0x0000000000140edc        0x4 LONG 0x0
                0x0000000000140ee0                __end_rodata = .

.preinit_array  0x0000000000140ee0        0x0
                [!provide]                        PROVIDE (__preinit_array_start = .)
 *(.preinit_array)
                [!provide]                        PROVIDE (__preinit_array_end = .)

.init_array     0x0000000000140ee0        0x0
                [!provide]                        PROVIDE (__init_array_start = .)
 *(SORT_BY_NAME(.init_array.*))
 *(.init_array)
                [!provide]                        PROVIDE (__init_array_end = .)

.fini_array     0x0000000000140ee0        0x0
                [!provide]                        PROVIDE (__fini_array_start = .)
 *(SORT_BY_NAME(.fini_array.*))
 *(.fini_array)
                [!provide]                        PROVIDE (__fini_array_end = .)

.ARM.exidx      0x0000000000140ee0        0x8
                0x0000000000140ee0                __exidx_start = .
 *(.ARM.exidx* .gnu.linkonce.armexidx.*)
 .ARM.exidx.text._ZN68_$LT$itron..error..Error$LT$Kind$GT$$u20$as$u20$core..fmt..Debug$GT$3fmt17h14cdce66ca2c44f1E
                0x0000000000140ee0        0x8 ./gen/../tecsrustUART/target/armv7a-none-eabi/release/libitron.a(itron-bd237d22add3b961.itron.ddb412ddd8428b4f-cgu.0.rcgu.o)
 .ARM.exidx.text._RNvCsgYTF1aGAkck_7___rustc17rust_begin_unwind
                0x0000000000140ee8        0x0 ./gen/../tecsrustUART/target/armv7a-none-eabi/release/libitron.a(itron-bd237d22add3b961.itron.ddb412ddd8428b4f-cgu.0.rcgu.o)
                                          0x8 (size before relaxing)
 .ARM.exidx.text.tecs_rust_start_r_processor1_symmetric_task1
                0x0000000000140ee8        0x0 ./gen/../tecsrustUART/target/armv7a-none-eabi/release/libitron.a(itron-bd237d22add3b961.itron.ddb412ddd8428b4f-cgu.0.rcgu.o)
                                          0x8 (size before relaxing)
 .ARM.exidx.text.tecs_rust_start_r_processor2_symmetric_task2
                0x0000000000140ee8        0x0 ./gen/../tecsrustUART/target/armv7a-none-eabi/release/libitron.a(itron-bd237d22add3b961.itron.ddb412ddd8428b4f-cgu.0.rcgu.o)
                                          0x8 (size before relaxing)
 .ARM.exidx.text.tecs_rust_start_r_processor1_symmetric_uart_isr
                0x0000000000140ee8        0x0 ./gen/../tecsrustUART/target/armv7a-none-eabi/release/libitron.a(itron-bd237d22add3b961.itron.ddb412ddd8428b4f-cgu.0.rcgu.o)
                                          0x8 (size before relaxing)
 .ARM.exidx.text.tecs_rust_start_r_processor1_symmetric_uart_ini
                0x0000000000140ee8        0x0 ./gen/../tecsrustUART/target/armv7a-none-eabi/release/libitron.a(itron-bd237d22add3b961.itron.ddb412ddd8428b4f-cgu.0.rcgu.o)
                                          0x8 (size before relaxing)
 .ARM.exidx.text._ZN4core3fmt3num50_$LT$impl$u20$core..fmt..Debug$u20$for$u20$i32$GT$3fmt17h7a0e08473eadbc5bE
                0x0000000000140ee8        0x0 ./gen/../tecsrustUART/target/armv7a-none-eabi/release/libitron.a(itron-fbcb73bf0b635dd5.itron.68e737fdf62a80e5-cgu.0.rcgu.o)
                                          0x8 (size before relaxing)
 .ARM.exidx.text._ZN75_$LT$core..num..nonzero..NonZero$LT$T$GT$$u20$as$u20$core..fmt..Display$GT$3fmt17h850f84802fa3eaddE
                0x0000000000140ee8        0x0 ./gen/../tecsrustUART/target/armv7a-none-eabi/release/libitron.a(itron-fbcb73bf0b635dd5.itron.68e737fdf62a80e5-cgu.0.rcgu.o)
                                          0x8 (size before relaxing)
 .ARM.exidx.text._ZN60_$LT$itron..error..ErrorCode$u20$as$u20$core..fmt..Debug$GT$3fmt17hf3b2cd5bb64ff3e9E
                0x0000000000140ee8        0x0 ./gen/../tecsrustUART/target/armv7a-none-eabi/release/libitron.a(itron-fbcb73bf0b635dd5.itron.68e737fdf62a80e5-cgu.0.rcgu.o)
                                          0x8 (size before relaxing)
 .ARM.exidx.text._ZN67_$LT$itron..dataqueue..DataqueueRef$u20$as$u20$core..fmt..Debug$GT$3fmt17h5b31219d7835aa6dE
                0x0000000000140ee8        0x0 ./gen/../tecsrustUART/target/armv7a-none-eabi/release/libitron.a(itron-fbcb73bf0b635dd5.itron.68e737fdf62a80e5-cgu.0.rcgu.o)
                                          0x8 (size before relaxing)
 .ARM.exidx.text._ZN69_$LT$itron..memorypool..MemoryPoolRef$u20$as$u20$core..fmt..Debug$GT$3fmt17h802347f6fdaf37b2E
                0x0000000000140ee8        0x0 ./gen/../tecsrustUART/target/armv7a-none-eabi/release/libitron.a(itron-fbcb73bf0b635dd5.itron.68e737fdf62a80e5-cgu.0.rcgu.o)
                                          0x8 (size before relaxing)
 .ARM.exidx.text._ZN59_$LT$itron..mutex..MutexRef$u20$as$u20$core..fmt..Debug$GT$3fmt17h6a8d309fd5365a8bE
                0x0000000000140ee8        0x0 ./gen/../tecsrustUART/target/armv7a-none-eabi/release/libitron.a(itron-fbcb73bf0b635dd5.itron.68e737fdf62a80e5-cgu.0.rcgu.o)
                                          0x8 (size before relaxing)
 .ARM.exidx.text._ZN64_$LT$itron..processor..Processor$u20$as$u20$core..fmt..Debug$GT$3fmt17hc75d9d03a1c196fbE
                0x0000000000140ee8        0x0 ./gen/../tecsrustUART/target/armv7a-none-eabi/release/libitron.a(itron-fbcb73bf0b635dd5.itron.68e737fdf62a80e5-cgu.0.rcgu.o)
                                          0x8 (size before relaxing)
 .ARM.exidx.text._ZN67_$LT$itron..semaphore..SemaphoreRef$u20$as$u20$core..fmt..Debug$GT$3fmt17haf2e3079afc34cfaE
                0x0000000000140ee8        0x0 ./gen/../tecsrustUART/target/armv7a-none-eabi/release/libitron.a(itron-fbcb73bf0b635dd5.itron.68e737fdf62a80e5-cgu.0.rcgu.o)
                                          0x8 (size before relaxing)
 .ARM.exidx.text._ZN57_$LT$itron..task..TaskRef$u20$as$u20$core..fmt..Debug$GT$3fmt17h29082a565a1f7a0fE
                0x0000000000140ee8        0x0 ./gen/../tecsrustUART/target/armv7a-none-eabi/release/libitron.a(itron-fbcb73bf0b635dd5.itron.68e737fdf62a80e5-cgu.0.rcgu.o)
                                          0x8 (size before relaxing)
 .ARM.exidx.text._ZN5itron4task7current17he5bb96fe6f36c460E
                0x0000000000140ee8        0x0 ./gen/../tecsrustUART/target/armv7a-none-eabi/release/libitron.a(itron-fbcb73bf0b635dd5.itron.68e737fdf62a80e5-cgu.0.rcgu.o)
                                          0x8 (size before relaxing)
 .ARM.exidx.text._ZN4core3num7dec2flt11decimal_seq10DecimalSeq4trim17h5efee5ea5ccf409eE
                0x0000000000140ee8        0x0 ./gen/../tecsrustUART/target/armv7a-none-eabi/release/libitron.a(core-d049573bc16596f9.core.5587a85061e7188a-cgu.0.rcgu.o)
                                          0x8 (size before relaxing)
 .ARM.exidx.text._ZN4core3num7dec2flt11decimal_seq10DecimalSeq5round17h25fcaa510171f10cE
                0x0000000000140ee8        0x0 ./gen/../tecsrustUART/target/armv7a-none-eabi/release/libitron.a(core-d049573bc16596f9.core.5587a85061e7188a-cgu.0.rcgu.o)
                                          0x8 (size before relaxing)
 .ARM.exidx.text._ZN4core3num7dec2flt11decimal_seq10DecimalSeq10left_shift17hc6cf7434fa18fb28E
                0x0000000000140ee8        0x0 ./gen/../tecsrustUART/target/armv7a-none-eabi/release/libitron.a(core-d049573bc16596f9.core.5587a85061e7188a-cgu.0.rcgu.o)
                                          0x8 (size before relaxing)
 .ARM.exidx.text._ZN4core3num7dec2flt11decimal_seq10DecimalSeq11right_shift17hb4403252d794ad85E
                0x0000000000140ee8        0x0 ./gen/../tecsrustUART/target/armv7a-none-eabi/release/libitron.a(core-d049573bc16596f9.core.5587a85061e7188a-cgu.0.rcgu.o)
                                          0x8 (size before relaxing)
 .ARM.exidx.text._ZN4core3num7dec2flt11decimal_seq17parse_decimal_seq17h720ae35c33f1ca0cE
                0x0000000000140ee8        0x0 ./gen/../tecsrustUART/target/armv7a-none-eabi/release/libitron.a(core-d049573bc16596f9.core.5587a85061e7188a-cgu.0.rcgu.o)
                                          0x8 (size before relaxing)
 .ARM.exidx.text._ZN59_$LT$f32$u20$as$u20$core..num..dec2flt..float..RawFloat$GT$15pow10_fast_path17h6e48b725f9e4ea17E
                0x0000000000140ee8        0x0 ./gen/../tecsrustUART/target/armv7a-none-eabi/release/libitron.a(core-d049573bc16596f9.core.5587a85061e7188a-cgu.0.rcgu.o)
                                          0x8 (size before relaxing)
 .ARM.exidx.text._ZN59_$LT$f64$u20$as$u20$core..num..dec2flt..float..RawFloat$GT$15pow10_fast_path17h11f46422e910817bE
                0x0000000000140ee8        0x0 ./gen/../tecsrustUART/target/armv7a-none-eabi/release/libitron.a(core-d049573bc16596f9.core.5587a85061e7188a-cgu.0.rcgu.o)
                                          0x8 (size before relaxing)
 .ARM.exidx.text._ZN4core3num7dec2flt6lemire13compute_float17h16a9ae03feeaa31dE
                0x0000000000140ee8        0x0 ./gen/../tecsrustUART/target/armv7a-none-eabi/release/libitron.a(core-d049573bc16596f9.core.5587a85061e7188a-cgu.0.rcgu.o)
                                          0x8 (size before relaxing)
 .ARM.exidx.text._ZN4core3num7dec2flt6lemire13compute_float17h6afe090d7f4e8ea6E
                0x0000000000140ee8        0x0 ./gen/../tecsrustUART/target/armv7a-none-eabi/release/libitron.a(core-d049573bc16596f9.core.5587a85061e7188a-cgu.0.rcgu.o)
                                          0x8 (size before relaxing)
 .ARM.exidx.text._ZN4core3num7dec2flt6lemire13compute_float17ha99c48ca86bcebfaE
                0x0000000000140ee8        0x0 ./gen/../tecsrustUART/target/armv7a-none-eabi/release/libitron.a(core-d049573bc16596f9.core.5587a85061e7188a-cgu.0.rcgu.o)
                                          0x8 (size before relaxing)
 .ARM.exidx.text._ZN4core3num7dec2flt6lemire22compute_product_approx17h46540bfe977aa735E
                0x0000000000140ee8        0x0 ./gen/../tecsrustUART/target/armv7a-none-eabi/release/libitron.a(core-d049573bc16596f9.core.5587a85061e7188a-cgu.0.rcgu.o)
                                          0x8 (size before relaxing)
 .ARM.exidx.text._ZN4core3num7dec2flt5parse12parse_number17hac599539be123f0aE
                0x0000000000140ee8        0x0 ./gen/../tecsrustUART/target/armv7a-none-eabi/release/libitron.a(core-d049573bc16596f9.core.5587a85061e7188a-cgu.0.rcgu.o)
                                          0x8 (size before relaxing)
 .ARM.exidx.text._ZN74_$LT$core..num..dec2flt..ParseFloatError$u20$as$u20$core..fmt..Display$GT$3fmt17he75ae9ab1989a457E
                0x0000000000140ee8        0x0 ./gen/../tecsrustUART/target/armv7a-none-eabi/release/libitron.a(core-d049573bc16596f9.core.5587a85061e7188a-cgu.0.rcgu.o)
                                          0x8 (size before relaxing)
 .ARM.exidx.text._ZN4core3num9diy_float2Fp3mul17h224020beff8dcf6eE
                0x0000000000140ee8        0x0 ./gen/../tecsrustUART/target/armv7a-none-eabi/release/libitron.a(core-d049573bc16596f9.core.5587a85061e7188a-cgu.0.rcgu.o)
                                          0x8 (size before relaxing)
 .ARM.exidx.text._ZN4core3num9diy_float2Fp9normalize17h769495316c3164f0E
                0x0000000000140ee8        0x0 ./gen/../tecsrustUART/target/armv7a-none-eabi/release/libitron.a(core-d049573bc16596f9.core.5587a85061e7188a-cgu.0.rcgu.o)
                                          0x8 (size before relaxing)
 .ARM.exidx.text._ZN4core3num9diy_float2Fp12normalize_to17h65a8e137fe2a9b34E
                0x0000000000140ee8        0x0 ./gen/../tecsrustUART/target/armv7a-none-eabi/release/libitron.a(core-d049573bc16596f9.core.5587a85061e7188a-cgu.0.rcgu.o)
                                          0x8 (size before relaxing)
 .ARM.exidx.text._ZN4core3num7flt2dec9estimator23estimate_scaling_factor17h5aed770e3586ed17E
                0x0000000000140ee8        0x0 ./gen/../tecsrustUART/target/armv7a-none-eabi/release/libitron.a(core-d049573bc16596f9.core.5587a85061e7188a-cgu.0.rcgu.o)
                                          0x8 (size before relaxing)
 .ARM.exidx.text._ZN4core3num7flt2dec8strategy6dragon9mul_pow1017h8de41a198f06ceffE
                0x0000000000140ee8        0x0 ./gen/../tecsrustUART/target/armv7a-none-eabi/release/libitron.a(core-d049573bc16596f9.core.5587a85061e7188a-cgu.0.rcgu.o)
                                          0x8 (size before relaxing)
 .ARM.exidx.text._ZN4core3num7flt2dec8strategy6dragon15format_shortest17hb5e0ae7b6971114eE
                0x0000000000140ee8        0x0 ./gen/../tecsrustUART/target/armv7a-none-eabi/release/libitron.a(core-d049573bc16596f9.core.5587a85061e7188a-cgu.0.rcgu.o)
                                          0x8 (size before relaxing)
 .ARM.exidx.text._ZN4core3num7flt2dec8strategy6dragon12format_exact17h413b0182ae77793eE
                0x0000000000140ee8        0x0 ./gen/../tecsrustUART/target/armv7a-none-eabi/release/libitron.a(core-d049573bc16596f9.core.5587a85061e7188a-cgu.0.rcgu.o)
                                          0x8 (size before relaxing)
 .ARM.exidx.text._ZN4core3num7flt2dec8strategy5grisu12cached_power17h40510fc142d30e5bE
                0x0000000000140ee8        0x0 ./gen/../tecsrustUART/target/armv7a-none-eabi/release/libitron.a(core-d049573bc16596f9.core.5587a85061e7188a-cgu.0.rcgu.o)
                                          0x8 (size before relaxing)
 .ARM.exidx.text._ZN4core3num7flt2dec8strategy5grisu19format_shortest_opt17ha7dc55675409a111E
                0x0000000000140ee8        0x0 ./gen/../tecsrustUART/target/armv7a-none-eabi/release/libitron.a(core-d049573bc16596f9.core.5587a85061e7188a-cgu.0.rcgu.o)
                                          0x8 (size before relaxing)
 .ARM.exidx.text._ZN4core3num7flt2dec8strategy5grisu15format_shortest17hcc7bcdc55f306e7cE
                0x0000000000140ee8        0x0 ./gen/../tecsrustUART/target/armv7a-none-eabi/release/libitron.a(core-d049573bc16596f9.core.5587a85061e7188a-cgu.0.rcgu.o)
                                          0x8 (size before relaxing)
 .ARM.exidx.text._ZN4core3num7flt2dec8strategy5grisu16format_exact_opt17h10c7733a2f424f87E
                0x0000000000140ee8        0x0 ./gen/../tecsrustUART/target/armv7a-none-eabi/release/libitron.a(core-d049573bc16596f9.core.5587a85061e7188a-cgu.0.rcgu.o)
                                          0x8 (size before relaxing)
 .ARM.exidx.text._ZN4core3num7flt2dec8strategy5grisu16format_exact_opt14possibly_round17h324fa6da31e0b7a0E
                0x0000000000140ee8        0x0 ./gen/../tecsrustUART/target/armv7a-none-eabi/release/libitron.a(core-d049573bc16596f9.core.5587a85061e7188a-cgu.0.rcgu.o)
                                          0x8 (size before relaxing)
 .ARM.exidx.text._ZN4core3num7flt2dec8strategy5grisu12format_exact17h78d277690b9100bfE
                0x0000000000140ee8        0x0 ./gen/../tecsrustUART/target/armv7a-none-eabi/release/libitron.a(core-d049573bc16596f9.core.5587a85061e7188a-cgu.0.rcgu.o)
                                          0x8 (size before relaxing)
 .ARM.exidx.text._ZN4core3num7flt2dec8round_up17hdfef968791b3b8f1E
                0x0000000000140ee8        0x0 ./gen/../tecsrustUART/target/armv7a-none-eabi/release/libitron.a(core-d049573bc16596f9.core.5587a85061e7188a-cgu.0.rcgu.o)
                                          0x8 (size before relaxing)
 .ARM.exidx.text._ZN4core3num7flt2dec17digits_to_dec_str17h4ef03e8f4c666413E
                0x0000000000140ee8        0x0 ./gen/../tecsrustUART/target/armv7a-none-eabi/release/libitron.a(core-d049573bc16596f9.core.5587a85061e7188a-cgu.0.rcgu.o)
                                          0x8 (size before relaxing)
 .ARM.exidx.text._ZN4core3num7flt2dec17digits_to_exp_str17hc40222548b9d8bc0E
                0x0000000000140ee8        0x0 ./gen/../tecsrustUART/target/armv7a-none-eabi/release/libitron.a(core-d049573bc16596f9.core.5587a85061e7188a-cgu.0.rcgu.o)
                                          0x8 (size before relaxing)
 .ARM.exidx.text._ZN4core3num3fmt4Part5write17h5157de02cd0761b1E
                0x0000000000140ee8        0x0 ./gen/../tecsrustUART/target/armv7a-none-eabi/release/libitron.a(core-d049573bc16596f9.core.5587a85061e7188a-cgu.0.rcgu.o)
                                          0x8 (size before relaxing)
 .ARM.exidx.text._ZN4core3num3fmt9Formatted3len17ha07e1e9353604e1bE
                0x0000000000140ee8        0x0 ./gen/../tecsrustUART/target/armv7a-none-eabi/release/libitron.a(core-d049573bc16596f9.core.5587a85061e7188a-cgu.0.rcgu.o)
                                          0x8 (size before relaxing)
 .ARM.exidx.text._ZN4core3num3fmt9Formatted5write17h99ed3f4f2997298bE
                0x0000000000140ee8        0x0 ./gen/../tecsrustUART/target/armv7a-none-eabi/release/libitron.a(core-d049573bc16596f9.core.5587a85061e7188a-cgu.0.rcgu.o)
                                          0x8 (size before relaxing)
 .ARM.exidx.text._ZN72_$LT$core..num..error..TryFromIntError$u20$as$u20$core..fmt..Display$GT$3fmt17hce3ba6a6f2a6094bE
                0x0000000000140ee8        0x0 ./gen/../tecsrustUART/target/armv7a-none-eabi/release/libitron.a(core-d049573bc16596f9.core.5587a85061e7188a-cgu.0.rcgu.o)
                                          0x8 (size before relaxing)
 .ARM.exidx.text._ZN70_$LT$core..num..error..ParseIntError$u20$as$u20$core..fmt..Display$GT$3fmt17hbaea7be47c23092bE
                0x0000000000140ee8        0x0 ./gen/../tecsrustUART/target/armv7a-none-eabi/release/libitron.a(core-d049573bc16596f9.core.5587a85061e7188a-cgu.0.rcgu.o)
                                          0x8 (size before relaxing)
 .ARM.exidx.text.unlikely._ZN4core3num9int_log1030panic_for_nonpositive_argument17h1277070ab48dc16bE
                0x0000000000140ee8        0x0 ./gen/../tecsrustUART/target/armv7a-none-eabi/release/libitron.a(core-d049573bc16596f9.core.5587a85061e7188a-cgu.0.rcgu.o)
                                          0x8 (size before relaxing)
 .ARM.exidx.text.unlikely._ZN4core3num8int_sqrt27panic_for_negative_argument17h646ece1cae3b97dbE
                0x0000000000140ee8        0x0 ./gen/../tecsrustUART/target/armv7a-none-eabi/release/libitron.a(core-d049573bc16596f9.core.5587a85061e7188a-cgu.0.rcgu.o)
                                          0x8 (size before relaxing)
 .ARM.exidx.text.unlikely._ZN4core3num14overflow_panic3add17hf194787efb41c60bE
                0x0000000000140ee8        0x0 ./gen/../tecsrustUART/target/armv7a-none-eabi/release/libitron.a(core-d049573bc16596f9.core.5587a85061e7188a-cgu.0.rcgu.o)
                                          0x8 (size before relaxing)
 .ARM.exidx.text.unlikely._ZN4core3num14overflow_panic3sub17he2e76c1521f0700fE
                0x0000000000140ee8        0x0 ./gen/../tecsrustUART/target/armv7a-none-eabi/release/libitron.a(core-d049573bc16596f9.core.5587a85061e7188a-cgu.0.rcgu.o)
                                          0x8 (size before relaxing)
 .ARM.exidx.text.unlikely._ZN4core3num14overflow_panic3mul17h60bfb5e03c5b71e3E
                0x0000000000140ee8        0x0 ./gen/../tecsrustUART/target/armv7a-none-eabi/release/libitron.a(core-d049573bc16596f9.core.5587a85061e7188a-cgu.0.rcgu.o)
                                          0x8 (size before relaxing)
 .ARM.exidx.text.unlikely._ZN4core3num14overflow_panic3div17h31ae6e9c5fc383d9E
                0x0000000000140ee8        0x0 ./gen/../tecsrustUART/target/armv7a-none-eabi/release/libitron.a(core-d049573bc16596f9.core.5587a85061e7188a-cgu.0.rcgu.o)
                                          0x8 (size before relaxing)
 .ARM.exidx.text.unlikely._ZN4core3num14overflow_panic3rem17h60333cfee06b13cdE
                0x0000000000140ee8        0x0 ./gen/../tecsrustUART/target/armv7a-none-eabi/release/libitron.a(core-d049573bc16596f9.core.5587a85061e7188a-cgu.0.rcgu.o)
                                          0x8 (size before relaxing)
 .ARM.exidx.text.unlikely._ZN4core3num14overflow_panic3neg17h94a197b7d7b20279E
                0x0000000000140ee8        0x0 ./gen/../tecsrustUART/target/armv7a-none-eabi/release/libitron.a(core-d049573bc16596f9.core.5587a85061e7188a-cgu.0.rcgu.o)
                                          0x8 (size before relaxing)
 .ARM.exidx.text.unlikely._ZN4core3num14overflow_panic3shr17h1944cb74e27c390cE
                0x0000000000140ee8        0x0 ./gen/../tecsrustUART/target/armv7a-none-eabi/release/libitron.a(core-d049573bc16596f9.core.5587a85061e7188a-cgu.0.rcgu.o)
                                          0x8 (size before relaxing)
 .ARM.exidx.text.unlikely._ZN4core3num14overflow_panic3shl17hc7ecc243b6763a66E
                0x0000000000140ee8        0x0 ./gen/../tecsrustUART/target/armv7a-none-eabi/release/libitron.a(core-d049573bc16596f9.core.5587a85061e7188a-cgu.0.rcgu.o)
                                          0x8 (size before relaxing)
 .ARM.exidx.text.unlikely._ZN4core3num22from_ascii_radix_panic17h345174f03d72ebe3E
                0x0000000000140ee8        0x0 ./gen/../tecsrustUART/target/armv7a-none-eabi/release/libitron.a(core-d049573bc16596f9.core.5587a85061e7188a-cgu.0.rcgu.o)
                                          0x8 (size before relaxing)
 .ARM.exidx.text._ZN76_$LT$core..mem..transmutability..Assume$u20$as$u20$core..ops..arith..Sub$GT$3sub17h21ed15b6645713d8E
                0x0000000000140ee8        0x0 ./gen/../tecsrustUART/target/armv7a-none-eabi/release/libitron.a(core-d049573bc16596f9.core.5587a85061e7188a-cgu.0.rcgu.o)
                                          0x8 (size before relaxing)
 .ARM.exidx.text._ZN68_$LT$core..ptr..alignment..Alignment$u20$as$u20$core..fmt..Debug$GT$3fmt17hd2f4df9dbd6e2f86E
                0x0000000000140ee8        0x0 ./gen/../tecsrustUART/target/armv7a-none-eabi/release/libitron.a(core-d049573bc16596f9.core.5587a85061e7188a-cgu.0.rcgu.o)
                                          0x8 (size before relaxing)
 .ARM.exidx.text._ZN69_$LT$core..ffi..c_str..CStr$u20$as$u20$core..clone..CloneToUninit$GT$15clone_to_uninit17h80a4ef3d92070d94E
                0x0000000000140ee8        0x0 ./gen/../tecsrustUART/target/armv7a-none-eabi/release/libitron.a(core-d049573bc16596f9.core.5587a85061e7188a-cgu.0.rcgu.o)
                                          0x8 (size before relaxing)
 .ARM.exidx.text._ZN57_$LT$core..error..Request$u20$as$u20$core..fmt..Debug$GT$3fmt17h5f561f753496d82cE
                0x0000000000140ee8        0x0 ./gen/../tecsrustUART/target/armv7a-none-eabi/release/libitron.a(core-d049573bc16596f9.core.5587a85061e7188a-cgu.0.rcgu.o)
                                          0x8 (size before relaxing)
 .ARM.exidx.text._ZN78_$LT$core..error..Source$u20$as$u20$core..iter..traits..iterator..Iterator$GT$4next17h4a1fc4a2554e7eceE
                0x0000000000140ee8        0x0 ./gen/../tecsrustUART/target/armv7a-none-eabi/release/libitron.a(core-d049573bc16596f9.core.5587a85061e7188a-cgu.0.rcgu.o)
                                          0x8 (size before relaxing)
 .ARM.exidx.text._ZN64_$LT$core..ops..range..RangeFull$u20$as$u20$core..fmt..Debug$GT$3fmt17h424403ffd1288619E
                0x0000000000140ee8        0x0 ./gen/../tecsrustUART/target/armv7a-none-eabi/release/libitron.a(core-d049573bc16596f9.core.5587a85061e7188a-cgu.0.rcgu.o)
                                          0x8 (size before relaxing)
 .ARM.exidx.text._ZN71_$LT$core..ops..range..Range$LT$Idx$GT$$u20$as$u20$core..fmt..Debug$GT$3fmt17ha953e6102122b0f8E
                0x0000000000140ee8        0x0 ./gen/../tecsrustUART/target/armv7a-none-eabi/release/libitron.a(core-d049573bc16596f9.core.5587a85061e7188a-cgu.0.rcgu.o)
                                          0x8 (size before relaxing)
 .ARM.exidx.text._ZN105_$LT$dyn$u20$core..any..Any$u2b$core..marker..Sync$u2b$core..marker..Send$u20$as$u20$core..fmt..Debug$GT$3fmt17habd8592b3ad60da5E
                0x0000000000140ee8        0x0 ./gen/../tecsrustUART/target/armv7a-none-eabi/release/libitron.a(core-d049573bc16596f9.core.5587a85061e7188a-cgu.0.rcgu.o)
                                          0x8 (size before relaxing)
 .ARM.exidx.text._ZN54_$LT$core..any..TypeId$u20$as$u20$core..fmt..Debug$GT$3fmt17h85ceed27d8f181fdE
                0x0000000000140ee8        0x0 ./gen/../tecsrustUART/target/armv7a-none-eabi/release/libitron.a(core-d049573bc16596f9.core.5587a85061e7188a-cgu.0.rcgu.o)
                                          0x8 (size before relaxing)
 .ARM.exidx.text._ZN73_$LT$core..ascii..ascii_char..AsciiChar$u20$as$u20$core..fmt..Display$GT$3fmt17h8431bf4e4f9d1f68E
                0x0000000000140ee8        0x0 ./gen/../tecsrustUART/target/armv7a-none-eabi/release/libitron.a(core-d049573bc16596f9.core.5587a85061e7188a-cgu.0.rcgu.o)
                                          0x8 (size before relaxing)
 .ARM.exidx.text._ZN71_$LT$core..ascii..ascii_char..AsciiChar$u20$as$u20$core..fmt..Debug$GT$3fmt17h177c64a4e196f32cE
                0x0000000000140ee8        0x0 ./gen/../tecsrustUART/target/armv7a-none-eabi/release/libitron.a(core-d049573bc16596f9.core.5587a85061e7188a-cgu.0.rcgu.o)
                                          0x8 (size before relaxing)
 .ARM.exidx.text._ZN4core5ascii14escape_default17h981d8e307eaaa916E
                0x0000000000140ee8        0x0 ./gen/../tecsrustUART/target/armv7a-none-eabi/release/libitron.a(core-d049573bc16596f9.core.5587a85061e7188a-cgu.0.rcgu.o)
                                          0x8 (size before relaxing)
 .ARM.exidx.text._ZN65_$LT$core..ascii..EscapeDefault$u20$as$u20$core..fmt..Display$GT$3fmt17he735515427ec3f2cE
                0x0000000000140ee8        0x0 ./gen/../tecsrustUART/target/armv7a-none-eabi/release/libitron.a(core-d049573bc16596f9.core.5587a85061e7188a-cgu.0.rcgu.o)
                                          0x8 (size before relaxing)
 .ARM.exidx.text._ZN63_$LT$core..ascii..EscapeDefault$u20$as$u20$core..fmt..Debug$GT$3fmt17h46f02f61de5321cbE
                0x0000000000140ee8        0x0 ./gen/../tecsrustUART/target/armv7a-none-eabi/release/libitron.a(core-d049573bc16596f9.core.5587a85061e7188a-cgu.0.rcgu.o)
                                          0x8 (size before relaxing)
 .ARM.exidx.text._ZN56_$LT$core..bstr..ByteStr$u20$as$u20$core..fmt..Debug$GT$3fmt17h8b572b2661a1de36E
                0x0000000000140ee8        0x0 ./gen/../tecsrustUART/target/armv7a-none-eabi/release/libitron.a(core-d049573bc16596f9.core.5587a85061e7188a-cgu.0.rcgu.o)
                                          0x8 (size before relaxing)
 .ARM.exidx.text._ZN58_$LT$core..bstr..ByteStr$u20$as$u20$core..fmt..Display$GT$3fmt17he4ae28f23ce65a58E
                0x0000000000140ee8        0x0 ./gen/../tecsrustUART/target/armv7a-none-eabi/release/libitron.a(core-d049573bc16596f9.core.5587a85061e7188a-cgu.0.rcgu.o)
                                          0x8 (size before relaxing)
 .ARM.exidx.text.unlikely._ZN4core4cell4lazy14panic_poisoned17h8eb5d443042c4736E
                0x0000000000140ee8        0x0 ./gen/../tecsrustUART/target/armv7a-none-eabi/release/libitron.a(core-d049573bc16596f9.core.5587a85061e7188a-cgu.0.rcgu.o)
                                          0x8 (size before relaxing)
 .ARM.exidx.text._ZN60_$LT$core..cell..BorrowError$u20$as$u20$core..fmt..Debug$GT$3fmt17h56da770da5e11014E
                0x0000000000140ee8        0x0 ./gen/../tecsrustUART/target/armv7a-none-eabi/release/libitron.a(core-d049573bc16596f9.core.5587a85061e7188a-cgu.0.rcgu.o)
                                          0x8 (size before relaxing)
 .ARM.exidx.text._ZN62_$LT$core..cell..BorrowError$u20$as$u20$core..fmt..Display$GT$3fmt17h649aaf4112417b69E
                0x0000000000140ee8        0x0 ./gen/../tecsrustUART/target/armv7a-none-eabi/release/libitron.a(core-d049573bc16596f9.core.5587a85061e7188a-cgu.0.rcgu.o)
                                          0x8 (size before relaxing)
 .ARM.exidx.text._ZN63_$LT$core..cell..BorrowMutError$u20$as$u20$core..fmt..Debug$GT$3fmt17h5dd54cc4ab093714E
                0x0000000000140ee8        0x0 ./gen/../tecsrustUART/target/armv7a-none-eabi/release/libitron.a(core-d049573bc16596f9.core.5587a85061e7188a-cgu.0.rcgu.o)
                                          0x8 (size before relaxing)
 .ARM.exidx.text._ZN65_$LT$core..cell..BorrowMutError$u20$as$u20$core..fmt..Display$GT$3fmt17h2f7647931a1ef38bE
                0x0000000000140ee8        0x0 ./gen/../tecsrustUART/target/armv7a-none-eabi/release/libitron.a(core-d049573bc16596f9.core.5587a85061e7188a-cgu.0.rcgu.o)
                                          0x8 (size before relaxing)
 .ARM.exidx.text.unlikely._ZN4core4cell22panic_already_borrowed17h058b49ead05ac00bE
                0x0000000000140ee8        0x0 ./gen/../tecsrustUART/target/armv7a-none-eabi/release/libitron.a(core-d049573bc16596f9.core.5587a85061e7188a-cgu.0.rcgu.o)
                                          0x8 (size before relaxing)
 .ARM.exidx.text.unlikely._ZN4core4cell30panic_already_mutably_borrowed17h9c448cf1bc13461aE
                0x0000000000140ee8        0x0 ./gen/../tecsrustUART/target/armv7a-none-eabi/release/libitron.a(core-d049573bc16596f9.core.5587a85061e7188a-cgu.0.rcgu.o)
                                          0x8 (size before relaxing)
 .ARM.exidx.text._ZN74_$LT$core..char..convert..ParseCharError$u20$as$u20$core..fmt..Display$GT$3fmt17hcaa7912ed162bf56E
                0x0000000000140ee8        0x0 ./gen/../tecsrustUART/target/armv7a-none-eabi/release/libitron.a(core-d049573bc16596f9.core.5587a85061e7188a-cgu.0.rcgu.o)
                                          0x8 (size before relaxing)
 .ARM.exidx.text._ZN76_$LT$core..char..convert..CharTryFromError$u20$as$u20$core..fmt..Display$GT$3fmt17h19f1ba4eab42fadcE
                0x0000000000140ee8        0x0 ./gen/../tecsrustUART/target/armv7a-none-eabi/release/libitron.a(core-d049573bc16596f9.core.5587a85061e7188a-cgu.0.rcgu.o)
                                          0x8 (size before relaxing)
 .ARM.exidx.text._ZN75_$LT$core..char..decode..DecodeUtf16Error$u20$as$u20$core..fmt..Display$GT$3fmt17hdcf3babdf2cfe76aE
                0x0000000000140ee8        0x0 ./gen/../tecsrustUART/target/armv7a-none-eabi/release/libitron.a(core-d049573bc16596f9.core.5587a85061e7188a-cgu.0.rcgu.o)
                                          0x8 (size before relaxing)
 .ARM.exidx.text._ZN4core4char7methods22_$LT$impl$u20$char$GT$16escape_debug_ext17hd46ad63d40b7f951E
                0x0000000000140ee8        0x0 ./gen/../tecsrustUART/target/armv7a-none-eabi/release/libitron.a(core-d049573bc16596f9.core.5587a85061e7188a-cgu.0.rcgu.o)
                                          0x8 (size before relaxing)
 .ARM.exidx.text._ZN64_$LT$core..char..EscapeDefault$u20$as$u20$core..fmt..Display$GT$3fmt17h38aec28b84124e92E
                0x0000000000140ee8        0x0 ./gen/../tecsrustUART/target/armv7a-none-eabi/release/libitron.a(core-d049573bc16596f9.core.5587a85061e7188a-cgu.0.rcgu.o)
                                          0x8 (size before relaxing)
 .ARM.exidx.text._ZN62_$LT$core..char..EscapeDebug$u20$as$u20$core..fmt..Display$GT$3fmt17hafc69afb2cba63d2E
                0x0000000000140ee8        0x0 ./gen/../tecsrustUART/target/armv7a-none-eabi/release/libitron.a(core-d049573bc16596f9.core.5587a85061e7188a-cgu.0.rcgu.o)
                                          0x8 (size before relaxing)
 .ARM.exidx.text._ZN86_$LT$core..char..CaseMappingIter$u20$as$u20$core..iter..traits..iterator..Iterator$GT$4next17h387613f301dd4fd8E
                0x0000000000140ee8        0x0 ./gen/../tecsrustUART/target/armv7a-none-eabi/release/libitron.a(core-d049573bc16596f9.core.5587a85061e7188a-cgu.0.rcgu.o)
                                          0x8 (size before relaxing)
 .ARM.exidx.text._ZN86_$LT$core..char..CaseMappingIter$u20$as$u20$core..iter..traits..iterator..Iterator$GT$5count17h9c99394d14e09439E
                0x0000000000140ee8        0x0 ./gen/../tecsrustUART/target/armv7a-none-eabi/release/libitron.a(core-d049573bc16596f9.core.5587a85061e7188a-cgu.0.rcgu.o)
                                          0x8 (size before relaxing)
 .ARM.exidx.text._ZN86_$LT$core..char..CaseMappingIter$u20$as$u20$core..iter..traits..iterator..Iterator$GT$4last17h4812d7f7192ee524E
                0x0000000000140ee8        0x0 ./gen/../tecsrustUART/target/armv7a-none-eabi/release/libitron.a(core-d049573bc16596f9.core.5587a85061e7188a-cgu.0.rcgu.o)
                                          0x8 (size before relaxing)
 .ARM.exidx.text._ZN86_$LT$core..char..CaseMappingIter$u20$as$u20$core..iter..traits..iterator..Iterator$GT$10advance_by17h0f8a06432075b566E
                0x0000000000140ee8        0x0 ./gen/../tecsrustUART/target/armv7a-none-eabi/release/libitron.a(core-d049573bc16596f9.core.5587a85061e7188a-cgu.0.rcgu.o)
                                          0x8 (size before relaxing)
 .ARM.exidx.text._ZN86_$LT$core..char..CaseMappingIter$u20$as$u20$core..iter..traits..iterator..Iterator$GT$24__iterator_get_unchecked17hee300516a572f4b8E
                0x0000000000140ee8        0x0 ./gen/../tecsrustUART/target/armv7a-none-eabi/release/libitron.a(core-d049573bc16596f9.core.5587a85061e7188a-cgu.0.rcgu.o)
                                          0x8 (size before relaxing)
 .ARM.exidx.text._ZN101_$LT$core..char..CaseMappingIter$u20$as$u20$core..iter..traits..double_ended..DoubleEndedIterator$GT$9next_back17h0013dfa0a23bb5c3E
                0x0000000000140ee8        0x0 ./gen/../tecsrustUART/target/armv7a-none-eabi/release/libitron.a(core-d049573bc16596f9.core.5587a85061e7188a-cgu.0.rcgu.o)
                                          0x8 (size before relaxing)
 .ARM.exidx.text._ZN101_$LT$core..char..CaseMappingIter$u20$as$u20$core..iter..traits..double_ended..DoubleEndedIterator$GT$15advance_back_by17h0e7ec4b92a9eb744E
                0x0000000000140ee8        0x0 ./gen/../tecsrustUART/target/armv7a-none-eabi/release/libitron.a(core-d049573bc16596f9.core.5587a85061e7188a-cgu.0.rcgu.o)
                                          0x8 (size before relaxing)
 .ARM.exidx.text._ZN67_$LT$core..char..TryFromCharError$u20$as$u20$core..fmt..Display$GT$3fmt17hbf1b0a686f8a1a69E
                0x0000000000140ee8        0x0 ./gen/../tecsrustUART/target/armv7a-none-eabi/release/libitron.a(core-d049573bc16596f9.core.5587a85061e7188a-cgu.0.rcgu.o)
                                          0x8 (size before relaxing)
 .ARM.exidx.text._ZN79_$LT$core..ffi..c_str..FromBytesUntilNulError$u20$as$u20$core..fmt..Display$GT$3fmt17h71f2c90ca2a80addE
                0x0000000000140ee8        0x0 ./gen/../tecsrustUART/target/armv7a-none-eabi/release/libitron.a(core-d049573bc16596f9.core.5587a85061e7188a-cgu.0.rcgu.o)
                                          0x8 (size before relaxing)
 .ARM.exidx.text._ZN59_$LT$core..ffi..c_str..CStr$u20$as$u20$core..fmt..Debug$GT$3fmt17h36ba4289086816d4E
                0x0000000000140ee8        0x0 ./gen/../tecsrustUART/target/armv7a-none-eabi/release/libitron.a(core-d049573bc16596f9.core.5587a85061e7188a-cgu.0.rcgu.o)
                                          0x8 (size before relaxing)
 .ARM.exidx.text._ZN78_$LT$core..ffi..c_str..FromBytesWithNulError$u20$as$u20$core..fmt..Display$GT$3fmt17hd6785df6bd44c25dE
                0x0000000000140ee8        0x0 ./gen/../tecsrustUART/target/armv7a-none-eabi/release/libitron.a(core-d049573bc16596f9.core.5587a85061e7188a-cgu.0.rcgu.o)
                                          0x8 (size before relaxing)
 .ARM.exidx.text._ZN4core3ffi5c_str4CStr20from_bytes_until_nul17h223b6a3545723cc2E
                0x0000000000140ee8        0x0 ./gen/../tecsrustUART/target/armv7a-none-eabi/release/libitron.a(core-d049573bc16596f9.core.5587a85061e7188a-cgu.0.rcgu.o)
                                          0x8 (size before relaxing)
 .ARM.exidx.text._ZN4core3ffi5c_str4CStr19from_bytes_with_nul17h924bc5b5323bf05eE
                0x0000000000140ee8        0x0 ./gen/../tecsrustUART/target/armv7a-none-eabi/release/libitron.a(core-d049573bc16596f9.core.5587a85061e7188a-cgu.0.rcgu.o)
                                          0x8 (size before relaxing)
 .ARM.exidx.text._ZN4core3ffi5c_str4CStr6to_str17hc1faa40fb638a30eE
                0x0000000000140ee8        0x0 ./gen/../tecsrustUART/target/armv7a-none-eabi/release/libitron.a(core-d049573bc16596f9.core.5587a85061e7188a-cgu.0.rcgu.o)
                                          0x8 (size before relaxing)
 .ARM.exidx.text._ZN67_$LT$core..ffi..va_list..VaListImpl$u20$as$u20$core..fmt..Debug$GT$3fmt17hd26f911d47b97956E
                0x0000000000140ee8        0x0 ./gen/../tecsrustUART/target/armv7a-none-eabi/release/libitron.a(core-d049573bc16596f9.core.5587a85061e7188a-cgu.0.rcgu.o)
                                          0x8 (size before relaxing)
 .ARM.exidx.text._ZN54_$LT$core..ffi..c_void$u20$as$u20$core..fmt..Debug$GT$3fmt17h3b27b77d454a7b00E
                0x0000000000140ee8        0x0 ./gen/../tecsrustUART/target/armv7a-none-eabi/release/libitron.a(core-d049573bc16596f9.core.5587a85061e7188a-cgu.0.rcgu.o)
                                          0x8 (size before relaxing)
 .ARM.exidx.text._ZN72_$LT$core..io..borrowed_buf..BorrowedBuf$u20$as$u20$core..fmt..Debug$GT$3fmt17h8c5373e369933a1eE
                0x0000000000140ee8        0x0 ./gen/../tecsrustUART/target/armv7a-none-eabi/release/libitron.a(core-d049573bc16596f9.core.5587a85061e7188a-cgu.0.rcgu.o)
                                          0x8 (size before relaxing)
 .ARM.exidx.text._ZN86_$LT$core..net..display_buffer..DisplayBuffer$LT$_$GT$$u20$as$u20$core..fmt..Write$GT$9write_str17h297baed95332eae7E
                0x0000000000140ee8        0x0 ./gen/../tecsrustUART/target/armv7a-none-eabi/release/libitron.a(core-d049573bc16596f9.core.5587a85061e7188a-cgu.0.rcgu.o)
                                          0x8 (size before relaxing)
 .ARM.exidx.text._ZN86_$LT$core..net..display_buffer..DisplayBuffer$LT$_$GT$$u20$as$u20$core..fmt..Write$GT$9write_str17h839f220912462241E
                0x0000000000140ee8        0x0 ./gen/../tecsrustUART/target/armv7a-none-eabi/release/libitron.a(core-d049573bc16596f9.core.5587a85061e7188a-cgu.0.rcgu.o)
                                          0x8 (size before relaxing)
 .ARM.exidx.text._ZN86_$LT$core..net..display_buffer..DisplayBuffer$LT$_$GT$$u20$as$u20$core..fmt..Write$GT$9write_str17h8badf8473d9a4002E
                0x0000000000140ee8        0x0 ./gen/../tecsrustUART/target/armv7a-none-eabi/release/libitron.a(core-d049573bc16596f9.core.5587a85061e7188a-cgu.0.rcgu.o)
                                          0x8 (size before relaxing)
 .ARM.exidx.text._ZN86_$LT$core..net..display_buffer..DisplayBuffer$LT$_$GT$$u20$as$u20$core..fmt..Write$GT$9write_str17hd35c8bb425293b8bE
                0x0000000000140ee8        0x0 ./gen/../tecsrustUART/target/armv7a-none-eabi/release/libitron.a(core-d049573bc16596f9.core.5587a85061e7188a-cgu.0.rcgu.o)
                                          0x8 (size before relaxing)
 .ARM.exidx.text._ZN65_$LT$core..net..ip_addr..IpAddr$u20$as$u20$core..fmt..Display$GT$3fmt17h3168c33a3915df90E
                0x0000000000140ee8        0x0 ./gen/../tecsrustUART/target/armv7a-none-eabi/release/libitron.a(core-d049573bc16596f9.core.5587a85061e7188a-cgu.0.rcgu.o)
                                          0x8 (size before relaxing)
 .ARM.exidx.text._ZN63_$LT$core..net..ip_addr..IpAddr$u20$as$u20$core..fmt..Debug$GT$3fmt17hfda05f36d5a749a6E
                0x0000000000140ee8        0x0 ./gen/../tecsrustUART/target/armv7a-none-eabi/release/libitron.a(core-d049573bc16596f9.core.5587a85061e7188a-cgu.0.rcgu.o)
                                          0x8 (size before relaxing)
 .ARM.exidx.text._ZN67_$LT$core..net..ip_addr..Ipv4Addr$u20$as$u20$core..fmt..Display$GT$3fmt17h8a7f4864e9af7f6bE
                0x0000000000140ee8        0x0 ./gen/../tecsrustUART/target/armv7a-none-eabi/release/libitron.a(core-d049573bc16596f9.core.5587a85061e7188a-cgu.0.rcgu.o)
                                          0x8 (size before relaxing)
 .ARM.exidx.text._ZN65_$LT$core..net..ip_addr..Ipv4Addr$u20$as$u20$core..fmt..Debug$GT$3fmt17h6a51679a1ff6e7e2E
                0x0000000000140ee8        0x0 ./gen/../tecsrustUART/target/armv7a-none-eabi/release/libitron.a(core-d049573bc16596f9.core.5587a85061e7188a-cgu.0.rcgu.o)
                                          0x8 (size before relaxing)
 .ARM.exidx.text._ZN67_$LT$core..net..ip_addr..Ipv6Addr$u20$as$u20$core..fmt..Display$GT$3fmt17ha09719cd9f4aecf6E
                0x0000000000140ee8        0x0 ./gen/../tecsrustUART/target/armv7a-none-eabi/release/libitron.a(core-d049573bc16596f9.core.5587a85061e7188a-cgu.0.rcgu.o)
                                          0x8 (size before relaxing)
 .ARM.exidx.text._ZN67_$LT$core..net..ip_addr..Ipv6Addr$u20$as$u20$core..fmt..Display$GT$3fmt12fmt_subslice17hba89c8432023046dE
                0x0000000000140ee8        0x0 ./gen/../tecsrustUART/target/armv7a-none-eabi/release/libitron.a(core-d049573bc16596f9.core.5587a85061e7188a-cgu.0.rcgu.o)
                                          0x8 (size before relaxing)
 .ARM.exidx.text._ZN65_$LT$core..net..ip_addr..Ipv6Addr$u20$as$u20$core..fmt..Debug$GT$3fmt17hd7b6c05483d437dbE
                0x0000000000140ee8        0x0 ./gen/../tecsrustUART/target/armv7a-none-eabi/release/libitron.a(core-d049573bc16596f9.core.5587a85061e7188a-cgu.0.rcgu.o)
                                          0x8 (size before relaxing)
 .ARM.exidx.text._ZN4core3net6parser6Parser11read_number28_$u7b$$u7b$closure$u7d$$u7d$17hcfdf77b7d41ca56bE
                0x0000000000140ee8        0x0 ./gen/../tecsrustUART/target/armv7a-none-eabi/release/libitron.a(core-d049573bc16596f9.core.5587a85061e7188a-cgu.0.rcgu.o)
                                          0x8 (size before relaxing)
 .ARM.exidx.text._ZN4core3net6parser6Parser14read_ipv4_addr17h3efba67ec1312042E
                0x0000000000140ee8        0x0 ./gen/../tecsrustUART/target/armv7a-none-eabi/release/libitron.a(core-d049573bc16596f9.core.5587a85061e7188a-cgu.0.rcgu.o)
                                          0x8 (size before relaxing)
 .ARM.exidx.text._ZN4core3net6parser6Parser14read_ipv6_addr17h54c8b5ef622aafb8E
                0x0000000000140ee8        0x0 ./gen/../tecsrustUART/target/armv7a-none-eabi/release/libitron.a(core-d049573bc16596f9.core.5587a85061e7188a-cgu.0.rcgu.o)
                                          0x8 (size before relaxing)
 .ARM.exidx.text._ZN4core3net6parser6Parser14read_ipv6_addr11read_groups17h16f736446e4eaddeE
                0x0000000000140ee8        0x0 ./gen/../tecsrustUART/target/armv7a-none-eabi/release/libitron.a(core-d049573bc16596f9.core.5587a85061e7188a-cgu.0.rcgu.o)
                                          0x8 (size before relaxing)
 .ARM.exidx.text._ZN4core3net6parser6Parser19read_socket_addr_v617hb4d45e4b5ba1a4d4E
                0x0000000000140ee8        0x0 ./gen/../tecsrustUART/target/armv7a-none-eabi/release/libitron.a(core-d049573bc16596f9.core.5587a85061e7188a-cgu.0.rcgu.o)
                                          0x8 (size before relaxing)
 .ARM.exidx.text._ZN4core3net6parser44_$LT$impl$u20$core..net..ip_addr..IpAddr$GT$11parse_ascii17hd7ed4f332f3caa79E
                0x0000000000140ee8        0x0 ./gen/../tecsrustUART/target/armv7a-none-eabi/release/libitron.a(core-d049573bc16596f9.core.5587a85061e7188a-cgu.0.rcgu.o)
                                          0x8 (size before relaxing)
 .ARM.exidx.text._ZN4core3net6parser83_$LT$impl$u20$core..str..traits..FromStr$u20$for$u20$core..net..ip_addr..IpAddr$GT$8from_str17h49e46cb50b46901eE
                0x0000000000140ee8        0x0 ./gen/../tecsrustUART/target/armv7a-none-eabi/release/libitron.a(core-d049573bc16596f9.core.5587a85061e7188a-cgu.0.rcgu.o)
                                          0x8 (size before relaxing)
 .ARM.exidx.text._ZN4core3net6parser46_$LT$impl$u20$core..net..ip_addr..Ipv4Addr$GT$11parse_ascii17h8028e1785cb7be5fE
                0x0000000000140ee8        0x0 ./gen/../tecsrustUART/target/armv7a-none-eabi/release/libitron.a(core-d049573bc16596f9.core.5587a85061e7188a-cgu.0.rcgu.o)
                                          0x8 (size before relaxing)
 .ARM.exidx.text._ZN4core3net6parser85_$LT$impl$u20$core..str..traits..FromStr$u20$for$u20$core..net..ip_addr..Ipv4Addr$GT$8from_str17hc3217d4e0e33b7d5E
                0x0000000000140ee8        0x0 ./gen/../tecsrustUART/target/armv7a-none-eabi/release/libitron.a(core-d049573bc16596f9.core.5587a85061e7188a-cgu.0.rcgu.o)
                                          0x8 (size before relaxing)
 .ARM.exidx.text._ZN4core3net6parser46_$LT$impl$u20$core..net..ip_addr..Ipv6Addr$GT$11parse_ascii17h767d275eb73823beE
                0x0000000000140ee8        0x0 ./gen/../tecsrustUART/target/armv7a-none-eabi/release/libitron.a(core-d049573bc16596f9.core.5587a85061e7188a-cgu.0.rcgu.o)
                                          0x8 (size before relaxing)
 .ARM.exidx.text._ZN4core3net6parser85_$LT$impl$u20$core..str..traits..FromStr$u20$for$u20$core..net..ip_addr..Ipv6Addr$GT$8from_str17h685b7483d3d506d7E
                0x0000000000140ee8        0x0 ./gen/../tecsrustUART/target/armv7a-none-eabi/release/libitron.a(core-d049573bc16596f9.core.5587a85061e7188a-cgu.0.rcgu.o)
                                          0x8 (size before relaxing)
 .ARM.exidx.text._ZN4core3net6parser54_$LT$impl$u20$core..net..socket_addr..SocketAddrV4$GT$11parse_ascii17hc07de5cf09e25fb1E
                0x0000000000140ee8        0x0 ./gen/../tecsrustUART/target/armv7a-none-eabi/release/libitron.a(core-d049573bc16596f9.core.5587a85061e7188a-cgu.0.rcgu.o)
                                          0x8 (size before relaxing)
 .ARM.exidx.text._ZN4core3net6parser93_$LT$impl$u20$core..str..traits..FromStr$u20$for$u20$core..net..socket_addr..SocketAddrV4$GT$8from_str17h5883a36bbe26488dE
                0x0000000000140ee8        0x0 ./gen/../tecsrustUART/target/armv7a-none-eabi/release/libitron.a(core-d049573bc16596f9.core.5587a85061e7188a-cgu.0.rcgu.o)
                                          0x8 (size before relaxing)
 .ARM.exidx.text._ZN4core3net6parser54_$LT$impl$u20$core..net..socket_addr..SocketAddrV6$GT$11parse_ascii17hbe6498756ef255a7E
                0x0000000000140ee8        0x0 ./gen/../tecsrustUART/target/armv7a-none-eabi/release/libitron.a(core-d049573bc16596f9.core.5587a85061e7188a-cgu.0.rcgu.o)
                                          0x8 (size before relaxing)
 .ARM.exidx.text._ZN4core3net6parser93_$LT$impl$u20$core..str..traits..FromStr$u20$for$u20$core..net..socket_addr..SocketAddrV6$GT$8from_str17hf8a18b6a5bf3759eE
                0x0000000000140ee8        0x0 ./gen/../tecsrustUART/target/armv7a-none-eabi/release/libitron.a(core-d049573bc16596f9.core.5587a85061e7188a-cgu.0.rcgu.o)
                                          0x8 (size before relaxing)
 .ARM.exidx.text._ZN4core3net6parser52_$LT$impl$u20$core..net..socket_addr..SocketAddr$GT$11parse_ascii17h32c0686e61a62a97E
                0x0000000000140ee8        0x0 ./gen/../tecsrustUART/target/armv7a-none-eabi/release/libitron.a(core-d049573bc16596f9.core.5587a85061e7188a-cgu.0.rcgu.o)
                                          0x8 (size before relaxing)
 .ARM.exidx.text._ZN4core3net6parser91_$LT$impl$u20$core..str..traits..FromStr$u20$for$u20$core..net..socket_addr..SocketAddr$GT$8from_str17he89fdbe831fc4256E
                0x0000000000140ee8        0x0 ./gen/../tecsrustUART/target/armv7a-none-eabi/release/libitron.a(core-d049573bc16596f9.core.5587a85061e7188a-cgu.0.rcgu.o)
                                          0x8 (size before relaxing)
 .ARM.exidx.text._ZN72_$LT$core..net..parser..AddrParseError$u20$as$u20$core..fmt..Display$GT$3fmt17hd7f7df04664d2864E
                0x0000000000140ee8        0x0 ./gen/../tecsrustUART/target/armv7a-none-eabi/release/libitron.a(core-d049573bc16596f9.core.5587a85061e7188a-cgu.0.rcgu.o)
                                          0x8 (size before relaxing)
 .ARM.exidx.text._ZN73_$LT$core..net..socket_addr..SocketAddr$u20$as$u20$core..fmt..Display$GT$3fmt17hd0e981e04411525aE
                0x0000000000140ee8        0x0 ./gen/../tecsrustUART/target/armv7a-none-eabi/release/libitron.a(core-d049573bc16596f9.core.5587a85061e7188a-cgu.0.rcgu.o)
                                          0x8 (size before relaxing)
 .ARM.exidx.text._ZN71_$LT$core..net..socket_addr..SocketAddr$u20$as$u20$core..fmt..Debug$GT$3fmt17hd95cf7ae4353c951E
                0x0000000000140ee8        0x0 ./gen/../tecsrustUART/target/armv7a-none-eabi/release/libitron.a(core-d049573bc16596f9.core.5587a85061e7188a-cgu.0.rcgu.o)
                                          0x8 (size before relaxing)
 .ARM.exidx.text._ZN75_$LT$core..net..socket_addr..SocketAddrV4$u20$as$u20$core..fmt..Display$GT$3fmt17hb358e369cb8dcc74E
                0x0000000000140ee8        0x0 ./gen/../tecsrustUART/target/armv7a-none-eabi/release/libitron.a(core-d049573bc16596f9.core.5587a85061e7188a-cgu.0.rcgu.o)
                                          0x8 (size before relaxing)
 .ARM.exidx.text._ZN73_$LT$core..net..socket_addr..SocketAddrV4$u20$as$u20$core..fmt..Debug$GT$3fmt17h47d2c03dbc6abbf5E
                0x0000000000140ee8        0x0 ./gen/../tecsrustUART/target/armv7a-none-eabi/release/libitron.a(core-d049573bc16596f9.core.5587a85061e7188a-cgu.0.rcgu.o)
                                          0x8 (size before relaxing)
 .ARM.exidx.text._ZN75_$LT$core..net..socket_addr..SocketAddrV6$u20$as$u20$core..fmt..Display$GT$3fmt17hb242d5ced67c2003E
                0x0000000000140ee8        0x0 ./gen/../tecsrustUART/target/armv7a-none-eabi/release/libitron.a(core-d049573bc16596f9.core.5587a85061e7188a-cgu.0.rcgu.o)
                                          0x8 (size before relaxing)
 .ARM.exidx.text._ZN73_$LT$core..net..socket_addr..SocketAddrV6$u20$as$u20$core..fmt..Debug$GT$3fmt17h008793ff64f0e572E
                0x0000000000140ee8        0x0 ./gen/../tecsrustUART/target/armv7a-none-eabi/release/libitron.a(core-d049573bc16596f9.core.5587a85061e7188a-cgu.0.rcgu.o)
                                          0x8 (size before relaxing)
 .ARM.exidx.text.unlikely._ZN4core6option13unwrap_failed17h39a76a4d9e444e97E
                0x0000000000140ee8        0x0 ./gen/../tecsrustUART/target/armv7a-none-eabi/release/libitron.a(core-d049573bc16596f9.core.5587a85061e7188a-cgu.0.rcgu.o)
                                          0x8 (size before relaxing)
 .ARM.exidx.text.unlikely._ZN4core6option13expect_failed17hf032828b69e8f9cdE
                0x0000000000140ee8        0x0 ./gen/../tecsrustUART/target/armv7a-none-eabi/release/libitron.a(core-d049573bc16596f9.core.5587a85061e7188a-cgu.0.rcgu.o)
                                          0x8 (size before relaxing)
 .ARM.exidx.text._ZN73_$LT$core..panic..panic_info..PanicInfo$u20$as$u20$core..fmt..Display$GT$3fmt17he8ae0930573845dbE
                0x0000000000140ee8        0x0 ./gen/../tecsrustUART/target/armv7a-none-eabi/release/libitron.a(core-d049573bc16596f9.core.5587a85061e7188a-cgu.0.rcgu.o)
                                          0x8 (size before relaxing)
 .ARM.exidx.text.unlikely._ZN4core9panicking9panic_fmt17h5145975cf535bc42E
                0x0000000000140ee8        0x0 ./gen/../tecsrustUART/target/armv7a-none-eabi/release/libitron.a(core-d049573bc16596f9.core.5587a85061e7188a-cgu.0.rcgu.o)
                                          0x8 (size before relaxing)
 .ARM.exidx.text.unlikely._ZN4core9panicking18panic_nounwind_fmt17h7e174a309b689b0fE
                0x0000000000140ee8        0x0 ./gen/../tecsrustUART/target/armv7a-none-eabi/release/libitron.a(core-d049573bc16596f9.core.5587a85061e7188a-cgu.0.rcgu.o)
                                          0x8 (size before relaxing)
 .ARM.exidx.text.unlikely._ZN4core9panicking5panic17h04eb6169f90051c3E
                0x0000000000140ee8        0x0 ./gen/../tecsrustUART/target/armv7a-none-eabi/release/libitron.a(core-d049573bc16596f9.core.5587a85061e7188a-cgu.0.rcgu.o)
                                          0x8 (size before relaxing)
 .ARM.exidx.text.unlikely._ZN4core9panicking14panic_nounwind17hb8efc6a66a7c1fb5E
                0x0000000000140ee8        0x0 ./gen/../tecsrustUART/target/armv7a-none-eabi/release/libitron.a(core-d049573bc16596f9.core.5587a85061e7188a-cgu.0.rcgu.o)
                                          0x8 (size before relaxing)
 .ARM.exidx.text.unlikely._ZN4core9panicking26panic_nounwind_nobacktrace17hcf6b6f7ce89f1dabE
                0x0000000000140ee8        0x0 ./gen/../tecsrustUART/target/armv7a-none-eabi/release/libitron.a(core-d049573bc16596f9.core.5587a85061e7188a-cgu.0.rcgu.o)
                                          0x8 (size before relaxing)
 .ARM.exidx.text.unlikely._ZN4core9panicking14panic_explicit17he7bebe483a3bfe34E
                0x0000000000140ee8        0x0 ./gen/../tecsrustUART/target/armv7a-none-eabi/release/libitron.a(core-d049573bc16596f9.core.5587a85061e7188a-cgu.0.rcgu.o)
                                          0x8 (size before relaxing)
 .ARM.exidx.text.unlikely._ZN4core9panicking18panic_bounds_check17he2f51b500041724aE
                0x0000000000140ee8        0x0 ./gen/../tecsrustUART/target/armv7a-none-eabi/release/libitron.a(core-d049573bc16596f9.core.5587a85061e7188a-cgu.0.rcgu.o)
                                          0x8 (size before relaxing)
 .ARM.exidx.text.unlikely._ZN4core9panicking36panic_misaligned_pointer_dereference17hca8f56f08697e9a1E
                0x0000000000140ee8        0x0 ./gen/../tecsrustUART/target/armv7a-none-eabi/release/libitron.a(core-d049573bc16596f9.core.5587a85061e7188a-cgu.0.rcgu.o)
                                          0x8 (size before relaxing)
 .ARM.exidx.text.unlikely._ZN4core9panicking30panic_null_pointer_dereference17hd07e38dada2babd1E
                0x0000000000140ee8        0x0 ./gen/../tecsrustUART/target/armv7a-none-eabi/release/libitron.a(core-d049573bc16596f9.core.5587a85061e7188a-cgu.0.rcgu.o)
                                          0x8 (size before relaxing)
 .ARM.exidx.text.unlikely._ZN4core9panicking19panic_cannot_unwind17h88003aad7d959a86E
                0x0000000000140ee8        0x0 ./gen/../tecsrustUART/target/armv7a-none-eabi/release/libitron.a(core-d049573bc16596f9.core.5587a85061e7188a-cgu.0.rcgu.o)
                                          0x8 (size before relaxing)
 .ARM.exidx.text.unlikely._ZN4core9panicking16panic_in_cleanup17he6ef00938a5a6327E
                0x0000000000140ee8        0x0 ./gen/../tecsrustUART/target/armv7a-none-eabi/release/libitron.a(core-d049573bc16596f9.core.5587a85061e7188a-cgu.0.rcgu.o)
                                          0x8 (size before relaxing)
 .ARM.exidx.text.unlikely._ZN4core9panicking15const_panic_fmt17h6a5d3cae6d10461cE
                0x0000000000140ee8        0x0 ./gen/../tecsrustUART/target/armv7a-none-eabi/release/libitron.a(core-d049573bc16596f9.core.5587a85061e7188a-cgu.0.rcgu.o)
                                          0x8 (size before relaxing)
 .ARM.exidx.text.unlikely._ZN4core9panicking13assert_failed17h2f1d8849fc674a9bE
                0x0000000000140ee8        0x0 ./gen/../tecsrustUART/target/armv7a-none-eabi/release/libitron.a(core-d049573bc16596f9.core.5587a85061e7188a-cgu.0.rcgu.o)
                                          0x8 (size before relaxing)
 .ARM.exidx.text.unlikely._ZN4core9panicking13assert_failed17h8a42116d81ae2397E
                0x0000000000140ee8        0x0 ./gen/../tecsrustUART/target/armv7a-none-eabi/release/libitron.a(core-d049573bc16596f9.core.5587a85061e7188a-cgu.0.rcgu.o)
                                          0x8 (size before relaxing)
 .ARM.exidx.text._ZN84_$LT$core..panicking..assert_matches_failed..Pattern$u20$as$u20$core..fmt..Debug$GT$3fmt17h3bf79b8a4bc8fc51E
                0x0000000000140ee8        0x0 ./gen/../tecsrustUART/target/armv7a-none-eabi/release/libitron.a(core-d049573bc16596f9.core.5587a85061e7188a-cgu.0.rcgu.o)
                                          0x8 (size before relaxing)
 .ARM.exidx.text.unlikely._ZN4core9panicking19assert_failed_inner17h1f0479933a2bc628E
                0x0000000000140ee8        0x0 ./gen/../tecsrustUART/target/armv7a-none-eabi/release/libitron.a(core-d049573bc16596f9.core.5587a85061e7188a-cgu.0.rcgu.o)
                                          0x8 (size before relaxing)
 .ARM.exidx.text._ZN48_$LT$char$u20$as$u20$core..pat..RangePattern$GT$7sub_one17hc1333cb071cfc1b6E
                0x0000000000140ee8        0x0 ./gen/../tecsrustUART/target/armv7a-none-eabi/release/libitron.a(core-d049573bc16596f9.core.5587a85061e7188a-cgu.0.rcgu.o)
                                          0x8 (size before relaxing)
 .ARM.exidx.text.unlikely._ZN4core6result13unwrap_failed17h238a41f9432ebe61E
                0x0000000000140ee8        0x0 ./gen/../tecsrustUART/target/armv7a-none-eabi/release/libitron.a(core-d049573bc16596f9.core.5587a85061e7188a-cgu.0.rcgu.o)
                                          0x8 (size before relaxing)
 .ARM.exidx.text._ZN67_$LT$core..sync..atomic..AtomicBool$u20$as$u20$core..fmt..Debug$GT$3fmt17h36e87f0defe65ad8E
                0x0000000000140ee8        0x0 ./gen/../tecsrustUART/target/armv7a-none-eabi/release/libitron.a(core-d049573bc16596f9.core.5587a85061e7188a-cgu.0.rcgu.o)
                                          0x8 (size before relaxing)
 .ARM.exidx.text._ZN4core3fmt8builders10PadAdapter4wrap17h8cec362b75ec2f49E
                0x0000000000140ee8        0x0 ./gen/../tecsrustUART/target/armv7a-none-eabi/release/libitron.a(core-d049573bc16596f9.core.5587a85061e7188a-cgu.0.rcgu.o)
                                          0x8 (size before relaxing)
 .ARM.exidx.text._ZN68_$LT$core..fmt..builders..PadAdapter$u20$as$u20$core..fmt..Write$GT$9write_str17hc81ad4e78c0c990cE
                0x0000000000140ee8        0x0 ./gen/../tecsrustUART/target/armv7a-none-eabi/release/libitron.a(core-d049573bc16596f9.core.5587a85061e7188a-cgu.0.rcgu.o)
                                          0x8 (size before relaxing)
 .ARM.exidx.text._ZN68_$LT$core..fmt..builders..PadAdapter$u20$as$u20$core..fmt..Write$GT$10write_char17h121f3a024053ccfbE
                0x0000000000140ee8        0x0 ./gen/../tecsrustUART/target/armv7a-none-eabi/release/libitron.a(core-d049573bc16596f9.core.5587a85061e7188a-cgu.0.rcgu.o)
                                          0x8 (size before relaxing)
 .ARM.exidx.text._ZN4core3fmt8builders11DebugStruct5field17h118827344b19fbe7E
                0x0000000000140ee8        0x0 ./gen/../tecsrustUART/target/armv7a-none-eabi/release/libitron.a(core-d049573bc16596f9.core.5587a85061e7188a-cgu.0.rcgu.o)
                                          0x8 (size before relaxing)
 .ARM.exidx.text._ZN4core3fmt8builders11DebugStruct21finish_non_exhaustive17ha59f74934d70120cE
                0x0000000000140ee8        0x0 ./gen/../tecsrustUART/target/armv7a-none-eabi/release/libitron.a(core-d049573bc16596f9.core.5587a85061e7188a-cgu.0.rcgu.o)
                                          0x8 (size before relaxing)
 .ARM.exidx.text._ZN4core3fmt8builders11DebugStruct6finish17h62dcffc385683e70E
                0x0000000000140ee8        0x0 ./gen/../tecsrustUART/target/armv7a-none-eabi/release/libitron.a(core-d049573bc16596f9.core.5587a85061e7188a-cgu.0.rcgu.o)
                                          0x8 (size before relaxing)
 .ARM.exidx.text._ZN4core3fmt8builders10DebugTuple5field17hd25f2ea26ee9220fE
                0x0000000000140ee8        0x0 ./gen/../tecsrustUART/target/armv7a-none-eabi/release/libitron.a(core-d049573bc16596f9.core.5587a85061e7188a-cgu.0.rcgu.o)
                                          0x8 (size before relaxing)
 .ARM.exidx.text._ZN4core3fmt8builders10DebugTuple21finish_non_exhaustive17hbea2c5cc6d18b83cE
                0x0000000000140ee8        0x0 ./gen/../tecsrustUART/target/armv7a-none-eabi/release/libitron.a(core-d049573bc16596f9.core.5587a85061e7188a-cgu.0.rcgu.o)
                                          0x8 (size before relaxing)
 .ARM.exidx.text._ZN4core3fmt8builders10DebugTuple6finish17h75fa298d273b9537E
                0x0000000000140ee8        0x0 ./gen/../tecsrustUART/target/armv7a-none-eabi/release/libitron.a(core-d049573bc16596f9.core.5587a85061e7188a-cgu.0.rcgu.o)
                                          0x8 (size before relaxing)
 .ARM.exidx.text._ZN4core3fmt8builders8DebugSet5entry17h6f9f49712cdf1c8aE
                0x0000000000140ee8        0x0 ./gen/../tecsrustUART/target/armv7a-none-eabi/release/libitron.a(core-d049573bc16596f9.core.5587a85061e7188a-cgu.0.rcgu.o)
                                          0x8 (size before relaxing)
 .ARM.exidx.text._ZN4core3fmt8builders8DebugSet21finish_non_exhaustive17h056b5628e91579d3E
                0x0000000000140ee8        0x0 ./gen/../tecsrustUART/target/armv7a-none-eabi/release/libitron.a(core-d049573bc16596f9.core.5587a85061e7188a-cgu.0.rcgu.o)
                                          0x8 (size before relaxing)
 .ARM.exidx.text._ZN4core3fmt8builders8DebugSet6finish17hb775269289642050E
                0x0000000000140ee8        0x0 ./gen/../tecsrustUART/target/armv7a-none-eabi/release/libitron.a(core-d049573bc16596f9.core.5587a85061e7188a-cgu.0.rcgu.o)
                                          0x8 (size before relaxing)
 .ARM.exidx.text._ZN4core3fmt8builders9DebugList21finish_non_exhaustive17h0964252c95243519E
                0x0000000000140ee8        0x0 ./gen/../tecsrustUART/target/armv7a-none-eabi/release/libitron.a(core-d049573bc16596f9.core.5587a85061e7188a-cgu.0.rcgu.o)
                                          0x8 (size before relaxing)
 .ARM.exidx.text._ZN4core3fmt8builders9DebugList6finish17h95901bb8c72ebeaaE
                0x0000000000140ee8        0x0 ./gen/../tecsrustUART/target/armv7a-none-eabi/release/libitron.a(core-d049573bc16596f9.core.5587a85061e7188a-cgu.0.rcgu.o)
                                          0x8 (size before relaxing)
 .ARM.exidx.text._ZN4core3fmt8builders8DebugMap5entry17hb5fe3985090a797eE
                0x0000000000140ee8        0x0 ./gen/../tecsrustUART/target/armv7a-none-eabi/release/libitron.a(core-d049573bc16596f9.core.5587a85061e7188a-cgu.0.rcgu.o)
                                          0x8 (size before relaxing)
 .ARM.exidx.text._ZN4core3fmt8builders8DebugMap3key17he972b5db7c272a06E
                0x0000000000140ee8        0x0 ./gen/../tecsrustUART/target/armv7a-none-eabi/release/libitron.a(core-d049573bc16596f9.core.5587a85061e7188a-cgu.0.rcgu.o)
                                          0x8 (size before relaxing)
 .ARM.exidx.text._ZN4core3fmt8builders8DebugMap5value17hc3fc83e3ff16426eE
                0x0000000000140ee8        0x0 ./gen/../tecsrustUART/target/armv7a-none-eabi/release/libitron.a(core-d049573bc16596f9.core.5587a85061e7188a-cgu.0.rcgu.o)
                                          0x8 (size before relaxing)
 .ARM.exidx.text._ZN4core3fmt8builders8DebugMap21finish_non_exhaustive17h1d063c8fc17c4fa1E
                0x0000000000140ee8        0x0 ./gen/../tecsrustUART/target/armv7a-none-eabi/release/libitron.a(core-d049573bc16596f9.core.5587a85061e7188a-cgu.0.rcgu.o)
                                          0x8 (size before relaxing)
 .ARM.exidx.text._ZN4core3fmt8builders8DebugMap6finish17h87c976a15d36c1beE
                0x0000000000140ee8        0x0 ./gen/../tecsrustUART/target/armv7a-none-eabi/release/libitron.a(core-d049573bc16596f9.core.5587a85061e7188a-cgu.0.rcgu.o)
                                          0x8 (size before relaxing)
 .ARM.exidx.text._ZN4core3fmt5float29float_to_decimal_common_exact17h7d85dbe2887defb2E
                0x0000000000140ee8        0x0 ./gen/../tecsrustUART/target/armv7a-none-eabi/release/libitron.a(core-d049573bc16596f9.core.5587a85061e7188a-cgu.0.rcgu.o)
                                          0x8 (size before relaxing)
 .ARM.exidx.text._ZN4core3fmt5float29float_to_decimal_common_exact17hb8ecc3a298064d1fE
                0x0000000000140ee8        0x0 ./gen/../tecsrustUART/target/armv7a-none-eabi/release/libitron.a(core-d049573bc16596f9.core.5587a85061e7188a-cgu.0.rcgu.o)
                                          0x8 (size before relaxing)
 .ARM.exidx.text._ZN4core3fmt5float29float_to_decimal_common_exact17hc4ee8b5197ebb838E
                0x0000000000140ee8        0x0 ./gen/../tecsrustUART/target/armv7a-none-eabi/release/libitron.a(core-d049573bc16596f9.core.5587a85061e7188a-cgu.0.rcgu.o)
                                          0x8 (size before relaxing)
 .ARM.exidx.text._ZN4core3fmt5float32float_to_decimal_common_shortest17h57f1a97492206944E
                0x0000000000140ee8        0x0 ./gen/../tecsrustUART/target/armv7a-none-eabi/release/libitron.a(core-d049573bc16596f9.core.5587a85061e7188a-cgu.0.rcgu.o)
                                          0x8 (size before relaxing)
 .ARM.exidx.text._ZN4core3fmt5float32float_to_decimal_common_shortest17hd1530ac16dbab458E
                0x0000000000140ee8        0x0 ./gen/../tecsrustUART/target/armv7a-none-eabi/release/libitron.a(core-d049573bc16596f9.core.5587a85061e7188a-cgu.0.rcgu.o)
                                          0x8 (size before relaxing)
 .ARM.exidx.text._ZN4core3fmt5float32float_to_decimal_common_shortest17hf774af481b6739e1E
                0x0000000000140ee8        0x0 ./gen/../tecsrustUART/target/armv7a-none-eabi/release/libitron.a(core-d049573bc16596f9.core.5587a85061e7188a-cgu.0.rcgu.o)
                                          0x8 (size before relaxing)
 .ARM.exidx.text._ZN4core3fmt5float33float_to_exponential_common_exact17h475946fbe25c96b4E
                0x0000000000140ee8        0x0 ./gen/../tecsrustUART/target/armv7a-none-eabi/release/libitron.a(core-d049573bc16596f9.core.5587a85061e7188a-cgu.0.rcgu.o)
                                          0x8 (size before relaxing)
 .ARM.exidx.text._ZN4core3fmt5float33float_to_exponential_common_exact17h58c854a839c522b9E
                0x0000000000140ee8        0x0 ./gen/../tecsrustUART/target/armv7a-none-eabi/release/libitron.a(core-d049573bc16596f9.core.5587a85061e7188a-cgu.0.rcgu.o)
                                          0x8 (size before relaxing)
 .ARM.exidx.text._ZN4core3fmt5float33float_to_exponential_common_exact17hf8c347a31f005498E
                0x0000000000140ee8        0x0 ./gen/../tecsrustUART/target/armv7a-none-eabi/release/libitron.a(core-d049573bc16596f9.core.5587a85061e7188a-cgu.0.rcgu.o)
                                          0x8 (size before relaxing)
 .ARM.exidx.text._ZN4core3fmt5float36float_to_exponential_common_shortest17h110c73098256b07dE
                0x0000000000140ee8        0x0 ./gen/../tecsrustUART/target/armv7a-none-eabi/release/libitron.a(core-d049573bc16596f9.core.5587a85061e7188a-cgu.0.rcgu.o)
                                          0x8 (size before relaxing)
 .ARM.exidx.text._ZN4core3fmt5float36float_to_exponential_common_shortest17hc2048c8ca710d24cE
                0x0000000000140ee8        0x0 ./gen/../tecsrustUART/target/armv7a-none-eabi/release/libitron.a(core-d049573bc16596f9.core.5587a85061e7188a-cgu.0.rcgu.o)
                                          0x8 (size before relaxing)
 .ARM.exidx.text._ZN4core3fmt5float36float_to_exponential_common_shortest17hded788cc3690643fE
                0x0000000000140ee8        0x0 ./gen/../tecsrustUART/target/armv7a-none-eabi/release/libitron.a(core-d049573bc16596f9.core.5587a85061e7188a-cgu.0.rcgu.o)
                                          0x8 (size before relaxing)
 .ARM.exidx.text._ZN4core3fmt3num14parse_u64_into17hdae6f27d721cd177E
                0x0000000000140ee8        0x0 ./gen/../tecsrustUART/target/armv7a-none-eabi/release/libitron.a(core-d049573bc16596f9.core.5587a85061e7188a-cgu.0.rcgu.o)
                                          0x8 (size before relaxing)
 .ARM.exidx.text._ZN4core3fmt3num53_$LT$impl$u20$core..fmt..Display$u20$for$u20$u128$GT$3fmt17he162d142fdfbe23dE
                0x0000000000140ee8        0x0 ./gen/../tecsrustUART/target/armv7a-none-eabi/release/libitron.a(core-d049573bc16596f9.core.5587a85061e7188a-cgu.0.rcgu.o)
                                          0x8 (size before relaxing)
 .ARM.exidx.text._ZN4core3fmt3num53_$LT$impl$u20$core..fmt..Display$u20$for$u20$i128$GT$3fmt17h41041c0cb7d944acE
                0x0000000000140ee8        0x0 ./gen/../tecsrustUART/target/armv7a-none-eabi/release/libitron.a(core-d049573bc16596f9.core.5587a85061e7188a-cgu.0.rcgu.o)
                                          0x8 (size before relaxing)
 .ARM.exidx.text._ZN4core3fmt3num8fmt_u12817h3ce49e52aad09f7aE
                0x0000000000140ee8        0x0 ./gen/../tecsrustUART/target/armv7a-none-eabi/release/libitron.a(core-d049573bc16596f9.core.5587a85061e7188a-cgu.0.rcgu.o)
                                          0x8 (size before relaxing)
 .ARM.exidx.text._ZN4core3fmt5Write10write_char17h0deb656a130510dcE
                0x0000000000140ee8        0x0 ./gen/../tecsrustUART/target/armv7a-none-eabi/release/libitron.a(core-d049573bc16596f9.core.5587a85061e7188a-cgu.0.rcgu.o)
                                          0x8 (size before relaxing)
 .ARM.exidx.text._ZN4core3fmt5Write10write_char17h121006013e2c64bdE
                0x0000000000140ee8        0x0 ./gen/../tecsrustUART/target/armv7a-none-eabi/release/libitron.a(core-d049573bc16596f9.core.5587a85061e7188a-cgu.0.rcgu.o)
                                          0x8 (size before relaxing)
 .ARM.exidx.text._ZN4core3fmt5Write10write_char17h20c6982f67c5a14cE
                0x0000000000140ee8        0x0 ./gen/../tecsrustUART/target/armv7a-none-eabi/release/libitron.a(core-d049573bc16596f9.core.5587a85061e7188a-cgu.0.rcgu.o)
                                          0x8 (size before relaxing)
 .ARM.exidx.text._ZN4core3fmt5Write10write_char17h884d76389de57237E
                0x0000000000140ee8        0x0 ./gen/../tecsrustUART/target/armv7a-none-eabi/release/libitron.a(core-d049573bc16596f9.core.5587a85061e7188a-cgu.0.rcgu.o)
                                          0x8 (size before relaxing)
 .ARM.exidx.text._ZN4core3fmt5Write9write_fmt17h07c1169efed3c695E
                0x0000000000140ee8        0x0 ./gen/../tecsrustUART/target/armv7a-none-eabi/release/libitron.a(core-d049573bc16596f9.core.5587a85061e7188a-cgu.0.rcgu.o)
                                          0x8 (size before relaxing)
 .ARM.exidx.text._ZN4core3fmt5Write9write_fmt17h32196b9e35a8bbc2E
                0x0000000000140ee8        0x0 ./gen/../tecsrustUART/target/armv7a-none-eabi/release/libitron.a(core-d049573bc16596f9.core.5587a85061e7188a-cgu.0.rcgu.o)
                                          0x8 (size before relaxing)
 .ARM.exidx.text._ZN4core3fmt5Write9write_fmt17h8420373094f7f4f3E
                0x0000000000140ee8        0x0 ./gen/../tecsrustUART/target/armv7a-none-eabi/release/libitron.a(core-d049573bc16596f9.core.5587a85061e7188a-cgu.0.rcgu.o)
                                          0x8 (size before relaxing)
 .ARM.exidx.text._ZN4core3fmt5Write9write_fmt17ha93132b80607745fE
                0x0000000000140ee8        0x0 ./gen/../tecsrustUART/target/armv7a-none-eabi/release/libitron.a(core-d049573bc16596f9.core.5587a85061e7188a-cgu.0.rcgu.o)
                                          0x8 (size before relaxing)
 .ARM.exidx.text._ZN4core3fmt5Write9write_fmt17he315d962ad1b87f3E
                0x0000000000140ee8        0x0 ./gen/../tecsrustUART/target/armv7a-none-eabi/release/libitron.a(core-d049573bc16596f9.core.5587a85061e7188a-cgu.0.rcgu.o)
                                          0x8 (size before relaxing)
 .ARM.exidx.text._ZN4core3fmt17FormattingOptions8get_fill17ha364eba16e39e9f9E
                0x0000000000140ee8        0x0 ./gen/../tecsrustUART/target/armv7a-none-eabi/release/libitron.a(core-d049573bc16596f9.core.5587a85061e7188a-cgu.0.rcgu.o)
                                          0x8 (size before relaxing)
 .ARM.exidx.text._ZN57_$LT$core..fmt..Arguments$u20$as$u20$core..fmt..Debug$GT$3fmt17hecd0089d3e424aecE
                0x0000000000140ee8        0x0 ./gen/../tecsrustUART/target/armv7a-none-eabi/release/libitron.a(core-d049573bc16596f9.core.5587a85061e7188a-cgu.0.rcgu.o)
                                          0x8 (size before relaxing)
 .ARM.exidx.text._ZN59_$LT$core..fmt..Arguments$u20$as$u20$core..fmt..Display$GT$3fmt17hcd13995007f793f4E
                0x0000000000140ee8        0x0 ./gen/../tecsrustUART/target/armv7a-none-eabi/release/libitron.a(core-d049573bc16596f9.core.5587a85061e7188a-cgu.0.rcgu.o)
                                          0x8 (size before relaxing)
 .ARM.exidx.text._ZN4core3fmt5write17hb714253c1b9e952cE
                0x0000000000140ee8        0x0 ./gen/../tecsrustUART/target/armv7a-none-eabi/release/libitron.a(core-d049573bc16596f9.core.5587a85061e7188a-cgu.0.rcgu.o)
                                          0x8 (size before relaxing)
 .ARM.exidx.text._ZN4core3fmt9Formatter12pad_integral17hec47f37da301c049E
                0x0000000000140ee8        0x0 ./gen/../tecsrustUART/target/armv7a-none-eabi/release/libitron.a(core-d049573bc16596f9.core.5587a85061e7188a-cgu.0.rcgu.o)
                                          0x8 (size before relaxing)
 .ARM.exidx.text._ZN4core3fmt9Formatter12pad_integral12write_prefix17hc4c0a7a0c94985adE
                0x0000000000140ee8        0x0 ./gen/../tecsrustUART/target/armv7a-none-eabi/release/libitron.a(core-d049573bc16596f9.core.5587a85061e7188a-cgu.0.rcgu.o)
                                          0x8 (size before relaxing)
 .ARM.exidx.text._ZN4core3fmt9Formatter3pad17h8e247c0c6f258b85E
                0x0000000000140ee8        0x0 ./gen/../tecsrustUART/target/armv7a-none-eabi/release/libitron.a(core-d049573bc16596f9.core.5587a85061e7188a-cgu.0.rcgu.o)
                                          0x8 (size before relaxing)
 .ARM.exidx.text._ZN4core3fmt9Formatter19pad_formatted_parts17ha476f236f4259153E
                0x0000000000140ee8        0x0 ./gen/../tecsrustUART/target/armv7a-none-eabi/release/libitron.a(core-d049573bc16596f9.core.5587a85061e7188a-cgu.0.rcgu.o)
                                          0x8 (size before relaxing)
 .ARM.exidx.text._ZN4core3fmt9Formatter21write_formatted_parts17h76662c6af77af83aE
                0x0000000000140ee8        0x0 ./gen/../tecsrustUART/target/armv7a-none-eabi/release/libitron.a(core-d049573bc16596f9.core.5587a85061e7188a-cgu.0.rcgu.o)
                                          0x8 (size before relaxing)
 .ARM.exidx.text._ZN4core3fmt9Formatter9write_str17hdfb7ca2c4bb7964eE
                0x0000000000140ee8        0x0 ./gen/../tecsrustUART/target/armv7a-none-eabi/release/libitron.a(core-d049573bc16596f9.core.5587a85061e7188a-cgu.0.rcgu.o)
                                          0x8 (size before relaxing)
 .ARM.exidx.text._ZN4core3fmt9Formatter4fill17hffaa17a0e6fadb77E
                0x0000000000140ee8        0x0 ./gen/../tecsrustUART/target/armv7a-none-eabi/release/libitron.a(core-d049573bc16596f9.core.5587a85061e7188a-cgu.0.rcgu.o)
                                          0x8 (size before relaxing)
 .ARM.exidx.text._ZN4core3fmt9Formatter12debug_struct17he204134461ecf684E
                0x0000000000140ee8        0x0 ./gen/../tecsrustUART/target/armv7a-none-eabi/release/libitron.a(core-d049573bc16596f9.core.5587a85061e7188a-cgu.0.rcgu.o)
                                          0x8 (size before relaxing)
 .ARM.exidx.text._ZN4core3fmt9Formatter26debug_struct_field1_finish17hfc5577f397af5417E
                0x0000000000140ee8        0x0 ./gen/../tecsrustUART/target/armv7a-none-eabi/release/libitron.a(core-d049573bc16596f9.core.5587a85061e7188a-cgu.0.rcgu.o)
                                          0x8 (size before relaxing)
 .ARM.exidx.text._ZN4core3fmt9Formatter26debug_struct_field2_finish17h250937b50b7d91dbE
                0x0000000000140ee8        0x0 ./gen/../tecsrustUART/target/armv7a-none-eabi/release/libitron.a(core-d049573bc16596f9.core.5587a85061e7188a-cgu.0.rcgu.o)
                                          0x8 (size before relaxing)
 .ARM.exidx.text._ZN4core3fmt9Formatter26debug_struct_field3_finish17h2e39e36ff7dea516E
                0x0000000000140ee8        0x0 ./gen/../tecsrustUART/target/armv7a-none-eabi/release/libitron.a(core-d049573bc16596f9.core.5587a85061e7188a-cgu.0.rcgu.o)
                                          0x8 (size before relaxing)
 .ARM.exidx.text._ZN4core3fmt9Formatter26debug_struct_field4_finish17hd85fc51ea53a6480E
                0x0000000000140ee8        0x0 ./gen/../tecsrustUART/target/armv7a-none-eabi/release/libitron.a(core-d049573bc16596f9.core.5587a85061e7188a-cgu.0.rcgu.o)
                                          0x8 (size before relaxing)
 .ARM.exidx.text._ZN4core3fmt9Formatter26debug_struct_field5_finish17haacbff9cf3eec5ccE
                0x0000000000140ee8        0x0 ./gen/../tecsrustUART/target/armv7a-none-eabi/release/libitron.a(core-d049573bc16596f9.core.5587a85061e7188a-cgu.0.rcgu.o)
                                          0x8 (size before relaxing)
 .ARM.exidx.text._ZN4core3fmt9Formatter26debug_struct_fields_finish17hbc4a9600e0d1f479E
                0x0000000000140ee8        0x0 ./gen/../tecsrustUART/target/armv7a-none-eabi/release/libitron.a(core-d049573bc16596f9.core.5587a85061e7188a-cgu.0.rcgu.o)
                                          0x8 (size before relaxing)
 .ARM.exidx.text._ZN4core3fmt9Formatter11debug_tuple17h940ad0dd22d147c8E
                0x0000000000140ee8        0x0 ./gen/../tecsrustUART/target/armv7a-none-eabi/release/libitron.a(core-d049573bc16596f9.core.5587a85061e7188a-cgu.0.rcgu.o)
                                          0x8 (size before relaxing)
 .ARM.exidx.text._ZN4core3fmt9Formatter25debug_tuple_field1_finish17h3462a89b33c73d6eE
                0x0000000000140ee8        0x0 ./gen/../tecsrustUART/target/armv7a-none-eabi/release/libitron.a(core-d049573bc16596f9.core.5587a85061e7188a-cgu.0.rcgu.o)
                                          0x8 (size before relaxing)
 .ARM.exidx.text._ZN4core3fmt9Formatter25debug_tuple_field2_finish17hc4dc9b596154de93E
                0x0000000000140ee8        0x0 ./gen/../tecsrustUART/target/armv7a-none-eabi/release/libitron.a(core-d049573bc16596f9.core.5587a85061e7188a-cgu.0.rcgu.o)
                                          0x8 (size before relaxing)
 .ARM.exidx.text._ZN4core3fmt9Formatter25debug_tuple_field3_finish17h164749d4d77ab572E
                0x0000000000140ee8        0x0 ./gen/../tecsrustUART/target/armv7a-none-eabi/release/libitron.a(core-d049573bc16596f9.core.5587a85061e7188a-cgu.0.rcgu.o)
                                          0x8 (size before relaxing)
 .ARM.exidx.text._ZN4core3fmt9Formatter25debug_tuple_field4_finish17h87085ebfbf56e53eE
                0x0000000000140ee8        0x0 ./gen/../tecsrustUART/target/armv7a-none-eabi/release/libitron.a(core-d049573bc16596f9.core.5587a85061e7188a-cgu.0.rcgu.o)
                                          0x8 (size before relaxing)
 .ARM.exidx.text._ZN4core3fmt9Formatter25debug_tuple_field5_finish17he4dec699aac9d2a9E
                0x0000000000140ee8        0x0 ./gen/../tecsrustUART/target/armv7a-none-eabi/release/libitron.a(core-d049573bc16596f9.core.5587a85061e7188a-cgu.0.rcgu.o)
                                          0x8 (size before relaxing)
 .ARM.exidx.text._ZN4core3fmt9Formatter25debug_tuple_fields_finish17hb3065dfeca0f69b2E
                0x0000000000140ee8        0x0 ./gen/../tecsrustUART/target/armv7a-none-eabi/release/libitron.a(core-d049573bc16596f9.core.5587a85061e7188a-cgu.0.rcgu.o)
                                          0x8 (size before relaxing)
 .ARM.exidx.text._ZN4core3fmt9Formatter10debug_list17h324a4227e38e4e1cE
                0x0000000000140ee8        0x0 ./gen/../tecsrustUART/target/armv7a-none-eabi/release/libitron.a(core-d049573bc16596f9.core.5587a85061e7188a-cgu.0.rcgu.o)
                                          0x8 (size before relaxing)
 .ARM.exidx.text._ZN4core3fmt9Formatter9debug_set17h8342974783863c44E
                0x0000000000140ee8        0x0 ./gen/../tecsrustUART/target/armv7a-none-eabi/release/libitron.a(core-d049573bc16596f9.core.5587a85061e7188a-cgu.0.rcgu.o)
                                          0x8 (size before relaxing)
 .ARM.exidx.text._ZN4core3fmt9Formatter9debug_map17hd46370b77cf960edE
                0x0000000000140ee8        0x0 ./gen/../tecsrustUART/target/armv7a-none-eabi/release/libitron.a(core-d049573bc16596f9.core.5587a85061e7188a-cgu.0.rcgu.o)
                                          0x8 (size before relaxing)
 .ARM.exidx.text._ZN57_$LT$core..fmt..Formatter$u20$as$u20$core..fmt..Write$GT$10write_char17ha022f916fb525171E
                0x0000000000140ee8        0x0 ./gen/../tecsrustUART/target/armv7a-none-eabi/release/libitron.a(core-d049573bc16596f9.core.5587a85061e7188a-cgu.0.rcgu.o)
                                          0x8 (size before relaxing)
 .ARM.exidx.text._ZN55_$LT$core..fmt..Error$u20$as$u20$core..fmt..Display$GT$3fmt17h603b7f267edd160dE
                0x0000000000140ee8        0x0 ./gen/../tecsrustUART/target/armv7a-none-eabi/release/libitron.a(core-d049573bc16596f9.core.5587a85061e7188a-cgu.0.rcgu.o)
                                          0x8 (size before relaxing)
 .ARM.exidx.text._ZN43_$LT$bool$u20$as$u20$core..fmt..Display$GT$3fmt17h37b2e11049775da3E
                0x0000000000140ee8        0x0 ./gen/../tecsrustUART/target/armv7a-none-eabi/release/libitron.a(core-d049573bc16596f9.core.5587a85061e7188a-cgu.0.rcgu.o)
                                          0x8 (size before relaxing)
 .ARM.exidx.text._ZN40_$LT$str$u20$as$u20$core..fmt..Debug$GT$3fmt17hbfa9400b4ed4d146E
                0x0000000000140ee8        0x0 ./gen/../tecsrustUART/target/armv7a-none-eabi/release/libitron.a(core-d049573bc16596f9.core.5587a85061e7188a-cgu.0.rcgu.o)
                                          0x8 (size before relaxing)
 .ARM.exidx.text._ZN42_$LT$str$u20$as$u20$core..fmt..Display$GT$3fmt17h1a2739d2b1badf3eE
                0x0000000000140ee8        0x0 ./gen/../tecsrustUART/target/armv7a-none-eabi/release/libitron.a(core-d049573bc16596f9.core.5587a85061e7188a-cgu.0.rcgu.o)
                                          0x8 (size before relaxing)
 .ARM.exidx.text._ZN41_$LT$char$u20$as$u20$core..fmt..Debug$GT$3fmt17hf8537c7d284af8e9E
                0x0000000000140ee8        0x0 ./gen/../tecsrustUART/target/armv7a-none-eabi/release/libitron.a(core-d049573bc16596f9.core.5587a85061e7188a-cgu.0.rcgu.o)
                                          0x8 (size before relaxing)
 .ARM.exidx.text._ZN43_$LT$char$u20$as$u20$core..fmt..Display$GT$3fmt17h759ac83f19cee971E
                0x0000000000140ee8        0x0 ./gen/../tecsrustUART/target/armv7a-none-eabi/release/libitron.a(core-d049573bc16596f9.core.5587a85061e7188a-cgu.0.rcgu.o)
                                          0x8 (size before relaxing)
 .ARM.exidx.text._ZN4core3fmt17pointer_fmt_inner17h83d31351164c23f2E
                0x0000000000140ee8        0x0 ./gen/../tecsrustUART/target/armv7a-none-eabi/release/libitron.a(core-d049573bc16596f9.core.5587a85061e7188a-cgu.0.rcgu.o)
                                          0x8 (size before relaxing)
 .ARM.exidx.text._ZN52_$LT$$BP$const$u20$T$u20$as$u20$core..fmt..Debug$GT$3fmt17h52f0d6dcd4868dc8E
                0x0000000000140ee8        0x0 ./gen/../tecsrustUART/target/armv7a-none-eabi/release/libitron.a(core-d049573bc16596f9.core.5587a85061e7188a-cgu.0.rcgu.o)
                                          0x8 (size before relaxing)
 .ARM.exidx.text._ZN4core5slice6memchr14memchr_aligned17hf608187b782eb764E
                0x0000000000140ee8        0x0 ./gen/../tecsrustUART/target/armv7a-none-eabi/release/libitron.a(core-d049573bc16596f9.core.5587a85061e7188a-cgu.0.rcgu.o)
                                          0x8 (size before relaxing)
 .ARM.exidx.text._ZN4core5slice6memchr7memrchr17h1b5e6bee0cdc7e3cE
                0x0000000000140ee8        0x0 ./gen/../tecsrustUART/target/armv7a-none-eabi/release/libitron.a(core-d049573bc16596f9.core.5587a85061e7188a-cgu.0.rcgu.o)
                                          0x8 (size before relaxing)
 .ARM.exidx.text._ZN4core5slice4sort6stable5drift11sqrt_approx17heb7d8e344c813c3bE
                0x0000000000140ee8        0x0 ./gen/../tecsrustUART/target/armv7a-none-eabi/release/libitron.a(core-d049573bc16596f9.core.5587a85061e7188a-cgu.0.rcgu.o)
                                          0x8 (size before relaxing)
 .ARM.exidx.text.unlikely._ZN4core5slice4sort6shared9smallsort22panic_on_ord_violation17h26f42ac12335c738E
                0x0000000000140ee8        0x0 ./gen/../tecsrustUART/target/armv7a-none-eabi/release/libitron.a(core-d049573bc16596f9.core.5587a85061e7188a-cgu.0.rcgu.o)
                                          0x8 (size before relaxing)
 .ARM.exidx.text._ZN105_$LT$core..slice..ascii..EscapeAscii$u20$as$u20$core..iter..traits..double_ended..DoubleEndedIterator$GT$9next_back17h58b0f7ecc71c56abE
                0x0000000000140ee8        0x0 ./gen/../tecsrustUART/target/armv7a-none-eabi/release/libitron.a(core-d049573bc16596f9.core.5587a85061e7188a-cgu.0.rcgu.o)
                                          0x8 (size before relaxing)
 .ARM.exidx.text._ZN70_$LT$core..slice..ascii..EscapeAscii$u20$as$u20$core..fmt..Display$GT$3fmt17h29e51c0221cfc6f4E
                0x0000000000140ee8        0x0 ./gen/../tecsrustUART/target/armv7a-none-eabi/release/libitron.a(core-d049573bc16596f9.core.5587a85061e7188a-cgu.0.rcgu.o)
                                          0x8 (size before relaxing)
 .ARM.exidx.text._ZN68_$LT$core..slice..ascii..EscapeAscii$u20$as$u20$core..fmt..Debug$GT$3fmt17hbb33b900076cece0E
                0x0000000000140ee8        0x0 ./gen/../tecsrustUART/target/armv7a-none-eabi/release/libitron.a(core-d049573bc16596f9.core.5587a85061e7188a-cgu.0.rcgu.o)
                                          0x8 (size before relaxing)
 .ARM.exidx.text.unlikely._ZN4core5slice5index26slice_start_index_len_fail17h38c824b450734dfcE
                0x0000000000140ee8        0x0 ./gen/../tecsrustUART/target/armv7a-none-eabi/release/libitron.a(core-d049573bc16596f9.core.5587a85061e7188a-cgu.0.rcgu.o)
                                          0x8 (size before relaxing)
 .ARM.exidx.text.unlikely._ZN4core5slice5index24slice_end_index_len_fail17hf4eb2611058c09afE
                0x0000000000140ee8        0x0 ./gen/../tecsrustUART/target/armv7a-none-eabi/release/libitron.a(core-d049573bc16596f9.core.5587a85061e7188a-cgu.0.rcgu.o)
                                          0x8 (size before relaxing)
 .ARM.exidx.text.unlikely._ZN4core5slice5index22slice_index_order_fail17hb31f14bd82bfcb5bE
                0x0000000000140ee8        0x0 ./gen/../tecsrustUART/target/armv7a-none-eabi/release/libitron.a(core-d049573bc16596f9.core.5587a85061e7188a-cgu.0.rcgu.o)
                                          0x8 (size before relaxing)
 .ARM.exidx.text.unlikely._ZN4core5slice5index31slice_start_index_overflow_fail17h682402ba819c482dE
                0x0000000000140ee8        0x0 ./gen/../tecsrustUART/target/armv7a-none-eabi/release/libitron.a(core-d049573bc16596f9.core.5587a85061e7188a-cgu.0.rcgu.o)
                                          0x8 (size before relaxing)
 .ARM.exidx.text.unlikely._ZN4core5slice5index29slice_end_index_overflow_fail17h6d8526257621818dE
                0x0000000000140ee8        0x0 ./gen/../tecsrustUART/target/armv7a-none-eabi/release/libitron.a(core-d049573bc16596f9.core.5587a85061e7188a-cgu.0.rcgu.o)
                                          0x8 (size before relaxing)
 .ARM.exidx.text._ZN4core5slice5index10into_range17h838d5809396762d6E
                0x0000000000140ee8        0x0 ./gen/../tecsrustUART/target/armv7a-none-eabi/release/libitron.a(core-d049573bc16596f9.core.5587a85061e7188a-cgu.0.rcgu.o)
                                          0x8 (size before relaxing)
 .ARM.exidx.text._ZN4core5slice5index16into_slice_range17h4e76af1b067ea36eE
                0x0000000000140ee8        0x0 ./gen/../tecsrustUART/target/armv7a-none-eabi/release/libitron.a(core-d049573bc16596f9.core.5587a85061e7188a-cgu.0.rcgu.o)
                                          0x8 (size before relaxing)
 .ARM.exidx.text.unlikely._ZN4core5slice29_$LT$impl$u20$$u5b$T$u5d$$GT$15copy_from_slice17len_mismatch_fail17hf3c6b69109ca94ceE
                0x0000000000140ee8        0x0 ./gen/../tecsrustUART/target/armv7a-none-eabi/release/libitron.a(core-d049573bc16596f9.core.5587a85061e7188a-cgu.0.rcgu.o)
                                          0x8 (size before relaxing)
 .ARM.exidx.text._ZN4core5slice29_$LT$impl$u20$$u5b$T$u5d$$GT$16align_to_offsets3gcd17h9ccf75cedf78b32bE
                0x0000000000140ee8        0x0 ./gen/../tecsrustUART/target/armv7a-none-eabi/release/libitron.a(core-d049573bc16596f9.core.5587a85061e7188a-cgu.0.rcgu.o)
                                          0x8 (size before relaxing)
 .ARM.exidx.text._ZN71_$LT$core..slice..GetDisjointMutError$u20$as$u20$core..fmt..Display$GT$3fmt17h67ba63dcac76d19cE
                0x0000000000140ee8        0x0 ./gen/../tecsrustUART/target/armv7a-none-eabi/release/libitron.a(core-d049573bc16596f9.core.5587a85061e7188a-cgu.0.rcgu.o)
                                          0x8 (size before relaxing)
 .ARM.exidx.text._ZN4core3str8converts9from_utf817h69ed1439eba52b92E
                0x0000000000140ee8        0x0 ./gen/../tecsrustUART/target/armv7a-none-eabi/release/libitron.a(core-d049573bc16596f9.core.5587a85061e7188a-cgu.0.rcgu.o)
                                          0x8 (size before relaxing)
 .ARM.exidx.text._ZN4core3str8converts13from_utf8_mut17h4e3a295159d63a91E
                0x0000000000140ee8        0x0 ./gen/../tecsrustUART/target/armv7a-none-eabi/release/libitron.a(core-d049573bc16596f9.core.5587a85061e7188a-cgu.0.rcgu.o)
                                          0x8 (size before relaxing)
 .ARM.exidx.text._ZN4core3str5count14do_count_chars17h9cffd9e3dec45553E
                0x0000000000140ee8        0x0 ./gen/../tecsrustUART/target/armv7a-none-eabi/release/libitron.a(core-d049573bc16596f9.core.5587a85061e7188a-cgu.0.rcgu.o)
                                          0x8 (size before relaxing)
 .ARM.exidx.text._ZN4core3str5count23char_count_general_case17h4d4c6ce16c4d1906E
                0x0000000000140ee8        0x0 ./gen/../tecsrustUART/target/armv7a-none-eabi/release/libitron.a(core-d049573bc16596f9.core.5587a85061e7188a-cgu.0.rcgu.o)
                                          0x8 (size before relaxing)
 .ARM.exidx.text._ZN66_$LT$core..str..error..Utf8Error$u20$as$u20$core..fmt..Display$GT$3fmt17h291d6cbe57b75336E
                0x0000000000140ee8        0x0 ./gen/../tecsrustUART/target/armv7a-none-eabi/release/libitron.a(core-d049573bc16596f9.core.5587a85061e7188a-cgu.0.rcgu.o)
                                          0x8 (size before relaxing)
 .ARM.exidx.text._ZN71_$LT$core..str..error..ParseBoolError$u20$as$u20$core..fmt..Display$GT$3fmt17h8ff3dff7cf95e9f3E
                0x0000000000140ee8        0x0 ./gen/../tecsrustUART/target/armv7a-none-eabi/release/libitron.a(core-d049573bc16596f9.core.5587a85061e7188a-cgu.0.rcgu.o)
                                          0x8 (size before relaxing)
 .ARM.exidx.text._ZN59_$LT$core..str..iter..Chars$u20$as$u20$core..fmt..Debug$GT$3fmt17hc296714f5aca8f63E
                0x0000000000140ee8        0x0 ./gen/../tecsrustUART/target/armv7a-none-eabi/release/libitron.a(core-d049573bc16596f9.core.5587a85061e7188a-cgu.0.rcgu.o)
                                          0x8 (size before relaxing)
 .ARM.exidx.text._ZN65_$LT$core..str..iter..EncodeUtf16$u20$as$u20$core..fmt..Debug$GT$3fmt17h470f6ac5da350b32E
                0x0000000000140ee8        0x0 ./gen/../tecsrustUART/target/armv7a-none-eabi/release/libitron.a(core-d049573bc16596f9.core.5587a85061e7188a-cgu.0.rcgu.o)
                                          0x8 (size before relaxing)
 .ARM.exidx.text.unlikely._ZN4core3str6traits23str_index_overflow_fail17h8bf11899d5e405f7E
                0x0000000000140ee8        0x0 ./gen/../tecsrustUART/target/armv7a-none-eabi/release/libitron.a(core-d049573bc16596f9.core.5587a85061e7188a-cgu.0.rcgu.o)
                                          0x8 (size before relaxing)
 .ARM.exidx.text._ZN4core3str7pattern11StrSearcher3new17h9540c37606476449E
                0x0000000000140ee8        0x0 ./gen/../tecsrustUART/target/armv7a-none-eabi/release/libitron.a(core-d049573bc16596f9.core.5587a85061e7188a-cgu.0.rcgu.o)
                                          0x8 (size before relaxing)
 .ARM.exidx.text._ZN60_$LT$core..str..lossy..Debug$u20$as$u20$core..fmt..Debug$GT$3fmt17h8e77771fab7a2f70E
                0x0000000000140ee8        0x0 ./gen/../tecsrustUART/target/armv7a-none-eabi/release/libitron.a(core-d049573bc16596f9.core.5587a85061e7188a-cgu.0.rcgu.o)
                                          0x8 (size before relaxing)
 .ARM.exidx.text._ZN87_$LT$core..str..lossy..Utf8Chunks$u20$as$u20$core..iter..traits..iterator..Iterator$GT$4next17he7d6cc4011e7786bE
                0x0000000000140ee8        0x0 ./gen/../tecsrustUART/target/armv7a-none-eabi/release/libitron.a(core-d049573bc16596f9.core.5587a85061e7188a-cgu.0.rcgu.o)
                                          0x8 (size before relaxing)
 .ARM.exidx.text._ZN65_$LT$core..str..lossy..Utf8Chunks$u20$as$u20$core..fmt..Debug$GT$3fmt17h9c45e8ae8211e985E
                0x0000000000140ee8        0x0 ./gen/../tecsrustUART/target/armv7a-none-eabi/release/libitron.a(core-d049573bc16596f9.core.5587a85061e7188a-cgu.0.rcgu.o)
                                          0x8 (size before relaxing)
 .ARM.exidx.text.unlikely._ZN4core3str16slice_error_fail17h4d59bc1e755bbe4fE
                0x0000000000140ee8        0x0 ./gen/../tecsrustUART/target/armv7a-none-eabi/release/libitron.a(core-d049573bc16596f9.core.5587a85061e7188a-cgu.0.rcgu.o)
                                          0x8 (size before relaxing)
 .ARM.exidx.text.unlikely._ZN4core3str19slice_error_fail_ct17hb73804428b3ba7caE
                0x0000000000140ee8        0x0 ./gen/../tecsrustUART/target/armv7a-none-eabi/release/libitron.a(core-d049573bc16596f9.core.5587a85061e7188a-cgu.0.rcgu.o)
                                          0x8 (size before relaxing)
 .ARM.exidx.text._ZN4core3str19slice_error_fail_rt17h7b2b73d8d28473e0E
                0x0000000000140ee8        0x0 ./gen/../tecsrustUART/target/armv7a-none-eabi/release/libitron.a(core-d049573bc16596f9.core.5587a85061e7188a-cgu.0.rcgu.o)
                                          0x8 (size before relaxing)
 .ARM.exidx.text._ZN4core3str21_$LT$impl$u20$str$GT$9from_utf817h9c50c6b49793a8caE
                0x0000000000140ee8        0x0 ./gen/../tecsrustUART/target/armv7a-none-eabi/release/libitron.a(core-d049573bc16596f9.core.5587a85061e7188a-cgu.0.rcgu.o)
                                          0x8 (size before relaxing)
 .ARM.exidx.text._ZN4core3str21_$LT$impl$u20$str$GT$13from_utf8_mut17hf789198352a0c0d6E
                0x0000000000140ee8        0x0 ./gen/../tecsrustUART/target/armv7a-none-eabi/release/libitron.a(core-d049573bc16596f9.core.5587a85061e7188a-cgu.0.rcgu.o)
                                          0x8 (size before relaxing)
 .ARM.exidx.text._ZN4core3str21_$LT$impl$u20$str$GT$18split_at_unchecked17h522070e8531a247cE
                0x0000000000140ee8        0x0 ./gen/../tecsrustUART/target/armv7a-none-eabi/release/libitron.a(core-d049573bc16596f9.core.5587a85061e7188a-cgu.0.rcgu.o)
                                          0x8 (size before relaxing)
 .ARM.exidx.text._ZN4core3str21_$LT$impl$u20$str$GT$22split_at_mut_unchecked17h188b8cf0a61e80b3E
                0x0000000000140ee8        0x0 ./gen/../tecsrustUART/target/armv7a-none-eabi/release/libitron.a(core-d049573bc16596f9.core.5587a85061e7188a-cgu.0.rcgu.o)
                                          0x8 (size before relaxing)
 .ARM.exidx.text._ZN4core3str21_$LT$impl$u20$str$GT$12escape_debug17h4c843b37cf90aab8E
                0x0000000000140ee8        0x0 ./gen/../tecsrustUART/target/armv7a-none-eabi/release/libitron.a(core-d049573bc16596f9.core.5587a85061e7188a-cgu.0.rcgu.o)
                                          0x8 (size before relaxing)
 .ARM.exidx.text._ZN4core3str21_$LT$impl$u20$str$GT$12substr_range17ha623b8a5a8d1bca1E
                0x0000000000140ee8        0x0 ./gen/../tecsrustUART/target/armv7a-none-eabi/release/libitron.a(core-d049573bc16596f9.core.5587a85061e7188a-cgu.0.rcgu.o)
                                          0x8 (size before relaxing)
 .ARM.exidx.text._ZN57_$LT$core..time..Duration$u20$as$u20$core..fmt..Debug$GT$3fmt17hcd9ec431bc2fce92E
                0x0000000000140ee8        0x0 ./gen/../tecsrustUART/target/armv7a-none-eabi/release/libitron.a(core-d049573bc16596f9.core.5587a85061e7188a-cgu.0.rcgu.o)
                                          0x8 (size before relaxing)
 .ARM.exidx.text._ZN57_$LT$core..time..Duration$u20$as$u20$core..fmt..Debug$GT$3fmt11fmt_decimal17h7fdaad1885d942cdE
                0x0000000000140ee8        0x0 ./gen/../tecsrustUART/target/armv7a-none-eabi/release/libitron.a(core-d049573bc16596f9.core.5587a85061e7188a-cgu.0.rcgu.o)
                                          0x8 (size before relaxing)
 .ARM.exidx.text._ZN57_$LT$core..time..Duration$u20$as$u20$core..fmt..Debug$GT$3fmt11fmt_decimal28_$u7b$$u7b$closure$u7d$$u7d$17hbee2c0b3604668e7E
                0x0000000000140ee8        0x0 ./gen/../tecsrustUART/target/armv7a-none-eabi/release/libitron.a(core-d049573bc16596f9.core.5587a85061e7188a-cgu.0.rcgu.o)
                                          0x8 (size before relaxing)
 .ARM.exidx.text._ZN72_$LT$core..time..TryFromFloatSecsError$u20$as$u20$core..fmt..Display$GT$3fmt17hbbacbc01f2a2ba20E
                0x0000000000140ee8        0x0 ./gen/../tecsrustUART/target/armv7a-none-eabi/release/libitron.a(core-d049573bc16596f9.core.5587a85061e7188a-cgu.0.rcgu.o)
                                          0x8 (size before relaxing)
 .ARM.exidx.text._ZN4core7unicode9printable5check17hc9e6c3ef98e586f8E
                0x0000000000140ee8        0x0 ./gen/../tecsrustUART/target/armv7a-none-eabi/release/libitron.a(core-d049573bc16596f9.core.5587a85061e7188a-cgu.0.rcgu.o)
                                          0x8 (size before relaxing)
 .ARM.exidx.text._ZN4core7unicode9printable12is_printable17he99174ef5bcc9597E
                0x0000000000140ee8        0x0 ./gen/../tecsrustUART/target/armv7a-none-eabi/release/libitron.a(core-d049573bc16596f9.core.5587a85061e7188a-cgu.0.rcgu.o)
                                          0x8 (size before relaxing)
 .ARM.exidx.text._ZN62_$LT$core..task..wake..Context$u20$as$u20$core..fmt..Debug$GT$3fmt17h2b9656f805ec1368E
                0x0000000000140ee8        0x0 ./gen/../tecsrustUART/target/armv7a-none-eabi/release/libitron.a(core-d049573bc16596f9.core.5587a85061e7188a-cgu.0.rcgu.o)
                                          0x8 (size before relaxing)
 .ARM.exidx.text._ZN60_$LT$core..task..wake..Waker$u20$as$u20$core..fmt..Debug$GT$3fmt17h961c0fb15e9f08e6E
                0x0000000000140ee8        0x0 ./gen/../tecsrustUART/target/armv7a-none-eabi/release/libitron.a(core-d049573bc16596f9.core.5587a85061e7188a-cgu.0.rcgu.o)
                                          0x8 (size before relaxing)
 .ARM.exidx.text._ZN65_$LT$core..task..wake..LocalWaker$u20$as$u20$core..fmt..Debug$GT$3fmt17h9f8823dc3c851087E
                0x0000000000140ee8        0x0 ./gen/../tecsrustUART/target/armv7a-none-eabi/release/libitron.a(core-d049573bc16596f9.core.5587a85061e7188a-cgu.0.rcgu.o)
                                          0x8 (size before relaxing)
 .ARM.exidx.text._ZN4core5alloc6layout6Layout19is_size_align_valid17hf9c352be39c461d0E
                0x0000000000140ee8        0x0 ./gen/../tecsrustUART/target/armv7a-none-eabi/release/libitron.a(core-d049573bc16596f9.core.5587a85061e7188a-cgu.0.rcgu.o)
                                          0x8 (size before relaxing)
 .ARM.exidx.text._ZN71_$LT$core..alloc..layout..LayoutError$u20$as$u20$core..fmt..Display$GT$3fmt17hdfc7ce4964ee7964E
                0x0000000000140ee8        0x0 ./gen/../tecsrustUART/target/armv7a-none-eabi/release/libitron.a(core-d049573bc16596f9.core.5587a85061e7188a-cgu.0.rcgu.o)
                                          0x8 (size before relaxing)
 .ARM.exidx.text._ZN62_$LT$core..alloc..AllocError$u20$as$u20$core..fmt..Display$GT$3fmt17h096a3621f7a659a9E
                0x0000000000140ee8        0x0 ./gen/../tecsrustUART/target/armv7a-none-eabi/release/libitron.a(core-d049573bc16596f9.core.5587a85061e7188a-cgu.0.rcgu.o)
                                          0x8 (size before relaxing)
 .ARM.exidx.text.unlikely._ZN4core3f3221_$LT$impl$u20$f32$GT$5clamp8do_panic7runtime17hd78a99da53448aa4E
                0x0000000000140ee8        0x0 ./gen/../tecsrustUART/target/armv7a-none-eabi/release/libitron.a(core-d049573bc16596f9.core.5587a85061e7188a-cgu.0.rcgu.o)
                                          0x8 (size before relaxing)
 .ARM.exidx.text.unlikely._ZN4core3f6421_$LT$impl$u20$f64$GT$5clamp8do_panic7runtime17h70e260bb90954182E
                0x0000000000140ee8        0x0 ./gen/../tecsrustUART/target/armv7a-none-eabi/release/libitron.a(core-d049573bc16596f9.core.5587a85061e7188a-cgu.0.rcgu.o)
                                          0x8 (size before relaxing)
 .ARM.exidx.text._ZN49_$LT$u8$u20$as$u20$core..num..bignum..FullOps$GT$12full_div_rem17h2cc384f2d3e77a4fE
                0x0000000000140ee8        0x0 ./gen/../tecsrustUART/target/armv7a-none-eabi/release/libitron.a(core-d049573bc16596f9.core.5587a85061e7188a-cgu.0.rcgu.o)
                                          0x8 (size before relaxing)
 .ARM.exidx.text._ZN50_$LT$u16$u20$as$u20$core..num..bignum..FullOps$GT$12full_div_rem17h895795127941bc5fE
                0x0000000000140ee8        0x0 ./gen/../tecsrustUART/target/armv7a-none-eabi/release/libitron.a(core-d049573bc16596f9.core.5587a85061e7188a-cgu.0.rcgu.o)
                                          0x8 (size before relaxing)
 .ARM.exidx.text._ZN50_$LT$u32$u20$as$u20$core..num..bignum..FullOps$GT$12full_div_rem17h28797f3a608675a0E
                0x0000000000140ee8        0x0 ./gen/../tecsrustUART/target/armv7a-none-eabi/release/libitron.a(core-d049573bc16596f9.core.5587a85061e7188a-cgu.0.rcgu.o)
                                          0x8 (size before relaxing)
 .ARM.exidx.text._ZN4core3num6bignum8Big32x408from_u6417hdb3b6b903cdc3a74E
                0x0000000000140ee8        0x0 ./gen/../tecsrustUART/target/armv7a-none-eabi/release/libitron.a(core-d049573bc16596f9.core.5587a85061e7188a-cgu.0.rcgu.o)
                                          0x8 (size before relaxing)
 .ARM.exidx.text._ZN4core3num6bignum8Big32x406digits17hc74a7300cf748785E
                0x0000000000140ee8        0x0 ./gen/../tecsrustUART/target/armv7a-none-eabi/release/libitron.a(core-d049573bc16596f9.core.5587a85061e7188a-cgu.0.rcgu.o)
                                          0x8 (size before relaxing)
 .ARM.exidx.text._ZN4core3num6bignum8Big32x407get_bit17hae59a386b0269424E
                0x0000000000140ee8        0x0 ./gen/../tecsrustUART/target/armv7a-none-eabi/release/libitron.a(core-d049573bc16596f9.core.5587a85061e7188a-cgu.0.rcgu.o)
                                          0x8 (size before relaxing)
 .ARM.exidx.text._ZN4core3num6bignum8Big32x407is_zero17h00d7531c94d29d9dE
                0x0000000000140ee8        0x0 ./gen/../tecsrustUART/target/armv7a-none-eabi/release/libitron.a(core-d049573bc16596f9.core.5587a85061e7188a-cgu.0.rcgu.o)
                                          0x8 (size before relaxing)
 .ARM.exidx.text._ZN4core3num6bignum8Big32x4010bit_length17h970dea92bc07a054E
                0x0000000000140ee8        0x0 ./gen/../tecsrustUART/target/armv7a-none-eabi/release/libitron.a(core-d049573bc16596f9.core.5587a85061e7188a-cgu.0.rcgu.o)
                                          0x8 (size before relaxing)
 .ARM.exidx.text._ZN4core3num6bignum8Big32x403add17hf98911729d873c67E
                0x0000000000140ee8        0x0 ./gen/../tecsrustUART/target/armv7a-none-eabi/release/libitron.a(core-d049573bc16596f9.core.5587a85061e7188a-cgu.0.rcgu.o)
                                          0x8 (size before relaxing)
 .ARM.exidx.text._ZN4core3num6bignum8Big32x409add_small17hae56cb6d24b5dd80E
                0x0000000000140ee8        0x0 ./gen/../tecsrustUART/target/armv7a-none-eabi/release/libitron.a(core-d049573bc16596f9.core.5587a85061e7188a-cgu.0.rcgu.o)
                                          0x8 (size before relaxing)
 .ARM.exidx.text._ZN4core3num6bignum8Big32x403sub17h8543d30192c621ccE
                0x0000000000140ee8        0x0 ./gen/../tecsrustUART/target/armv7a-none-eabi/release/libitron.a(core-d049573bc16596f9.core.5587a85061e7188a-cgu.0.rcgu.o)
                                          0x8 (size before relaxing)
 .ARM.exidx.text._ZN4core3num6bignum8Big32x409mul_small17h34ad2799e68baebeE
                0x0000000000140ee8        0x0 ./gen/../tecsrustUART/target/armv7a-none-eabi/release/libitron.a(core-d049573bc16596f9.core.5587a85061e7188a-cgu.0.rcgu.o)
                                          0x8 (size before relaxing)
 .ARM.exidx.text._ZN4core3num6bignum8Big32x408mul_pow217h15e29a86c60dd6baE
                0x0000000000140ee8        0x0 ./gen/../tecsrustUART/target/armv7a-none-eabi/release/libitron.a(core-d049573bc16596f9.core.5587a85061e7188a-cgu.0.rcgu.o)
                                          0x8 (size before relaxing)
 .ARM.exidx.text._ZN4core3num6bignum8Big32x408mul_pow517h4477c92c4a717ba9E
                0x0000000000140ee8        0x0 ./gen/../tecsrustUART/target/armv7a-none-eabi/release/libitron.a(core-d049573bc16596f9.core.5587a85061e7188a-cgu.0.rcgu.o)
                                          0x8 (size before relaxing)
 .ARM.exidx.text._ZN4core3num6bignum8Big32x4010mul_digits17hc6f1ffa637e3696eE
                0x0000000000140ee8        0x0 ./gen/../tecsrustUART/target/armv7a-none-eabi/release/libitron.a(core-d049573bc16596f9.core.5587a85061e7188a-cgu.0.rcgu.o)
                                          0x8 (size before relaxing)
 .ARM.exidx.text._ZN4core3num6bignum8Big32x4013div_rem_small17hddc1707b10a22fddE
                0x0000000000140ee8        0x0 ./gen/../tecsrustUART/target/armv7a-none-eabi/release/libitron.a(core-d049573bc16596f9.core.5587a85061e7188a-cgu.0.rcgu.o)
                                          0x8 (size before relaxing)
 .ARM.exidx.text._ZN4core3num6bignum8Big32x407div_rem17h0bf0c17f8e59470eE
                0x0000000000140ee8        0x0 ./gen/../tecsrustUART/target/armv7a-none-eabi/release/libitron.a(core-d049573bc16596f9.core.5587a85061e7188a-cgu.0.rcgu.o)
                                          0x8 (size before relaxing)
 .ARM.exidx.text._ZN68_$LT$core..num..bignum..Big32x40$u20$as$u20$core..cmp..PartialEq$GT$2eq17h2b3b2b69262323daE
                0x0000000000140ee8        0x0 ./gen/../tecsrustUART/target/armv7a-none-eabi/release/libitron.a(core-d049573bc16596f9.core.5587a85061e7188a-cgu.0.rcgu.o)
                                          0x8 (size before relaxing)
 .ARM.exidx.text._ZN69_$LT$core..num..bignum..Big32x40$u20$as$u20$core..cmp..PartialOrd$GT$11partial_cmp17hfaa047bbd7529c6dE
                0x0000000000140ee8        0x0 ./gen/../tecsrustUART/target/armv7a-none-eabi/release/libitron.a(core-d049573bc16596f9.core.5587a85061e7188a-cgu.0.rcgu.o)
                                          0x8 (size before relaxing)
 .ARM.exidx.text._ZN62_$LT$core..num..bignum..Big32x40$u20$as$u20$core..cmp..Ord$GT$3cmp17h3a927d79b9dd52acE
                0x0000000000140ee8        0x0 ./gen/../tecsrustUART/target/armv7a-none-eabi/release/libitron.a(core-d049573bc16596f9.core.5587a85061e7188a-cgu.0.rcgu.o)
                                          0x8 (size before relaxing)
 .ARM.exidx.text._ZN64_$LT$core..num..bignum..Big32x40$u20$as$u20$core..fmt..Debug$GT$3fmt17hc2049124d32db79eE
                0x0000000000140ee8        0x0 ./gen/../tecsrustUART/target/armv7a-none-eabi/release/libitron.a(core-d049573bc16596f9.core.5587a85061e7188a-cgu.0.rcgu.o)
                                          0x8 (size before relaxing)
 .ARM.exidx.text._ZN4core3num6bignum5tests6Big8x38from_u6417hd68b6d9a5152475dE
                0x0000000000140ee8        0x0 ./gen/../tecsrustUART/target/armv7a-none-eabi/release/libitron.a(core-d049573bc16596f9.core.5587a85061e7188a-cgu.0.rcgu.o)
                                          0x8 (size before relaxing)
 .ARM.exidx.text._ZN4core3num6bignum5tests6Big8x36digits17he3519563a60c1407E
                0x0000000000140ee8        0x0 ./gen/../tecsrustUART/target/armv7a-none-eabi/release/libitron.a(core-d049573bc16596f9.core.5587a85061e7188a-cgu.0.rcgu.o)
                                          0x8 (size before relaxing)
 .ARM.exidx.text._ZN4core3num6bignum5tests6Big8x37get_bit17h3c0e105d94bd5b13E
                0x0000000000140ee8        0x0 ./gen/../tecsrustUART/target/armv7a-none-eabi/release/libitron.a(core-d049573bc16596f9.core.5587a85061e7188a-cgu.0.rcgu.o)
                                          0x8 (size before relaxing)
 .ARM.exidx.text._ZN4core3num6bignum5tests6Big8x37is_zero17h32e72f5d7dbb5adbE
                0x0000000000140ee8        0x0 ./gen/../tecsrustUART/target/armv7a-none-eabi/release/libitron.a(core-d049573bc16596f9.core.5587a85061e7188a-cgu.0.rcgu.o)
                                          0x8 (size before relaxing)
 .ARM.exidx.text._ZN4core3num6bignum5tests6Big8x310bit_length17h83652b24f2592b66E
                0x0000000000140ee8        0x0 ./gen/../tecsrustUART/target/armv7a-none-eabi/release/libitron.a(core-d049573bc16596f9.core.5587a85061e7188a-cgu.0.rcgu.o)
                                          0x8 (size before relaxing)
 .ARM.exidx.text._ZN4core3num6bignum5tests6Big8x33add17h0ea9b7b009d144c0E
                0x0000000000140ee8        0x0 ./gen/../tecsrustUART/target/armv7a-none-eabi/release/libitron.a(core-d049573bc16596f9.core.5587a85061e7188a-cgu.0.rcgu.o)
                                          0x8 (size before relaxing)
 .ARM.exidx.text._ZN4core3num6bignum5tests6Big8x39add_small17hfb578bb3ef3121e5E
                0x0000000000140ee8        0x0 ./gen/../tecsrustUART/target/armv7a-none-eabi/release/libitron.a(core-d049573bc16596f9.core.5587a85061e7188a-cgu.0.rcgu.o)
                                          0x8 (size before relaxing)
 .ARM.exidx.text._ZN4core3num6bignum5tests6Big8x33sub17he7cc307db19dcf38E
                0x0000000000140ee8        0x0 ./gen/../tecsrustUART/target/armv7a-none-eabi/release/libitron.a(core-d049573bc16596f9.core.5587a85061e7188a-cgu.0.rcgu.o)
                                          0x8 (size before relaxing)
 .ARM.exidx.text._ZN4core3num6bignum5tests6Big8x39mul_small17h88500d5dffbe03a5E
                0x0000000000140ee8        0x0 ./gen/../tecsrustUART/target/armv7a-none-eabi/release/libitron.a(core-d049573bc16596f9.core.5587a85061e7188a-cgu.0.rcgu.o)
                                          0x8 (size before relaxing)
 .ARM.exidx.text._ZN4core3num6bignum5tests6Big8x38mul_pow217h7241f869c32bebc8E
                0x0000000000140ee8        0x0 ./gen/../tecsrustUART/target/armv7a-none-eabi/release/libitron.a(core-d049573bc16596f9.core.5587a85061e7188a-cgu.0.rcgu.o)
                                          0x8 (size before relaxing)
 .ARM.exidx.text._ZN4core3num6bignum5tests6Big8x38mul_pow517hbf8d1887a577d4b9E
                0x0000000000140ee8        0x0 ./gen/../tecsrustUART/target/armv7a-none-eabi/release/libitron.a(core-d049573bc16596f9.core.5587a85061e7188a-cgu.0.rcgu.o)
                                          0x8 (size before relaxing)
 .ARM.exidx.text._ZN4core3num6bignum5tests6Big8x310mul_digits17hc92e3128bf16df9bE
                0x0000000000140ee8        0x0 ./gen/../tecsrustUART/target/armv7a-none-eabi/release/libitron.a(core-d049573bc16596f9.core.5587a85061e7188a-cgu.0.rcgu.o)
                                          0x8 (size before relaxing)
 .ARM.exidx.text._ZN4core3num6bignum5tests6Big8x313div_rem_small17h3d76b4dc7e13bdf9E
                0x0000000000140ee8        0x0 ./gen/../tecsrustUART/target/armv7a-none-eabi/release/libitron.a(core-d049573bc16596f9.core.5587a85061e7188a-cgu.0.rcgu.o)
                                          0x8 (size before relaxing)
 .ARM.exidx.text._ZN4core3num6bignum5tests6Big8x37div_rem17hd07a45cafecfa95dE
                0x0000000000140ee8        0x0 ./gen/../tecsrustUART/target/armv7a-none-eabi/release/libitron.a(core-d049573bc16596f9.core.5587a85061e7188a-cgu.0.rcgu.o)
                                          0x8 (size before relaxing)
 .ARM.exidx.text._ZN73_$LT$core..num..bignum..tests..Big8x3$u20$as$u20$core..cmp..PartialEq$GT$2eq17h2a5bec94bf0063b9E
                0x0000000000140ee8        0x0 ./gen/../tecsrustUART/target/armv7a-none-eabi/release/libitron.a(core-d049573bc16596f9.core.5587a85061e7188a-cgu.0.rcgu.o)
                                          0x8 (size before relaxing)
 .ARM.exidx.text._ZN74_$LT$core..num..bignum..tests..Big8x3$u20$as$u20$core..cmp..PartialOrd$GT$11partial_cmp17h48d5846d2573a5e1E
                0x0000000000140ee8        0x0 ./gen/../tecsrustUART/target/armv7a-none-eabi/release/libitron.a(core-d049573bc16596f9.core.5587a85061e7188a-cgu.0.rcgu.o)
                                          0x8 (size before relaxing)
 .ARM.exidx.text._ZN67_$LT$core..num..bignum..tests..Big8x3$u20$as$u20$core..cmp..Ord$GT$3cmp17h8a7502baf7f3c9a5E
                0x0000000000140ee8        0x0 ./gen/../tecsrustUART/target/armv7a-none-eabi/release/libitron.a(core-d049573bc16596f9.core.5587a85061e7188a-cgu.0.rcgu.o)
                                          0x8 (size before relaxing)
 .ARM.exidx.text._ZN69_$LT$core..num..bignum..tests..Big8x3$u20$as$u20$core..fmt..Debug$GT$3fmt17hf9300f71b8428542E
                0x0000000000140ee8        0x0 ./gen/../tecsrustUART/target/armv7a-none-eabi/release/libitron.a(core-d049573bc16596f9.core.5587a85061e7188a-cgu.0.rcgu.o)
                                          0x8 (size before relaxing)
 .ARM.exidx.text._ZN4core3num7dec2flt60_$LT$impl$u20$core..str..traits..FromStr$u20$for$u20$f16$GT$8from_str17h0d34f16cb03d4084E
                0x0000000000140ee8        0x0 ./gen/../tecsrustUART/target/armv7a-none-eabi/release/libitron.a(core-d049573bc16596f9.core.5587a85061e7188a-cgu.0.rcgu.o)
                                          0x8 (size before relaxing)
 .ARM.exidx.text._ZN4core3num7dec2flt60_$LT$impl$u20$core..str..traits..FromStr$u20$for$u20$f32$GT$8from_str17haab41bb9ce3e1e69E
                0x0000000000140ee8        0x0 ./gen/../tecsrustUART/target/armv7a-none-eabi/release/libitron.a(core-d049573bc16596f9.core.5587a85061e7188a-cgu.0.rcgu.o)
                                          0x8 (size before relaxing)
 .ARM.exidx.text._ZN4core3num7dec2flt60_$LT$impl$u20$core..str..traits..FromStr$u20$for$u20$f64$GT$8from_str17h9934b968a57533b4E
                0x0000000000140ee8        0x0 ./gen/../tecsrustUART/target/armv7a-none-eabi/release/libitron.a(core-d049573bc16596f9.core.5587a85061e7188a-cgu.0.rcgu.o)
                                          0x8 (size before relaxing)
 .ARM.exidx.text._ZN73_$LT$core..num..nonzero..NonZero$LT$T$GT$$u20$as$u20$core..fmt..Debug$GT$3fmt17hfee7ea0a19225bacE
                0x0000000000140ee8        0x0 ./gen/../tecsrustUART/target/armv7a-none-eabi/release/libitron.a(core-d049573bc16596f9.core.5587a85061e7188a-cgu.0.rcgu.o)
                                          0x8 (size before relaxing)
 .ARM.exidx.text._ZN84_$LT$core..num..nonzero..NonZero$LT$u8$GT$$u20$as$u20$core..str..traits..FromStr$GT$8from_str17ha566d71859ee37bcE
                0x0000000000140ee8        0x0 ./gen/../tecsrustUART/target/armv7a-none-eabi/release/libitron.a(core-d049573bc16596f9.core.5587a85061e7188a-cgu.0.rcgu.o)
                                          0x8 (size before relaxing)
 .ARM.exidx.text._ZN85_$LT$core..num..nonzero..NonZero$LT$u16$GT$$u20$as$u20$core..str..traits..FromStr$GT$8from_str17h22aefbcb4cc26c68E
                0x0000000000140ee8        0x0 ./gen/../tecsrustUART/target/armv7a-none-eabi/release/libitron.a(core-d049573bc16596f9.core.5587a85061e7188a-cgu.0.rcgu.o)
                                          0x8 (size before relaxing)
 .ARM.exidx.text._ZN85_$LT$core..num..nonzero..NonZero$LT$u32$GT$$u20$as$u20$core..str..traits..FromStr$GT$8from_str17h957fe3dbd5a241bcE
                0x0000000000140ee8        0x0 ./gen/../tecsrustUART/target/armv7a-none-eabi/release/libitron.a(core-d049573bc16596f9.core.5587a85061e7188a-cgu.0.rcgu.o)
                                          0x8 (size before relaxing)
 .ARM.exidx.text._ZN85_$LT$core..num..nonzero..NonZero$LT$u64$GT$$u20$as$u20$core..str..traits..FromStr$GT$8from_str17hb05b038cb220d66cE
                0x0000000000140ee8        0x0 ./gen/../tecsrustUART/target/armv7a-none-eabi/release/libitron.a(core-d049573bc16596f9.core.5587a85061e7188a-cgu.0.rcgu.o)
                                          0x8 (size before relaxing)
 .ARM.exidx.text._ZN86_$LT$core..num..nonzero..NonZero$LT$u128$GT$$u20$as$u20$core..str..traits..FromStr$GT$8from_str17hce0b07860262ce09E
                0x0000000000140ee8        0x0 ./gen/../tecsrustUART/target/armv7a-none-eabi/release/libitron.a(core-d049573bc16596f9.core.5587a85061e7188a-cgu.0.rcgu.o)
                                          0x8 (size before relaxing)
 .ARM.exidx.text._ZN87_$LT$core..num..nonzero..NonZero$LT$usize$GT$$u20$as$u20$core..str..traits..FromStr$GT$8from_str17h1733288da9636848E
                0x0000000000140ee8        0x0 ./gen/../tecsrustUART/target/armv7a-none-eabi/release/libitron.a(core-d049573bc16596f9.core.5587a85061e7188a-cgu.0.rcgu.o)
                                          0x8 (size before relaxing)
 .ARM.exidx.text._ZN84_$LT$core..num..nonzero..NonZero$LT$i8$GT$$u20$as$u20$core..str..traits..FromStr$GT$8from_str17hebe21d8ddaff9330E
                0x0000000000140ee8        0x0 ./gen/../tecsrustUART/target/armv7a-none-eabi/release/libitron.a(core-d049573bc16596f9.core.5587a85061e7188a-cgu.0.rcgu.o)
                                          0x8 (size before relaxing)
 .ARM.exidx.text._ZN85_$LT$core..num..nonzero..NonZero$LT$i16$GT$$u20$as$u20$core..str..traits..FromStr$GT$8from_str17h5460cf01298f7943E
                0x0000000000140ee8        0x0 ./gen/../tecsrustUART/target/armv7a-none-eabi/release/libitron.a(core-d049573bc16596f9.core.5587a85061e7188a-cgu.0.rcgu.o)
                                          0x8 (size before relaxing)
 .ARM.exidx.text._ZN85_$LT$core..num..nonzero..NonZero$LT$i32$GT$$u20$as$u20$core..str..traits..FromStr$GT$8from_str17h82302f5d78c06a81E
                0x0000000000140ee8        0x0 ./gen/../tecsrustUART/target/armv7a-none-eabi/release/libitron.a(core-d049573bc16596f9.core.5587a85061e7188a-cgu.0.rcgu.o)
                                          0x8 (size before relaxing)
 .ARM.exidx.text._ZN85_$LT$core..num..nonzero..NonZero$LT$i64$GT$$u20$as$u20$core..str..traits..FromStr$GT$8from_str17hf63377f21a3fb6baE
                0x0000000000140ee8        0x0 ./gen/../tecsrustUART/target/armv7a-none-eabi/release/libitron.a(core-d049573bc16596f9.core.5587a85061e7188a-cgu.0.rcgu.o)
                                          0x8 (size before relaxing)
 .ARM.exidx.text._ZN86_$LT$core..num..nonzero..NonZero$LT$i128$GT$$u20$as$u20$core..str..traits..FromStr$GT$8from_str17h404bcfcc368805b5E
                0x0000000000140ee8        0x0 ./gen/../tecsrustUART/target/armv7a-none-eabi/release/libitron.a(core-d049573bc16596f9.core.5587a85061e7188a-cgu.0.rcgu.o)
                                          0x8 (size before relaxing)
 .ARM.exidx.text._ZN72_$LT$core..num..niche_types..Nanoseconds$u20$as$u20$core..fmt..Debug$GT$3fmt17h6df87c1b0e86c542E
                0x0000000000140ee8        0x0 ./gen/../tecsrustUART/target/armv7a-none-eabi/release/libitron.a(core-d049573bc16596f9.core.5587a85061e7188a-cgu.0.rcgu.o)
                                          0x8 (size before relaxing)
 .ARM.exidx.text._ZN75_$LT$core..num..niche_types..NonZeroU8Inner$u20$as$u20$core..fmt..Debug$GT$3fmt17h9934d86d94d3ba9dE
                0x0000000000140ee8        0x0 ./gen/../tecsrustUART/target/armv7a-none-eabi/release/libitron.a(core-d049573bc16596f9.core.5587a85061e7188a-cgu.0.rcgu.o)
                                          0x8 (size before relaxing)
 .ARM.exidx.text._ZN76_$LT$core..num..niche_types..NonZeroU16Inner$u20$as$u20$core..fmt..Debug$GT$3fmt17h1e0f277c7c9985fdE
                0x0000000000140ee8        0x0 ./gen/../tecsrustUART/target/armv7a-none-eabi/release/libitron.a(core-d049573bc16596f9.core.5587a85061e7188a-cgu.0.rcgu.o)
                                          0x8 (size before relaxing)
 .ARM.exidx.text._ZN76_$LT$core..num..niche_types..NonZeroU32Inner$u20$as$u20$core..fmt..Debug$GT$3fmt17h4208945a1918bf76E
                0x0000000000140ee8        0x0 ./gen/../tecsrustUART/target/armv7a-none-eabi/release/libitron.a(core-d049573bc16596f9.core.5587a85061e7188a-cgu.0.rcgu.o)
                                          0x8 (size before relaxing)
 .ARM.exidx.text._ZN76_$LT$core..num..niche_types..NonZeroU64Inner$u20$as$u20$core..fmt..Debug$GT$3fmt17hcec75d0956b73778E
                0x0000000000140ee8        0x0 ./gen/../tecsrustUART/target/armv7a-none-eabi/release/libitron.a(core-d049573bc16596f9.core.5587a85061e7188a-cgu.0.rcgu.o)
                                          0x8 (size before relaxing)
 .ARM.exidx.text._ZN77_$LT$core..num..niche_types..NonZeroU128Inner$u20$as$u20$core..fmt..Debug$GT$3fmt17h5bc8c49a87650843E
                0x0000000000140ee8        0x0 ./gen/../tecsrustUART/target/armv7a-none-eabi/release/libitron.a(core-d049573bc16596f9.core.5587a85061e7188a-cgu.0.rcgu.o)
                                          0x8 (size before relaxing)
 .ARM.exidx.text._ZN75_$LT$core..num..niche_types..NonZeroI8Inner$u20$as$u20$core..fmt..Debug$GT$3fmt17hc1ad68564dffd6e0E
                0x0000000000140ee8        0x0 ./gen/../tecsrustUART/target/armv7a-none-eabi/release/libitron.a(core-d049573bc16596f9.core.5587a85061e7188a-cgu.0.rcgu.o)
                                          0x8 (size before relaxing)
 .ARM.exidx.text._ZN76_$LT$core..num..niche_types..NonZeroI16Inner$u20$as$u20$core..fmt..Debug$GT$3fmt17h1bae456063d3b38aE
                0x0000000000140ee8        0x0 ./gen/../tecsrustUART/target/armv7a-none-eabi/release/libitron.a(core-d049573bc16596f9.core.5587a85061e7188a-cgu.0.rcgu.o)
                                          0x8 (size before relaxing)
 .ARM.exidx.text._ZN76_$LT$core..num..niche_types..NonZeroI32Inner$u20$as$u20$core..fmt..Debug$GT$3fmt17h22fbf48f72b85284E
                0x0000000000140ee8        0x0 ./gen/../tecsrustUART/target/armv7a-none-eabi/release/libitron.a(core-d049573bc16596f9.core.5587a85061e7188a-cgu.0.rcgu.o)
                                          0x8 (size before relaxing)
 .ARM.exidx.text._ZN76_$LT$core..num..niche_types..NonZeroI64Inner$u20$as$u20$core..fmt..Debug$GT$3fmt17h8bb2c468a465aac2E
                0x0000000000140ee8        0x0 ./gen/../tecsrustUART/target/armv7a-none-eabi/release/libitron.a(core-d049573bc16596f9.core.5587a85061e7188a-cgu.0.rcgu.o)
                                          0x8 (size before relaxing)
 .ARM.exidx.text._ZN77_$LT$core..num..niche_types..NonZeroI128Inner$u20$as$u20$core..fmt..Debug$GT$3fmt17h7658577fe72d6a93E
                0x0000000000140ee8        0x0 ./gen/../tecsrustUART/target/armv7a-none-eabi/release/libitron.a(core-d049573bc16596f9.core.5587a85061e7188a-cgu.0.rcgu.o)
                                          0x8 (size before relaxing)
 .ARM.exidx.text._ZN75_$LT$core..num..niche_types..UsizeNoHighBit$u20$as$u20$core..fmt..Debug$GT$3fmt17h77e5bca56126e0b7E
                0x0000000000140ee8        0x0 ./gen/../tecsrustUART/target/armv7a-none-eabi/release/libitron.a(core-d049573bc16596f9.core.5587a85061e7188a-cgu.0.rcgu.o)
                                          0x8 (size before relaxing)
 .ARM.exidx.text._ZN74_$LT$core..num..niche_types..U32NotAllOnes$u20$as$u20$core..fmt..Debug$GT$3fmt17hdae2b85bd7a76fa0E
                0x0000000000140ee8        0x0 ./gen/../tecsrustUART/target/armv7a-none-eabi/release/libitron.a(core-d049573bc16596f9.core.5587a85061e7188a-cgu.0.rcgu.o)
                                          0x8 (size before relaxing)
 .ARM.exidx.text._ZN74_$LT$core..num..niche_types..I32NotAllOnes$u20$as$u20$core..fmt..Debug$GT$3fmt17ha30c204f41712d0cE
                0x0000000000140ee8        0x0 ./gen/../tecsrustUART/target/armv7a-none-eabi/release/libitron.a(core-d049573bc16596f9.core.5587a85061e7188a-cgu.0.rcgu.o)
                                          0x8 (size before relaxing)
 .ARM.exidx.text._ZN74_$LT$core..num..niche_types..U64NotAllOnes$u20$as$u20$core..fmt..Debug$GT$3fmt17h9aae2314a6753889E
                0x0000000000140ee8        0x0 ./gen/../tecsrustUART/target/armv7a-none-eabi/release/libitron.a(core-d049573bc16596f9.core.5587a85061e7188a-cgu.0.rcgu.o)
                                          0x8 (size before relaxing)
 .ARM.exidx.text._ZN74_$LT$core..num..niche_types..I64NotAllOnes$u20$as$u20$core..fmt..Debug$GT$3fmt17hcd11c67aaecfa5cdE
                0x0000000000140ee8        0x0 ./gen/../tecsrustUART/target/armv7a-none-eabi/release/libitron.a(core-d049573bc16596f9.core.5587a85061e7188a-cgu.0.rcgu.o)
                                          0x8 (size before relaxing)
 .ARM.exidx.text.unlikely._ZN4core3num22from_ascii_radix_panic8do_panic7runtime17h20bf34c324abd015E
                0x0000000000140ee8        0x0 ./gen/../tecsrustUART/target/armv7a-none-eabi/release/libitron.a(core-d049573bc16596f9.core.5587a85061e7188a-cgu.0.rcgu.o)
                                          0x8 (size before relaxing)
 .ARM.exidx.text.unlikely._ZN4core10intrinsics3mir11PtrMetadata19panic_cold_explicit17h38f2b2d764b9fcc9E
                0x0000000000140ee8        0x0 ./gen/../tecsrustUART/target/armv7a-none-eabi/release/libitron.a(core-d049573bc16596f9.core.5587a85061e7188a-cgu.0.rcgu.o)
                                          0x8 (size before relaxing)
 .ARM.exidx.text._ZN85_$LT$core..marker..variance..PhantomCovariantLifetime$u20$as$u20$core..fmt..Debug$GT$3fmt17h092ab231f6840623E
                0x0000000000140ee8        0x0 ./gen/../tecsrustUART/target/armv7a-none-eabi/release/libitron.a(core-d049573bc16596f9.core.5587a85061e7188a-cgu.0.rcgu.o)
                                          0x8 (size before relaxing)
 .ARM.exidx.text._ZN89_$LT$core..marker..variance..PhantomContravariantLifetime$u20$as$u20$core..fmt..Debug$GT$3fmt17hc36f606a10431dddE
                0x0000000000140ee8        0x0 ./gen/../tecsrustUART/target/armv7a-none-eabi/release/libitron.a(core-d049573bc16596f9.core.5587a85061e7188a-cgu.0.rcgu.o)
                                          0x8 (size before relaxing)
 .ARM.exidx.text._ZN85_$LT$core..marker..variance..PhantomInvariantLifetime$u20$as$u20$core..fmt..Debug$GT$3fmt17h310726426d633410E
                0x0000000000140ee8        0x0 ./gen/../tecsrustUART/target/armv7a-none-eabi/release/libitron.a(core-d049573bc16596f9.core.5587a85061e7188a-cgu.0.rcgu.o)
                                          0x8 (size before relaxing)
 .ARM.exidx.text.unlikely._ZN4core4char7methods15encode_utf8_raw8do_panic7runtime17h8d77bbd109129b2bE
                0x0000000000140ee8        0x0 ./gen/../tecsrustUART/target/armv7a-none-eabi/release/libitron.a(core-d049573bc16596f9.core.5587a85061e7188a-cgu.0.rcgu.o)
                                          0x8 (size before relaxing)
 .ARM.exidx.text.unlikely._ZN4core4char7methods16encode_utf16_raw8do_panic7runtime17h780c16f034ec0cfdE
                0x0000000000140ee8        0x0 ./gen/../tecsrustUART/target/armv7a-none-eabi/release/libitron.a(core-d049573bc16596f9.core.5587a85061e7188a-cgu.0.rcgu.o)
                                          0x8 (size before relaxing)
 .ARM.exidx.text._ZN82_$LT$core..char..ToLowercase$u20$as$u20$core..iter..traits..iterator..Iterator$GT$4next17hb1b5d710b70686acE
                0x0000000000140ee8        0x0 ./gen/../tecsrustUART/target/armv7a-none-eabi/release/libitron.a(core-d049573bc16596f9.core.5587a85061e7188a-cgu.0.rcgu.o)
                                          0x8 (size before relaxing)
 .ARM.exidx.text._ZN82_$LT$core..char..ToLowercase$u20$as$u20$core..iter..traits..iterator..Iterator$GT$5count17h491b5e4cf6ec5bd0E
                0x0000000000140ee8        0x0 ./gen/../tecsrustUART/target/armv7a-none-eabi/release/libitron.a(core-d049573bc16596f9.core.5587a85061e7188a-cgu.0.rcgu.o)
                                          0x8 (size before relaxing)
 .ARM.exidx.text._ZN82_$LT$core..char..ToLowercase$u20$as$u20$core..iter..traits..iterator..Iterator$GT$4last17h2be1d7bd83ecbf83E
                0x0000000000140ee8        0x0 ./gen/../tecsrustUART/target/armv7a-none-eabi/release/libitron.a(core-d049573bc16596f9.core.5587a85061e7188a-cgu.0.rcgu.o)
                                          0x8 (size before relaxing)
 .ARM.exidx.text._ZN82_$LT$core..char..ToLowercase$u20$as$u20$core..iter..traits..iterator..Iterator$GT$10advance_by17h472a89f7f4a2644dE
                0x0000000000140ee8        0x0 ./gen/../tecsrustUART/target/armv7a-none-eabi/release/libitron.a(core-d049573bc16596f9.core.5587a85061e7188a-cgu.0.rcgu.o)
                                          0x8 (size before relaxing)
 .ARM.exidx.text._ZN82_$LT$core..char..ToLowercase$u20$as$u20$core..iter..traits..iterator..Iterator$GT$24__iterator_get_unchecked17h3837a4656c9589c7E
                0x0000000000140ee8        0x0 ./gen/../tecsrustUART/target/armv7a-none-eabi/release/libitron.a(core-d049573bc16596f9.core.5587a85061e7188a-cgu.0.rcgu.o)
                                          0x8 (size before relaxing)
 .ARM.exidx.text._ZN97_$LT$core..char..ToLowercase$u20$as$u20$core..iter..traits..double_ended..DoubleEndedIterator$GT$9next_back17h3de266f316e266adE
                0x0000000000140ee8        0x0 ./gen/../tecsrustUART/target/armv7a-none-eabi/release/libitron.a(core-d049573bc16596f9.core.5587a85061e7188a-cgu.0.rcgu.o)
                                          0x8 (size before relaxing)
 .ARM.exidx.text._ZN97_$LT$core..char..ToLowercase$u20$as$u20$core..iter..traits..double_ended..DoubleEndedIterator$GT$15advance_back_by17h5316befd367a240aE
                0x0000000000140ee8        0x0 ./gen/../tecsrustUART/target/armv7a-none-eabi/release/libitron.a(core-d049573bc16596f9.core.5587a85061e7188a-cgu.0.rcgu.o)
                                          0x8 (size before relaxing)
 .ARM.exidx.text._ZN62_$LT$core..char..ToLowercase$u20$as$u20$core..fmt..Display$GT$3fmt17hba63d2a00808b5c9E
                0x0000000000140ee8        0x0 ./gen/../tecsrustUART/target/armv7a-none-eabi/release/libitron.a(core-d049573bc16596f9.core.5587a85061e7188a-cgu.0.rcgu.o)
                                          0x8 (size before relaxing)
 .ARM.exidx.text._ZN77_$LT$core..net..ip_addr..Ipv4Addr$u20$as$u20$core..ops..bit..BitAndAssign$GT$13bitand_assign17h4b36b47131fa5cc4E
                0x0000000000140ee8        0x0 ./gen/../tecsrustUART/target/armv7a-none-eabi/release/libitron.a(core-d049573bc16596f9.core.5587a85061e7188a-cgu.0.rcgu.o)
                                          0x8 (size before relaxing)
 .ARM.exidx.text._ZN117_$LT$core..net..ip_addr..Ipv4Addr$u20$as$u20$core..ops..bit..BitAndAssign$LT$$RF$core..net..ip_addr..Ipv4Addr$GT$$GT$13bitand_assign17h0229d9be4c328c70E
                0x0000000000140ee8        0x0 ./gen/../tecsrustUART/target/armv7a-none-eabi/release/libitron.a(core-d049573bc16596f9.core.5587a85061e7188a-cgu.0.rcgu.o)
                                          0x8 (size before relaxing)
 .ARM.exidx.text._ZN76_$LT$core..net..ip_addr..Ipv4Addr$u20$as$u20$core..ops..bit..BitOrAssign$GT$12bitor_assign17h5dbcc27e1bc263c6E
                0x0000000000140ee8        0x0 ./gen/../tecsrustUART/target/armv7a-none-eabi/release/libitron.a(core-d049573bc16596f9.core.5587a85061e7188a-cgu.0.rcgu.o)
                                          0x8 (size before relaxing)
 .ARM.exidx.text._ZN116_$LT$core..net..ip_addr..Ipv4Addr$u20$as$u20$core..ops..bit..BitOrAssign$LT$$RF$core..net..ip_addr..Ipv4Addr$GT$$GT$12bitor_assign17h44764761fe65c596E
                0x0000000000140ee8        0x0 ./gen/../tecsrustUART/target/armv7a-none-eabi/release/libitron.a(core-d049573bc16596f9.core.5587a85061e7188a-cgu.0.rcgu.o)
                                          0x8 (size before relaxing)
 .ARM.exidx.text._ZN77_$LT$core..net..ip_addr..Ipv6Addr$u20$as$u20$core..ops..bit..BitAndAssign$GT$13bitand_assign17hdf1001071943e21cE
                0x0000000000140ee8        0x0 ./gen/../tecsrustUART/target/armv7a-none-eabi/release/libitron.a(core-d049573bc16596f9.core.5587a85061e7188a-cgu.0.rcgu.o)
                                          0x8 (size before relaxing)
 .ARM.exidx.text._ZN117_$LT$core..net..ip_addr..Ipv6Addr$u20$as$u20$core..ops..bit..BitAndAssign$LT$$RF$core..net..ip_addr..Ipv6Addr$GT$$GT$13bitand_assign17hecc377bff21d2c6fE
                0x0000000000140ee8        0x0 ./gen/../tecsrustUART/target/armv7a-none-eabi/release/libitron.a(core-d049573bc16596f9.core.5587a85061e7188a-cgu.0.rcgu.o)
                                          0x8 (size before relaxing)
 .ARM.exidx.text._ZN76_$LT$core..net..ip_addr..Ipv6Addr$u20$as$u20$core..ops..bit..BitOrAssign$GT$12bitor_assign17h8802b9526f9e1ec3E
                0x0000000000140ee8        0x0 ./gen/../tecsrustUART/target/armv7a-none-eabi/release/libitron.a(core-d049573bc16596f9.core.5587a85061e7188a-cgu.0.rcgu.o)
                                          0x8 (size before relaxing)
 .ARM.exidx.text._ZN116_$LT$core..net..ip_addr..Ipv6Addr$u20$as$u20$core..ops..bit..BitOrAssign$LT$$RF$core..net..ip_addr..Ipv6Addr$GT$$GT$12bitor_assign17h15c5b2f4ea6a9f87E
                0x0000000000140ee8        0x0 ./gen/../tecsrustUART/target/armv7a-none-eabi/release/libitron.a(core-d049573bc16596f9.core.5587a85061e7188a-cgu.0.rcgu.o)
                                          0x8 (size before relaxing)
 .ARM.exidx.text.unlikely._ZN4core9panicking11panic_const24panic_const_add_overflow17h518b917df10cd0eaE
                0x0000000000140ee8        0x0 ./gen/../tecsrustUART/target/armv7a-none-eabi/release/libitron.a(core-d049573bc16596f9.core.5587a85061e7188a-cgu.0.rcgu.o)
                                          0x8 (size before relaxing)
 .ARM.exidx.text.unlikely._ZN4core9panicking11panic_const24panic_const_sub_overflow17h60c8487e53d0d3c1E
                0x0000000000140ee8        0x0 ./gen/../tecsrustUART/target/armv7a-none-eabi/release/libitron.a(core-d049573bc16596f9.core.5587a85061e7188a-cgu.0.rcgu.o)
                                          0x8 (size before relaxing)
 .ARM.exidx.text.unlikely._ZN4core9panicking11panic_const24panic_const_mul_overflow17h1a47d5361b03bf6eE
                0x0000000000140ee8        0x0 ./gen/../tecsrustUART/target/armv7a-none-eabi/release/libitron.a(core-d049573bc16596f9.core.5587a85061e7188a-cgu.0.rcgu.o)
                                          0x8 (size before relaxing)
 .ARM.exidx.text.unlikely._ZN4core9panicking11panic_const24panic_const_div_overflow17heddbfb5e687a03bcE
                0x0000000000140ee8        0x0 ./gen/../tecsrustUART/target/armv7a-none-eabi/release/libitron.a(core-d049573bc16596f9.core.5587a85061e7188a-cgu.0.rcgu.o)
                                          0x8 (size before relaxing)
 .ARM.exidx.text.unlikely._ZN4core9panicking11panic_const24panic_const_rem_overflow17h3335d23af842c741E
                0x0000000000140ee8        0x0 ./gen/../tecsrustUART/target/armv7a-none-eabi/release/libitron.a(core-d049573bc16596f9.core.5587a85061e7188a-cgu.0.rcgu.o)
                                          0x8 (size before relaxing)
 .ARM.exidx.text.unlikely._ZN4core9panicking11panic_const24panic_const_neg_overflow17hd6798e66c62ddff6E
                0x0000000000140ee8        0x0 ./gen/../tecsrustUART/target/armv7a-none-eabi/release/libitron.a(core-d049573bc16596f9.core.5587a85061e7188a-cgu.0.rcgu.o)
                                          0x8 (size before relaxing)
 .ARM.exidx.text.unlikely._ZN4core9panicking11panic_const24panic_const_shr_overflow17hc596d1ddf3d71019E
                0x0000000000140ee8        0x0 ./gen/../tecsrustUART/target/armv7a-none-eabi/release/libitron.a(core-d049573bc16596f9.core.5587a85061e7188a-cgu.0.rcgu.o)
                                          0x8 (size before relaxing)
 .ARM.exidx.text.unlikely._ZN4core9panicking11panic_const24panic_const_shl_overflow17hab60c2de69792ef8E
                0x0000000000140ee8        0x0 ./gen/../tecsrustUART/target/armv7a-none-eabi/release/libitron.a(core-d049573bc16596f9.core.5587a85061e7188a-cgu.0.rcgu.o)
                                          0x8 (size before relaxing)
 .ARM.exidx.text.unlikely._ZN4core9panicking11panic_const23panic_const_div_by_zero17h841ebc415392a309E
                0x0000000000140ee8        0x0 ./gen/../tecsrustUART/target/armv7a-none-eabi/release/libitron.a(core-d049573bc16596f9.core.5587a85061e7188a-cgu.0.rcgu.o)
                                          0x8 (size before relaxing)
 .ARM.exidx.text.unlikely._ZN4core9panicking11panic_const23panic_const_rem_by_zero17h84c76eadc69bd9a6E
                0x0000000000140ee8        0x0 ./gen/../tecsrustUART/target/armv7a-none-eabi/release/libitron.a(core-d049573bc16596f9.core.5587a85061e7188a-cgu.0.rcgu.o)
                                          0x8 (size before relaxing)
 .ARM.exidx.text.unlikely._ZN4core9panicking11panic_const29panic_const_coroutine_resumed17hc1fec1f49fb82aacE
                0x0000000000140ee8        0x0 ./gen/../tecsrustUART/target/armv7a-none-eabi/release/libitron.a(core-d049573bc16596f9.core.5587a85061e7188a-cgu.0.rcgu.o)
                                          0x8 (size before relaxing)
 .ARM.exidx.text.unlikely._ZN4core9panicking11panic_const28panic_const_async_fn_resumed17h4c52fb4e1fc04b7eE
                0x0000000000140ee8        0x0 ./gen/../tecsrustUART/target/armv7a-none-eabi/release/libitron.a(core-d049573bc16596f9.core.5587a85061e7188a-cgu.0.rcgu.o)
                                          0x8 (size before relaxing)
 .ARM.exidx.text.unlikely._ZN4core9panicking11panic_const32panic_const_async_gen_fn_resumed17hf6dc0ef665815d93E
                0x0000000000140ee8        0x0 ./gen/../tecsrustUART/target/armv7a-none-eabi/release/libitron.a(core-d049573bc16596f9.core.5587a85061e7188a-cgu.0.rcgu.o)
                                          0x8 (size before relaxing)
 .ARM.exidx.text.unlikely._ZN4core9panicking11panic_const23panic_const_gen_fn_none17h9943346b0c293476E
                0x0000000000140ee8        0x0 ./gen/../tecsrustUART/target/armv7a-none-eabi/release/libitron.a(core-d049573bc16596f9.core.5587a85061e7188a-cgu.0.rcgu.o)
                                          0x8 (size before relaxing)
 .ARM.exidx.text.unlikely._ZN4core9panicking11panic_const35panic_const_coroutine_resumed_panic17ha931fedc2d097cbcE
                0x0000000000140ee8        0x0 ./gen/../tecsrustUART/target/armv7a-none-eabi/release/libitron.a(core-d049573bc16596f9.core.5587a85061e7188a-cgu.0.rcgu.o)
                                          0x8 (size before relaxing)
 .ARM.exidx.text.unlikely._ZN4core9panicking11panic_const34panic_const_async_fn_resumed_panic17he3287dd12fe7b10fE
                0x0000000000140ee8        0x0 ./gen/../tecsrustUART/target/armv7a-none-eabi/release/libitron.a(core-d049573bc16596f9.core.5587a85061e7188a-cgu.0.rcgu.o)
                                          0x8 (size before relaxing)
 .ARM.exidx.text.unlikely._ZN4core9panicking11panic_const38panic_const_async_gen_fn_resumed_panic17hd2dc1333c03262feE
                0x0000000000140ee8        0x0 ./gen/../tecsrustUART/target/armv7a-none-eabi/release/libitron.a(core-d049573bc16596f9.core.5587a85061e7188a-cgu.0.rcgu.o)
                                          0x8 (size before relaxing)
 .ARM.exidx.text.unlikely._ZN4core9panicking11panic_const29panic_const_gen_fn_none_panic17h5c1c229e3a40efecE
                0x0000000000140ee8        0x0 ./gen/../tecsrustUART/target/armv7a-none-eabi/release/libitron.a(core-d049573bc16596f9.core.5587a85061e7188a-cgu.0.rcgu.o)
                                          0x8 (size before relaxing)
 .ARM.exidx.text.unlikely._ZN4core9panicking11panic_const34panic_const_coroutine_resumed_drop17h80f9fb05c90896faE
                0x0000000000140ee8        0x0 ./gen/../tecsrustUART/target/armv7a-none-eabi/release/libitron.a(core-d049573bc16596f9.core.5587a85061e7188a-cgu.0.rcgu.o)
                                          0x8 (size before relaxing)
 .ARM.exidx.text.unlikely._ZN4core9panicking11panic_const33panic_const_async_fn_resumed_drop17h372a153677563730E
                0x0000000000140ee8        0x0 ./gen/../tecsrustUART/target/armv7a-none-eabi/release/libitron.a(core-d049573bc16596f9.core.5587a85061e7188a-cgu.0.rcgu.o)
                                          0x8 (size before relaxing)
 .ARM.exidx.text.unlikely._ZN4core9panicking11panic_const37panic_const_async_gen_fn_resumed_drop17hf44454f4c0322d5eE
                0x0000000000140ee8        0x0 ./gen/../tecsrustUART/target/armv7a-none-eabi/release/libitron.a(core-d049573bc16596f9.core.5587a85061e7188a-cgu.0.rcgu.o)
                                          0x8 (size before relaxing)
 .ARM.exidx.text.unlikely._ZN4core9panicking11panic_const28panic_const_gen_fn_none_drop17h79a2beef01222142E
                0x0000000000140ee8        0x0 ./gen/../tecsrustUART/target/armv7a-none-eabi/release/libitron.a(core-d049573bc16596f9.core.5587a85061e7188a-cgu.0.rcgu.o)
                                          0x8 (size before relaxing)
 .ARM.exidx.text._ZN46_$LT$i8$u20$as$u20$core..pat..RangePattern$GT$7sub_one17h9c88d58a08cd9976E
                0x0000000000140ee8        0x0 ./gen/../tecsrustUART/target/armv7a-none-eabi/release/libitron.a(core-d049573bc16596f9.core.5587a85061e7188a-cgu.0.rcgu.o)
                                          0x8 (size before relaxing)
 .ARM.exidx.text._ZN47_$LT$i16$u20$as$u20$core..pat..RangePattern$GT$7sub_one17h0bea40a7c0a1898dE
                0x0000000000140ee8        0x0 ./gen/../tecsrustUART/target/armv7a-none-eabi/release/libitron.a(core-d049573bc16596f9.core.5587a85061e7188a-cgu.0.rcgu.o)
                                          0x8 (size before relaxing)
 .ARM.exidx.text._ZN47_$LT$i32$u20$as$u20$core..pat..RangePattern$GT$7sub_one17hee0294d19fcfed5eE
                0x0000000000140ee8        0x0 ./gen/../tecsrustUART/target/armv7a-none-eabi/release/libitron.a(core-d049573bc16596f9.core.5587a85061e7188a-cgu.0.rcgu.o)
                                          0x8 (size before relaxing)
 .ARM.exidx.text._ZN47_$LT$i64$u20$as$u20$core..pat..RangePattern$GT$7sub_one17h7a71a5a054a38f79E
                0x0000000000140ee8        0x0 ./gen/../tecsrustUART/target/armv7a-none-eabi/release/libitron.a(core-d049573bc16596f9.core.5587a85061e7188a-cgu.0.rcgu.o)
                                          0x8 (size before relaxing)
 .ARM.exidx.text._ZN48_$LT$i128$u20$as$u20$core..pat..RangePattern$GT$7sub_one17hacd854531e93c0c5E
                0x0000000000140ee8        0x0 ./gen/../tecsrustUART/target/armv7a-none-eabi/release/libitron.a(core-d049573bc16596f9.core.5587a85061e7188a-cgu.0.rcgu.o)
                                          0x8 (size before relaxing)
 .ARM.exidx.text._ZN46_$LT$u8$u20$as$u20$core..pat..RangePattern$GT$7sub_one17h15e864f0213c9b05E
                0x0000000000140ee8        0x0 ./gen/../tecsrustUART/target/armv7a-none-eabi/release/libitron.a(core-d049573bc16596f9.core.5587a85061e7188a-cgu.0.rcgu.o)
                                          0x8 (size before relaxing)
 .ARM.exidx.text._ZN47_$LT$u16$u20$as$u20$core..pat..RangePattern$GT$7sub_one17h4335f9c9d4df86f6E
                0x0000000000140ee8        0x0 ./gen/../tecsrustUART/target/armv7a-none-eabi/release/libitron.a(core-d049573bc16596f9.core.5587a85061e7188a-cgu.0.rcgu.o)
                                          0x8 (size before relaxing)
 .ARM.exidx.text._ZN47_$LT$u32$u20$as$u20$core..pat..RangePattern$GT$7sub_one17h3378d20c1f54e79cE
                0x0000000000140ee8        0x0 ./gen/../tecsrustUART/target/armv7a-none-eabi/release/libitron.a(core-d049573bc16596f9.core.5587a85061e7188a-cgu.0.rcgu.o)
                                          0x8 (size before relaxing)
 .ARM.exidx.text._ZN47_$LT$u64$u20$as$u20$core..pat..RangePattern$GT$7sub_one17h6e6e0a2318d9e1f3E
                0x0000000000140ee8        0x0 ./gen/../tecsrustUART/target/armv7a-none-eabi/release/libitron.a(core-d049573bc16596f9.core.5587a85061e7188a-cgu.0.rcgu.o)
                                          0x8 (size before relaxing)
 .ARM.exidx.text._ZN48_$LT$u128$u20$as$u20$core..pat..RangePattern$GT$7sub_one17h49e0f9c674b47932E
                0x0000000000140ee8        0x0 ./gen/../tecsrustUART/target/armv7a-none-eabi/release/libitron.a(core-d049573bc16596f9.core.5587a85061e7188a-cgu.0.rcgu.o)
                                          0x8 (size before relaxing)
 .ARM.exidx.text._ZN65_$LT$core..sync..atomic..AtomicI8$u20$as$u20$core..fmt..Debug$GT$3fmt17h98530b86a99569a1E
                0x0000000000140ee8        0x0 ./gen/../tecsrustUART/target/armv7a-none-eabi/release/libitron.a(core-d049573bc16596f9.core.5587a85061e7188a-cgu.0.rcgu.o)
                                          0x8 (size before relaxing)
 .ARM.exidx.text._ZN65_$LT$core..sync..atomic..AtomicU8$u20$as$u20$core..fmt..Debug$GT$3fmt17h78ea702c9c6bc9f6E
                0x0000000000140ee8        0x0 ./gen/../tecsrustUART/target/armv7a-none-eabi/release/libitron.a(core-d049573bc16596f9.core.5587a85061e7188a-cgu.0.rcgu.o)
                                          0x8 (size before relaxing)
 .ARM.exidx.text._ZN66_$LT$core..sync..atomic..AtomicI16$u20$as$u20$core..fmt..Debug$GT$3fmt17h5390cba2b0e4e3dcE
                0x0000000000140ee8        0x0 ./gen/../tecsrustUART/target/armv7a-none-eabi/release/libitron.a(core-d049573bc16596f9.core.5587a85061e7188a-cgu.0.rcgu.o)
                                          0x8 (size before relaxing)
 .ARM.exidx.text._ZN66_$LT$core..sync..atomic..AtomicU16$u20$as$u20$core..fmt..Debug$GT$3fmt17h2705d1d8027c0f42E
                0x0000000000140ee8        0x0 ./gen/../tecsrustUART/target/armv7a-none-eabi/release/libitron.a(core-d049573bc16596f9.core.5587a85061e7188a-cgu.0.rcgu.o)
                                          0x8 (size before relaxing)
 .ARM.exidx.text._ZN66_$LT$core..sync..atomic..AtomicI32$u20$as$u20$core..fmt..Debug$GT$3fmt17h00f7ed8238e72b79E
                0x0000000000140ee8        0x0 ./gen/../tecsrustUART/target/armv7a-none-eabi/release/libitron.a(core-d049573bc16596f9.core.5587a85061e7188a-cgu.0.rcgu.o)
                                          0x8 (size before relaxing)
 .ARM.exidx.text._ZN66_$LT$core..sync..atomic..AtomicU32$u20$as$u20$core..fmt..Debug$GT$3fmt17hf9fe3a6abac6a243E
                0x0000000000140ee8        0x0 ./gen/../tecsrustUART/target/armv7a-none-eabi/release/libitron.a(core-d049573bc16596f9.core.5587a85061e7188a-cgu.0.rcgu.o)
                                          0x8 (size before relaxing)
 .ARM.exidx.text._ZN66_$LT$core..sync..atomic..AtomicI64$u20$as$u20$core..fmt..Debug$GT$3fmt17h553003e062ab2aeaE
                0x0000000000140ee8        0x0 ./gen/../tecsrustUART/target/armv7a-none-eabi/release/libitron.a(core-d049573bc16596f9.core.5587a85061e7188a-cgu.0.rcgu.o)
                                          0x8 (size before relaxing)
 .ARM.exidx.text._ZN66_$LT$core..sync..atomic..AtomicU64$u20$as$u20$core..fmt..Debug$GT$3fmt17h4837e1a6089e1848E
                0x0000000000140ee8        0x0 ./gen/../tecsrustUART/target/armv7a-none-eabi/release/libitron.a(core-d049573bc16596f9.core.5587a85061e7188a-cgu.0.rcgu.o)
                                          0x8 (size before relaxing)
 .ARM.exidx.text._ZN55_$LT$f32$u20$as$u20$core..fmt..float..GeneralFormat$GT$44already_rounded_value_should_use_exponential17hb22121c88fcaa0beE
                0x0000000000140ee8        0x0 ./gen/../tecsrustUART/target/armv7a-none-eabi/release/libitron.a(core-d049573bc16596f9.core.5587a85061e7188a-cgu.0.rcgu.o)
                                          0x8 (size before relaxing)
 .ARM.exidx.text._ZN55_$LT$f64$u20$as$u20$core..fmt..float..GeneralFormat$GT$44already_rounded_value_should_use_exponential17h8b724b9904cc9c26E
                0x0000000000140ee8        0x0 ./gen/../tecsrustUART/target/armv7a-none-eabi/release/libitron.a(core-d049573bc16596f9.core.5587a85061e7188a-cgu.0.rcgu.o)
                                          0x8 (size before relaxing)
 .ARM.exidx.text._ZN4core3fmt5float50_$LT$impl$u20$core..fmt..Debug$u20$for$u20$f32$GT$3fmt17h36f6f70bc5e41684E
                0x0000000000140ee8        0x0 ./gen/../tecsrustUART/target/armv7a-none-eabi/release/libitron.a(core-d049573bc16596f9.core.5587a85061e7188a-cgu.0.rcgu.o)
                                          0x8 (size before relaxing)
 .ARM.exidx.text._ZN4core3fmt5float52_$LT$impl$u20$core..fmt..Display$u20$for$u20$f32$GT$3fmt17h80810e25a018a288E
                0x0000000000140ee8        0x0 ./gen/../tecsrustUART/target/armv7a-none-eabi/release/libitron.a(core-d049573bc16596f9.core.5587a85061e7188a-cgu.0.rcgu.o)
                                          0x8 (size before relaxing)
 .ARM.exidx.text._ZN4core3fmt5float53_$LT$impl$u20$core..fmt..LowerExp$u20$for$u20$f32$GT$3fmt17h820dff1b1d643fd6E
                0x0000000000140ee8        0x0 ./gen/../tecsrustUART/target/armv7a-none-eabi/release/libitron.a(core-d049573bc16596f9.core.5587a85061e7188a-cgu.0.rcgu.o)
                                          0x8 (size before relaxing)
 .ARM.exidx.text._ZN4core3fmt5float53_$LT$impl$u20$core..fmt..UpperExp$u20$for$u20$f32$GT$3fmt17hdf25f1d7057efea1E
                0x0000000000140ee8        0x0 ./gen/../tecsrustUART/target/armv7a-none-eabi/release/libitron.a(core-d049573bc16596f9.core.5587a85061e7188a-cgu.0.rcgu.o)
                                          0x8 (size before relaxing)
 .ARM.exidx.text._ZN4core3fmt5float50_$LT$impl$u20$core..fmt..Debug$u20$for$u20$f64$GT$3fmt17h12b316315661d7a7E
                0x0000000000140ee8        0x0 ./gen/../tecsrustUART/target/armv7a-none-eabi/release/libitron.a(core-d049573bc16596f9.core.5587a85061e7188a-cgu.0.rcgu.o)
                                          0x8 (size before relaxing)
 .ARM.exidx.text._ZN4core3fmt5float52_$LT$impl$u20$core..fmt..Display$u20$for$u20$f64$GT$3fmt17h1658c390055e8683E
                0x0000000000140ee8        0x0 ./gen/../tecsrustUART/target/armv7a-none-eabi/release/libitron.a(core-d049573bc16596f9.core.5587a85061e7188a-cgu.0.rcgu.o)
                                          0x8 (size before relaxing)
 .ARM.exidx.text._ZN4core3fmt5float53_$LT$impl$u20$core..fmt..LowerExp$u20$for$u20$f64$GT$3fmt17hab161d28c266dbf1E
                0x0000000000140ee8        0x0 ./gen/../tecsrustUART/target/armv7a-none-eabi/release/libitron.a(core-d049573bc16596f9.core.5587a85061e7188a-cgu.0.rcgu.o)
                                          0x8 (size before relaxing)
 .ARM.exidx.text._ZN4core3fmt5float53_$LT$impl$u20$core..fmt..UpperExp$u20$for$u20$f64$GT$3fmt17hfdc423d0ad75608dE
                0x0000000000140ee8        0x0 ./gen/../tecsrustUART/target/armv7a-none-eabi/release/libitron.a(core-d049573bc16596f9.core.5587a85061e7188a-cgu.0.rcgu.o)
                                          0x8 (size before relaxing)
 .ARM.exidx.text._ZN4core3fmt5float50_$LT$impl$u20$core..fmt..Debug$u20$for$u20$f16$GT$3fmt17h0275f4e20d5ac985E
                0x0000000000140ee8        0x0 ./gen/../tecsrustUART/target/armv7a-none-eabi/release/libitron.a(core-d049573bc16596f9.core.5587a85061e7188a-cgu.0.rcgu.o)
                                          0x8 (size before relaxing)
 .ARM.exidx.text._ZN4core3fmt5float52_$LT$impl$u20$core..fmt..Display$u20$for$u20$f16$GT$3fmt17h44d06f4ee009c844E
                0x0000000000140ee8        0x0 ./gen/../tecsrustUART/target/armv7a-none-eabi/release/libitron.a(core-d049573bc16596f9.core.5587a85061e7188a-cgu.0.rcgu.o)
                                          0x8 (size before relaxing)
 .ARM.exidx.text._ZN4core3fmt5float53_$LT$impl$u20$core..fmt..LowerExp$u20$for$u20$f16$GT$3fmt17h5cc0551d1f587a8bE
                0x0000000000140ee8        0x0 ./gen/../tecsrustUART/target/armv7a-none-eabi/release/libitron.a(core-d049573bc16596f9.core.5587a85061e7188a-cgu.0.rcgu.o)
                                          0x8 (size before relaxing)
 .ARM.exidx.text._ZN4core3fmt5float53_$LT$impl$u20$core..fmt..UpperExp$u20$for$u20$f16$GT$3fmt17h2a0ba872876a6cb1E
                0x0000000000140ee8        0x0 ./gen/../tecsrustUART/target/armv7a-none-eabi/release/libitron.a(core-d049573bc16596f9.core.5587a85061e7188a-cgu.0.rcgu.o)
                                          0x8 (size before relaxing)
 .ARM.exidx.text._ZN71_$LT$core..fmt..num..Binary$u20$as$u20$core..fmt..num..GenericRadix$GT$5digit17he4b6c679024b6753E
                0x0000000000140ee8        0x0 ./gen/../tecsrustUART/target/armv7a-none-eabi/release/libitron.a(core-d049573bc16596f9.core.5587a85061e7188a-cgu.0.rcgu.o)
                                          0x8 (size before relaxing)
 .ARM.exidx.text._ZN70_$LT$core..fmt..num..Octal$u20$as$u20$core..fmt..num..GenericRadix$GT$5digit17h6d524b5314e7839aE
                0x0000000000140ee8        0x0 ./gen/../tecsrustUART/target/armv7a-none-eabi/release/libitron.a(core-d049573bc16596f9.core.5587a85061e7188a-cgu.0.rcgu.o)
                                          0x8 (size before relaxing)
 .ARM.exidx.text._ZN73_$LT$core..fmt..num..LowerHex$u20$as$u20$core..fmt..num..GenericRadix$GT$5digit17h67093c0abfd72a34E
                0x0000000000140ee8        0x0 ./gen/../tecsrustUART/target/armv7a-none-eabi/release/libitron.a(core-d049573bc16596f9.core.5587a85061e7188a-cgu.0.rcgu.o)
                                          0x8 (size before relaxing)
 .ARM.exidx.text._ZN73_$LT$core..fmt..num..UpperHex$u20$as$u20$core..fmt..num..GenericRadix$GT$5digit17h2ebf7f3cf75c8942E
                0x0000000000140ee8        0x0 ./gen/../tecsrustUART/target/armv7a-none-eabi/release/libitron.a(core-d049573bc16596f9.core.5587a85061e7188a-cgu.0.rcgu.o)
                                          0x8 (size before relaxing)
 .ARM.exidx.text._ZN4core3fmt3num50_$LT$impl$u20$core..fmt..Binary$u20$for$u20$i8$GT$3fmt17hfb8e99514944e386E
                0x0000000000140ee8        0x0 ./gen/../tecsrustUART/target/armv7a-none-eabi/release/libitron.a(core-d049573bc16596f9.core.5587a85061e7188a-cgu.0.rcgu.o)
                                          0x8 (size before relaxing)
 .ARM.exidx.text._ZN4core3fmt3num49_$LT$impl$u20$core..fmt..Octal$u20$for$u20$i8$GT$3fmt17h16740b96b647866aE
                0x0000000000140ee8        0x0 ./gen/../tecsrustUART/target/armv7a-none-eabi/release/libitron.a(core-d049573bc16596f9.core.5587a85061e7188a-cgu.0.rcgu.o)
                                          0x8 (size before relaxing)
 .ARM.exidx.text._ZN4core3fmt3num52_$LT$impl$u20$core..fmt..LowerHex$u20$for$u20$i8$GT$3fmt17ha38e82f4b36477dfE
                0x0000000000140ee8        0x0 ./gen/../tecsrustUART/target/armv7a-none-eabi/release/libitron.a(core-d049573bc16596f9.core.5587a85061e7188a-cgu.0.rcgu.o)
                                          0x8 (size before relaxing)
 .ARM.exidx.text._ZN4core3fmt3num52_$LT$impl$u20$core..fmt..UpperHex$u20$for$u20$i8$GT$3fmt17hdbc78e6d81b9fc73E
                0x0000000000140ee8        0x0 ./gen/../tecsrustUART/target/armv7a-none-eabi/release/libitron.a(core-d049573bc16596f9.core.5587a85061e7188a-cgu.0.rcgu.o)
                                          0x8 (size before relaxing)
 .ARM.exidx.text._ZN4core3fmt3num51_$LT$impl$u20$core..fmt..Binary$u20$for$u20$i16$GT$3fmt17hd9dba8c56e1924baE
                0x0000000000140ee8        0x0 ./gen/../tecsrustUART/target/armv7a-none-eabi/release/libitron.a(core-d049573bc16596f9.core.5587a85061e7188a-cgu.0.rcgu.o)
                                          0x8 (size before relaxing)
 .ARM.exidx.text._ZN4core3fmt3num50_$LT$impl$u20$core..fmt..Octal$u20$for$u20$i16$GT$3fmt17h673945bd6fb3acfeE
                0x0000000000140ee8        0x0 ./gen/../tecsrustUART/target/armv7a-none-eabi/release/libitron.a(core-d049573bc16596f9.core.5587a85061e7188a-cgu.0.rcgu.o)
                                          0x8 (size before relaxing)
 .ARM.exidx.text._ZN4core3fmt3num53_$LT$impl$u20$core..fmt..LowerHex$u20$for$u20$i16$GT$3fmt17hd32e4fcbce79670aE
                0x0000000000140ee8        0x0 ./gen/../tecsrustUART/target/armv7a-none-eabi/release/libitron.a(core-d049573bc16596f9.core.5587a85061e7188a-cgu.0.rcgu.o)
                                          0x8 (size before relaxing)
 .ARM.exidx.text._ZN4core3fmt3num53_$LT$impl$u20$core..fmt..UpperHex$u20$for$u20$i16$GT$3fmt17hc507e3445ac18ebeE
                0x0000000000140ee8        0x0 ./gen/../tecsrustUART/target/armv7a-none-eabi/release/libitron.a(core-d049573bc16596f9.core.5587a85061e7188a-cgu.0.rcgu.o)
                                          0x8 (size before relaxing)
 .ARM.exidx.text._ZN4core3fmt3num51_$LT$impl$u20$core..fmt..Binary$u20$for$u20$i32$GT$3fmt17hd6aa21fb91002751E
                0x0000000000140ee8        0x0 ./gen/../tecsrustUART/target/armv7a-none-eabi/release/libitron.a(core-d049573bc16596f9.core.5587a85061e7188a-cgu.0.rcgu.o)
                                          0x8 (size before relaxing)
 .ARM.exidx.text._ZN4core3fmt3num50_$LT$impl$u20$core..fmt..Octal$u20$for$u20$i32$GT$3fmt17hdfdd079f8dc60dc7E
                0x0000000000140ee8        0x0 ./gen/../tecsrustUART/target/armv7a-none-eabi/release/libitron.a(core-d049573bc16596f9.core.5587a85061e7188a-cgu.0.rcgu.o)
                                          0x8 (size before relaxing)
 .ARM.exidx.text._ZN4core3fmt3num53_$LT$impl$u20$core..fmt..LowerHex$u20$for$u20$i32$GT$3fmt17h1bfe37b07cf28800E
                0x0000000000140ee8        0x0 ./gen/../tecsrustUART/target/armv7a-none-eabi/release/libitron.a(core-d049573bc16596f9.core.5587a85061e7188a-cgu.0.rcgu.o)
                                          0x8 (size before relaxing)
 .ARM.exidx.text._ZN4core3fmt3num53_$LT$impl$u20$core..fmt..UpperHex$u20$for$u20$i32$GT$3fmt17hf4441f29103186f0E
                0x0000000000140ee8        0x0 ./gen/../tecsrustUART/target/armv7a-none-eabi/release/libitron.a(core-d049573bc16596f9.core.5587a85061e7188a-cgu.0.rcgu.o)
                                          0x8 (size before relaxing)
 .ARM.exidx.text._ZN4core3fmt3num51_$LT$impl$u20$core..fmt..Binary$u20$for$u20$i64$GT$3fmt17h2344af75f6c15b7fE
                0x0000000000140ee8        0x0 ./gen/../tecsrustUART/target/armv7a-none-eabi/release/libitron.a(core-d049573bc16596f9.core.5587a85061e7188a-cgu.0.rcgu.o)
                                          0x8 (size before relaxing)
 .ARM.exidx.text._ZN4core3fmt3num50_$LT$impl$u20$core..fmt..Octal$u20$for$u20$i64$GT$3fmt17hc6f5294ea5289e43E
                0x0000000000140ee8        0x0 ./gen/../tecsrustUART/target/armv7a-none-eabi/release/libitron.a(core-d049573bc16596f9.core.5587a85061e7188a-cgu.0.rcgu.o)
                                          0x8 (size before relaxing)
 .ARM.exidx.text._ZN4core3fmt3num53_$LT$impl$u20$core..fmt..LowerHex$u20$for$u20$i64$GT$3fmt17hac7e501d59390ecfE
                0x0000000000140ee8        0x0 ./gen/../tecsrustUART/target/armv7a-none-eabi/release/libitron.a(core-d049573bc16596f9.core.5587a85061e7188a-cgu.0.rcgu.o)
                                          0x8 (size before relaxing)
 .ARM.exidx.text._ZN4core3fmt3num53_$LT$impl$u20$core..fmt..UpperHex$u20$for$u20$i64$GT$3fmt17h51257ca6c0f8239cE
                0x0000000000140ee8        0x0 ./gen/../tecsrustUART/target/armv7a-none-eabi/release/libitron.a(core-d049573bc16596f9.core.5587a85061e7188a-cgu.0.rcgu.o)
                                          0x8 (size before relaxing)
 .ARM.exidx.text._ZN4core3fmt3num52_$LT$impl$u20$core..fmt..Binary$u20$for$u20$i128$GT$3fmt17h7be091d3317e0d6cE
                0x0000000000140ee8        0x0 ./gen/../tecsrustUART/target/armv7a-none-eabi/release/libitron.a(core-d049573bc16596f9.core.5587a85061e7188a-cgu.0.rcgu.o)
                                          0x8 (size before relaxing)
 .ARM.exidx.text._ZN4core3fmt3num51_$LT$impl$u20$core..fmt..Octal$u20$for$u20$i128$GT$3fmt17h5fb2ef3ead5b0ea5E
                0x0000000000140ee8        0x0 ./gen/../tecsrustUART/target/armv7a-none-eabi/release/libitron.a(core-d049573bc16596f9.core.5587a85061e7188a-cgu.0.rcgu.o)
                                          0x8 (size before relaxing)
 .ARM.exidx.text._ZN4core3fmt3num54_$LT$impl$u20$core..fmt..LowerHex$u20$for$u20$i128$GT$3fmt17h4f123a38d1270953E
                0x0000000000140ee8        0x0 ./gen/../tecsrustUART/target/armv7a-none-eabi/release/libitron.a(core-d049573bc16596f9.core.5587a85061e7188a-cgu.0.rcgu.o)
                                          0x8 (size before relaxing)
 .ARM.exidx.text._ZN4core3fmt3num54_$LT$impl$u20$core..fmt..UpperHex$u20$for$u20$i128$GT$3fmt17ha49e3851795cfdefE
                0x0000000000140ee8        0x0 ./gen/../tecsrustUART/target/armv7a-none-eabi/release/libitron.a(core-d049573bc16596f9.core.5587a85061e7188a-cgu.0.rcgu.o)
                                          0x8 (size before relaxing)
 .ARM.exidx.text._ZN4core3fmt3num49_$LT$impl$u20$core..fmt..Debug$u20$for$u20$i8$GT$3fmt17h34acdd6c4c2b4cccE
                0x0000000000140ee8        0x0 ./gen/../tecsrustUART/target/armv7a-none-eabi/release/libitron.a(core-d049573bc16596f9.core.5587a85061e7188a-cgu.0.rcgu.o)
                                          0x8 (size before relaxing)
 .ARM.exidx.text._ZN4core3fmt3num49_$LT$impl$u20$core..fmt..Debug$u20$for$u20$u8$GT$3fmt17h8d8c411144315c72E
                0x0000000000140ee8        0x0 ./gen/../tecsrustUART/target/armv7a-none-eabi/release/libitron.a(core-d049573bc16596f9.core.5587a85061e7188a-cgu.0.rcgu.o)
                                          0x8 (size before relaxing)
 .ARM.exidx.text._ZN4core3fmt3num50_$LT$impl$u20$core..fmt..Debug$u20$for$u20$u32$GT$3fmt17h71bef540c929d311E
                0x0000000000140ee8        0x0 ./gen/../tecsrustUART/target/armv7a-none-eabi/release/libitron.a(core-d049573bc16596f9.core.5587a85061e7188a-cgu.0.rcgu.o)
                                          0x8 (size before relaxing)
 .ARM.exidx.text._ZN4core3fmt3num3imp51_$LT$impl$u20$core..fmt..Display$u20$for$u20$u8$GT$3fmt17hbcfcd188bf01c23fE
                0x0000000000140ee8        0x0 ./gen/../tecsrustUART/target/armv7a-none-eabi/release/libitron.a(core-d049573bc16596f9.core.5587a85061e7188a-cgu.0.rcgu.o)
                                          0x8 (size before relaxing)
 .ARM.exidx.text._ZN4core3fmt3num3imp51_$LT$impl$u20$core..fmt..Display$u20$for$u20$i8$GT$3fmt17hff22c034098846a1E
                0x0000000000140ee8        0x0 ./gen/../tecsrustUART/target/armv7a-none-eabi/release/libitron.a(core-d049573bc16596f9.core.5587a85061e7188a-cgu.0.rcgu.o)
                                          0x8 (size before relaxing)
 .ARM.exidx.text._ZN4core3fmt3num3imp20_$LT$impl$u20$u8$GT$4_fmt17hb5a7663e8a0544e3E
                0x0000000000140ee8        0x0 ./gen/../tecsrustUART/target/armv7a-none-eabi/release/libitron.a(core-d049573bc16596f9.core.5587a85061e7188a-cgu.0.rcgu.o)
                                          0x8 (size before relaxing)
 .ARM.exidx.text._ZN4core3fmt3num3imp52_$LT$impl$u20$core..fmt..Display$u20$for$u20$u16$GT$3fmt17hb807d5b07197dd3cE
                0x0000000000140ee8        0x0 ./gen/../tecsrustUART/target/armv7a-none-eabi/release/libitron.a(core-d049573bc16596f9.core.5587a85061e7188a-cgu.0.rcgu.o)
                                          0x8 (size before relaxing)
 .ARM.exidx.text._ZN4core3fmt3num3imp52_$LT$impl$u20$core..fmt..Display$u20$for$u20$i16$GT$3fmt17hd6d0d2db5935d675E
                0x0000000000140ee8        0x0 ./gen/../tecsrustUART/target/armv7a-none-eabi/release/libitron.a(core-d049573bc16596f9.core.5587a85061e7188a-cgu.0.rcgu.o)
                                          0x8 (size before relaxing)
 .ARM.exidx.text._ZN4core3fmt3num3imp21_$LT$impl$u20$u16$GT$4_fmt17h2eab8ac218d2ab0cE
                0x0000000000140ee8        0x0 ./gen/../tecsrustUART/target/armv7a-none-eabi/release/libitron.a(core-d049573bc16596f9.core.5587a85061e7188a-cgu.0.rcgu.o)
                                          0x8 (size before relaxing)
 .ARM.exidx.text._ZN4core3fmt3num3imp52_$LT$impl$u20$core..fmt..Display$u20$for$u20$u32$GT$3fmt17hfed0ce75b320fdfeE
                0x0000000000140ee8        0x0 ./gen/../tecsrustUART/target/armv7a-none-eabi/release/libitron.a(core-d049573bc16596f9.core.5587a85061e7188a-cgu.0.rcgu.o)
                                          0x8 (size before relaxing)
 .ARM.exidx.text._ZN4core3fmt3num3imp52_$LT$impl$u20$core..fmt..Display$u20$for$u20$i32$GT$3fmt17h6694708af44e6410E
                0x0000000000140ee8        0x0 ./gen/../tecsrustUART/target/armv7a-none-eabi/release/libitron.a(core-d049573bc16596f9.core.5587a85061e7188a-cgu.0.rcgu.o)
                                          0x8 (size before relaxing)
 .ARM.exidx.text._ZN4core3fmt3num3imp21_$LT$impl$u20$u32$GT$4_fmt17he3f4180fb8f739b6E
                0x0000000000140ee8        0x0 ./gen/../tecsrustUART/target/armv7a-none-eabi/release/libitron.a(core-d049573bc16596f9.core.5587a85061e7188a-cgu.0.rcgu.o)
                                          0x8 (size before relaxing)
 .ARM.exidx.text._ZN4core3fmt3num3imp52_$LT$impl$u20$core..fmt..Display$u20$for$u20$u64$GT$3fmt17hca688f18ea3812f0E
                0x0000000000140ee8        0x0 ./gen/../tecsrustUART/target/armv7a-none-eabi/release/libitron.a(core-d049573bc16596f9.core.5587a85061e7188a-cgu.0.rcgu.o)
                                          0x8 (size before relaxing)
 .ARM.exidx.text._ZN4core3fmt3num3imp52_$LT$impl$u20$core..fmt..Display$u20$for$u20$i64$GT$3fmt17h746d5f02f990caf3E
                0x0000000000140ee8        0x0 ./gen/../tecsrustUART/target/armv7a-none-eabi/release/libitron.a(core-d049573bc16596f9.core.5587a85061e7188a-cgu.0.rcgu.o)
                                          0x8 (size before relaxing)
 .ARM.exidx.text._ZN4core3fmt3num3imp21_$LT$impl$u20$u64$GT$4_fmt17h5cad236623dacc7fE
                0x0000000000140ee8        0x0 ./gen/../tecsrustUART/target/armv7a-none-eabi/release/libitron.a(core-d049573bc16596f9.core.5587a85061e7188a-cgu.0.rcgu.o)
                                          0x8 (size before relaxing)
 .ARM.exidx.text._ZN4core3fmt3num3imp7exp_u3217he01470f61c0319e7E
                0x0000000000140ee8        0x0 ./gen/../tecsrustUART/target/armv7a-none-eabi/release/libitron.a(core-d049573bc16596f9.core.5587a85061e7188a-cgu.0.rcgu.o)
                                          0x8 (size before relaxing)
 .ARM.exidx.text._ZN4core3fmt3num3imp52_$LT$impl$u20$core..fmt..LowerExp$u20$for$u20$i8$GT$3fmt17hc0edf995b11d88a4E
                0x0000000000140ee8        0x0 ./gen/../tecsrustUART/target/armv7a-none-eabi/release/libitron.a(core-d049573bc16596f9.core.5587a85061e7188a-cgu.0.rcgu.o)
                                          0x8 (size before relaxing)
 .ARM.exidx.text._ZN4core3fmt3num3imp52_$LT$impl$u20$core..fmt..LowerExp$u20$for$u20$u8$GT$3fmt17h9f71b4e1975c97b3E
                0x0000000000140ee8        0x0 ./gen/../tecsrustUART/target/armv7a-none-eabi/release/libitron.a(core-d049573bc16596f9.core.5587a85061e7188a-cgu.0.rcgu.o)
                                          0x8 (size before relaxing)
 .ARM.exidx.text._ZN4core3fmt3num3imp53_$LT$impl$u20$core..fmt..LowerExp$u20$for$u20$i16$GT$3fmt17h2ec4792f26758582E
                0x0000000000140ee8        0x0 ./gen/../tecsrustUART/target/armv7a-none-eabi/release/libitron.a(core-d049573bc16596f9.core.5587a85061e7188a-cgu.0.rcgu.o)
                                          0x8 (size before relaxing)
 .ARM.exidx.text._ZN4core3fmt3num3imp53_$LT$impl$u20$core..fmt..LowerExp$u20$for$u20$u16$GT$3fmt17he1630ced7897f954E
                0x0000000000140ee8        0x0 ./gen/../tecsrustUART/target/armv7a-none-eabi/release/libitron.a(core-d049573bc16596f9.core.5587a85061e7188a-cgu.0.rcgu.o)
                                          0x8 (size before relaxing)
 .ARM.exidx.text._ZN4core3fmt3num3imp53_$LT$impl$u20$core..fmt..LowerExp$u20$for$u20$i32$GT$3fmt17hc830ff5284d762bdE
                0x0000000000140ee8        0x0 ./gen/../tecsrustUART/target/armv7a-none-eabi/release/libitron.a(core-d049573bc16596f9.core.5587a85061e7188a-cgu.0.rcgu.o)
                                          0x8 (size before relaxing)
 .ARM.exidx.text._ZN4core3fmt3num3imp53_$LT$impl$u20$core..fmt..LowerExp$u20$for$u20$u32$GT$3fmt17he84cd695e6f75fd8E
                0x0000000000140ee8        0x0 ./gen/../tecsrustUART/target/armv7a-none-eabi/release/libitron.a(core-d049573bc16596f9.core.5587a85061e7188a-cgu.0.rcgu.o)
                                          0x8 (size before relaxing)
 .ARM.exidx.text._ZN4core3fmt3num3imp52_$LT$impl$u20$core..fmt..UpperExp$u20$for$u20$i8$GT$3fmt17h3cc98f3a87f4ea66E
                0x0000000000140ee8        0x0 ./gen/../tecsrustUART/target/armv7a-none-eabi/release/libitron.a(core-d049573bc16596f9.core.5587a85061e7188a-cgu.0.rcgu.o)
                                          0x8 (size before relaxing)
 .ARM.exidx.text._ZN4core3fmt3num3imp52_$LT$impl$u20$core..fmt..UpperExp$u20$for$u20$u8$GT$3fmt17h04e779386a1b925eE
                0x0000000000140ee8        0x0 ./gen/../tecsrustUART/target/armv7a-none-eabi/release/libitron.a(core-d049573bc16596f9.core.5587a85061e7188a-cgu.0.rcgu.o)
                                          0x8 (size before relaxing)
 .ARM.exidx.text._ZN4core3fmt3num3imp53_$LT$impl$u20$core..fmt..UpperExp$u20$for$u20$i16$GT$3fmt17ha0dd815a12b4d383E
                0x0000000000140ee8        0x0 ./gen/../tecsrustUART/target/armv7a-none-eabi/release/libitron.a(core-d049573bc16596f9.core.5587a85061e7188a-cgu.0.rcgu.o)
                                          0x8 (size before relaxing)
 .ARM.exidx.text._ZN4core3fmt3num3imp53_$LT$impl$u20$core..fmt..UpperExp$u20$for$u20$u16$GT$3fmt17h07d48ce0e1e749dcE
                0x0000000000140ee8        0x0 ./gen/../tecsrustUART/target/armv7a-none-eabi/release/libitron.a(core-d049573bc16596f9.core.5587a85061e7188a-cgu.0.rcgu.o)
                                          0x8 (size before relaxing)
 .ARM.exidx.text._ZN4core3fmt3num3imp53_$LT$impl$u20$core..fmt..UpperExp$u20$for$u20$i32$GT$3fmt17hf0350addfa1667d3E
                0x0000000000140ee8        0x0 ./gen/../tecsrustUART/target/armv7a-none-eabi/release/libitron.a(core-d049573bc16596f9.core.5587a85061e7188a-cgu.0.rcgu.o)
                                          0x8 (size before relaxing)
 .ARM.exidx.text._ZN4core3fmt3num3imp53_$LT$impl$u20$core..fmt..UpperExp$u20$for$u20$u32$GT$3fmt17he78d3191f07bcd68E
                0x0000000000140ee8        0x0 ./gen/../tecsrustUART/target/armv7a-none-eabi/release/libitron.a(core-d049573bc16596f9.core.5587a85061e7188a-cgu.0.rcgu.o)
                                          0x8 (size before relaxing)
 .ARM.exidx.text._ZN4core3fmt3num3imp7exp_u6417h10bcc1a2e249db0dE
                0x0000000000140ee8        0x0 ./gen/../tecsrustUART/target/armv7a-none-eabi/release/libitron.a(core-d049573bc16596f9.core.5587a85061e7188a-cgu.0.rcgu.o)
                                          0x8 (size before relaxing)
 .ARM.exidx.text._ZN4core3fmt3num3imp53_$LT$impl$u20$core..fmt..LowerExp$u20$for$u20$i64$GT$3fmt17hcf4752f526debdaeE
                0x0000000000140ee8        0x0 ./gen/../tecsrustUART/target/armv7a-none-eabi/release/libitron.a(core-d049573bc16596f9.core.5587a85061e7188a-cgu.0.rcgu.o)
                                          0x8 (size before relaxing)
 .ARM.exidx.text._ZN4core3fmt3num3imp53_$LT$impl$u20$core..fmt..LowerExp$u20$for$u20$u64$GT$3fmt17h1137bee068b4f16aE
                0x0000000000140ee8        0x0 ./gen/../tecsrustUART/target/armv7a-none-eabi/release/libitron.a(core-d049573bc16596f9.core.5587a85061e7188a-cgu.0.rcgu.o)
                                          0x8 (size before relaxing)
 .ARM.exidx.text._ZN4core3fmt3num3imp53_$LT$impl$u20$core..fmt..UpperExp$u20$for$u20$i64$GT$3fmt17hb868ad8f77e533adE
                0x0000000000140ee8        0x0 ./gen/../tecsrustUART/target/armv7a-none-eabi/release/libitron.a(core-d049573bc16596f9.core.5587a85061e7188a-cgu.0.rcgu.o)
                                          0x8 (size before relaxing)
 .ARM.exidx.text._ZN4core3fmt3num3imp53_$LT$impl$u20$core..fmt..UpperExp$u20$for$u20$u64$GT$3fmt17h63c965249d38ffaaE
                0x0000000000140ee8        0x0 ./gen/../tecsrustUART/target/armv7a-none-eabi/release/libitron.a(core-d049573bc16596f9.core.5587a85061e7188a-cgu.0.rcgu.o)
                                          0x8 (size before relaxing)
 .ARM.exidx.text._ZN4core3fmt3num8exp_u12817hebe915adc93a3f65E
                0x0000000000140ee8        0x0 ./gen/../tecsrustUART/target/armv7a-none-eabi/release/libitron.a(core-d049573bc16596f9.core.5587a85061e7188a-cgu.0.rcgu.o)
                                          0x8 (size before relaxing)
 .ARM.exidx.text._ZN4core3fmt3num54_$LT$impl$u20$core..fmt..LowerExp$u20$for$u20$i128$GT$3fmt17h5da6959838468447E
                0x0000000000140ee8        0x0 ./gen/../tecsrustUART/target/armv7a-none-eabi/release/libitron.a(core-d049573bc16596f9.core.5587a85061e7188a-cgu.0.rcgu.o)
                                          0x8 (size before relaxing)
 .ARM.exidx.text._ZN4core3fmt3num54_$LT$impl$u20$core..fmt..LowerExp$u20$for$u20$u128$GT$3fmt17h376c18320fa0ab27E
                0x0000000000140ee8        0x0 ./gen/../tecsrustUART/target/armv7a-none-eabi/release/libitron.a(core-d049573bc16596f9.core.5587a85061e7188a-cgu.0.rcgu.o)
                                          0x8 (size before relaxing)
 .ARM.exidx.text._ZN4core3fmt3num54_$LT$impl$u20$core..fmt..UpperExp$u20$for$u20$i128$GT$3fmt17h4fa0aa44e9ac138bE
                0x0000000000140ee8        0x0 ./gen/../tecsrustUART/target/armv7a-none-eabi/release/libitron.a(core-d049573bc16596f9.core.5587a85061e7188a-cgu.0.rcgu.o)
                                          0x8 (size before relaxing)
 .ARM.exidx.text._ZN4core3fmt3num54_$LT$impl$u20$core..fmt..UpperExp$u20$for$u20$u128$GT$3fmt17h8104a47a73970792E
                0x0000000000140ee8        0x0 ./gen/../tecsrustUART/target/armv7a-none-eabi/release/libitron.a(core-d049573bc16596f9.core.5587a85061e7188a-cgu.0.rcgu.o)
                                          0x8 (size before relaxing)
 .ARM.exidx.text._ZN53_$LT$core..fmt..Error$u20$as$u20$core..fmt..Debug$GT$3fmt17h1fc33b0efc6d4457E
                0x0000000000140ee8        0x0 ./gen/../tecsrustUART/target/armv7a-none-eabi/release/libitron.a(core-d049573bc16596f9.core.5587a85061e7188a-cgu.0.rcgu.o)
                                          0x8 (size before relaxing)
 .ARM.exidx.text._ZN42_$LT$$RF$T$u20$as$u20$core..fmt..Debug$GT$3fmt17h24b88fa73242f32eE
                0x0000000000140ee8        0x0 ./gen/../tecsrustUART/target/armv7a-none-eabi/release/libitron.a(core-d049573bc16596f9.core.5587a85061e7188a-cgu.0.rcgu.o)
                                          0x8 (size before relaxing)
 .ARM.exidx.text._ZN42_$LT$$RF$T$u20$as$u20$core..fmt..Debug$GT$3fmt17h2b8606028715b277E
                0x0000000000140ee8        0x0 ./gen/../tecsrustUART/target/armv7a-none-eabi/release/libitron.a(core-d049573bc16596f9.core.5587a85061e7188a-cgu.0.rcgu.o)
                                          0x8 (size before relaxing)
 .ARM.exidx.text._ZN42_$LT$$RF$T$u20$as$u20$core..fmt..Debug$GT$3fmt17h2c94c47449fce077E
                0x0000000000140ee8        0x0 ./gen/../tecsrustUART/target/armv7a-none-eabi/release/libitron.a(core-d049573bc16596f9.core.5587a85061e7188a-cgu.0.rcgu.o)
                                          0x8 (size before relaxing)
 .ARM.exidx.text._ZN42_$LT$$RF$T$u20$as$u20$core..fmt..Debug$GT$3fmt17hf161bf64d7c0ef1eE
                0x0000000000140ee8        0x0 ./gen/../tecsrustUART/target/armv7a-none-eabi/release/libitron.a(core-d049573bc16596f9.core.5587a85061e7188a-cgu.0.rcgu.o)
                                          0x8 (size before relaxing)
 .ARM.exidx.text._ZN44_$LT$$RF$T$u20$as$u20$core..fmt..Display$GT$3fmt17h61386bb67a2fbd60E
                0x0000000000140ee8        0x0 ./gen/../tecsrustUART/target/armv7a-none-eabi/release/libitron.a(core-d049573bc16596f9.core.5587a85061e7188a-cgu.0.rcgu.o)
                                          0x8 (size before relaxing)
 .ARM.exidx.text._ZN44_$LT$$RF$T$u20$as$u20$core..fmt..Display$GT$3fmt17h8f0befc82ddda638E
                0x0000000000140ee8        0x0 ./gen/../tecsrustUART/target/armv7a-none-eabi/release/libitron.a(core-d049573bc16596f9.core.5587a85061e7188a-cgu.0.rcgu.o)
                                          0x8 (size before relaxing)
 .ARM.exidx.text._ZN44_$LT$$RF$T$u20$as$u20$core..fmt..Display$GT$3fmt17hfac9eb6f9e514871E
                0x0000000000140ee8        0x0 ./gen/../tecsrustUART/target/armv7a-none-eabi/release/libitron.a(core-d049573bc16596f9.core.5587a85061e7188a-cgu.0.rcgu.o)
                                          0x8 (size before relaxing)
 .ARM.exidx.text._ZN44_$LT$$RF$T$u20$as$u20$core..fmt..Display$GT$3fmt17hfcf05cee7c9056f6E
                0x0000000000140ee8        0x0 ./gen/../tecsrustUART/target/armv7a-none-eabi/release/libitron.a(core-d049573bc16596f9.core.5587a85061e7188a-cgu.0.rcgu.o)
                                          0x8 (size before relaxing)
 .ARM.exidx.text._ZN45_$LT$$RF$T$u20$as$u20$core..fmt..LowerHex$GT$3fmt17ha26303ddcb46393bE
                0x0000000000140ee8        0x0 ./gen/../tecsrustUART/target/armv7a-none-eabi/release/libitron.a(core-d049573bc16596f9.core.5587a85061e7188a-cgu.0.rcgu.o)
                                          0x8 (size before relaxing)
 .ARM.exidx.text.unlikely._ZN4core5slice5index26slice_start_index_len_fail8do_panic7runtime17h6b9a2d72cc528d7dE
                0x0000000000140ee8        0x0 ./gen/../tecsrustUART/target/armv7a-none-eabi/release/libitron.a(core-d049573bc16596f9.core.5587a85061e7188a-cgu.0.rcgu.o)
                                          0x8 (size before relaxing)
 .ARM.exidx.text.unlikely._ZN4core5slice5index24slice_end_index_len_fail8do_panic7runtime17h389d609c37b06f43E
                0x0000000000140ee8        0x0 ./gen/../tecsrustUART/target/armv7a-none-eabi/release/libitron.a(core-d049573bc16596f9.core.5587a85061e7188a-cgu.0.rcgu.o)
                                          0x8 (size before relaxing)
 .ARM.exidx.text.unlikely._ZN4core5slice5index22slice_index_order_fail8do_panic7runtime17hba4d89077763ab27E
                0x0000000000140ee8        0x0 ./gen/../tecsrustUART/target/armv7a-none-eabi/release/libitron.a(core-d049573bc16596f9.core.5587a85061e7188a-cgu.0.rcgu.o)
                                          0x8 (size before relaxing)
 .ARM.exidx.text.unlikely._ZN4core5slice29_$LT$impl$u20$$u5b$T$u5d$$GT$15copy_from_slice17len_mismatch_fail8do_panic7runtime17ha2cc200a2ee383aeE
                0x0000000000140ee8        0x0 ./gen/../tecsrustUART/target/armv7a-none-eabi/release/libitron.a(core-d049573bc16596f9.core.5587a85061e7188a-cgu.0.rcgu.o)
                                          0x8 (size before relaxing)
 .ARM.exidx.text._ZN67_$LT$core..str..iter..EscapeDebug$u20$as$u20$core..fmt..Display$GT$3fmt17h2e2431f416ffb01dE
                0x0000000000140ee8        0x0 ./gen/../tecsrustUART/target/armv7a-none-eabi/release/libitron.a(core-d049573bc16596f9.core.5587a85061e7188a-cgu.0.rcgu.o)
                                          0x8 (size before relaxing)
 .ARM.exidx.text._ZN69_$LT$core..str..iter..EscapeDefault$u20$as$u20$core..fmt..Display$GT$3fmt17ha94bdd14781dc3d5E
                0x0000000000140ee8        0x0 ./gen/../tecsrustUART/target/armv7a-none-eabi/release/libitron.a(core-d049573bc16596f9.core.5587a85061e7188a-cgu.0.rcgu.o)
                                          0x8 (size before relaxing)
 .ARM.exidx.text._ZN69_$LT$core..str..iter..EscapeUnicode$u20$as$u20$core..fmt..Display$GT$3fmt17h5c27075c7f7ee5aeE
                0x0000000000140ee8        0x0 ./gen/../tecsrustUART/target/armv7a-none-eabi/release/libitron.a(core-d049573bc16596f9.core.5587a85061e7188a-cgu.0.rcgu.o)
                                          0x8 (size before relaxing)
 .ARM.exidx.text._ZN4core7unicode12unicode_data10alphabetic6lookup17h0425ea10b4aa7bf8E
                0x0000000000140ee8        0x0 ./gen/../tecsrustUART/target/armv7a-none-eabi/release/libitron.a(core-d049573bc16596f9.core.5587a85061e7188a-cgu.0.rcgu.o)
                                          0x8 (size before relaxing)
 .ARM.exidx.text._ZN4core7unicode12unicode_data14case_ignorable6lookup17ha88a31073cb4ea00E
                0x0000000000140ee8        0x0 ./gen/../tecsrustUART/target/armv7a-none-eabi/release/libitron.a(core-d049573bc16596f9.core.5587a85061e7188a-cgu.0.rcgu.o)
                                          0x8 (size before relaxing)
 .ARM.exidx.text._ZN4core7unicode12unicode_data5cased6lookup17h855070ae3579273aE
                0x0000000000140ee8        0x0 ./gen/../tecsrustUART/target/armv7a-none-eabi/release/libitron.a(core-d049573bc16596f9.core.5587a85061e7188a-cgu.0.rcgu.o)
                                          0x8 (size before relaxing)
 .ARM.exidx.text._ZN4core7unicode12unicode_data2cc6lookup17hbd92340422846ed5E
                0x0000000000140ee8        0x0 ./gen/../tecsrustUART/target/armv7a-none-eabi/release/libitron.a(core-d049573bc16596f9.core.5587a85061e7188a-cgu.0.rcgu.o)
                                          0x8 (size before relaxing)
 .ARM.exidx.text._ZN4core7unicode12unicode_data15grapheme_extend11lookup_slow17ha0f2bcc528f4b24fE
                0x0000000000140ee8        0x0 ./gen/../tecsrustUART/target/armv7a-none-eabi/release/libitron.a(core-d049573bc16596f9.core.5587a85061e7188a-cgu.0.rcgu.o)
                                          0x8 (size before relaxing)
 .ARM.exidx.text._ZN4core7unicode12unicode_data9lowercase6lookup17h25b6cb6d69b065d2E
                0x0000000000140ee8        0x0 ./gen/../tecsrustUART/target/armv7a-none-eabi/release/libitron.a(core-d049573bc16596f9.core.5587a85061e7188a-cgu.0.rcgu.o)
                                          0x8 (size before relaxing)
 .ARM.exidx.text._ZN4core7unicode12unicode_data1n6lookup17hab35f8f69f966811E
                0x0000000000140ee8        0x0 ./gen/../tecsrustUART/target/armv7a-none-eabi/release/libitron.a(core-d049573bc16596f9.core.5587a85061e7188a-cgu.0.rcgu.o)
                                          0x8 (size before relaxing)
 .ARM.exidx.text._ZN4core7unicode12unicode_data9uppercase6lookup17h93e2abe42af36001E
                0x0000000000140ee8        0x0 ./gen/../tecsrustUART/target/armv7a-none-eabi/release/libitron.a(core-d049573bc16596f9.core.5587a85061e7188a-cgu.0.rcgu.o)
                                          0x8 (size before relaxing)
 .ARM.exidx.text._ZN4core7unicode12unicode_data11conversions8to_lower17h8b23e01b2072e971E
                0x0000000000140ee8        0x0 ./gen/../tecsrustUART/target/armv7a-none-eabi/release/libitron.a(core-d049573bc16596f9.core.5587a85061e7188a-cgu.0.rcgu.o)
                                          0x8 (size before relaxing)
 .ARM.exidx.text._ZN4core7unicode12unicode_data11conversions8to_upper17hb90ef9b0b7a7f5d4E
                0x0000000000140ee8        0x0 ./gen/../tecsrustUART/target/armv7a-none-eabi/release/libitron.a(core-d049573bc16596f9.core.5587a85061e7188a-cgu.0.rcgu.o)
                                          0x8 (size before relaxing)
 .ARM.exidx.text.__aeabi_memset
                0x0000000000140ee8        0x0 ./gen/../tecsrustUART/target/armv7a-none-eabi/release/libitron.a(compiler_builtins-70f608aea3cde50d.compiler_builtins.5a681add74c93a61-cgu.162.rcgu.o)
                                          0x8 (size before relaxing)
 .ARM.exidx.text.__aeabi_memcpy4
                0x0000000000140ee8        0x0 ./gen/../tecsrustUART/target/armv7a-none-eabi/release/libitron.a(compiler_builtins-70f608aea3cde50d.compiler_builtins.5a681add74c93a61-cgu.174.rcgu.o)
                                          0x8 (size before relaxing)
 .ARM.exidx.text.__aeabi_dmul
                0x0000000000140ee8        0x0 ./gen/../tecsrustUART/target/armv7a-none-eabi/release/libitron.a(compiler_builtins-70f608aea3cde50d.compiler_builtins.5a681add74c93a61-cgu.178.rcgu.o)
                                          0x8 (size before relaxing)
 .ARM.exidx.text.__aeabi_fcmplt
                0x0000000000140ee8        0x0 ./gen/../tecsrustUART/target/armv7a-none-eabi/release/libitron.a(compiler_builtins-70f608aea3cde50d.compiler_builtins.5a681add74c93a61-cgu.180.rcgu.o)
                                          0x8 (size before relaxing)
 .ARM.exidx.text.__aeabi_memclr4
                0x0000000000140ee8        0x0 ./gen/../tecsrustUART/target/armv7a-none-eabi/release/libitron.a(compiler_builtins-70f608aea3cde50d.compiler_builtins.5a681add74c93a61-cgu.201.rcgu.o)
                                          0x8 (size before relaxing)
 .ARM.exidx.text.__aeabi_fcmpge
                0x0000000000140ee8        0x0 ./gen/../tecsrustUART/target/armv7a-none-eabi/release/libitron.a(compiler_builtins-70f608aea3cde50d.compiler_builtins.5a681add74c93a61-cgu.206.rcgu.o)
                                          0x8 (size before relaxing)
 .ARM.exidx.text.__aeabi_f2h
                0x0000000000140ee8        0x0 ./gen/../tecsrustUART/target/armv7a-none-eabi/release/libitron.a(compiler_builtins-70f608aea3cde50d.compiler_builtins.5a681add74c93a61-cgu.210.rcgu.o)
                                          0x8 (size before relaxing)
 .ARM.exidx.text.__aeabi_memcpy
                0x0000000000140ee8        0x0 ./gen/../tecsrustUART/target/armv7a-none-eabi/release/libitron.a(compiler_builtins-70f608aea3cde50d.compiler_builtins.5a681add74c93a61-cgu.223.rcgu.o)
                                          0x8 (size before relaxing)
 .ARM.exidx.text.__aeabi_memcpy8
                0x0000000000140ee8        0x0 ./gen/../tecsrustUART/target/armv7a-none-eabi/release/libitron.a(compiler_builtins-70f608aea3cde50d.compiler_builtins.5a681add74c93a61-cgu.253.rcgu.o)
                                          0x8 (size before relaxing)
 .ARM.exidx.text.__aeabi_dcmplt
                0x0000000000140ee8        0x0 ./gen/../tecsrustUART/target/armv7a-none-eabi/release/libitron.a(compiler_builtins-70f608aea3cde50d.compiler_builtins.5a681add74c93a61-cgu.261.rcgu.o)
                                          0x8 (size before relaxing)
 .ARM.exidx.text.__aeabi_ddiv
                0x0000000000140ee8        0x0 ./gen/../tecsrustUART/target/armv7a-none-eabi/release/libitron.a(compiler_builtins-70f608aea3cde50d.compiler_builtins.5a681add74c93a61-cgu.263.rcgu.o)
                                          0x8 (size before relaxing)
 .ARM.exidx.text.__aeabi_ul2d
                0x0000000000140ee8        0x0 ./gen/../tecsrustUART/target/armv7a-none-eabi/release/libitron.a(compiler_builtins-70f608aea3cde50d.compiler_builtins.5a681add74c93a61-cgu.270.rcgu.o)
                                          0x8 (size before relaxing)
 .ARM.exidx.text.__aeabi_fcmpeq
                0x0000000000140ee8        0x0 ./gen/../tecsrustUART/target/armv7a-none-eabi/release/libitron.a(compiler_builtins-70f608aea3cde50d.compiler_builtins.5a681add74c93a61-cgu.283.rcgu.o)
                                          0x8 (size before relaxing)
 .ARM.exidx.text.__aeabi_dcmpeq
                0x0000000000140ee8        0x0 ./gen/../tecsrustUART/target/armv7a-none-eabi/release/libitron.a(compiler_builtins-70f608aea3cde50d.compiler_builtins.5a681add74c93a61-cgu.287.rcgu.o)
                                          0x8 (size before relaxing)
 .ARM.exidx.text.__aeabi_h2f
                0x0000000000140ee8        0x0 ./gen/../tecsrustUART/target/armv7a-none-eabi/release/libitron.a(compiler_builtins-70f608aea3cde50d.compiler_builtins.5a681add74c93a61-cgu.300.rcgu.o)
                                          0x8 (size before relaxing)
 .ARM.exidx.text.memcmp
                0x0000000000140ee8        0x0 ./gen/../tecsrustUART/target/armv7a-none-eabi/release/libitron.a(compiler_builtins-70f608aea3cde50d.compiler_builtins.5a681add74c93a61-cgu.310.rcgu.o)
                                          0x8 (size before relaxing)
 .ARM.exidx.text.__aeabi_fdiv
                0x0000000000140ee8        0x0 ./gen/../tecsrustUART/target/armv7a-none-eabi/release/libitron.a(compiler_builtins-70f608aea3cde50d.compiler_builtins.5a681add74c93a61-cgu.355.rcgu.o)
                                          0x8 (size before relaxing)
 .ARM.exidx.text.__aeabi_dcmpge
                0x0000000000140ee8        0x0 ./gen/../tecsrustUART/target/armv7a-none-eabi/release/libitron.a(compiler_builtins-70f608aea3cde50d.compiler_builtins.5a681add74c93a61-cgu.361.rcgu.o)
                                          0x8 (size before relaxing)
 .ARM.exidx.text.__aeabi_ul2f
                0x0000000000140ee8        0x0 ./gen/../tecsrustUART/target/armv7a-none-eabi/release/libitron.a(compiler_builtins-70f608aea3cde50d.compiler_builtins.5a681add74c93a61-cgu.365.rcgu.o)
                                          0x8 (size before relaxing)
 .ARM.exidx.text.__aeabi_memclr8
                0x0000000000140ee8        0x0 ./gen/../tecsrustUART/target/armv7a-none-eabi/release/libitron.a(compiler_builtins-70f608aea3cde50d.compiler_builtins.5a681add74c93a61-cgu.375.rcgu.o)
                                          0x8 (size before relaxing)
 .ARM.exidx.text.__aeabi_fmul
                0x0000000000140ee8        0x0 ./gen/../tecsrustUART/target/armv7a-none-eabi/release/libitron.a(compiler_builtins-70f608aea3cde50d.compiler_builtins.5a681add74c93a61-cgu.393.rcgu.o)
                                          0x8 (size before relaxing)
 .ARM.exidx.text.__aeabi_memclr
                0x0000000000140ee8        0x0 ./gen/../tecsrustUART/target/armv7a-none-eabi/release/libitron.a(compiler_builtins-70f608aea3cde50d.compiler_builtins.5a681add74c93a61-cgu.395.rcgu.o)
                                          0x8 (size before relaxing)
 .ARM.exidx.text._ZN17compiler_builtins5float3div3div17he78d0620a7b75566E
                0x0000000000140ee8        0x0 ./gen/../tecsrustUART/target/armv7a-none-eabi/release/libitron.a(compiler_builtins-70f608aea3cde50d.compiler_builtins.5a681add74c93a61-cgu.000.rcgu.o)
                                          0x8 (size before relaxing)
 .ARM.exidx.text._ZN17compiler_builtins5float3div8__divsf317h2b1d2160bcddc788E
                0x0000000000140ee8        0x0 ./gen/../tecsrustUART/target/armv7a-none-eabi/release/libitron.a(compiler_builtins-70f608aea3cde50d.compiler_builtins.5a681add74c93a61-cgu.000.rcgu.o)
                                          0x8 (size before relaxing)
 .ARM.exidx.text._ZN17compiler_builtins5float3div8__divdf317hce8b9ad476be59d6E
                0x0000000000140ee8        0x0 ./gen/../tecsrustUART/target/armv7a-none-eabi/release/libitron.a(compiler_builtins-70f608aea3cde50d.compiler_builtins.5a681add74c93a61-cgu.000.rcgu.o)
                                          0x8 (size before relaxing)
 .ARM.exidx.text._ZN17compiler_builtins5float3mul3mul17hf2a17768751d3093E
                0x0000000000140ee8        0x0 ./gen/../tecsrustUART/target/armv7a-none-eabi/release/libitron.a(compiler_builtins-70f608aea3cde50d.compiler_builtins.5a681add74c93a61-cgu.004.rcgu.o)
                                          0x8 (size before relaxing)
 .ARM.exidx.text._ZN17compiler_builtins5float3mul8__mulsf317h25278f3241c059d4E
                0x0000000000140ee8        0x0 ./gen/../tecsrustUART/target/armv7a-none-eabi/release/libitron.a(compiler_builtins-70f608aea3cde50d.compiler_builtins.5a681add74c93a61-cgu.004.rcgu.o)
                                          0x8 (size before relaxing)
 .ARM.exidx.text._ZN17compiler_builtins5float3mul8__muldf317hccb81ca3c0286231E
                0x0000000000140ee8        0x0 ./gen/../tecsrustUART/target/armv7a-none-eabi/release/libitron.a(compiler_builtins-70f608aea3cde50d.compiler_builtins.5a681add74c93a61-cgu.004.rcgu.o)
                                          0x8 (size before relaxing)
 .ARM.exidx.text._ZN17compiler_builtins3mem6memcpy17h2e27bf7b653d77b8E
                0x0000000000140ee8        0x0 ./gen/../tecsrustUART/target/armv7a-none-eabi/release/libitron.a(compiler_builtins-70f608aea3cde50d.compiler_builtins.5a681add74c93a61-cgu.009.rcgu.o)
                                          0x8 (size before relaxing)
 .ARM.exidx.text._ZN17compiler_builtins3mem7memmove17h5a3e1228d8082146E
                0x0000000000140ee8        0x0 ./gen/../tecsrustUART/target/armv7a-none-eabi/release/libitron.a(compiler_builtins-70f608aea3cde50d.compiler_builtins.5a681add74c93a61-cgu.009.rcgu.o)
                                          0x8 (size before relaxing)
 .ARM.exidx.text._ZN17compiler_builtins3mem6memset17h37b1769849978255E
                0x0000000000140ee8        0x0 ./gen/../tecsrustUART/target/armv7a-none-eabi/release/libitron.a(compiler_builtins-70f608aea3cde50d.compiler_builtins.5a681add74c93a61-cgu.009.rcgu.o)
                                          0x8 (size before relaxing)
 .ARM.exidx.text._ZN17compiler_builtins3mem4bcmp17h6438afe9a882ff74E
                0x0000000000140ee8        0x0 ./gen/../tecsrustUART/target/armv7a-none-eabi/release/libitron.a(compiler_builtins-70f608aea3cde50d.compiler_builtins.5a681add74c93a61-cgu.009.rcgu.o)
                                          0x8 (size before relaxing)
 .ARM.exidx.text._ZN17compiler_builtins3mem6strlen17hdb1c52627ea21c52E
                0x0000000000140ee8        0x0 ./gen/../tecsrustUART/target/armv7a-none-eabi/release/libitron.a(compiler_builtins-70f608aea3cde50d.compiler_builtins.5a681add74c93a61-cgu.009.rcgu.o)
                                          0x8 (size before relaxing)
 .ARM.exidx.text._ZN84_$LT$compiler_builtins..int..big..u256$u20$as$u20$core..ops..bit..Shr$LT$u32$GT$$GT$3shr17h700137e2b572ae43E
                0x0000000000140ee8        0x0 ./gen/../tecsrustUART/target/armv7a-none-eabi/release/libitron.a(compiler_builtins-70f608aea3cde50d.compiler_builtins.5a681add74c93a61-cgu.019.rcgu.o)
                                          0x8 (size before relaxing)
 .ARM.exidx.text._ZN17compiler_builtins3int3big71_$LT$impl$u20$compiler_builtins..int..traits..HInt$u20$for$u20$u128$GT$14zero_widen_mul17h2a6f60738a72942fE
                0x0000000000140ee8        0x0 ./gen/../tecsrustUART/target/armv7a-none-eabi/release/libitron.a(compiler_builtins-70f608aea3cde50d.compiler_builtins.5a681add74c93a61-cgu.019.rcgu.o)
                                          0x8 (size before relaxing)
 .ARM.exidx.text._ZN17compiler_builtins3int3big71_$LT$impl$u20$compiler_builtins..int..traits..HInt$u20$for$u20$i128$GT$14zero_widen_mul17h757cd97f511fe0d1E
                0x0000000000140ee8        0x0 ./gen/../tecsrustUART/target/armv7a-none-eabi/release/libitron.a(compiler_builtins-70f608aea3cde50d.compiler_builtins.5a681add74c93a61-cgu.019.rcgu.o)
                                          0x8 (size before relaxing)
 .ARM.exidx.text.unlikely._ZN17compiler_builtins3int3big71_$LT$impl$u20$compiler_builtins..int..traits..HInt$u20$for$u20$i128$GT$9widen_mul17hbe745c677a8cf624E
                0x0000000000140ee8        0x0 ./gen/../tecsrustUART/target/armv7a-none-eabi/release/libitron.a(compiler_builtins-70f608aea3cde50d.compiler_builtins.5a681add74c93a61-cgu.019.rcgu.o)
                                          0x8 (size before relaxing)
 .ARM.exidx.text.unlikely._ZN17compiler_builtins3int3big71_$LT$impl$u20$compiler_builtins..int..traits..HInt$u20$for$u20$i128$GT$8widen_hi17hd02f55ec31f3daf8E
                0x0000000000140ee8        0x0 ./gen/../tecsrustUART/target/armv7a-none-eabi/release/libitron.a(compiler_builtins-70f608aea3cde50d.compiler_builtins.5a681add74c93a61-cgu.019.rcgu.o)
                                          0x8 (size before relaxing)
 .ARM.exidx.text._ZN90_$LT$compiler_builtins..int..big..i256$u20$as$u20$compiler_builtins..int..traits..DInt$GT$2lo17h7b22363a25d41783E
                0x0000000000140ee8        0x0 ./gen/../tecsrustUART/target/armv7a-none-eabi/release/libitron.a(compiler_builtins-70f608aea3cde50d.compiler_builtins.5a681add74c93a61-cgu.019.rcgu.o)
                                          0x8 (size before relaxing)
 .ARM.exidx.text._ZN90_$LT$compiler_builtins..int..big..i256$u20$as$u20$compiler_builtins..int..traits..DInt$GT$2hi17h3540cc33fb75817bE
                0x0000000000140ee8        0x0 ./gen/../tecsrustUART/target/armv7a-none-eabi/release/libitron.a(compiler_builtins-70f608aea3cde50d.compiler_builtins.5a681add74c93a61-cgu.019.rcgu.o)
                                          0x8 (size before relaxing)
 .ARM.exidx.text._ZN17compiler_builtins3int6traits4DInt5lo_hi17ha308a58add6cc6a0E
                0x0000000000140ee8        0x0 ./gen/../tecsrustUART/target/armv7a-none-eabi/release/libitron.a(compiler_builtins-70f608aea3cde50d.compiler_builtins.5a681add74c93a61-cgu.019.rcgu.o)
                                          0x8 (size before relaxing)
 .ARM.exidx.text.unlikely._ZN84_$LT$compiler_builtins..int..big..i256$u20$as$u20$core..ops..bit..Shl$LT$u32$GT$$GT$3shl17h7aea36307c5c7502E
                0x0000000000140ee8        0x0 ./gen/../tecsrustUART/target/armv7a-none-eabi/release/libitron.a(compiler_builtins-70f608aea3cde50d.compiler_builtins.5a681add74c93a61-cgu.019.rcgu.o)
                                          0x8 (size before relaxing)
 .ARM.exidx.text.__udivmoddi4
                0x0000000000140ee8        0x0 ./gen/../tecsrustUART/target/armv7a-none-eabi/release/libitron.a(compiler_builtins-70f608aea3cde50d.compiler_builtins.5a681add74c93a61-cgu.347.rcgu.o)
                                          0x8 (size before relaxing)
 .ARM.exidx.text._ZN17compiler_builtins3int19specialized_div_rem12u128_div_rem17h745fc7146425b8c6E
                0x0000000000140ee8        0x0 ./gen/../tecsrustUART/target/armv7a-none-eabi/release/libitron.a(compiler_builtins-70f608aea3cde50d.compiler_builtins.5a681add74c93a61-cgu.010.rcgu.o)
                                          0x8 (size before relaxing)
 .ARM.exidx.text._ZN17compiler_builtins3int19specialized_div_rem11u64_div_rem17h1dcded8ad6a6aa41E
                0x0000000000140ee8        0x0 ./gen/../tecsrustUART/target/armv7a-none-eabi/release/libitron.a(compiler_builtins-70f608aea3cde50d.compiler_builtins.5a681add74c93a61-cgu.010.rcgu.o)
                                          0x8 (size before relaxing)
                0x0000000000140ee8                __exidx_end = .

.rel.dyn        0x0000000000140ee8        0x0
 .rel.iplt      0x0000000000140ee8        0x0 objs/start.o

.data           0x0000000000140ee8       0x40
                0x0000000000140ee8                __start_data = .
 *(.data)
 .data          0x0000000000140ee8        0x0 objs/start.o
 .data          0x0000000000140ee8        0x0 objs/log_output.o
 .data          0x0000000000140ee8        0x0 objs/vasyslog.o
 .data          0x0000000000140ee8        0x0 objs/t_perror.o
 .data          0x0000000000140ee8        0x0 objs/strerror.o
 .data          0x0000000000140ee8        0x0 objs/tTask_rProcessor1Migratable_tecsgen.o
 .data          0x0000000000140ee8        0x0 objs/tSemaphore_rProcessor1Migratable_tecsgen.o
 .data          0x0000000000140ee8        0x0 objs/tInterruptRequest_rProcessor1Migratable_tecsgen.o
 .data          0x0000000000140ee8        0x0 objs/tISR_rProcessor1Migratable_tecsgen.o
 .data          0x0000000000140ee8        0x0 objs/tTerminateRoutine_rProcessor1Migratable_tecsgen.o
 .data          0x0000000000140ee8        0x0 objs/tSerialPortMain_rProcessor1Migratable_tecsgen.o
 .data          0x0000000000140ee8        0x0 objs/tSerialAdapter_rProcessor1Migratable_tecsgen.o
 .data          0x0000000000140ee8        0x0 objs/tSysLog_rProcessor1Migratable_tecsgen.o
 .data          0x0000000000140ee8        0x0 objs/tSysLogAdapter_rProcessor1Migratable_tecsgen.o
 .data          0x0000000000140ee8        0x0 objs/tLogTaskMain_rProcessor1Migratable_tecsgen.o
 .data          0x0000000000140ee8        0x0 objs/tPutLogZyboZ7_rProcessor1Migratable_tecsgen.o
 .data          0x0000000000140ee8        0x0 objs/tXUartPs_rProcessor1Migratable_tecsgen.o
 .data          0x0000000000140ee8        0x0 objs/tSIOPortZyboZ7Main_rProcessor1Migratable_tecsgen.o
 .data          0x0000000000140ee8        0x0 objs/tTask.o
 .data          0x0000000000140ee8        0x0 objs/tInterruptRequest.o
 .data          0x0000000000140ee8        0x0 objs/tISR.o
 .data          0x0000000000140ee8        0x0 objs/tTerminateRoutine.o
 .data          0x0000000000140ee8        0x0 objs/tSerialPortMain.o
 .data          0x0000000000140ee8        0x0 objs/tSerialAdapter.o
 .data          0x0000000000140ee8        0x0 objs/tSysLog.o
 .data          0x0000000000140ee8        0x0 objs/tSysLogAdapter.o
 .data          0x0000000000140ee8        0x0 objs/tLogTaskMain.o
 .data          0x0000000000140ee8        0x0 objs/tPutLogZyboZ7.o
 .data          0x0000000000140ee8        0x0 objs/tXUartPs.o
 .data          0x0000000000140ee8        0x0 objs/init_tecs.o
 .data          0x0000000000140ee8        0x0 objs/kernel_cfg.o
 .data          0x0000000000140ee8        0x0 ./gen/../tecsrustUART/target/armv7a-none-eabi/release/libitron.a(63f8a0b8a638da8c-udivmodsi4.o)
 .data          0x0000000000140ee8        0x0 ./gen/../tecsrustUART/target/armv7a-none-eabi/release/libitron.a(63f8a0b8a638da8c-udivsi3.o)
 .data          0x0000000000140ee8        0x0 ./gen/../tecsrustUART/target/armv7a-none-eabi/release/libitron.a(63f8a0b8a638da8c-aeabi_div0.o)
 .data          0x0000000000140ee8       0x40 ./libkernel.a(target_kernel_impl.o)
                0x0000000000140ee8                arm_memory_area
 .data          0x0000000000140f28        0x0 ./libkernel.a(chip_kernel_impl.o)
 .data          0x0000000000140f28        0x0 ./libkernel.a(mpcore_kernel_impl.o)
 .data          0x0000000000140f28        0x0 ./libkernel.a(gic_kernel_impl.o)
 .data          0x0000000000140f28        0x0 ./libkernel.a(pl310.o)
 .data          0x0000000000140f28        0x0 ./libkernel.a(mpcore_timer.o)
 .data          0x0000000000140f28        0x0 ./libkernel.a(core_kernel_impl.o)
 .data          0x0000000000140f28        0x0 ./libkernel.a(arm.o)
 .data          0x0000000000140f28        0x0 ./libkernel.a(startup.o)
 .data          0x0000000000140f28        0x0 ./libkernel.a(task.o)
 .data          0x0000000000140f28        0x0 ./libkernel.a(taskhook.o)
 .data          0x0000000000140f28        0x0 ./libkernel.a(wait.o)
 .data          0x0000000000140f28        0x0 ./libkernel.a(time_event.o)
 .data          0x0000000000140f28        0x0 ./libkernel.a(task_sync.o)
 .data          0x0000000000140f28        0x0 ./libkernel.a(semaphore.o)
 .data          0x0000000000140f28        0x0 ./libkernel.a(dataqueue.o)
 .data          0x0000000000140f28        0x0 ./libkernel.a(spin_lock.o)
 .data          0x0000000000140f28        0x0 ./libkernel.a(sys_manage.o)
 .data          0x0000000000140f28        0x0 ./libkernel.a(interrupt.o)
 .data          0x0000000000140f28        0x0 ./libkernel.a(core_support.o)
 .data          0x0000000000140f28        0x0 ./libkernel.a(task_term.o)
 .data          0x0000000000140f28        0x0 ./libkernel.a(gic_support.o)
 .data          0x0000000000140f28        0x0 /usr/lib/gcc/arm-none-eabi/10.3.1/../../../arm-none-eabi/lib/thumb/v7-a/nofp/libc.a(lib_a-memset.o)
 *(.data.*)
                0x0000000000140f28                __end_data = .
                0x0000000000140ee8                __start_idata = LOADADDR (.data)

.igot.plt       0x0000000000140f28        0x0
 .igot.plt      0x0000000000140f28        0x0 objs/start.o
                0x0000000000140f28                . = ALIGN (0x4)
                0x0000000000140f28                _edata = .
                [!provide]                        PROVIDE (edata = .)

.bss            0x0000000000140f28     0xd5b8
                0x0000000000140f28                __start_bss = .
 *(.bss)
 .bss           0x0000000000140f28        0x0 objs/start.o
 .bss           0x0000000000140f28        0x0 objs/log_output.o
 .bss           0x0000000000140f28        0x0 objs/vasyslog.o
 .bss           0x0000000000140f28        0x0 objs/t_perror.o
 .bss           0x0000000000140f28        0x0 objs/strerror.o
 .bss           0x0000000000140f28        0x0 objs/tTask_rProcessor1Migratable_tecsgen.o
 .bss           0x0000000000140f28        0x0 objs/tSemaphore_rProcessor1Migratable_tecsgen.o
 .bss           0x0000000000140f28        0x0 objs/tInterruptRequest_rProcessor1Migratable_tecsgen.o
 .bss           0x0000000000140f28        0x0 objs/tISR_rProcessor1Migratable_tecsgen.o
 .bss           0x0000000000140f28        0x0 objs/tTerminateRoutine_rProcessor1Migratable_tecsgen.o
 .bss           0x0000000000140f28      0x234 objs/tSerialPortMain_rProcessor1Migratable_tecsgen.o
                0x0000000000140f28                tSerialPortMain_CB_tab
                0x0000000000140f5c                tSerialPortMain_SerialPort1_SerialPortMain_CB_sendBuffer_INIT
                0x000000000014105c                tSerialPortMain_SerialPort1_SerialPortMain_CB_receiveBuffer_INIT
 .bss           0x000000000014115c        0x0 objs/tSerialAdapter_rProcessor1Migratable_tecsgen.o
 .bss           0x000000000014115c      0x49c objs/tSysLog_rProcessor1Migratable_tecsgen.o
                0x000000000014115c                tSysLog_SINGLE_CELL_CB
                0x0000000000141178                tSysLog_SINGLE_CELL_CB_logBuffer_INIT
 .bss           0x00000000001415f8        0x0 objs/tSysLogAdapter_rProcessor1Migratable_tecsgen.o
 .bss           0x00000000001415f8        0x0 objs/tLogTaskMain_rProcessor1Migratable_tecsgen.o
 .bss           0x00000000001415f8        0x0 objs/tPutLogZyboZ7_rProcessor1Migratable_tecsgen.o
 .bss           0x00000000001415f8        0x8 objs/tXUartPs_rProcessor1Migratable_tecsgen.o
                0x00000000001415f8                tXUartPs_CB_tab
 .bss           0x0000000000141600        0x0 objs/tSIOPortZyboZ7Main_rProcessor1Migratable_tecsgen.o
 .bss           0x0000000000141600        0x0 objs/tTask.o
 .bss           0x0000000000141600        0x0 objs/tInterruptRequest.o
 .bss           0x0000000000141600        0x0 objs/tISR.o
 .bss           0x0000000000141600        0x0 objs/tTerminateRoutine.o
 .bss           0x0000000000141600        0x0 objs/tSerialPortMain.o
 .bss           0x0000000000141600        0x0 objs/tSerialAdapter.o
 .bss           0x0000000000141600        0x0 objs/tSysLog.o
 .bss           0x0000000000141600        0x0 objs/tSysLogAdapter.o
 .bss           0x0000000000141600        0x0 objs/tLogTaskMain.o
 .bss           0x0000000000141600        0x0 objs/tPutLogZyboZ7.o
 .bss           0x0000000000141600        0x0 objs/tXUartPs.o
 .bss           0x0000000000141600        0x0 objs/init_tecs.o
 .bss           0x0000000000141600       0x18 objs/kernel_cfg.o
                0x0000000000141600                _kernel_tevtcb_prc2
                0x0000000000141608                _kernel_tevtcb_prc1
                0x0000000000141610                _kernel_kerflg_table
 .bss           0x0000000000141618        0x0 ./gen/../tecsrustUART/target/armv7a-none-eabi/release/libitron.a(63f8a0b8a638da8c-udivmodsi4.o)
 .bss           0x0000000000141618        0x0 ./gen/../tecsrustUART/target/armv7a-none-eabi/release/libitron.a(63f8a0b8a638da8c-udivsi3.o)
 .bss           0x0000000000141618        0x0 ./gen/../tecsrustUART/target/armv7a-none-eabi/release/libitron.a(63f8a0b8a638da8c-aeabi_div0.o)
 .bss           0x0000000000141618        0x0 ./libkernel.a(target_kernel_impl.o)
 .bss           0x0000000000141618        0x0 ./libkernel.a(chip_kernel_impl.o)
 .bss           0x0000000000141618        0x0 ./libkernel.a(mpcore_kernel_impl.o)
 .bss           0x0000000000141618        0x0 ./libkernel.a(gic_kernel_impl.o)
 .bss           0x0000000000141618        0x0 ./libkernel.a(pl310.o)
 .bss           0x0000000000141618        0x0 ./libkernel.a(mpcore_timer.o)
 *fill*         0x0000000000141618     0x29e8 
 .bss           0x0000000000144000     0x4010 ./libkernel.a(core_kernel_impl.o)
                0x0000000000148000                _kernel_giant_lock
                0x0000000000148004                TOPPERS_sil_spn_var
                0x0000000000148008                _kernel_start_sync
 .bss           0x0000000000148010        0x0 ./libkernel.a(arm.o)
 .bss           0x0000000000148010        0xc ./libkernel.a(startup.o)
 .bss           0x000000000014801c        0x0 ./libkernel.a(task.o)
 .bss           0x000000000014801c        0xc ./libkernel.a(taskhook.o)
                0x000000000014801c                _kernel_mtxhook_release_all
                0x0000000000148020                _kernel_mtxhook_scan_ceilmtx
                0x0000000000148024                _kernel_mtxhook_check_ceilpri
 .bss           0x0000000000148028        0x0 ./libkernel.a(wait.o)
 .bss           0x0000000000148028       0x1c ./libkernel.a(time_event.o)
                0x0000000000148028                _kernel_current_evttim
                0x000000000014802c                _kernel_boundary_evttim
                0x0000000000148030                _kernel_monotonic_evttim
                0x0000000000148038                _kernel_systim_offset
                0x0000000000148040                _kernel_current_hrtcnt
 .bss           0x0000000000148044        0x0 ./libkernel.a(task_sync.o)
 .bss           0x0000000000148044        0x0 ./libkernel.a(semaphore.o)
 .bss           0x0000000000148044        0x0 ./libkernel.a(dataqueue.o)
 .bss           0x0000000000148044        0x0 ./libkernel.a(spin_lock.o)
 .bss           0x0000000000148044        0x0 ./libkernel.a(sys_manage.o)
 .bss           0x0000000000148044        0x0 ./libkernel.a(interrupt.o)
 .bss           0x0000000000148044        0x0 ./libkernel.a(core_support.o)
 .bss           0x0000000000148044        0x0 ./libkernel.a(task_term.o)
 .bss           0x0000000000148044        0x0 ./libkernel.a(gic_support.o)
 .bss           0x0000000000148044        0x0 /usr/lib/gcc/arm-none-eabi/10.3.1/../../../arm-none-eabi/lib/thumb/v7-a/nofp/libc.a(lib_a-memset.o)
 *(.bss.*)
 *(.kernel_data_*)
 .kernel_data_CLS_ALL_PRC1
                0x0000000000148044      0x128 objs/kernel_cfg.o
 .kernel_data_CLS_ALL_PRC2
                0x000000000014816c       0xc4 objs/kernel_cfg.o
 .kernel_data_CLS_PRC1
                0x0000000000148230       0x68 objs/kernel_cfg.o
 .kernel_data_CLS_PRC2
                0x0000000000148298       0x44 objs/kernel_cfg.o
 *(.stack*)
 *fill*         0x00000000001482dc        0x4 
 .stack_CLS_ALL_PRC1
                0x00000000001482e0     0x3100 objs/kernel_cfg.o
 .stack_CLS_ALL_PRC2
                0x000000000014b3e0     0x2100 objs/kernel_cfg.o
 .stack_CLS_PRC1
                0x000000000014d4e0      0x800 objs/kernel_cfg.o
 .stack_CLS_PRC2
                0x000000000014dce0      0x800 objs/kernel_cfg.o
 *(COMMON)
                0x000000000014e4e0                __end_bss = .
                0x000000000014e4e0                . = ALIGN (0x4)
                0x000000000014e4e0                _end = .
                0x000000000014e4e0                _heap = .
                [!provide]                        PROVIDE (end = .)

.comment        0x0000000000000000       0x67
 *(.comment)
 .comment       0x0000000000000000       0x33 objs/log_output.o
                                         0x34 (size before relaxing)
 .comment       0x0000000000000033       0x34 objs/vasyslog.o
 .comment       0x0000000000000033       0x34 objs/t_perror.o
 .comment       0x0000000000000033       0x34 objs/strerror.o
 .comment       0x0000000000000033       0x34 objs/tTask_rProcessor1Migratable_tecsgen.o
 .comment       0x0000000000000033       0x34 objs/tSemaphore_rProcessor1Migratable_tecsgen.o
 .comment       0x0000000000000033       0x34 objs/tInterruptRequest_rProcessor1Migratable_tecsgen.o
 .comment       0x0000000000000033       0x34 objs/tISR_rProcessor1Migratable_tecsgen.o
 .comment       0x0000000000000033       0x34 objs/tTerminateRoutine_rProcessor1Migratable_tecsgen.o
 .comment       0x0000000000000033       0x34 objs/tSerialPortMain_rProcessor1Migratable_tecsgen.o
 .comment       0x0000000000000033       0x34 objs/tSerialAdapter_rProcessor1Migratable_tecsgen.o
 .comment       0x0000000000000033       0x34 objs/tSysLog_rProcessor1Migratable_tecsgen.o
 .comment       0x0000000000000033       0x34 objs/tSysLogAdapter_rProcessor1Migratable_tecsgen.o
 .comment       0x0000000000000033       0x34 objs/tLogTaskMain_rProcessor1Migratable_tecsgen.o
 .comment       0x0000000000000033       0x34 objs/tPutLogZyboZ7_rProcessor1Migratable_tecsgen.o
 .comment       0x0000000000000033       0x34 objs/tXUartPs_rProcessor1Migratable_tecsgen.o
 .comment       0x0000000000000033       0x34 objs/tSIOPortZyboZ7Main_rProcessor1Migratable_tecsgen.o
 .comment       0x0000000000000033       0x34 objs/tTask.o
 .comment       0x0000000000000033       0x34 objs/tInterruptRequest.o
 .comment       0x0000000000000033       0x34 objs/tISR.o
 .comment       0x0000000000000033       0x34 objs/tTerminateRoutine.o
 .comment       0x0000000000000033       0x34 objs/tSerialPortMain.o
 .comment       0x0000000000000033       0x34 objs/tSerialAdapter.o
 .comment       0x0000000000000033       0x34 objs/tSysLog.o
 .comment       0x0000000000000033       0x34 objs/tSysLogAdapter.o
 .comment       0x0000000000000033       0x34 objs/tLogTaskMain.o
 .comment       0x0000000000000033       0x34 objs/tPutLogZyboZ7.o
 .comment       0x0000000000000033       0x34 objs/tXUartPs.o
 .comment       0x0000000000000033       0x34 objs/init_tecs.o
 .comment       0x0000000000000033       0x34 objs/kernel_cfg.o
 .comment       0x0000000000000033       0x34 ./gen/../tecsrustUART/target/armv7a-none-eabi/release/libitron.a(itron-bd237d22add3b961.itron.ddb412ddd8428b4f-cgu.0.rcgu.o)
                                         0x35 (size before relaxing)
 .comment       0x0000000000000067       0x35 ./gen/../tecsrustUART/target/armv7a-none-eabi/release/libitron.a(itron-fbcb73bf0b635dd5.itron.68e737fdf62a80e5-cgu.0.rcgu.o)
 .comment       0x0000000000000067       0x35 ./gen/../tecsrustUART/target/armv7a-none-eabi/release/libitron.a(core-d049573bc16596f9.core.5587a85061e7188a-cgu.0.rcgu.o)
 .comment       0x0000000000000067       0x35 ./gen/../tecsrustUART/target/armv7a-none-eabi/release/libitron.a(compiler_builtins-70f608aea3cde50d.compiler_builtins.5a681add74c93a61-cgu.162.rcgu.o)
 .comment       0x0000000000000067       0x35 ./gen/../tecsrustUART/target/armv7a-none-eabi/release/libitron.a(compiler_builtins-70f608aea3cde50d.compiler_builtins.5a681add74c93a61-cgu.174.rcgu.o)
 .comment       0x0000000000000067       0x35 ./gen/../tecsrustUART/target/armv7a-none-eabi/release/libitron.a(compiler_builtins-70f608aea3cde50d.compiler_builtins.5a681add74c93a61-cgu.178.rcgu.o)
 .comment       0x0000000000000067       0x35 ./gen/../tecsrustUART/target/armv7a-none-eabi/release/libitron.a(compiler_builtins-70f608aea3cde50d.compiler_builtins.5a681add74c93a61-cgu.180.rcgu.o)
 .comment       0x0000000000000067       0x35 ./gen/../tecsrustUART/target/armv7a-none-eabi/release/libitron.a(compiler_builtins-70f608aea3cde50d.compiler_builtins.5a681add74c93a61-cgu.201.rcgu.o)
 .comment       0x0000000000000067       0x35 ./gen/../tecsrustUART/target/armv7a-none-eabi/release/libitron.a(compiler_builtins-70f608aea3cde50d.compiler_builtins.5a681add74c93a61-cgu.206.rcgu.o)
 .comment       0x0000000000000067       0x35 ./gen/../tecsrustUART/target/armv7a-none-eabi/release/libitron.a(compiler_builtins-70f608aea3cde50d.compiler_builtins.5a681add74c93a61-cgu.210.rcgu.o)
 .comment       0x0000000000000067       0x35 ./gen/../tecsrustUART/target/armv7a-none-eabi/release/libitron.a(compiler_builtins-70f608aea3cde50d.compiler_builtins.5a681add74c93a61-cgu.223.rcgu.o)
 .comment       0x0000000000000067       0x35 ./gen/../tecsrustUART/target/armv7a-none-eabi/release/libitron.a(compiler_builtins-70f608aea3cde50d.compiler_builtins.5a681add74c93a61-cgu.253.rcgu.o)
 .comment       0x0000000000000067       0x35 ./gen/../tecsrustUART/target/armv7a-none-eabi/release/libitron.a(compiler_builtins-70f608aea3cde50d.compiler_builtins.5a681add74c93a61-cgu.261.rcgu.o)
 .comment       0x0000000000000067       0x35 ./gen/../tecsrustUART/target/armv7a-none-eabi/release/libitron.a(compiler_builtins-70f608aea3cde50d.compiler_builtins.5a681add74c93a61-cgu.263.rcgu.o)
 .comment       0x0000000000000067       0x35 ./gen/../tecsrustUART/target/armv7a-none-eabi/release/libitron.a(compiler_builtins-70f608aea3cde50d.compiler_builtins.5a681add74c93a61-cgu.270.rcgu.o)
 .comment       0x0000000000000067       0x35 ./gen/../tecsrustUART/target/armv7a-none-eabi/release/libitron.a(compiler_builtins-70f608aea3cde50d.compiler_builtins.5a681add74c93a61-cgu.283.rcgu.o)
 .comment       0x0000000000000067       0x35 ./gen/../tecsrustUART/target/armv7a-none-eabi/release/libitron.a(compiler_builtins-70f608aea3cde50d.compiler_builtins.5a681add74c93a61-cgu.287.rcgu.o)
 .comment       0x0000000000000067       0x35 ./gen/../tecsrustUART/target/armv7a-none-eabi/release/libitron.a(compiler_builtins-70f608aea3cde50d.compiler_builtins.5a681add74c93a61-cgu.300.rcgu.o)
 .comment       0x0000000000000067       0x35 ./gen/../tecsrustUART/target/armv7a-none-eabi/release/libitron.a(compiler_builtins-70f608aea3cde50d.compiler_builtins.5a681add74c93a61-cgu.310.rcgu.o)
 .comment       0x0000000000000067       0x35 ./gen/../tecsrustUART/target/armv7a-none-eabi/release/libitron.a(compiler_builtins-70f608aea3cde50d.compiler_builtins.5a681add74c93a61-cgu.355.rcgu.o)
 .comment       0x0000000000000067       0x35 ./gen/../tecsrustUART/target/armv7a-none-eabi/release/libitron.a(compiler_builtins-70f608aea3cde50d.compiler_builtins.5a681add74c93a61-cgu.361.rcgu.o)
 .comment       0x0000000000000067       0x35 ./gen/../tecsrustUART/target/armv7a-none-eabi/release/libitron.a(compiler_builtins-70f608aea3cde50d.compiler_builtins.5a681add74c93a61-cgu.365.rcgu.o)
 .comment       0x0000000000000067       0x35 ./gen/../tecsrustUART/target/armv7a-none-eabi/release/libitron.a(compiler_builtins-70f608aea3cde50d.compiler_builtins.5a681add74c93a61-cgu.375.rcgu.o)
 .comment       0x0000000000000067       0x35 ./gen/../tecsrustUART/target/armv7a-none-eabi/release/libitron.a(compiler_builtins-70f608aea3cde50d.compiler_builtins.5a681add74c93a61-cgu.393.rcgu.o)
 .comment       0x0000000000000067       0x35 ./gen/../tecsrustUART/target/armv7a-none-eabi/release/libitron.a(compiler_builtins-70f608aea3cde50d.compiler_builtins.5a681add74c93a61-cgu.395.rcgu.o)
 .comment       0x0000000000000067       0x35 ./gen/../tecsrustUART/target/armv7a-none-eabi/release/libitron.a(compiler_builtins-70f608aea3cde50d.compiler_builtins.5a681add74c93a61-cgu.410.rcgu.o)
 .comment       0x0000000000000067       0x35 ./gen/../tecsrustUART/target/armv7a-none-eabi/release/libitron.a(compiler_builtins-70f608aea3cde50d.compiler_builtins.5a681add74c93a61-cgu.411.rcgu.o)
 .comment       0x0000000000000067       0x35 ./gen/../tecsrustUART/target/armv7a-none-eabi/release/libitron.a(compiler_builtins-70f608aea3cde50d.compiler_builtins.5a681add74c93a61-cgu.000.rcgu.o)
 .comment       0x0000000000000067       0x35 ./gen/../tecsrustUART/target/armv7a-none-eabi/release/libitron.a(compiler_builtins-70f608aea3cde50d.compiler_builtins.5a681add74c93a61-cgu.004.rcgu.o)
 .comment       0x0000000000000067       0x35 ./gen/../tecsrustUART/target/armv7a-none-eabi/release/libitron.a(compiler_builtins-70f608aea3cde50d.compiler_builtins.5a681add74c93a61-cgu.009.rcgu.o)
 .comment       0x0000000000000067       0x35 ./gen/../tecsrustUART/target/armv7a-none-eabi/release/libitron.a(compiler_builtins-70f608aea3cde50d.compiler_builtins.5a681add74c93a61-cgu.019.rcgu.o)
 .comment       0x0000000000000067       0x35 ./gen/../tecsrustUART/target/armv7a-none-eabi/release/libitron.a(compiler_builtins-70f608aea3cde50d.compiler_builtins.5a681add74c93a61-cgu.347.rcgu.o)
 .comment       0x0000000000000067       0x34 ./gen/../tecsrustUART/target/armv7a-none-eabi/release/libitron.a(63f8a0b8a638da8c-aeabi_div0.o)
 .comment       0x0000000000000067       0x35 ./gen/../tecsrustUART/target/armv7a-none-eabi/release/libitron.a(compiler_builtins-70f608aea3cde50d.compiler_builtins.5a681add74c93a61-cgu.010.rcgu.o)
 .comment       0x0000000000000067       0x34 ./libkernel.a(target_kernel_impl.o)
 .comment       0x0000000000000067       0x34 ./libkernel.a(chip_kernel_impl.o)
 .comment       0x0000000000000067       0x34 ./libkernel.a(mpcore_kernel_impl.o)
 .comment       0x0000000000000067       0x34 ./libkernel.a(gic_kernel_impl.o)
 .comment       0x0000000000000067       0x34 ./libkernel.a(pl310.o)
 .comment       0x0000000000000067       0x34 ./libkernel.a(mpcore_timer.o)
 .comment       0x0000000000000067       0x34 ./libkernel.a(core_kernel_impl.o)
 .comment       0x0000000000000067       0x34 ./libkernel.a(arm.o)
 .comment       0x0000000000000067       0x34 ./libkernel.a(startup.o)
 .comment       0x0000000000000067       0x34 ./libkernel.a(task.o)
 .comment       0x0000000000000067       0x34 ./libkernel.a(taskhook.o)
 .comment       0x0000000000000067       0x34 ./libkernel.a(wait.o)
 .comment       0x0000000000000067       0x34 ./libkernel.a(time_event.o)
 .comment       0x0000000000000067       0x34 ./libkernel.a(task_sync.o)
 .comment       0x0000000000000067       0x34 ./libkernel.a(semaphore.o)
 .comment       0x0000000000000067       0x34 ./libkernel.a(dataqueue.o)
 .comment       0x0000000000000067       0x34 ./libkernel.a(spin_lock.o)
 .comment       0x0000000000000067       0x34 ./libkernel.a(sys_manage.o)
 .comment       0x0000000000000067       0x34 ./libkernel.a(interrupt.o)
 .comment       0x0000000000000067       0x34 ./libkernel.a(task_term.o)
 .comment       0x0000000000000067       0x34 /usr/lib/gcc/arm-none-eabi/10.3.1/../../../arm-none-eabi/lib/thumb/v7-a/nofp/libc.a(lib_a-memset.o)
                0x0000000001000000                _heap_size = 0x1000000
                0x000000000114e4e0                _heap_limit = (_heap + _heap_size)

.ARM.attributes
                0x0000000000000000       0x35
 .ARM.attributes
                0x0000000000000000       0x21 objs/start.o
 .ARM.attributes
                0x0000000000000021       0x33 objs/log_output.o
 .ARM.attributes
                0x0000000000000054       0x33 objs/vasyslog.o
 .ARM.attributes
                0x0000000000000087       0x33 objs/t_perror.o
 .ARM.attributes
                0x00000000000000ba       0x33 objs/strerror.o
 .ARM.attributes
                0x00000000000000ed       0x33 objs/tTask_rProcessor1Migratable_tecsgen.o
 .ARM.attributes
                0x0000000000000120       0x33 objs/tSemaphore_rProcessor1Migratable_tecsgen.o
 .ARM.attributes
                0x0000000000000153       0x33 objs/tInterruptRequest_rProcessor1Migratable_tecsgen.o
 .ARM.attributes
                0x0000000000000186       0x33 objs/tISR_rProcessor1Migratable_tecsgen.o
 .ARM.attributes
                0x00000000000001b9       0x33 objs/tTerminateRoutine_rProcessor1Migratable_tecsgen.o
 .ARM.attributes
                0x00000000000001ec       0x33 objs/tSerialPortMain_rProcessor1Migratable_tecsgen.o
 .ARM.attributes
                0x000000000000021f       0x33 objs/tSerialAdapter_rProcessor1Migratable_tecsgen.o
 .ARM.attributes
                0x0000000000000252       0x33 objs/tSysLog_rProcessor1Migratable_tecsgen.o
 .ARM.attributes
                0x0000000000000285       0x33 objs/tSysLogAdapter_rProcessor1Migratable_tecsgen.o
 .ARM.attributes
                0x00000000000002b8       0x33 objs/tLogTaskMain_rProcessor1Migratable_tecsgen.o
 .ARM.attributes
                0x00000000000002eb       0x33 objs/tPutLogZyboZ7_rProcessor1Migratable_tecsgen.o
 .ARM.attributes
                0x000000000000031e       0x33 objs/tXUartPs_rProcessor1Migratable_tecsgen.o
 .ARM.attributes
                0x0000000000000351       0x33 objs/tSIOPortZyboZ7Main_rProcessor1Migratable_tecsgen.o
 .ARM.attributes
                0x0000000000000384       0x33 objs/tTask.o
 .ARM.attributes
                0x00000000000003b7       0x39 objs/tInterruptRequest.o
 .ARM.attributes
                0x00000000000003f0       0x33 objs/tISR.o
 .ARM.attributes
                0x0000000000000423       0x33 objs/tTerminateRoutine.o
 .ARM.attributes
                0x0000000000000456       0x33 objs/tSerialPortMain.o
 .ARM.attributes
                0x0000000000000489       0x33 objs/tSerialAdapter.o
 .ARM.attributes
                0x00000000000004bc       0x33 objs/tSysLog.o
 .ARM.attributes
                0x00000000000004ef       0x33 objs/tSysLogAdapter.o
 .ARM.attributes
                0x0000000000000522       0x33 objs/tLogTaskMain.o
 .ARM.attributes
                0x0000000000000555       0x33 objs/tPutLogZyboZ7.o
 .ARM.attributes
                0x0000000000000588       0x33 objs/tXUartPs.o
 .ARM.attributes
                0x00000000000005bb       0x33 objs/init_tecs.o
 .ARM.attributes
                0x00000000000005ee       0x33 objs/kernel_cfg.o
 .ARM.attributes
                0x0000000000000621       0x34 ./gen/../tecsrustUART/target/armv7a-none-eabi/release/libitron.a(itron-bd237d22add3b961.itron.ddb412ddd8428b4f-cgu.0.rcgu.o)
 .ARM.attributes
                0x0000000000000655       0x34 ./gen/../tecsrustUART/target/armv7a-none-eabi/release/libitron.a(itron-fbcb73bf0b635dd5.itron.68e737fdf62a80e5-cgu.0.rcgu.o)
 .ARM.attributes
                0x0000000000000689       0x32 ./gen/../tecsrustUART/target/armv7a-none-eabi/release/libitron.a(core-d049573bc16596f9.core.5587a85061e7188a-cgu.0.rcgu.o)
 .ARM.attributes
                0x00000000000006bb       0x34 ./gen/../tecsrustUART/target/armv7a-none-eabi/release/libitron.a(compiler_builtins-70f608aea3cde50d.compiler_builtins.5a681add74c93a61-cgu.162.rcgu.o)
 .ARM.attributes
                0x00000000000006ef       0x34 ./gen/../tecsrustUART/target/armv7a-none-eabi/release/libitron.a(compiler_builtins-70f608aea3cde50d.compiler_builtins.5a681add74c93a61-cgu.174.rcgu.o)
 .ARM.attributes
                0x0000000000000723       0x34 ./gen/../tecsrustUART/target/armv7a-none-eabi/release/libitron.a(compiler_builtins-70f608aea3cde50d.compiler_builtins.5a681add74c93a61-cgu.178.rcgu.o)
 .ARM.attributes
                0x0000000000000757       0x34 ./gen/../tecsrustUART/target/armv7a-none-eabi/release/libitron.a(compiler_builtins-70f608aea3cde50d.compiler_builtins.5a681add74c93a61-cgu.180.rcgu.o)
 .ARM.attributes
                0x000000000000078b       0x34 ./gen/../tecsrustUART/target/armv7a-none-eabi/release/libitron.a(compiler_builtins-70f608aea3cde50d.compiler_builtins.5a681add74c93a61-cgu.201.rcgu.o)
 .ARM.attributes
                0x00000000000007bf       0x34 ./gen/../tecsrustUART/target/armv7a-none-eabi/release/libitron.a(compiler_builtins-70f608aea3cde50d.compiler_builtins.5a681add74c93a61-cgu.206.rcgu.o)
 .ARM.attributes
                0x00000000000007f3       0x34 ./gen/../tecsrustUART/target/armv7a-none-eabi/release/libitron.a(compiler_builtins-70f608aea3cde50d.compiler_builtins.5a681add74c93a61-cgu.210.rcgu.o)
 .ARM.attributes
                0x0000000000000827       0x34 ./gen/../tecsrustUART/target/armv7a-none-eabi/release/libitron.a(compiler_builtins-70f608aea3cde50d.compiler_builtins.5a681add74c93a61-cgu.223.rcgu.o)
 .ARM.attributes
                0x000000000000085b       0x34 ./gen/../tecsrustUART/target/armv7a-none-eabi/release/libitron.a(compiler_builtins-70f608aea3cde50d.compiler_builtins.5a681add74c93a61-cgu.253.rcgu.o)
 .ARM.attributes
                0x000000000000088f       0x34 ./gen/../tecsrustUART/target/armv7a-none-eabi/release/libitron.a(compiler_builtins-70f608aea3cde50d.compiler_builtins.5a681add74c93a61-cgu.261.rcgu.o)
 .ARM.attributes
                0x00000000000008c3       0x34 ./gen/../tecsrustUART/target/armv7a-none-eabi/release/libitron.a(compiler_builtins-70f608aea3cde50d.compiler_builtins.5a681add74c93a61-cgu.263.rcgu.o)
 .ARM.attributes
                0x00000000000008f7       0x34 ./gen/../tecsrustUART/target/armv7a-none-eabi/release/libitron.a(compiler_builtins-70f608aea3cde50d.compiler_builtins.5a681add74c93a61-cgu.270.rcgu.o)
 .ARM.attributes
                0x000000000000092b       0x34 ./gen/../tecsrustUART/target/armv7a-none-eabi/release/libitron.a(compiler_builtins-70f608aea3cde50d.compiler_builtins.5a681add74c93a61-cgu.283.rcgu.o)
 .ARM.attributes
                0x000000000000095f       0x34 ./gen/../tecsrustUART/target/armv7a-none-eabi/release/libitron.a(compiler_builtins-70f608aea3cde50d.compiler_builtins.5a681add74c93a61-cgu.287.rcgu.o)
 .ARM.attributes
                0x0000000000000993       0x34 ./gen/../tecsrustUART/target/armv7a-none-eabi/release/libitron.a(compiler_builtins-70f608aea3cde50d.compiler_builtins.5a681add74c93a61-cgu.300.rcgu.o)
 .ARM.attributes
                0x00000000000009c7       0x34 ./gen/../tecsrustUART/target/armv7a-none-eabi/release/libitron.a(compiler_builtins-70f608aea3cde50d.compiler_builtins.5a681add74c93a61-cgu.310.rcgu.o)
 .ARM.attributes
                0x00000000000009fb       0x34 ./gen/../tecsrustUART/target/armv7a-none-eabi/release/libitron.a(compiler_builtins-70f608aea3cde50d.compiler_builtins.5a681add74c93a61-cgu.355.rcgu.o)
 .ARM.attributes
                0x0000000000000a2f       0x34 ./gen/../tecsrustUART/target/armv7a-none-eabi/release/libitron.a(compiler_builtins-70f608aea3cde50d.compiler_builtins.5a681add74c93a61-cgu.361.rcgu.o)
 .ARM.attributes
                0x0000000000000a63       0x34 ./gen/../tecsrustUART/target/armv7a-none-eabi/release/libitron.a(compiler_builtins-70f608aea3cde50d.compiler_builtins.5a681add74c93a61-cgu.365.rcgu.o)
 .ARM.attributes
                0x0000000000000a97       0x34 ./gen/../tecsrustUART/target/armv7a-none-eabi/release/libitron.a(compiler_builtins-70f608aea3cde50d.compiler_builtins.5a681add74c93a61-cgu.375.rcgu.o)
 .ARM.attributes
                0x0000000000000acb       0x34 ./gen/../tecsrustUART/target/armv7a-none-eabi/release/libitron.a(compiler_builtins-70f608aea3cde50d.compiler_builtins.5a681add74c93a61-cgu.393.rcgu.o)
 .ARM.attributes
                0x0000000000000aff       0x34 ./gen/../tecsrustUART/target/armv7a-none-eabi/release/libitron.a(compiler_builtins-70f608aea3cde50d.compiler_builtins.5a681add74c93a61-cgu.395.rcgu.o)
 .ARM.attributes
                0x0000000000000b33       0x32 ./gen/../tecsrustUART/target/armv7a-none-eabi/release/libitron.a(compiler_builtins-70f608aea3cde50d.compiler_builtins.5a681add74c93a61-cgu.410.rcgu.o)
 .ARM.attributes
                0x0000000000000b65       0x32 ./gen/../tecsrustUART/target/armv7a-none-eabi/release/libitron.a(compiler_builtins-70f608aea3cde50d.compiler_builtins.5a681add74c93a61-cgu.411.rcgu.o)
 .ARM.attributes
                0x0000000000000b97       0x1d ./gen/../tecsrustUART/target/armv7a-none-eabi/release/libitron.a(63f8a0b8a638da8c-udivmodsi4.o)
 .ARM.attributes
                0x0000000000000bb4       0x1d ./gen/../tecsrustUART/target/armv7a-none-eabi/release/libitron.a(63f8a0b8a638da8c-udivsi3.o)
 .ARM.attributes
                0x0000000000000bd1       0x34 ./gen/../tecsrustUART/target/armv7a-none-eabi/release/libitron.a(compiler_builtins-70f608aea3cde50d.compiler_builtins.5a681add74c93a61-cgu.000.rcgu.o)
 .ARM.attributes
                0x0000000000000c05       0x34 ./gen/../tecsrustUART/target/armv7a-none-eabi/release/libitron.a(compiler_builtins-70f608aea3cde50d.compiler_builtins.5a681add74c93a61-cgu.004.rcgu.o)
 .ARM.attributes
                0x0000000000000c39       0x34 ./gen/../tecsrustUART/target/armv7a-none-eabi/release/libitron.a(compiler_builtins-70f608aea3cde50d.compiler_builtins.5a681add74c93a61-cgu.009.rcgu.o)
 .ARM.attributes
                0x0000000000000c6d       0x34 ./gen/../tecsrustUART/target/armv7a-none-eabi/release/libitron.a(compiler_builtins-70f608aea3cde50d.compiler_builtins.5a681add74c93a61-cgu.019.rcgu.o)
 .ARM.attributes
                0x0000000000000ca1       0x34 ./gen/../tecsrustUART/target/armv7a-none-eabi/release/libitron.a(compiler_builtins-70f608aea3cde50d.compiler_builtins.5a681add74c93a61-cgu.347.rcgu.o)
 .ARM.attributes
                0x0000000000000cd5       0x2f ./gen/../tecsrustUART/target/armv7a-none-eabi/release/libitron.a(63f8a0b8a638da8c-aeabi_div0.o)
 .ARM.attributes
                0x0000000000000d04       0x34 ./gen/../tecsrustUART/target/armv7a-none-eabi/release/libitron.a(compiler_builtins-70f608aea3cde50d.compiler_builtins.5a681add74c93a61-cgu.010.rcgu.o)
 .ARM.attributes
                0x0000000000000d38       0x33 ./libkernel.a(target_kernel_impl.o)
 .ARM.attributes
                0x0000000000000d6b       0x33 ./libkernel.a(chip_kernel_impl.o)
 .ARM.attributes
                0x0000000000000d9e       0x33 ./libkernel.a(mpcore_kernel_impl.o)
 .ARM.attributes
                0x0000000000000dd1       0x33 ./libkernel.a(gic_kernel_impl.o)
 .ARM.attributes
                0x0000000000000e04       0x33 ./libkernel.a(pl310.o)
 .ARM.attributes
                0x0000000000000e37       0x33 ./libkernel.a(mpcore_timer.o)
 .ARM.attributes
                0x0000000000000e6a       0x33 ./libkernel.a(core_kernel_impl.o)
 .ARM.attributes
                0x0000000000000e9d       0x33 ./libkernel.a(arm.o)
 .ARM.attributes
                0x0000000000000ed0       0x33 ./libkernel.a(startup.o)
 .ARM.attributes
                0x0000000000000f03       0x33 ./libkernel.a(task.o)
 .ARM.attributes
                0x0000000000000f36       0x39 ./libkernel.a(taskhook.o)
 .ARM.attributes
                0x0000000000000f6f       0x33 ./libkernel.a(wait.o)
 .ARM.attributes
                0x0000000000000fa2       0x33 ./libkernel.a(time_event.o)
 .ARM.attributes
                0x0000000000000fd5       0x33 ./libkernel.a(task_sync.o)
 .ARM.attributes
                0x0000000000001008       0x33 ./libkernel.a(semaphore.o)
 .ARM.attributes
                0x000000000000103b       0x33 ./libkernel.a(dataqueue.o)
 .ARM.attributes
                0x000000000000106e       0x33 ./libkernel.a(spin_lock.o)
 .ARM.attributes
                0x00000000000010a1       0x33 ./libkernel.a(sys_manage.o)
 .ARM.attributes
                0x00000000000010d4       0x33 ./libkernel.a(interrupt.o)
 .ARM.attributes
                0x0000000000001107       0x21 ./libkernel.a(core_support.o)
 .ARM.attributes
                0x0000000000001128       0x33 ./libkernel.a(task_term.o)
 .ARM.attributes
                0x000000000000115b       0x21 ./libkernel.a(gic_support.o)
 .ARM.attributes
                0x000000000000117c       0x2f /usr/lib/gcc/arm-none-eabi/10.3.1/../../../arm-none-eabi/lib/thumb/v7-a/nofp/libc.a(lib_a-memset.o)

.note.GNU-stack
                0x0000000000000000        0x0
 .note.GNU-stack
                0x0000000000000000        0x0 ./gen/../tecsrustUART/target/armv7a-none-eabi/release/libitron.a(itron-bd237d22add3b961.itron.ddb412ddd8428b4f-cgu.0.rcgu.o)
 .note.GNU-stack
                0x0000000000000000        0x0 ./gen/../tecsrustUART/target/armv7a-none-eabi/release/libitron.a(itron-fbcb73bf0b635dd5.itron.68e737fdf62a80e5-cgu.0.rcgu.o)
 .note.GNU-stack
                0x0000000000000000        0x0 ./gen/../tecsrustUART/target/armv7a-none-eabi/release/libitron.a(core-d049573bc16596f9.core.5587a85061e7188a-cgu.0.rcgu.o)
 .note.GNU-stack
                0x0000000000000000        0x0 ./gen/../tecsrustUART/target/armv7a-none-eabi/release/libitron.a(compiler_builtins-70f608aea3cde50d.compiler_builtins.5a681add74c93a61-cgu.162.rcgu.o)
 .note.GNU-stack
                0x0000000000000000        0x0 ./gen/../tecsrustUART/target/armv7a-none-eabi/release/libitron.a(compiler_builtins-70f608aea3cde50d.compiler_builtins.5a681add74c93a61-cgu.174.rcgu.o)
 .note.GNU-stack
                0x0000000000000000        0x0 ./gen/../tecsrustUART/target/armv7a-none-eabi/release/libitron.a(compiler_builtins-70f608aea3cde50d.compiler_builtins.5a681add74c93a61-cgu.178.rcgu.o)
 .note.GNU-stack
                0x0000000000000000        0x0 ./gen/../tecsrustUART/target/armv7a-none-eabi/release/libitron.a(compiler_builtins-70f608aea3cde50d.compiler_builtins.5a681add74c93a61-cgu.180.rcgu.o)
 .note.GNU-stack
                0x0000000000000000        0x0 ./gen/../tecsrustUART/target/armv7a-none-eabi/release/libitron.a(compiler_builtins-70f608aea3cde50d.compiler_builtins.5a681add74c93a61-cgu.201.rcgu.o)
 .note.GNU-stack
                0x0000000000000000        0x0 ./gen/../tecsrustUART/target/armv7a-none-eabi/release/libitron.a(compiler_builtins-70f608aea3cde50d.compiler_builtins.5a681add74c93a61-cgu.206.rcgu.o)
 .note.GNU-stack
                0x0000000000000000        0x0 ./gen/../tecsrustUART/target/armv7a-none-eabi/release/libitron.a(compiler_builtins-70f608aea3cde50d.compiler_builtins.5a681add74c93a61-cgu.210.rcgu.o)
 .note.GNU-stack
                0x0000000000000000        0x0 ./gen/../tecsrustUART/target/armv7a-none-eabi/release/libitron.a(compiler_builtins-70f608aea3cde50d.compiler_builtins.5a681add74c93a61-cgu.223.rcgu.o)
 .note.GNU-stack
                0x0000000000000000        0x0 ./gen/../tecsrustUART/target/armv7a-none-eabi/release/libitron.a(compiler_builtins-70f608aea3cde50d.compiler_builtins.5a681add74c93a61-cgu.253.rcgu.o)
 .note.GNU-stack
                0x0000000000000000        0x0 ./gen/../tecsrustUART/target/armv7a-none-eabi/release/libitron.a(compiler_builtins-70f608aea3cde50d.compiler_builtins.5a681add74c93a61-cgu.261.rcgu.o)
 .note.GNU-stack
                0x0000000000000000        0x0 ./gen/../tecsrustUART/target/armv7a-none-eabi/release/libitron.a(compiler_builtins-70f608aea3cde50d.compiler_builtins.5a681add74c93a61-cgu.263.rcgu.o)
 .note.GNU-stack
                0x0000000000000000        0x0 ./gen/../tecsrustUART/target/armv7a-none-eabi/release/libitron.a(compiler_builtins-70f608aea3cde50d.compiler_builtins.5a681add74c93a61-cgu.270.rcgu.o)
 .note.GNU-stack
                0x0000000000000000        0x0 ./gen/../tecsrustUART/target/armv7a-none-eabi/release/libitron.a(compiler_builtins-70f608aea3cde50d.compiler_builtins.5a681add74c93a61-cgu.283.rcgu.o)
 .note.GNU-stack
                0x0000000000000000        0x0 ./gen/../tecsrustUART/target/armv7a-none-eabi/release/libitron.a(compiler_builtins-70f608aea3cde50d.compiler_builtins.5a681add74c93a61-cgu.287.rcgu.o)
 .note.GNU-stack
                0x0000000000000000        0x0 ./gen/../tecsrustUART/target/armv7a-none-eabi/release/libitron.a(compiler_builtins-70f608aea3cde50d.compiler_builtins.5a681add74c93a61-cgu.300.rcgu.o)
 .note.GNU-stack
                0x0000000000000000        0x0 ./gen/../tecsrustUART/target/armv7a-none-eabi/release/libitron.a(compiler_builtins-70f608aea3cde50d.compiler_builtins.5a681add74c93a61-cgu.310.rcgu.o)
 .note.GNU-stack
                0x0000000000000000        0x0 ./gen/../tecsrustUART/target/armv7a-none-eabi/release/libitron.a(compiler_builtins-70f608aea3cde50d.compiler_builtins.5a681add74c93a61-cgu.355.rcgu.o)
 .note.GNU-stack
                0x0000000000000000        0x0 ./gen/../tecsrustUART/target/armv7a-none-eabi/release/libitron.a(compiler_builtins-70f608aea3cde50d.compiler_builtins.5a681add74c93a61-cgu.361.rcgu.o)
 .note.GNU-stack
                0x0000000000000000        0x0 ./gen/../tecsrustUART/target/armv7a-none-eabi/release/libitron.a(compiler_builtins-70f608aea3cde50d.compiler_builtins.5a681add74c93a61-cgu.365.rcgu.o)
 .note.GNU-stack
                0x0000000000000000        0x0 ./gen/../tecsrustUART/target/armv7a-none-eabi/release/libitron.a(compiler_builtins-70f608aea3cde50d.compiler_builtins.5a681add74c93a61-cgu.375.rcgu.o)
 .note.GNU-stack
                0x0000000000000000        0x0 ./gen/../tecsrustUART/target/armv7a-none-eabi/release/libitron.a(compiler_builtins-70f608aea3cde50d.compiler_builtins.5a681add74c93a61-cgu.393.rcgu.o)
 .note.GNU-stack
                0x0000000000000000        0x0 ./gen/../tecsrustUART/target/armv7a-none-eabi/release/libitron.a(compiler_builtins-70f608aea3cde50d.compiler_builtins.5a681add74c93a61-cgu.395.rcgu.o)
 .note.GNU-stack
                0x0000000000000000        0x0 ./gen/../tecsrustUART/target/armv7a-none-eabi/release/libitron.a(compiler_builtins-70f608aea3cde50d.compiler_builtins.5a681add74c93a61-cgu.410.rcgu.o)
 .note.GNU-stack
                0x0000000000000000        0x0 ./gen/../tecsrustUART/target/armv7a-none-eabi/release/libitron.a(compiler_builtins-70f608aea3cde50d.compiler_builtins.5a681add74c93a61-cgu.411.rcgu.o)
 .note.GNU-stack
                0x0000000000000000        0x0 ./gen/../tecsrustUART/target/armv7a-none-eabi/release/libitron.a(compiler_builtins-70f608aea3cde50d.compiler_builtins.5a681add74c93a61-cgu.000.rcgu.o)
 .note.GNU-stack
                0x0000000000000000        0x0 ./gen/../tecsrustUART/target/armv7a-none-eabi/release/libitron.a(compiler_builtins-70f608aea3cde50d.compiler_builtins.5a681add74c93a61-cgu.004.rcgu.o)
 .note.GNU-stack
                0x0000000000000000        0x0 ./gen/../tecsrustUART/target/armv7a-none-eabi/release/libitron.a(compiler_builtins-70f608aea3cde50d.compiler_builtins.5a681add74c93a61-cgu.009.rcgu.o)
 .note.GNU-stack
                0x0000000000000000        0x0 ./gen/../tecsrustUART/target/armv7a-none-eabi/release/libitron.a(compiler_builtins-70f608aea3cde50d.compiler_builtins.5a681add74c93a61-cgu.019.rcgu.o)
 .note.GNU-stack
                0x0000000000000000        0x0 ./gen/../tecsrustUART/target/armv7a-none-eabi/release/libitron.a(compiler_builtins-70f608aea3cde50d.compiler_builtins.5a681add74c93a61-cgu.347.rcgu.o)
 .note.GNU-stack
                0x0000000000000000        0x0 ./gen/../tecsrustUART/target/armv7a-none-eabi/release/libitron.a(compiler_builtins-70f608aea3cde50d.compiler_builtins.5a681add74c93a61-cgu.010.rcgu.o)

.debug
 *(.debug)

.line
 *(.line)

.debug_srcinfo
 *(.debug_srcinfo)

.debug_sfnames
 *(.debug_sfnames)

.debug_aranges  0x0000000000000000     0x1b50
 *(.debug_aranges)
 .debug_aranges
                0x0000000000000000       0x20 objs/start.o
 .debug_aranges
                0x0000000000000020       0x20 objs/log_output.o
 .debug_aranges
                0x0000000000000040       0x20 objs/vasyslog.o
 .debug_aranges
                0x0000000000000060       0x20 objs/t_perror.o
 .debug_aranges
                0x0000000000000080       0x20 objs/strerror.o
 .debug_aranges
                0x00000000000000a0       0x20 objs/tTask_rProcessor1Migratable_tecsgen.o
 .debug_aranges
                0x00000000000000c0       0x20 objs/tSemaphore_rProcessor1Migratable_tecsgen.o
 .debug_aranges
                0x00000000000000e0       0x20 objs/tInterruptRequest_rProcessor1Migratable_tecsgen.o
 .debug_aranges
                0x0000000000000100       0x20 objs/tISR_rProcessor1Migratable_tecsgen.o
 .debug_aranges
                0x0000000000000120       0x20 objs/tTerminateRoutine_rProcessor1Migratable_tecsgen.o
 .debug_aranges
                0x0000000000000140       0x20 objs/tSerialPortMain_rProcessor1Migratable_tecsgen.o
 .debug_aranges
                0x0000000000000160       0x20 objs/tSerialAdapter_rProcessor1Migratable_tecsgen.o
 .debug_aranges
                0x0000000000000180       0x20 objs/tSysLog_rProcessor1Migratable_tecsgen.o
 .debug_aranges
                0x00000000000001a0       0x20 objs/tSysLogAdapter_rProcessor1Migratable_tecsgen.o
 .debug_aranges
                0x00000000000001c0       0x20 objs/tLogTaskMain_rProcessor1Migratable_tecsgen.o
 .debug_aranges
                0x00000000000001e0       0x20 objs/tPutLogZyboZ7_rProcessor1Migratable_tecsgen.o
 .debug_aranges
                0x0000000000000200       0x20 objs/tXUartPs_rProcessor1Migratable_tecsgen.o
 .debug_aranges
                0x0000000000000220       0x20 objs/tSIOPortZyboZ7Main_rProcessor1Migratable_tecsgen.o
 .debug_aranges
                0x0000000000000240       0x20 objs/tTask.o
 .debug_aranges
                0x0000000000000260       0x20 objs/tISR.o
 .debug_aranges
                0x0000000000000280       0x20 objs/tTerminateRoutine.o
 .debug_aranges
                0x00000000000002a0       0x20 objs/tSerialPortMain.o
 .debug_aranges
                0x00000000000002c0       0x20 objs/tSerialAdapter.o
 .debug_aranges
                0x00000000000002e0       0x20 objs/tSysLog.o
 .debug_aranges
                0x0000000000000300       0x20 objs/tSysLogAdapter.o
 .debug_aranges
                0x0000000000000320       0x20 objs/tLogTaskMain.o
 .debug_aranges
                0x0000000000000340       0x20 objs/tPutLogZyboZ7.o
 .debug_aranges
                0x0000000000000360       0x20 objs/tXUartPs.o
 .debug_aranges
                0x0000000000000380       0x20 objs/init_tecs.o
 .debug_aranges
                0x00000000000003a0       0x20 objs/kernel_cfg.o
 .debug_aranges
                0x00000000000003c0     0x1048 ./gen/../tecsrustUART/target/armv7a-none-eabi/release/libitron.a(core-d049573bc16596f9.core.5587a85061e7188a-cgu.0.rcgu.o)
 .debug_aranges
                0x0000000000001408       0x20 ./gen/../tecsrustUART/target/armv7a-none-eabi/release/libitron.a(compiler_builtins-70f608aea3cde50d.compiler_builtins.5a681add74c93a61-cgu.162.rcgu.o)
 .debug_aranges
                0x0000000000001428       0x20 ./gen/../tecsrustUART/target/armv7a-none-eabi/release/libitron.a(compiler_builtins-70f608aea3cde50d.compiler_builtins.5a681add74c93a61-cgu.174.rcgu.o)
 .debug_aranges
                0x0000000000001448       0x20 ./gen/../tecsrustUART/target/armv7a-none-eabi/release/libitron.a(compiler_builtins-70f608aea3cde50d.compiler_builtins.5a681add74c93a61-cgu.178.rcgu.o)
 .debug_aranges
                0x0000000000001468       0x20 ./gen/../tecsrustUART/target/armv7a-none-eabi/release/libitron.a(compiler_builtins-70f608aea3cde50d.compiler_builtins.5a681add74c93a61-cgu.180.rcgu.o)
 .debug_aranges
                0x0000000000001488       0x20 ./gen/../tecsrustUART/target/armv7a-none-eabi/release/libitron.a(compiler_builtins-70f608aea3cde50d.compiler_builtins.5a681add74c93a61-cgu.201.rcgu.o)
 .debug_aranges
                0x00000000000014a8       0x20 ./gen/../tecsrustUART/target/armv7a-none-eabi/release/libitron.a(compiler_builtins-70f608aea3cde50d.compiler_builtins.5a681add74c93a61-cgu.206.rcgu.o)
 .debug_aranges
                0x00000000000014c8       0x20 ./gen/../tecsrustUART/target/armv7a-none-eabi/release/libitron.a(compiler_builtins-70f608aea3cde50d.compiler_builtins.5a681add74c93a61-cgu.210.rcgu.o)
 .debug_aranges
                0x00000000000014e8       0x20 ./gen/../tecsrustUART/target/armv7a-none-eabi/release/libitron.a(compiler_builtins-70f608aea3cde50d.compiler_builtins.5a681add74c93a61-cgu.223.rcgu.o)
 .debug_aranges
                0x0000000000001508       0x20 ./gen/../tecsrustUART/target/armv7a-none-eabi/release/libitron.a(compiler_builtins-70f608aea3cde50d.compiler_builtins.5a681add74c93a61-cgu.253.rcgu.o)
 .debug_aranges
                0x0000000000001528       0x20 ./gen/../tecsrustUART/target/armv7a-none-eabi/release/libitron.a(compiler_builtins-70f608aea3cde50d.compiler_builtins.5a681add74c93a61-cgu.261.rcgu.o)
 .debug_aranges
                0x0000000000001548       0x20 ./gen/../tecsrustUART/target/armv7a-none-eabi/release/libitron.a(compiler_builtins-70f608aea3cde50d.compiler_builtins.5a681add74c93a61-cgu.263.rcgu.o)
 .debug_aranges
                0x0000000000001568       0x20 ./gen/../tecsrustUART/target/armv7a-none-eabi/release/libitron.a(compiler_builtins-70f608aea3cde50d.compiler_builtins.5a681add74c93a61-cgu.270.rcgu.o)
 .debug_aranges
                0x0000000000001588       0x20 ./gen/../tecsrustUART/target/armv7a-none-eabi/release/libitron.a(compiler_builtins-70f608aea3cde50d.compiler_builtins.5a681add74c93a61-cgu.283.rcgu.o)
 .debug_aranges
                0x00000000000015a8       0x20 ./gen/../tecsrustUART/target/armv7a-none-eabi/release/libitron.a(compiler_builtins-70f608aea3cde50d.compiler_builtins.5a681add74c93a61-cgu.287.rcgu.o)
 .debug_aranges
                0x00000000000015c8       0x20 ./gen/../tecsrustUART/target/armv7a-none-eabi/release/libitron.a(compiler_builtins-70f608aea3cde50d.compiler_builtins.5a681add74c93a61-cgu.300.rcgu.o)
 .debug_aranges
                0x00000000000015e8       0x20 ./gen/../tecsrustUART/target/armv7a-none-eabi/release/libitron.a(compiler_builtins-70f608aea3cde50d.compiler_builtins.5a681add74c93a61-cgu.310.rcgu.o)
 .debug_aranges
                0x0000000000001608       0x20 ./gen/../tecsrustUART/target/armv7a-none-eabi/release/libitron.a(compiler_builtins-70f608aea3cde50d.compiler_builtins.5a681add74c93a61-cgu.355.rcgu.o)
 .debug_aranges
                0x0000000000001628       0x20 ./gen/../tecsrustUART/target/armv7a-none-eabi/release/libitron.a(compiler_builtins-70f608aea3cde50d.compiler_builtins.5a681add74c93a61-cgu.361.rcgu.o)
 .debug_aranges
                0x0000000000001648       0x20 ./gen/../tecsrustUART/target/armv7a-none-eabi/release/libitron.a(compiler_builtins-70f608aea3cde50d.compiler_builtins.5a681add74c93a61-cgu.365.rcgu.o)
 .debug_aranges
                0x0000000000001668       0x20 ./gen/../tecsrustUART/target/armv7a-none-eabi/release/libitron.a(compiler_builtins-70f608aea3cde50d.compiler_builtins.5a681add74c93a61-cgu.375.rcgu.o)
 .debug_aranges
                0x0000000000001688       0x20 ./gen/../tecsrustUART/target/armv7a-none-eabi/release/libitron.a(compiler_builtins-70f608aea3cde50d.compiler_builtins.5a681add74c93a61-cgu.393.rcgu.o)
 .debug_aranges
                0x00000000000016a8       0x20 ./gen/../tecsrustUART/target/armv7a-none-eabi/release/libitron.a(compiler_builtins-70f608aea3cde50d.compiler_builtins.5a681add74c93a61-cgu.395.rcgu.o)
 .debug_aranges
                0x00000000000016c8       0x20 ./gen/../tecsrustUART/target/armv7a-none-eabi/release/libitron.a(63f8a0b8a638da8c-udivmodsi4.o)
 .debug_aranges
                0x00000000000016e8       0x20 ./gen/../tecsrustUART/target/armv7a-none-eabi/release/libitron.a(63f8a0b8a638da8c-udivsi3.o)
 .debug_aranges
                0x0000000000001708       0x30 ./gen/../tecsrustUART/target/armv7a-none-eabi/release/libitron.a(compiler_builtins-70f608aea3cde50d.compiler_builtins.5a681add74c93a61-cgu.000.rcgu.o)
 .debug_aranges
                0x0000000000001738       0x30 ./gen/../tecsrustUART/target/armv7a-none-eabi/release/libitron.a(compiler_builtins-70f608aea3cde50d.compiler_builtins.5a681add74c93a61-cgu.004.rcgu.o)
 .debug_aranges
                0x0000000000001768       0x40 ./gen/../tecsrustUART/target/armv7a-none-eabi/release/libitron.a(compiler_builtins-70f608aea3cde50d.compiler_builtins.5a681add74c93a61-cgu.009.rcgu.o)
 .debug_aranges
                0x00000000000017a8       0x60 ./gen/../tecsrustUART/target/armv7a-none-eabi/release/libitron.a(compiler_builtins-70f608aea3cde50d.compiler_builtins.5a681add74c93a61-cgu.019.rcgu.o)
 .debug_aranges
                0x0000000000001808       0x20 ./gen/../tecsrustUART/target/armv7a-none-eabi/release/libitron.a(compiler_builtins-70f608aea3cde50d.compiler_builtins.5a681add74c93a61-cgu.347.rcgu.o)
 .debug_aranges
                0x0000000000001828       0x28 ./gen/../tecsrustUART/target/armv7a-none-eabi/release/libitron.a(63f8a0b8a638da8c-aeabi_div0.o)
 .debug_aranges
                0x0000000000001850       0x28 ./gen/../tecsrustUART/target/armv7a-none-eabi/release/libitron.a(compiler_builtins-70f608aea3cde50d.compiler_builtins.5a681add74c93a61-cgu.010.rcgu.o)
 .debug_aranges
                0x0000000000001878       0x20 ./libkernel.a(target_kernel_impl.o)
 .debug_aranges
                0x0000000000001898       0x20 ./libkernel.a(chip_kernel_impl.o)
 .debug_aranges
                0x00000000000018b8       0x20 ./libkernel.a(mpcore_kernel_impl.o)
 .debug_aranges
                0x00000000000018d8       0x20 ./libkernel.a(gic_kernel_impl.o)
 .debug_aranges
                0x00000000000018f8       0x20 ./libkernel.a(pl310.o)
 .debug_aranges
                0x0000000000001918       0x20 ./libkernel.a(mpcore_timer.o)
 .debug_aranges
                0x0000000000001938       0x20 ./libkernel.a(core_kernel_impl.o)
 .debug_aranges
                0x0000000000001958       0x20 ./libkernel.a(arm.o)
 .debug_aranges
                0x0000000000001978       0x20 ./libkernel.a(startup.o)
 .debug_aranges
                0x0000000000001998       0x20 ./libkernel.a(task.o)
 .debug_aranges
                0x00000000000019b8       0x18 ./libkernel.a(taskhook.o)
 .debug_aranges
                0x00000000000019d0       0x20 ./libkernel.a(wait.o)
 .debug_aranges
                0x00000000000019f0       0x20 ./libkernel.a(time_event.o)
 .debug_aranges
                0x0000000000001a10       0x20 ./libkernel.a(task_sync.o)
 .debug_aranges
                0x0000000000001a30       0x20 ./libkernel.a(semaphore.o)
 .debug_aranges
                0x0000000000001a50       0x20 ./libkernel.a(dataqueue.o)
 .debug_aranges
                0x0000000000001a70       0x20 ./libkernel.a(spin_lock.o)
 .debug_aranges
                0x0000000000001a90       0x20 ./libkernel.a(sys_manage.o)
 .debug_aranges
                0x0000000000001ab0       0x20 ./libkernel.a(interrupt.o)
 .debug_aranges
                0x0000000000001ad0       0x20 ./libkernel.a(core_support.o)
 .debug_aranges
                0x0000000000001af0       0x20 ./libkernel.a(task_term.o)
 .debug_aranges
                0x0000000000001b10       0x20 ./libkernel.a(gic_support.o)
 .debug_aranges
                0x0000000000001b30       0x20 /usr/lib/gcc/arm-none-eabi/10.3.1/../../../arm-none-eabi/lib/thumb/v7-a/nofp/libc.a(lib_a-memset.o)

.debug_pubnames
 *(.debug_pubnames)

.debug_info     0x0000000000000000    0x4ef2a
 *(.debug_info)
 .debug_info    0x0000000000000000       0x26 objs/start.o
 .debug_info    0x0000000000000026      0x52c objs/log_output.o
 .debug_info    0x0000000000000552      0x1ee objs/vasyslog.o
 .debug_info    0x0000000000000740      0x1ff objs/t_perror.o
 .debug_info    0x000000000000093f       0xe5 objs/strerror.o
 .debug_info    0x0000000000000a24      0x140 objs/tTask_rProcessor1Migratable_tecsgen.o
 .debug_info    0x0000000000000b64      0x139 objs/tSemaphore_rProcessor1Migratable_tecsgen.o
 .debug_info    0x0000000000000c9d      0x13b objs/tInterruptRequest_rProcessor1Migratable_tecsgen.o
 .debug_info    0x0000000000000dd8      0x140 objs/tISR_rProcessor1Migratable_tecsgen.o
 .debug_info    0x0000000000000f18      0x193 objs/tTerminateRoutine_rProcessor1Migratable_tecsgen.o
 .debug_info    0x00000000000010ab      0x73c objs/tSerialPortMain_rProcessor1Migratable_tecsgen.o
 .debug_info    0x00000000000017e7      0x2b6 objs/tSerialAdapter_rProcessor1Migratable_tecsgen.o
 .debug_info    0x0000000000001a9d      0x265 objs/tSysLog_rProcessor1Migratable_tecsgen.o
 .debug_info    0x0000000000001d02       0x9a objs/tSysLogAdapter_rProcessor1Migratable_tecsgen.o
 .debug_info    0x0000000000001d9c      0x212 objs/tLogTaskMain_rProcessor1Migratable_tecsgen.o
 .debug_info    0x0000000000001fae       0x9a objs/tPutLogZyboZ7_rProcessor1Migratable_tecsgen.o
 .debug_info    0x0000000000002048      0x30e objs/tXUartPs_rProcessor1Migratable_tecsgen.o
 .debug_info    0x0000000000002356       0xe3 objs/tSIOPortZyboZ7Main_rProcessor1Migratable_tecsgen.o
 .debug_info    0x0000000000002439      0x142 objs/tTask.o
 .debug_info    0x000000000000257b      0x216 objs/tISR.o
 .debug_info    0x0000000000002791      0x168 objs/tTerminateRoutine.o
 .debug_info    0x00000000000028f9     0x17ed objs/tSerialPortMain.o
 .debug_info    0x00000000000040e6      0x485 objs/tSerialAdapter.o
 .debug_info    0x000000000000456b      0xbb6 objs/tSysLog.o
 .debug_info    0x0000000000005121      0x33b objs/tSysLogAdapter.o
 .debug_info    0x000000000000545c      0x7d8 objs/tLogTaskMain.o
 .debug_info    0x0000000000005c34      0x40f objs/tPutLogZyboZ7.o
 .debug_info    0x0000000000006043      0xe7b objs/tXUartPs.o
 .debug_info    0x0000000000006ebe      0x1a9 objs/init_tecs.o
 .debug_info    0x0000000000007067     0x205b objs/kernel_cfg.o
 .debug_info    0x00000000000090c2    0x1f3e5 ./gen/../tecsrustUART/target/armv7a-none-eabi/release/libitron.a(core-d049573bc16596f9.core.5587a85061e7188a-cgu.0.rcgu.o)
 .debug_info    0x00000000000284a7      0x26d ./gen/../tecsrustUART/target/armv7a-none-eabi/release/libitron.a(compiler_builtins-70f608aea3cde50d.compiler_builtins.5a681add74c93a61-cgu.162.rcgu.o)
 .debug_info    0x0000000000028714       0xb3 ./gen/../tecsrustUART/target/armv7a-none-eabi/release/libitron.a(compiler_builtins-70f608aea3cde50d.compiler_builtins.5a681add74c93a61-cgu.174.rcgu.o)
 .debug_info    0x00000000000287c7       0x51 ./gen/../tecsrustUART/target/armv7a-none-eabi/release/libitron.a(compiler_builtins-70f608aea3cde50d.compiler_builtins.5a681add74c93a61-cgu.178.rcgu.o)
 .debug_info    0x0000000000028818      0x173 ./gen/../tecsrustUART/target/armv7a-none-eabi/release/libitron.a(compiler_builtins-70f608aea3cde50d.compiler_builtins.5a681add74c93a61-cgu.180.rcgu.o)
 .debug_info    0x000000000002898b      0x1a4 ./gen/../tecsrustUART/target/armv7a-none-eabi/release/libitron.a(compiler_builtins-70f608aea3cde50d.compiler_builtins.5a681add74c93a61-cgu.201.rcgu.o)
 .debug_info    0x0000000000028b2f      0x196 ./gen/../tecsrustUART/target/armv7a-none-eabi/release/libitron.a(compiler_builtins-70f608aea3cde50d.compiler_builtins.5a681add74c93a61-cgu.206.rcgu.o)
 .debug_info    0x0000000000028cc5      0x340 ./gen/../tecsrustUART/target/armv7a-none-eabi/release/libitron.a(compiler_builtins-70f608aea3cde50d.compiler_builtins.5a681add74c93a61-cgu.210.rcgu.o)
 .debug_info    0x0000000000029005       0x95 ./gen/../tecsrustUART/target/armv7a-none-eabi/release/libitron.a(compiler_builtins-70f608aea3cde50d.compiler_builtins.5a681add74c93a61-cgu.223.rcgu.o)
 .debug_info    0x000000000002909a       0xd1 ./gen/../tecsrustUART/target/armv7a-none-eabi/release/libitron.a(compiler_builtins-70f608aea3cde50d.compiler_builtins.5a681add74c93a61-cgu.253.rcgu.o)
 .debug_info    0x000000000002916b      0x1a2 ./gen/../tecsrustUART/target/armv7a-none-eabi/release/libitron.a(compiler_builtins-70f608aea3cde50d.compiler_builtins.5a681add74c93a61-cgu.261.rcgu.o)
 .debug_info    0x000000000002930d       0x51 ./gen/../tecsrustUART/target/armv7a-none-eabi/release/libitron.a(compiler_builtins-70f608aea3cde50d.compiler_builtins.5a681add74c93a61-cgu.263.rcgu.o)
 .debug_info    0x000000000002935e      0x244 ./gen/../tecsrustUART/target/armv7a-none-eabi/release/libitron.a(compiler_builtins-70f608aea3cde50d.compiler_builtins.5a681add74c93a61-cgu.270.rcgu.o)
 .debug_info    0x00000000000295a2      0x157 ./gen/../tecsrustUART/target/armv7a-none-eabi/release/libitron.a(compiler_builtins-70f608aea3cde50d.compiler_builtins.5a681add74c93a61-cgu.283.rcgu.o)
 .debug_info    0x00000000000296f9      0x186 ./gen/../tecsrustUART/target/armv7a-none-eabi/release/libitron.a(compiler_builtins-70f608aea3cde50d.compiler_builtins.5a681add74c93a61-cgu.287.rcgu.o)
 .debug_info    0x000000000002987f      0x316 ./gen/../tecsrustUART/target/armv7a-none-eabi/release/libitron.a(compiler_builtins-70f608aea3cde50d.compiler_builtins.5a681add74c93a61-cgu.300.rcgu.o)
 .debug_info    0x0000000000029b95       0xb1 ./gen/../tecsrustUART/target/armv7a-none-eabi/release/libitron.a(compiler_builtins-70f608aea3cde50d.compiler_builtins.5a681add74c93a61-cgu.310.rcgu.o)
 .debug_info    0x0000000000029c46       0x51 ./gen/../tecsrustUART/target/armv7a-none-eabi/release/libitron.a(compiler_builtins-70f608aea3cde50d.compiler_builtins.5a681add74c93a61-cgu.355.rcgu.o)
 .debug_info    0x0000000000029c97      0x1dc ./gen/../tecsrustUART/target/armv7a-none-eabi/release/libitron.a(compiler_builtins-70f608aea3cde50d.compiler_builtins.5a681add74c93a61-cgu.361.rcgu.o)
 .debug_info    0x0000000000029e73      0x242 ./gen/../tecsrustUART/target/armv7a-none-eabi/release/libitron.a(compiler_builtins-70f608aea3cde50d.compiler_builtins.5a681add74c93a61-cgu.365.rcgu.o)
 .debug_info    0x000000000002a0b5      0x1a4 ./gen/../tecsrustUART/target/armv7a-none-eabi/release/libitron.a(compiler_builtins-70f608aea3cde50d.compiler_builtins.5a681add74c93a61-cgu.375.rcgu.o)
 .debug_info    0x000000000002a259       0x51 ./gen/../tecsrustUART/target/armv7a-none-eabi/release/libitron.a(compiler_builtins-70f608aea3cde50d.compiler_builtins.5a681add74c93a61-cgu.393.rcgu.o)
 .debug_info    0x000000000002a2aa      0x287 ./gen/../tecsrustUART/target/armv7a-none-eabi/release/libitron.a(compiler_builtins-70f608aea3cde50d.compiler_builtins.5a681add74c93a61-cgu.395.rcgu.o)
 .debug_info    0x000000000002a531       0x26 ./gen/../tecsrustUART/target/armv7a-none-eabi/release/libitron.a(63f8a0b8a638da8c-udivmodsi4.o)
 .debug_info    0x000000000002a557       0x26 ./gen/../tecsrustUART/target/armv7a-none-eabi/release/libitron.a(63f8a0b8a638da8c-udivsi3.o)
 .debug_info    0x000000000002a57d     0x1700 ./gen/../tecsrustUART/target/armv7a-none-eabi/release/libitron.a(compiler_builtins-70f608aea3cde50d.compiler_builtins.5a681add74c93a61-cgu.000.rcgu.o)
 .debug_info    0x000000000002bc7d      0xf8f ./gen/../tecsrustUART/target/armv7a-none-eabi/release/libitron.a(compiler_builtins-70f608aea3cde50d.compiler_builtins.5a681add74c93a61-cgu.004.rcgu.o)
 .debug_info    0x000000000002cc0c      0xbd0 ./gen/../tecsrustUART/target/armv7a-none-eabi/release/libitron.a(compiler_builtins-70f608aea3cde50d.compiler_builtins.5a681add74c93a61-cgu.009.rcgu.o)
 .debug_info    0x000000000002d7dc      0x364 ./gen/../tecsrustUART/target/armv7a-none-eabi/release/libitron.a(compiler_builtins-70f608aea3cde50d.compiler_builtins.5a681add74c93a61-cgu.019.rcgu.o)
 .debug_info    0x000000000002db40       0xa1 ./gen/../tecsrustUART/target/armv7a-none-eabi/release/libitron.a(compiler_builtins-70f608aea3cde50d.compiler_builtins.5a681add74c93a61-cgu.347.rcgu.o)
 .debug_info    0x000000000002dbe1       0xe2 ./gen/../tecsrustUART/target/armv7a-none-eabi/release/libitron.a(63f8a0b8a638da8c-aeabi_div0.o)
 .debug_info    0x000000000002dcc3      0x495 ./gen/../tecsrustUART/target/armv7a-none-eabi/release/libitron.a(compiler_builtins-70f608aea3cde50d.compiler_builtins.5a681add74c93a61-cgu.010.rcgu.o)
 .debug_info    0x000000000002e158      0x60a ./libkernel.a(target_kernel_impl.o)
 .debug_info    0x000000000002e762      0x445 ./libkernel.a(chip_kernel_impl.o)
 .debug_info    0x000000000002eba7      0x77c ./libkernel.a(mpcore_kernel_impl.o)
 .debug_info    0x000000000002f323     0x115f ./libkernel.a(gic_kernel_impl.o)
 .debug_info    0x0000000000030482      0xa1a ./libkernel.a(pl310.o)
 .debug_info    0x0000000000030e9c      0x463 ./libkernel.a(mpcore_timer.o)
 .debug_info    0x00000000000312ff     0x1684 ./libkernel.a(core_kernel_impl.o)
 .debug_info    0x0000000000032983      0x4e2 ./libkernel.a(arm.o)
 .debug_info    0x0000000000032e65     0x11e9 ./libkernel.a(startup.o)
 .debug_info    0x000000000003404e     0x268b ./libkernel.a(task.o)
 .debug_info    0x00000000000366d9      0x87d ./libkernel.a(taskhook.o)
 .debug_info    0x0000000000036f56     0x1bd2 ./libkernel.a(wait.o)
 .debug_info    0x0000000000038b28     0x286c ./libkernel.a(time_event.o)
 .debug_info    0x000000000003b394     0x31c3 ./libkernel.a(task_sync.o)
 .debug_info    0x000000000003e557     0x2913 ./libkernel.a(semaphore.o)
 .debug_info    0x0000000000040e6a     0x46c9 ./libkernel.a(dataqueue.o)
 .debug_info    0x0000000000045533     0x161f ./libkernel.a(spin_lock.o)
 .debug_info    0x0000000000046b52     0x3c19 ./libkernel.a(sys_manage.o)
 .debug_info    0x000000000004a76b     0x2247 ./libkernel.a(interrupt.o)
 .debug_info    0x000000000004c9b2       0x26 ./libkernel.a(core_support.o)
 .debug_info    0x000000000004c9d8     0x23f5 ./libkernel.a(task_term.o)
 .debug_info    0x000000000004edcd       0x26 ./libkernel.a(gic_support.o)
 .debug_info    0x000000000004edf3      0x137 /usr/lib/gcc/arm-none-eabi/10.3.1/../../../arm-none-eabi/lib/thumb/v7-a/nofp/libc.a(lib_a-memset.o)

.debug_abbrev   0x0000000000000000     0x861e
 *(.debug_abbrev)
 .debug_abbrev  0x0000000000000000       0x14 objs/start.o
 .debug_abbrev  0x0000000000000014      0x1da objs/log_output.o
 .debug_abbrev  0x00000000000001ee      0x116 objs/vasyslog.o
 .debug_abbrev  0x0000000000000304      0x106 objs/t_perror.o
 .debug_abbrev  0x000000000000040a       0x8a objs/strerror.o
 .debug_abbrev  0x0000000000000494       0xed objs/tTask_rProcessor1Migratable_tecsgen.o
 .debug_abbrev  0x0000000000000581       0xed objs/tSemaphore_rProcessor1Migratable_tecsgen.o
 .debug_abbrev  0x000000000000066e       0xde objs/tInterruptRequest_rProcessor1Migratable_tecsgen.o
 .debug_abbrev  0x000000000000074c       0xed objs/tISR_rProcessor1Migratable_tecsgen.o
 .debug_abbrev  0x0000000000000839       0xff objs/tTerminateRoutine_rProcessor1Migratable_tecsgen.o
 .debug_abbrev  0x0000000000000938      0x1db objs/tSerialPortMain_rProcessor1Migratable_tecsgen.o
 .debug_abbrev  0x0000000000000b13      0x10b objs/tSerialAdapter_rProcessor1Migratable_tecsgen.o
 .debug_abbrev  0x0000000000000c1e       0xe8 objs/tSysLog_rProcessor1Migratable_tecsgen.o
 .debug_abbrev  0x0000000000000d06       0x42 objs/tSysLogAdapter_rProcessor1Migratable_tecsgen.o
 .debug_abbrev  0x0000000000000d48      0x137 objs/tLogTaskMain_rProcessor1Migratable_tecsgen.o
 .debug_abbrev  0x0000000000000e7f       0x42 objs/tPutLogZyboZ7_rProcessor1Migratable_tecsgen.o
 .debug_abbrev  0x0000000000000ec1      0x18b objs/tXUartPs_rProcessor1Migratable_tecsgen.o
 .debug_abbrev  0x000000000000104c       0x9e objs/tSIOPortZyboZ7Main_rProcessor1Migratable_tecsgen.o
 .debug_abbrev  0x00000000000010ea       0xdf objs/tTask.o
 .debug_abbrev  0x00000000000011c9      0x111 objs/tISR.o
 .debug_abbrev  0x00000000000012da       0xcd objs/tTerminateRoutine.o
 .debug_abbrev  0x00000000000013a7      0x3dd objs/tSerialPortMain.o
 .debug_abbrev  0x0000000000001784      0x156 objs/tSerialAdapter.o
 .debug_abbrev  0x00000000000018da      0x273 objs/tSysLog.o
 .debug_abbrev  0x0000000000001b4d      0x108 objs/tSysLogAdapter.o
 .debug_abbrev  0x0000000000001c55      0x288 objs/tLogTaskMain.o
 .debug_abbrev  0x0000000000001edd      0x1d0 objs/tPutLogZyboZ7.o
 .debug_abbrev  0x00000000000020ad      0x2fa objs/tXUartPs.o
 .debug_abbrev  0x00000000000023a7       0x72 objs/init_tecs.o
 .debug_abbrev  0x0000000000002419      0x3ab objs/kernel_cfg.o
 .debug_abbrev  0x00000000000027c4      0x2fb ./gen/../tecsrustUART/target/armv7a-none-eabi/release/libitron.a(core-d049573bc16596f9.core.5587a85061e7188a-cgu.0.rcgu.o)
 .debug_abbrev  0x0000000000002abf       0xc5 ./gen/../tecsrustUART/target/armv7a-none-eabi/release/libitron.a(compiler_builtins-70f608aea3cde50d.compiler_builtins.5a681add74c93a61-cgu.162.rcgu.o)
 .debug_abbrev  0x0000000000002b84       0x70 ./gen/../tecsrustUART/target/armv7a-none-eabi/release/libitron.a(compiler_builtins-70f608aea3cde50d.compiler_builtins.5a681add74c93a61-cgu.174.rcgu.o)
 .debug_abbrev  0x0000000000002bf4       0x2e ./gen/../tecsrustUART/target/armv7a-none-eabi/release/libitron.a(compiler_builtins-70f608aea3cde50d.compiler_builtins.5a681add74c93a61-cgu.178.rcgu.o)
 .debug_abbrev  0x0000000000002c22       0x9b ./gen/../tecsrustUART/target/armv7a-none-eabi/release/libitron.a(compiler_builtins-70f608aea3cde50d.compiler_builtins.5a681add74c93a61-cgu.180.rcgu.o)
 .debug_abbrev  0x0000000000002cbd       0xa3 ./gen/../tecsrustUART/target/armv7a-none-eabi/release/libitron.a(compiler_builtins-70f608aea3cde50d.compiler_builtins.5a681add74c93a61-cgu.201.rcgu.o)
 .debug_abbrev  0x0000000000002d60       0x9b ./gen/../tecsrustUART/target/armv7a-none-eabi/release/libitron.a(compiler_builtins-70f608aea3cde50d.compiler_builtins.5a681add74c93a61-cgu.206.rcgu.o)
 .debug_abbrev  0x0000000000002dfb       0xaa ./gen/../tecsrustUART/target/armv7a-none-eabi/release/libitron.a(compiler_builtins-70f608aea3cde50d.compiler_builtins.5a681add74c93a61-cgu.210.rcgu.o)
 .debug_abbrev  0x0000000000002ea5       0x5f ./gen/../tecsrustUART/target/armv7a-none-eabi/release/libitron.a(compiler_builtins-70f608aea3cde50d.compiler_builtins.5a681add74c93a61-cgu.223.rcgu.o)
 .debug_abbrev  0x0000000000002f04       0x81 ./gen/../tecsrustUART/target/armv7a-none-eabi/release/libitron.a(compiler_builtins-70f608aea3cde50d.compiler_builtins.5a681add74c93a61-cgu.253.rcgu.o)
 .debug_abbrev  0x0000000000002f85       0x9f ./gen/../tecsrustUART/target/armv7a-none-eabi/release/libitron.a(compiler_builtins-70f608aea3cde50d.compiler_builtins.5a681add74c93a61-cgu.261.rcgu.o)
 .debug_abbrev  0x0000000000003024       0x2e ./gen/../tecsrustUART/target/armv7a-none-eabi/release/libitron.a(compiler_builtins-70f608aea3cde50d.compiler_builtins.5a681add74c93a61-cgu.263.rcgu.o)
 .debug_abbrev  0x0000000000003052       0xaf ./gen/../tecsrustUART/target/armv7a-none-eabi/release/libitron.a(compiler_builtins-70f608aea3cde50d.compiler_builtins.5a681add74c93a61-cgu.270.rcgu.o)
 .debug_abbrev  0x0000000000003101       0x9b ./gen/../tecsrustUART/target/armv7a-none-eabi/release/libitron.a(compiler_builtins-70f608aea3cde50d.compiler_builtins.5a681add74c93a61-cgu.283.rcgu.o)
 .debug_abbrev  0x000000000000319c       0x9f ./gen/../tecsrustUART/target/armv7a-none-eabi/release/libitron.a(compiler_builtins-70f608aea3cde50d.compiler_builtins.5a681add74c93a61-cgu.287.rcgu.o)
 .debug_abbrev  0x000000000000323b       0xcc ./gen/../tecsrustUART/target/armv7a-none-eabi/release/libitron.a(compiler_builtins-70f608aea3cde50d.compiler_builtins.5a681add74c93a61-cgu.300.rcgu.o)
 .debug_abbrev  0x0000000000003307       0x7b ./gen/../tecsrustUART/target/armv7a-none-eabi/release/libitron.a(compiler_builtins-70f608aea3cde50d.compiler_builtins.5a681add74c93a61-cgu.310.rcgu.o)
 .debug_abbrev  0x0000000000003382       0x2e ./gen/../tecsrustUART/target/armv7a-none-eabi/release/libitron.a(compiler_builtins-70f608aea3cde50d.compiler_builtins.5a681add74c93a61-cgu.355.rcgu.o)
 .debug_abbrev  0x00000000000033b0       0x9b ./gen/../tecsrustUART/target/armv7a-none-eabi/release/libitron.a(compiler_builtins-70f608aea3cde50d.compiler_builtins.5a681add74c93a61-cgu.361.rcgu.o)
 .debug_abbrev  0x000000000000344b       0xe0 ./gen/../tecsrustUART/target/armv7a-none-eabi/release/libitron.a(compiler_builtins-70f608aea3cde50d.compiler_builtins.5a681add74c93a61-cgu.365.rcgu.o)
 .debug_abbrev  0x000000000000352b       0xa3 ./gen/../tecsrustUART/target/armv7a-none-eabi/release/libitron.a(compiler_builtins-70f608aea3cde50d.compiler_builtins.5a681add74c93a61-cgu.375.rcgu.o)
 .debug_abbrev  0x00000000000035ce       0x2e ./gen/../tecsrustUART/target/armv7a-none-eabi/release/libitron.a(compiler_builtins-70f608aea3cde50d.compiler_builtins.5a681add74c93a61-cgu.393.rcgu.o)
 .debug_abbrev  0x00000000000035fc       0xc5 ./gen/../tecsrustUART/target/armv7a-none-eabi/release/libitron.a(compiler_builtins-70f608aea3cde50d.compiler_builtins.5a681add74c93a61-cgu.395.rcgu.o)
 .debug_abbrev  0x00000000000036c1       0x14 ./gen/../tecsrustUART/target/armv7a-none-eabi/release/libitron.a(63f8a0b8a638da8c-udivmodsi4.o)
 .debug_abbrev  0x00000000000036d5       0x14 ./gen/../tecsrustUART/target/armv7a-none-eabi/release/libitron.a(63f8a0b8a638da8c-udivsi3.o)
 .debug_abbrev  0x00000000000036e9      0x19d ./gen/../tecsrustUART/target/armv7a-none-eabi/release/libitron.a(compiler_builtins-70f608aea3cde50d.compiler_builtins.5a681add74c93a61-cgu.000.rcgu.o)
 .debug_abbrev  0x0000000000003886      0x18e ./gen/../tecsrustUART/target/armv7a-none-eabi/release/libitron.a(compiler_builtins-70f608aea3cde50d.compiler_builtins.5a681add74c93a61-cgu.004.rcgu.o)
 .debug_abbrev  0x0000000000003a14      0x142 ./gen/../tecsrustUART/target/armv7a-none-eabi/release/libitron.a(compiler_builtins-70f608aea3cde50d.compiler_builtins.5a681add74c93a61-cgu.009.rcgu.o)
 .debug_abbrev  0x0000000000003b56      0x13b ./gen/../tecsrustUART/target/armv7a-none-eabi/release/libitron.a(compiler_builtins-70f608aea3cde50d.compiler_builtins.5a681add74c93a61-cgu.019.rcgu.o)
 .debug_abbrev  0x0000000000003c91       0x5f ./gen/../tecsrustUART/target/armv7a-none-eabi/release/libitron.a(compiler_builtins-70f608aea3cde50d.compiler_builtins.5a681add74c93a61-cgu.347.rcgu.o)
 .debug_abbrev  0x0000000000003cf0       0x75 ./gen/../tecsrustUART/target/armv7a-none-eabi/release/libitron.a(63f8a0b8a638da8c-aeabi_div0.o)
 .debug_abbrev  0x0000000000003d65       0xc1 ./gen/../tecsrustUART/target/armv7a-none-eabi/release/libitron.a(compiler_builtins-70f608aea3cde50d.compiler_builtins.5a681add74c93a61-cgu.010.rcgu.o)
 .debug_abbrev  0x0000000000003e26      0x2a0 ./libkernel.a(target_kernel_impl.o)
 .debug_abbrev  0x00000000000040c6      0x168 ./libkernel.a(chip_kernel_impl.o)
 .debug_abbrev  0x000000000000422e      0x279 ./libkernel.a(mpcore_kernel_impl.o)
 .debug_abbrev  0x00000000000044a7      0x317 ./libkernel.a(gic_kernel_impl.o)
 .debug_abbrev  0x00000000000047be      0x1b2 ./libkernel.a(pl310.o)
 .debug_abbrev  0x0000000000004970      0x182 ./libkernel.a(mpcore_timer.o)
 .debug_abbrev  0x0000000000004af2      0x4c5 ./libkernel.a(core_kernel_impl.o)
 .debug_abbrev  0x0000000000004fb7      0x148 ./libkernel.a(arm.o)
 .debug_abbrev  0x00000000000050ff      0x4bd ./libkernel.a(startup.o)
 .debug_abbrev  0x00000000000055bc      0x4fe ./libkernel.a(task.o)
 .debug_abbrev  0x0000000000005aba      0x17b ./libkernel.a(taskhook.o)
 .debug_abbrev  0x0000000000005c35      0x3c0 ./libkernel.a(wait.o)
 .debug_abbrev  0x0000000000005ff5      0x58f ./libkernel.a(time_event.o)
 .debug_abbrev  0x0000000000006584      0x438 ./libkernel.a(task_sync.o)
 .debug_abbrev  0x00000000000069bc      0x47b ./libkernel.a(semaphore.o)
 .debug_abbrev  0x0000000000006e37      0x4f4 ./libkernel.a(dataqueue.o)
 .debug_abbrev  0x000000000000732b      0x454 ./libkernel.a(spin_lock.o)
 .debug_abbrev  0x000000000000777f      0x4d3 ./libkernel.a(sys_manage.o)
 .debug_abbrev  0x0000000000007c52      0x456 ./libkernel.a(interrupt.o)
 .debug_abbrev  0x00000000000080a8       0x14 ./libkernel.a(core_support.o)
 .debug_abbrev  0x00000000000080bc      0x49a ./libkernel.a(task_term.o)
 .debug_abbrev  0x0000000000008556       0x14 ./libkernel.a(gic_support.o)
 .debug_abbrev  0x000000000000856a       0xb4 /usr/lib/gcc/arm-none-eabi/10.3.1/../../../arm-none-eabi/lib/thumb/v7-a/nofp/libc.a(lib_a-memset.o)

.debug_line     0x0000000000000000    0x32c9f
 *(.debug_line)
 .debug_line    0x0000000000000000       0xa8 objs/start.o
 .debug_line    0x00000000000000a8      0x391 objs/log_output.o
 .debug_line    0x0000000000000439      0x1e2 objs/vasyslog.o
 .debug_line    0x000000000000061b       0xfd objs/t_perror.o
 .debug_line    0x0000000000000718       0xad objs/strerror.o
 .debug_line    0x00000000000007c5       0x99 objs/tTask_rProcessor1Migratable_tecsgen.o
 .debug_line    0x000000000000085e       0xa3 objs/tSemaphore_rProcessor1Migratable_tecsgen.o
 .debug_line    0x0000000000000901       0xbd objs/tInterruptRequest_rProcessor1Migratable_tecsgen.o
 .debug_line    0x00000000000009be       0x97 objs/tISR_rProcessor1Migratable_tecsgen.o
 .debug_line    0x0000000000000a55       0xac objs/tTerminateRoutine_rProcessor1Migratable_tecsgen.o
 .debug_line    0x0000000000000b01      0x15f objs/tSerialPortMain_rProcessor1Migratable_tecsgen.o
 .debug_line    0x0000000000000c60       0xd7 objs/tSerialAdapter_rProcessor1Migratable_tecsgen.o
 .debug_line    0x0000000000000d37       0xe8 objs/tSysLog_rProcessor1Migratable_tecsgen.o
 .debug_line    0x0000000000000e1f       0x67 objs/tSysLogAdapter_rProcessor1Migratable_tecsgen.o
 .debug_line    0x0000000000000e86      0x100 objs/tLogTaskMain_rProcessor1Migratable_tecsgen.o
 .debug_line    0x0000000000000f86       0x66 objs/tPutLogZyboZ7_rProcessor1Migratable_tecsgen.o
 .debug_line    0x0000000000000fec      0x104 objs/tXUartPs_rProcessor1Migratable_tecsgen.o
 .debug_line    0x00000000000010f0       0x94 objs/tSIOPortZyboZ7Main_rProcessor1Migratable_tecsgen.o
 .debug_line    0x0000000000001184       0xda objs/tTask.o
 .debug_line    0x000000000000125e        0x0 objs/tInterruptRequest.o
 .debug_line    0x000000000000125e       0xd6 objs/tISR.o
 .debug_line    0x0000000000001334       0xd5 objs/tTerminateRoutine.o
 .debug_line    0x0000000000001409      0xd66 objs/tSerialPortMain.o
 .debug_line    0x000000000000216f      0x24a objs/tSerialAdapter.o
 .debug_line    0x00000000000023b9      0x5ff objs/tSysLog.o
 .debug_line    0x00000000000029b8      0x12f objs/tSysLogAdapter.o
 .debug_line    0x0000000000002ae7      0x360 objs/tLogTaskMain.o
 .debug_line    0x0000000000002e47      0x250 objs/tPutLogZyboZ7.o
 .debug_line    0x0000000000003097      0x668 objs/tXUartPs.o
 .debug_line    0x00000000000036ff       0x8a objs/init_tecs.o
 .debug_line    0x0000000000003789      0x325 objs/kernel_cfg.o
 .debug_line    0x0000000000003aae    0x18a11 ./gen/../tecsrustUART/target/armv7a-none-eabi/release/libitron.a(core-d049573bc16596f9.core.5587a85061e7188a-cgu.0.rcgu.o)
 .debug_line    0x000000000001c4bf      0x36a ./gen/../tecsrustUART/target/armv7a-none-eabi/release/libitron.a(compiler_builtins-70f608aea3cde50d.compiler_builtins.5a681add74c93a61-cgu.162.rcgu.o)
 .debug_line    0x000000000001c829       0x97 ./gen/../tecsrustUART/target/armv7a-none-eabi/release/libitron.a(compiler_builtins-70f608aea3cde50d.compiler_builtins.5a681add74c93a61-cgu.174.rcgu.o)
 .debug_line    0x000000000001c8c0       0x44 ./gen/../tecsrustUART/target/armv7a-none-eabi/release/libitron.a(compiler_builtins-70f608aea3cde50d.compiler_builtins.5a681add74c93a61-cgu.178.rcgu.o)
 .debug_line    0x000000000001c904      0x22e ./gen/../tecsrustUART/target/armv7a-none-eabi/release/libitron.a(compiler_builtins-70f608aea3cde50d.compiler_builtins.5a681add74c93a61-cgu.180.rcgu.o)
 .debug_line    0x000000000001cb32      0x1cf ./gen/../tecsrustUART/target/armv7a-none-eabi/release/libitron.a(compiler_builtins-70f608aea3cde50d.compiler_builtins.5a681add74c93a61-cgu.201.rcgu.o)
 .debug_line    0x000000000001cd01      0x249 ./gen/../tecsrustUART/target/armv7a-none-eabi/release/libitron.a(compiler_builtins-70f608aea3cde50d.compiler_builtins.5a681add74c93a61-cgu.206.rcgu.o)
 .debug_line    0x000000000001cf4a      0x420 ./gen/../tecsrustUART/target/armv7a-none-eabi/release/libitron.a(compiler_builtins-70f608aea3cde50d.compiler_builtins.5a681add74c93a61-cgu.210.rcgu.o)
 .debug_line    0x000000000001d36a       0x82 ./gen/../tecsrustUART/target/armv7a-none-eabi/release/libitron.a(compiler_builtins-70f608aea3cde50d.compiler_builtins.5a681add74c93a61-cgu.223.rcgu.o)
 .debug_line    0x000000000001d3ec       0x97 ./gen/../tecsrustUART/target/armv7a-none-eabi/release/libitron.a(compiler_builtins-70f608aea3cde50d.compiler_builtins.5a681add74c93a61-cgu.253.rcgu.o)
 .debug_line    0x000000000001d483      0x21d ./gen/../tecsrustUART/target/armv7a-none-eabi/release/libitron.a(compiler_builtins-70f608aea3cde50d.compiler_builtins.5a681add74c93a61-cgu.261.rcgu.o)
 .debug_line    0x000000000001d6a0       0x44 ./gen/../tecsrustUART/target/armv7a-none-eabi/release/libitron.a(compiler_builtins-70f608aea3cde50d.compiler_builtins.5a681add74c93a61-cgu.263.rcgu.o)
 .debug_line    0x000000000001d6e4      0x269 ./gen/../tecsrustUART/target/armv7a-none-eabi/release/libitron.a(compiler_builtins-70f608aea3cde50d.compiler_builtins.5a681add74c93a61-cgu.270.rcgu.o)
 .debug_line    0x000000000001d94d      0x216 ./gen/../tecsrustUART/target/armv7a-none-eabi/release/libitron.a(compiler_builtins-70f608aea3cde50d.compiler_builtins.5a681add74c93a61-cgu.283.rcgu.o)
 .debug_line    0x000000000001db63      0x213 ./gen/../tecsrustUART/target/armv7a-none-eabi/release/libitron.a(compiler_builtins-70f608aea3cde50d.compiler_builtins.5a681add74c93a61-cgu.287.rcgu.o)
 .debug_line    0x000000000001dd76      0x416 ./gen/../tecsrustUART/target/armv7a-none-eabi/release/libitron.a(compiler_builtins-70f608aea3cde50d.compiler_builtins.5a681add74c93a61-cgu.300.rcgu.o)
 .debug_line    0x000000000001e18c       0xd9 ./gen/../tecsrustUART/target/armv7a-none-eabi/release/libitron.a(compiler_builtins-70f608aea3cde50d.compiler_builtins.5a681add74c93a61-cgu.310.rcgu.o)
 .debug_line    0x000000000001e265       0x44 ./gen/../tecsrustUART/target/armv7a-none-eabi/release/libitron.a(compiler_builtins-70f608aea3cde50d.compiler_builtins.5a681add74c93a61-cgu.355.rcgu.o)
 .debug_line    0x000000000001e2a9      0x249 ./gen/../tecsrustUART/target/armv7a-none-eabi/release/libitron.a(compiler_builtins-70f608aea3cde50d.compiler_builtins.5a681add74c93a61-cgu.361.rcgu.o)
 .debug_line    0x000000000001e4f2      0x27b ./gen/../tecsrustUART/target/armv7a-none-eabi/release/libitron.a(compiler_builtins-70f608aea3cde50d.compiler_builtins.5a681add74c93a61-cgu.365.rcgu.o)
 .debug_line    0x000000000001e76d      0x1cf ./gen/../tecsrustUART/target/armv7a-none-eabi/release/libitron.a(compiler_builtins-70f608aea3cde50d.compiler_builtins.5a681add74c93a61-cgu.375.rcgu.o)
 .debug_line    0x000000000001e93c       0x44 ./gen/../tecsrustUART/target/armv7a-none-eabi/release/libitron.a(compiler_builtins-70f608aea3cde50d.compiler_builtins.5a681add74c93a61-cgu.393.rcgu.o)
 .debug_line    0x000000000001e980      0x370 ./gen/../tecsrustUART/target/armv7a-none-eabi/release/libitron.a(compiler_builtins-70f608aea3cde50d.compiler_builtins.5a681add74c93a61-cgu.395.rcgu.o)
 .debug_line    0x000000000001ecf0       0xaf ./gen/../tecsrustUART/target/armv7a-none-eabi/release/libitron.a(63f8a0b8a638da8c-udivmodsi4.o)
 .debug_line    0x000000000001ed9f       0xab ./gen/../tecsrustUART/target/armv7a-none-eabi/release/libitron.a(63f8a0b8a638da8c-udivsi3.o)
 .debug_line    0x000000000001ee4a      0xf93 ./gen/../tecsrustUART/target/armv7a-none-eabi/release/libitron.a(compiler_builtins-70f608aea3cde50d.compiler_builtins.5a681add74c93a61-cgu.000.rcgu.o)
 .debug_line    0x000000000001fddd      0xc1b ./gen/../tecsrustUART/target/armv7a-none-eabi/release/libitron.a(compiler_builtins-70f608aea3cde50d.compiler_builtins.5a681add74c93a61-cgu.004.rcgu.o)
 .debug_line    0x00000000000209f8      0x7e3 ./gen/../tecsrustUART/target/armv7a-none-eabi/release/libitron.a(compiler_builtins-70f608aea3cde50d.compiler_builtins.5a681add74c93a61-cgu.009.rcgu.o)
 .debug_line    0x00000000000211db      0x599 ./gen/../tecsrustUART/target/armv7a-none-eabi/release/libitron.a(compiler_builtins-70f608aea3cde50d.compiler_builtins.5a681add74c93a61-cgu.019.rcgu.o)
 .debug_line    0x0000000000021774       0xad ./gen/../tecsrustUART/target/armv7a-none-eabi/release/libitron.a(compiler_builtins-70f608aea3cde50d.compiler_builtins.5a681add74c93a61-cgu.347.rcgu.o)
 .debug_line    0x0000000000021821       0x70 ./gen/../tecsrustUART/target/armv7a-none-eabi/release/libitron.a(63f8a0b8a638da8c-aeabi_div0.o)
 .debug_line    0x0000000000021891      0x54f ./gen/../tecsrustUART/target/armv7a-none-eabi/release/libitron.a(compiler_builtins-70f608aea3cde50d.compiler_builtins.5a681add74c93a61-cgu.010.rcgu.o)
 .debug_line    0x0000000000021de0      0x273 ./libkernel.a(target_kernel_impl.o)
 .debug_line    0x0000000000022053      0x180 ./libkernel.a(chip_kernel_impl.o)
 .debug_line    0x00000000000221d3      0x2af ./libkernel.a(mpcore_kernel_impl.o)
 .debug_line    0x0000000000022482      0x8fa ./libkernel.a(gic_kernel_impl.o)
 .debug_line    0x0000000000022d7c      0x557 ./libkernel.a(pl310.o)
 .debug_line    0x00000000000232d3      0x261 ./libkernel.a(mpcore_timer.o)
 .debug_line    0x0000000000023534      0x801 ./libkernel.a(core_kernel_impl.o)
 .debug_line    0x0000000000023d35      0x3c3 ./libkernel.a(arm.o)
 .debug_line    0x00000000000240f8      0x816 ./libkernel.a(startup.o)
 .debug_line    0x000000000002490e     0x122a ./libkernel.a(task.o)
 .debug_line    0x0000000000025b38      0x12e ./libkernel.a(taskhook.o)
 .debug_line    0x0000000000025c66      0xd4a ./libkernel.a(wait.o)
 .debug_line    0x00000000000269b0     0x150b ./libkernel.a(time_event.o)
 .debug_line    0x0000000000027ebb     0x1d03 ./libkernel.a(task_sync.o)
 .debug_line    0x0000000000029bbe     0x173a ./libkernel.a(semaphore.o)
 .debug_line    0x000000000002b2f8     0x2af5 ./libkernel.a(dataqueue.o)
 .debug_line    0x000000000002dded      0x9fe ./libkernel.a(spin_lock.o)
 .debug_line    0x000000000002e7eb     0x1f9a ./libkernel.a(sys_manage.o)
 .debug_line    0x0000000000030785      0xf9b ./libkernel.a(interrupt.o)
 .debug_line    0x0000000000031720      0x1ad ./libkernel.a(core_support.o)
 .debug_line    0x00000000000318cd     0x1183 ./libkernel.a(task_term.o)
 .debug_line    0x0000000000032a50       0x8e ./libkernel.a(gic_support.o)
 .debug_line    0x0000000000032ade      0x1c1 /usr/lib/gcc/arm-none-eabi/10.3.1/../../../arm-none-eabi/lib/thumb/v7-a/nofp/libc.a(lib_a-memset.o)

.debug_frame    0x0000000000000000     0x6468
 *(.debug_frame)
 .debug_frame   0x0000000000000000       0xac objs/log_output.o
 .debug_frame   0x00000000000000ac       0x2c objs/vasyslog.o
 .debug_frame   0x00000000000000d8       0x30 objs/t_perror.o
 .debug_frame   0x0000000000000108       0x20 objs/strerror.o
 .debug_frame   0x0000000000000128       0x20 objs/tTask_rProcessor1Migratable_tecsgen.o
 .debug_frame   0x0000000000000148       0x20 objs/tSemaphore_rProcessor1Migratable_tecsgen.o
 .debug_frame   0x0000000000000168       0x20 objs/tInterruptRequest_rProcessor1Migratable_tecsgen.o
 .debug_frame   0x0000000000000188       0x20 objs/tISR_rProcessor1Migratable_tecsgen.o
 .debug_frame   0x00000000000001a8       0x20 objs/tTerminateRoutine_rProcessor1Migratable_tecsgen.o
 .debug_frame   0x00000000000001c8       0x80 objs/tSerialPortMain_rProcessor1Migratable_tecsgen.o
 .debug_frame   0x0000000000000248       0x20 objs/tSerialAdapter_rProcessor1Migratable_tecsgen.o
 .debug_frame   0x0000000000000268       0x20 objs/tSysLog_rProcessor1Migratable_tecsgen.o
 .debug_frame   0x0000000000000288       0x20 objs/tSysLogAdapter_rProcessor1Migratable_tecsgen.o
 .debug_frame   0x00000000000002a8       0x30 objs/tLogTaskMain_rProcessor1Migratable_tecsgen.o
 .debug_frame   0x00000000000002d8       0x20 objs/tPutLogZyboZ7_rProcessor1Migratable_tecsgen.o
 .debug_frame   0x00000000000002f8       0x30 objs/tXUartPs_rProcessor1Migratable_tecsgen.o
 .debug_frame   0x0000000000000328       0x20 objs/tSIOPortZyboZ7Main_rProcessor1Migratable_tecsgen.o
 .debug_frame   0x0000000000000348       0x20 objs/tTask.o
 .debug_frame   0x0000000000000368       0x20 objs/tISR.o
 .debug_frame   0x0000000000000388       0x20 objs/tTerminateRoutine.o
 .debug_frame   0x00000000000003a8      0x150 objs/tSerialPortMain.o
 .debug_frame   0x00000000000004f8       0xf0 objs/tSerialAdapter.o
 .debug_frame   0x00000000000005e8       0xa4 objs/tSysLog.o
 .debug_frame   0x000000000000068c       0x60 objs/tSysLogAdapter.o
 .debug_frame   0x00000000000006ec       0xa8 objs/tLogTaskMain.o
 .debug_frame   0x0000000000000794       0x48 objs/tPutLogZyboZ7.o
 .debug_frame   0x00000000000007dc       0xa0 objs/tXUartPs.o
 .debug_frame   0x000000000000087c       0x2c objs/init_tecs.o
 .debug_frame   0x00000000000008a8       0x50 objs/kernel_cfg.o
 .debug_frame   0x00000000000008f8     0x42a8 ./gen/../tecsrustUART/target/armv7a-none-eabi/release/libitron.a(core-d049573bc16596f9.core.5587a85061e7188a-cgu.0.rcgu.o)
 .debug_frame   0x0000000000004ba0       0x30 ./gen/../tecsrustUART/target/armv7a-none-eabi/release/libitron.a(compiler_builtins-70f608aea3cde50d.compiler_builtins.5a681add74c93a61-cgu.162.rcgu.o)
 .debug_frame   0x0000000000004bd0       0x30 ./gen/../tecsrustUART/target/armv7a-none-eabi/release/libitron.a(compiler_builtins-70f608aea3cde50d.compiler_builtins.5a681add74c93a61-cgu.174.rcgu.o)
 .debug_frame   0x0000000000004c00       0x30 ./gen/../tecsrustUART/target/armv7a-none-eabi/release/libitron.a(compiler_builtins-70f608aea3cde50d.compiler_builtins.5a681add74c93a61-cgu.178.rcgu.o)
 .debug_frame   0x0000000000004c30       0x30 ./gen/../tecsrustUART/target/armv7a-none-eabi/release/libitron.a(compiler_builtins-70f608aea3cde50d.compiler_builtins.5a681add74c93a61-cgu.180.rcgu.o)
 .debug_frame   0x0000000000004c60       0x30 ./gen/../tecsrustUART/target/armv7a-none-eabi/release/libitron.a(compiler_builtins-70f608aea3cde50d.compiler_builtins.5a681add74c93a61-cgu.201.rcgu.o)
 .debug_frame   0x0000000000004c90       0x30 ./gen/../tecsrustUART/target/armv7a-none-eabi/release/libitron.a(compiler_builtins-70f608aea3cde50d.compiler_builtins.5a681add74c93a61-cgu.206.rcgu.o)
 .debug_frame   0x0000000000004cc0       0x30 ./gen/../tecsrustUART/target/armv7a-none-eabi/release/libitron.a(compiler_builtins-70f608aea3cde50d.compiler_builtins.5a681add74c93a61-cgu.210.rcgu.o)
 .debug_frame   0x0000000000004cf0       0x30 ./gen/../tecsrustUART/target/armv7a-none-eabi/release/libitron.a(compiler_builtins-70f608aea3cde50d.compiler_builtins.5a681add74c93a61-cgu.223.rcgu.o)
 .debug_frame   0x0000000000004d20       0x30 ./gen/../tecsrustUART/target/armv7a-none-eabi/release/libitron.a(compiler_builtins-70f608aea3cde50d.compiler_builtins.5a681add74c93a61-cgu.253.rcgu.o)
 .debug_frame   0x0000000000004d50       0x38 ./gen/../tecsrustUART/target/armv7a-none-eabi/release/libitron.a(compiler_builtins-70f608aea3cde50d.compiler_builtins.5a681add74c93a61-cgu.261.rcgu.o)
 .debug_frame   0x0000000000004d88       0x30 ./gen/../tecsrustUART/target/armv7a-none-eabi/release/libitron.a(compiler_builtins-70f608aea3cde50d.compiler_builtins.5a681add74c93a61-cgu.263.rcgu.o)
 .debug_frame   0x0000000000004db8       0x30 ./gen/../tecsrustUART/target/armv7a-none-eabi/release/libitron.a(compiler_builtins-70f608aea3cde50d.compiler_builtins.5a681add74c93a61-cgu.270.rcgu.o)
 .debug_frame   0x0000000000004de8       0x30 ./gen/../tecsrustUART/target/armv7a-none-eabi/release/libitron.a(compiler_builtins-70f608aea3cde50d.compiler_builtins.5a681add74c93a61-cgu.283.rcgu.o)
 .debug_frame   0x0000000000004e18       0x38 ./gen/../tecsrustUART/target/armv7a-none-eabi/release/libitron.a(compiler_builtins-70f608aea3cde50d.compiler_builtins.5a681add74c93a61-cgu.287.rcgu.o)
 .debug_frame   0x0000000000004e50       0x30 ./gen/../tecsrustUART/target/armv7a-none-eabi/release/libitron.a(compiler_builtins-70f608aea3cde50d.compiler_builtins.5a681add74c93a61-cgu.300.rcgu.o)
 .debug_frame   0x0000000000004e80       0x30 ./gen/../tecsrustUART/target/armv7a-none-eabi/release/libitron.a(compiler_builtins-70f608aea3cde50d.compiler_builtins.5a681add74c93a61-cgu.310.rcgu.o)
 .debug_frame   0x0000000000004eb0       0x30 ./gen/../tecsrustUART/target/armv7a-none-eabi/release/libitron.a(compiler_builtins-70f608aea3cde50d.compiler_builtins.5a681add74c93a61-cgu.355.rcgu.o)
 .debug_frame   0x0000000000004ee0       0x38 ./gen/../tecsrustUART/target/armv7a-none-eabi/release/libitron.a(compiler_builtins-70f608aea3cde50d.compiler_builtins.5a681add74c93a61-cgu.361.rcgu.o)
 .debug_frame   0x0000000000004f18       0x34 ./gen/../tecsrustUART/target/armv7a-none-eabi/release/libitron.a(compiler_builtins-70f608aea3cde50d.compiler_builtins.5a681add74c93a61-cgu.365.rcgu.o)
 .debug_frame   0x0000000000004f4c       0x30 ./gen/../tecsrustUART/target/armv7a-none-eabi/release/libitron.a(compiler_builtins-70f608aea3cde50d.compiler_builtins.5a681add74c93a61-cgu.375.rcgu.o)
 .debug_frame   0x0000000000004f7c       0x30 ./gen/../tecsrustUART/target/armv7a-none-eabi/release/libitron.a(compiler_builtins-70f608aea3cde50d.compiler_builtins.5a681add74c93a61-cgu.393.rcgu.o)
 .debug_frame   0x0000000000004fac       0x30 ./gen/../tecsrustUART/target/armv7a-none-eabi/release/libitron.a(compiler_builtins-70f608aea3cde50d.compiler_builtins.5a681add74c93a61-cgu.395.rcgu.o)
 .debug_frame   0x0000000000004fdc       0x90 ./gen/../tecsrustUART/target/armv7a-none-eabi/release/libitron.a(compiler_builtins-70f608aea3cde50d.compiler_builtins.5a681add74c93a61-cgu.000.rcgu.o)
 .debug_frame   0x000000000000506c       0x90 ./gen/../tecsrustUART/target/armv7a-none-eabi/release/libitron.a(compiler_builtins-70f608aea3cde50d.compiler_builtins.5a681add74c93a61-cgu.004.rcgu.o)
 .debug_frame   0x00000000000050fc       0xc4 ./gen/../tecsrustUART/target/armv7a-none-eabi/release/libitron.a(compiler_builtins-70f608aea3cde50d.compiler_builtins.5a681add74c93a61-cgu.009.rcgu.o)
 .debug_frame   0x00000000000051c0      0x138 ./gen/../tecsrustUART/target/armv7a-none-eabi/release/libitron.a(compiler_builtins-70f608aea3cde50d.compiler_builtins.5a681add74c93a61-cgu.019.rcgu.o)
 .debug_frame   0x00000000000052f8       0x34 ./gen/../tecsrustUART/target/armv7a-none-eabi/release/libitron.a(compiler_builtins-70f608aea3cde50d.compiler_builtins.5a681add74c93a61-cgu.347.rcgu.o)
 .debug_frame   0x000000000000532c       0x30 ./gen/../tecsrustUART/target/armv7a-none-eabi/release/libitron.a(63f8a0b8a638da8c-aeabi_div0.o)
 .debug_frame   0x000000000000535c       0x6c ./gen/../tecsrustUART/target/armv7a-none-eabi/release/libitron.a(compiler_builtins-70f608aea3cde50d.compiler_builtins.5a681add74c93a61-cgu.010.rcgu.o)
 .debug_frame   0x00000000000053c8       0x78 ./libkernel.a(target_kernel_impl.o)
 .debug_frame   0x0000000000005440       0x3c ./libkernel.a(chip_kernel_impl.o)
 .debug_frame   0x000000000000547c       0x5c ./libkernel.a(mpcore_kernel_impl.o)
 .debug_frame   0x00000000000054d8       0x80 ./libkernel.a(gic_kernel_impl.o)
 .debug_frame   0x0000000000005558       0x50 ./libkernel.a(pl310.o)
 .debug_frame   0x00000000000055a8       0x40 ./libkernel.a(mpcore_timer.o)
 .debug_frame   0x00000000000055e8       0xfc ./libkernel.a(core_kernel_impl.o)
 .debug_frame   0x00000000000056e4       0xa0 ./libkernel.a(arm.o)
 .debug_frame   0x0000000000005784       0xd4 ./libkernel.a(startup.o)
 .debug_frame   0x0000000000005858      0x15c ./libkernel.a(task.o)
 .debug_frame   0x00000000000059b4      0x12c ./libkernel.a(wait.o)
 .debug_frame   0x0000000000005ae0      0x1b0 ./libkernel.a(time_event.o)
 .debug_frame   0x0000000000005c90      0x138 ./libkernel.a(task_sync.o)
 .debug_frame   0x0000000000005dc8       0xfc ./libkernel.a(semaphore.o)
 .debug_frame   0x0000000000005ec4      0x224 ./libkernel.a(dataqueue.o)
 .debug_frame   0x00000000000060e8       0x7c ./libkernel.a(spin_lock.o)
 .debug_frame   0x0000000000006164      0x184 ./libkernel.a(sys_manage.o)
 .debug_frame   0x00000000000062e8       0x9c ./libkernel.a(interrupt.o)
 .debug_frame   0x0000000000006384       0xb8 ./libkernel.a(task_term.o)
 .debug_frame   0x000000000000643c       0x2c /usr/lib/gcc/arm-none-eabi/10.3.1/../../../arm-none-eabi/lib/thumb/v7-a/nofp/libc.a(lib_a-memset.o)

.debug_str      0x0000000000000000    0x43cc4
 *(.debug_str)
 .debug_str     0x0000000000000000       0x78 objs/start.o
 .debug_str     0x0000000000000078      0x1cd objs/log_output.o
                                        0x28c (size before relaxing)
 .debug_str     0x0000000000000245       0x4d objs/vasyslog.o
                                        0x214 (size before relaxing)
 .debug_str     0x0000000000000292       0x4c objs/t_perror.o
                                        0x212 (size before relaxing)
 .debug_str     0x00000000000002de       0x1c objs/strerror.o
                                        0x1ac (size before relaxing)
 .debug_str     0x00000000000002fa       0xd9 objs/tTask_rProcessor1Migratable_tecsgen.o
                                        0x1d3 (size before relaxing)
 .debug_str     0x00000000000003d3       0x72 objs/tSemaphore_rProcessor1Migratable_tecsgen.o
                                        0x1e7 (size before relaxing)
 .debug_str     0x0000000000000445       0xa4 objs/tInterruptRequest_rProcessor1Migratable_tecsgen.o
                                        0x221 (size before relaxing)
 .debug_str     0x00000000000004e9       0x5a objs/tISR_rProcessor1Migratable_tecsgen.o
                                        0x1ce (size before relaxing)
 .debug_str     0x0000000000000543      0x153 objs/tTerminateRoutine_rProcessor1Migratable_tecsgen.o
                                        0x2c9 (size before relaxing)
 .debug_str     0x0000000000000696      0x4fc objs/tSerialPortMain_rProcessor1Migratable_tecsgen.o
                                        0x6aa (size before relaxing)
 .debug_str     0x0000000000000b92       0xc8 objs/tSerialAdapter_rProcessor1Migratable_tecsgen.o
                                        0x318 (size before relaxing)
 .debug_str     0x0000000000000c5a      0x104 objs/tSysLog_rProcessor1Migratable_tecsgen.o
                                        0x2d5 (size before relaxing)
 .debug_str     0x0000000000000d5e       0x52 objs/tSysLogAdapter_rProcessor1Migratable_tecsgen.o
                                        0x1b1 (size before relaxing)
 .debug_str     0x0000000000000db0      0x144 objs/tLogTaskMain_rProcessor1Migratable_tecsgen.o
                                        0x331 (size before relaxing)
 .debug_str     0x0000000000000ef4       0x50 objs/tPutLogZyboZ7_rProcessor1Migratable_tecsgen.o
                                        0x1af (size before relaxing)
 .debug_str     0x0000000000000f44      0x138 objs/tXUartPs_rProcessor1Migratable_tecsgen.o
                                        0x346 (size before relaxing)
 .debug_str     0x000000000000107c       0x7a objs/tSIOPortZyboZ7Main_rProcessor1Migratable_tecsgen.o
                                        0x1f4 (size before relaxing)
 .debug_str     0x00000000000010f6       0x61 objs/tTask.o
                                        0x1e9 (size before relaxing)
 .debug_str     0x0000000000001157       0x29 objs/tInterruptRequest.o
                                         0xe6 (size before relaxing)
 .debug_str     0x0000000000001180       0x44 objs/tISR.o
                                        0x277 (size before relaxing)
 .debug_str     0x00000000000011c4       0x57 objs/tTerminateRoutine.o
                                        0x244 (size before relaxing)
 .debug_str     0x000000000000121b      0x40a objs/tSerialPortMain.o
                                        0x961 (size before relaxing)
 .debug_str     0x0000000000001625       0x82 objs/tSerialAdapter.o
                                        0x2ed (size before relaxing)
 .debug_str     0x00000000000016a7      0x1c5 objs/tSysLog.o
                                        0x497 (size before relaxing)
 .debug_str     0x000000000000186c       0x6c objs/tSysLogAdapter.o
                                        0x2d5 (size before relaxing)
 .debug_str     0x00000000000018d8       0x77 objs/tLogTaskMain.o
                                        0x5d5 (size before relaxing)
 .debug_str     0x000000000000194f       0x45 objs/tPutLogZyboZ7.o
                                        0x3e5 (size before relaxing)
 .debug_str     0x0000000000001994      0x124 objs/tXUartPs.o
                                        0x606 (size before relaxing)
 .debug_str     0x0000000000001ab8       0x31 objs/init_tecs.o
                                        0x2e8 (size before relaxing)
 .debug_str     0x0000000000001ae9     0x11eb objs/kernel_cfg.o
                                       0x15a0 (size before relaxing)
 .debug_str     0x0000000000002cd4    0x393b4 ./gen/../tecsrustUART/target/armv7a-none-eabi/release/libitron.a(core-d049573bc16596f9.core.5587a85061e7188a-cgu.0.rcgu.o)
                                      0x39839 (size before relaxing)
 .debug_str     0x000000000003c088      0x43c ./gen/../tecsrustUART/target/armv7a-none-eabi/release/libitron.a(compiler_builtins-70f608aea3cde50d.compiler_builtins.5a681add74c93a61-cgu.162.rcgu.o)
                                        0x51d (size before relaxing)
 .debug_str     0x000000000003c4c4       0xfb ./gen/../tecsrustUART/target/armv7a-none-eabi/release/libitron.a(compiler_builtins-70f608aea3cde50d.compiler_builtins.5a681add74c93a61-cgu.174.rcgu.o)
                                        0x1d4 (size before relaxing)
 .debug_str     0x000000000003c5bf       0x6a ./gen/../tecsrustUART/target/armv7a-none-eabi/release/libitron.a(compiler_builtins-70f608aea3cde50d.compiler_builtins.5a681add74c93a61-cgu.178.rcgu.o)
                                         0xec (size before relaxing)
 .debug_str     0x000000000003c629      0x2fc ./gen/../tecsrustUART/target/armv7a-none-eabi/release/libitron.a(compiler_builtins-70f608aea3cde50d.compiler_builtins.5a681add74c93a61-cgu.180.rcgu.o)
                                        0x3b9 (size before relaxing)
 .debug_str     0x000000000003c925       0xfd ./gen/../tecsrustUART/target/armv7a-none-eabi/release/libitron.a(compiler_builtins-70f608aea3cde50d.compiler_builtins.5a681add74c93a61-cgu.201.rcgu.o)
                                        0x463 (size before relaxing)
 .debug_str     0x000000000003ca22      0x143 ./gen/../tecsrustUART/target/armv7a-none-eabi/release/libitron.a(compiler_builtins-70f608aea3cde50d.compiler_builtins.5a681add74c93a61-cgu.206.rcgu.o)
                                        0x416 (size before relaxing)
 .debug_str     0x000000000003cb65      0x506 ./gen/../tecsrustUART/target/armv7a-none-eabi/release/libitron.a(compiler_builtins-70f608aea3cde50d.compiler_builtins.5a681add74c93a61-cgu.210.rcgu.o)
                                        0x6c8 (size before relaxing)
 .debug_str     0x000000000003d06b       0x5d ./gen/../tecsrustUART/target/armv7a-none-eabi/release/libitron.a(compiler_builtins-70f608aea3cde50d.compiler_builtins.5a681add74c93a61-cgu.223.rcgu.o)
                                        0x184 (size before relaxing)
 .debug_str     0x000000000003d0c8       0xad ./gen/../tecsrustUART/target/armv7a-none-eabi/release/libitron.a(compiler_builtins-70f608aea3cde50d.compiler_builtins.5a681add74c93a61-cgu.253.rcgu.o)
                                        0x224 (size before relaxing)
 .debug_str     0x000000000003d175      0x2ba ./gen/../tecsrustUART/target/armv7a-none-eabi/release/libitron.a(compiler_builtins-70f608aea3cde50d.compiler_builtins.5a681add74c93a61-cgu.261.rcgu.o)
                                        0x426 (size before relaxing)
 .debug_str     0x000000000003d42f       0x6a ./gen/../tecsrustUART/target/armv7a-none-eabi/release/libitron.a(compiler_builtins-70f608aea3cde50d.compiler_builtins.5a681add74c93a61-cgu.263.rcgu.o)
                                         0xec (size before relaxing)
 .debug_str     0x000000000003d499      0x3cb ./gen/../tecsrustUART/target/armv7a-none-eabi/release/libitron.a(compiler_builtins-70f608aea3cde50d.compiler_builtins.5a681add74c93a61-cgu.270.rcgu.o)
                                        0x5a9 (size before relaxing)
 .debug_str     0x000000000003d864      0x158 ./gen/../tecsrustUART/target/armv7a-none-eabi/release/libitron.a(compiler_builtins-70f608aea3cde50d.compiler_builtins.5a681add74c93a61-cgu.283.rcgu.o)
                                        0x356 (size before relaxing)
 .debug_str     0x000000000003d9bc      0x158 ./gen/../tecsrustUART/target/armv7a-none-eabi/release/libitron.a(compiler_builtins-70f608aea3cde50d.compiler_builtins.5a681add74c93a61-cgu.287.rcgu.o)
                                        0x3c6 (size before relaxing)
 .debug_str     0x000000000003db14      0x62a ./gen/../tecsrustUART/target/armv7a-none-eabi/release/libitron.a(compiler_builtins-70f608aea3cde50d.compiler_builtins.5a681add74c93a61-cgu.300.rcgu.o)
                                        0x803 (size before relaxing)
 .debug_str     0x000000000003e13e       0xec ./gen/../tecsrustUART/target/armv7a-none-eabi/release/libitron.a(compiler_builtins-70f608aea3cde50d.compiler_builtins.5a681add74c93a61-cgu.310.rcgu.o)
                                        0x1cb (size before relaxing)
 .debug_str     0x000000000003e22a       0x6a ./gen/../tecsrustUART/target/armv7a-none-eabi/release/libitron.a(compiler_builtins-70f608aea3cde50d.compiler_builtins.5a681add74c93a61-cgu.355.rcgu.o)
                                         0xec (size before relaxing)
 .debug_str     0x000000000003e294       0xf6 ./gen/../tecsrustUART/target/armv7a-none-eabi/release/libitron.a(compiler_builtins-70f608aea3cde50d.compiler_builtins.5a681add74c93a61-cgu.361.rcgu.o)
                                        0x4f2 (size before relaxing)
 .debug_str     0x000000000003e38a      0x2ed ./gen/../tecsrustUART/target/armv7a-none-eabi/release/libitron.a(compiler_builtins-70f608aea3cde50d.compiler_builtins.5a681add74c93a61-cgu.365.rcgu.o)
                                        0x59a (size before relaxing)
 .debug_str     0x000000000003e677       0xad ./gen/../tecsrustUART/target/armv7a-none-eabi/release/libitron.a(compiler_builtins-70f608aea3cde50d.compiler_builtins.5a681add74c93a61-cgu.375.rcgu.o)
                                        0x463 (size before relaxing)
 .debug_str     0x000000000003e724       0x6a ./gen/../tecsrustUART/target/armv7a-none-eabi/release/libitron.a(compiler_builtins-70f608aea3cde50d.compiler_builtins.5a681add74c93a61-cgu.393.rcgu.o)
                                         0xec (size before relaxing)
 .debug_str     0x000000000003e78e       0xab ./gen/../tecsrustUART/target/armv7a-none-eabi/release/libitron.a(compiler_builtins-70f608aea3cde50d.compiler_builtins.5a681add74c93a61-cgu.395.rcgu.o)
                                        0x56b (size before relaxing)
 .debug_str     0x000000000003e839       0x94 ./gen/../tecsrustUART/target/armv7a-none-eabi/release/libitron.a(63f8a0b8a638da8c-udivmodsi4.o)
                                         0xa0 (size before relaxing)
 .debug_str     0x000000000003e8cd       0x42 ./gen/../tecsrustUART/target/armv7a-none-eabi/release/libitron.a(63f8a0b8a638da8c-udivsi3.o)
                                         0x9d (size before relaxing)
 .debug_str     0x000000000003e90f     0x1e98 ./gen/../tecsrustUART/target/armv7a-none-eabi/release/libitron.a(compiler_builtins-70f608aea3cde50d.compiler_builtins.5a681add74c93a61-cgu.000.rcgu.o)
                                       0x28f2 (size before relaxing)
 .debug_str     0x00000000000407a7      0x58e ./gen/../tecsrustUART/target/armv7a-none-eabi/release/libitron.a(compiler_builtins-70f608aea3cde50d.compiler_builtins.5a681add74c93a61-cgu.004.rcgu.o)
                                       0x1c8f (size before relaxing)
 .debug_str     0x0000000000040d35      0xae5 ./gen/../tecsrustUART/target/armv7a-none-eabi/release/libitron.a(compiler_builtins-70f608aea3cde50d.compiler_builtins.5a681add74c93a61-cgu.009.rcgu.o)
                                        0xf9f (size before relaxing)
 .debug_str     0x000000000004181a      0x6b6 ./gen/../tecsrustUART/target/armv7a-none-eabi/release/libitron.a(compiler_builtins-70f608aea3cde50d.compiler_builtins.5a681add74c93a61-cgu.019.rcgu.o)
                                        0xad4 (size before relaxing)
 .debug_str     0x0000000000041ed0      0x10e ./gen/../tecsrustUART/target/armv7a-none-eabi/release/libitron.a(compiler_builtins-70f608aea3cde50d.compiler_builtins.5a681add74c93a61-cgu.347.rcgu.o)
                                        0x18a (size before relaxing)
 .debug_str     0x0000000000041fde      0x132 ./gen/../tecsrustUART/target/armv7a-none-eabi/release/libitron.a(63f8a0b8a638da8c-aeabi_div0.o)
                                        0x212 (size before relaxing)
 .debug_str     0x0000000000042110      0x40d ./gen/../tecsrustUART/target/armv7a-none-eabi/release/libitron.a(compiler_builtins-70f608aea3cde50d.compiler_builtins.5a681add74c93a61-cgu.010.rcgu.o)
                                        0x5f0 (size before relaxing)
 .debug_str     0x000000000004251d      0x1a8 ./libkernel.a(target_kernel_impl.o)
                                        0x55a (size before relaxing)
 .debug_str     0x00000000000426c5       0x93 ./libkernel.a(chip_kernel_impl.o)
                                        0x43e (size before relaxing)
 .debug_str     0x0000000000042758      0x16e ./libkernel.a(mpcore_kernel_impl.o)
                                        0x57f (size before relaxing)
 .debug_str     0x00000000000428c6       0xf9 ./libkernel.a(gic_kernel_impl.o)
                                        0x610 (size before relaxing)
 .debug_str     0x00000000000429bf       0xcc ./libkernel.a(pl310.o)
                                        0x284 (size before relaxing)
 .debug_str     0x0000000000042a8b       0xa4 ./libkernel.a(mpcore_timer.o)
                                        0x246 (size before relaxing)
 .debug_str     0x0000000000042b2f      0x18b ./libkernel.a(core_kernel_impl.o)
                                        0x9ff (size before relaxing)
 .debug_str     0x0000000000042cba      0x103 ./libkernel.a(arm.o)
                                        0x2e9 (size before relaxing)
 .debug_str     0x0000000000042dbd      0x162 ./libkernel.a(startup.o)
                                        0x8e5 (size before relaxing)
 .debug_str     0x0000000000042f1f      0x33a ./libkernel.a(task.o)
                                        0xb8d (size before relaxing)
 .debug_str     0x0000000000043259       0x56 ./libkernel.a(taskhook.o)
                                        0x71f (size before relaxing)
 .debug_str     0x00000000000432af      0x15f ./libkernel.a(wait.o)
                                        0xa0a (size before relaxing)
 .debug_str     0x000000000004340e      0x279 ./libkernel.a(time_event.o)
                                        0xc7e (size before relaxing)
 .debug_str     0x0000000000043687       0xc4 ./libkernel.a(task_sync.o)
                                        0xaab (size before relaxing)
 .debug_str     0x000000000004374b       0x8d ./libkernel.a(semaphore.o)
                                        0xb3f (size before relaxing)
 .debug_str     0x00000000000437d8      0x118 ./libkernel.a(dataqueue.o)
                                        0xca8 (size before relaxing)
 .debug_str     0x00000000000438f0       0x9c ./libkernel.a(spin_lock.o)
                                        0x97a (size before relaxing)
 .debug_str     0x000000000004398c       0xe8 ./libkernel.a(sys_manage.o)
                                        0xb03 (size before relaxing)
 .debug_str     0x0000000000043a74       0x96 ./libkernel.a(interrupt.o)
                                        0xade (size before relaxing)
 .debug_str     0x0000000000043b0a       0x2c ./libkernel.a(core_support.o)
                                         0x7f (size before relaxing)
 .debug_str     0x0000000000043b36       0x5a ./libkernel.a(task_term.o)
                                        0xa4c (size before relaxing)
 .debug_str     0x0000000000043b90       0x2b ./libkernel.a(gic_support.o)
                                         0x7e (size before relaxing)
 .debug_str     0x0000000000043bbb      0x109 /usr/lib/gcc/arm-none-eabi/10.3.1/../../../arm-none-eabi/lib/thumb/v7-a/nofp/libc.a(lib_a-memset.o)
                                        0x1b3 (size before relaxing)

.debug_loc      0x0000000000000000    0x14c28
 *(.debug_loc)
 .debug_loc     0x0000000000000000      0x571 objs/log_output.o
 .debug_loc     0x0000000000000571      0x3e5 objs/vasyslog.o
 .debug_loc     0x0000000000000956       0x88 objs/t_perror.o
 .debug_loc     0x00000000000009de       0x35 objs/strerror.o
 .debug_loc     0x0000000000000a13      0x2be objs/tSerialPortMain_rProcessor1Migratable_tecsgen.o
 .debug_loc     0x0000000000000cd1       0x25 objs/tLogTaskMain_rProcessor1Migratable_tecsgen.o
 .debug_loc     0x0000000000000cf6       0x6e objs/tXUartPs_rProcessor1Migratable_tecsgen.o
 .debug_loc     0x0000000000000d64       0x4a objs/tTask.o
 .debug_loc     0x0000000000000dae       0x4a objs/tISR.o
 .debug_loc     0x0000000000000df8       0x4a objs/tTerminateRoutine.o
 .debug_loc     0x0000000000000e42      0xec1 objs/tSerialPortMain.o
 .debug_loc     0x0000000000001d03      0x3b4 objs/tSerialAdapter.o
 .debug_loc     0x00000000000020b7      0x77f objs/tSysLog.o
 .debug_loc     0x0000000000002836       0xde objs/tSysLogAdapter.o
 .debug_loc     0x0000000000002914      0x275 objs/tLogTaskMain.o
 .debug_loc     0x0000000000002b89       0x92 objs/tPutLogZyboZ7.o
 .debug_loc     0x0000000000002c1b      0x7f6 objs/tXUartPs.o
 .debug_loc     0x0000000000003411       0x8b objs/kernel_cfg.o
 .debug_loc     0x000000000000349c       0x3c ./libkernel.a(target_kernel_impl.o)
 .debug_loc     0x00000000000034d8       0x32 ./libkernel.a(chip_kernel_impl.o)
 .debug_loc     0x000000000000350a      0x172 ./libkernel.a(mpcore_kernel_impl.o)
 .debug_loc     0x000000000000367c      0xb9c ./libkernel.a(gic_kernel_impl.o)
 .debug_loc     0x0000000000004218      0x7cc ./libkernel.a(pl310.o)
 .debug_loc     0x00000000000049e4      0x266 ./libkernel.a(mpcore_timer.o)
 .debug_loc     0x0000000000004c4a      0xaf7 ./libkernel.a(core_kernel_impl.o)
 .debug_loc     0x0000000000005741      0x3be ./libkernel.a(arm.o)
 .debug_loc     0x0000000000005aff      0x60c ./libkernel.a(startup.o)
 .debug_loc     0x000000000000610b     0x199c ./libkernel.a(task.o)
 .debug_loc     0x0000000000007aa7     0x1210 ./libkernel.a(wait.o)
 .debug_loc     0x0000000000008cb7     0x18da ./libkernel.a(time_event.o)
 .debug_loc     0x000000000000a591     0x1975 ./libkernel.a(task_sync.o)
 .debug_loc     0x000000000000bf06     0x13f0 ./libkernel.a(semaphore.o)
 .debug_loc     0x000000000000d2f6     0x2bef ./libkernel.a(dataqueue.o)
 .debug_loc     0x000000000000fee5      0x88b ./libkernel.a(spin_lock.o)
 .debug_loc     0x0000000000010770     0x23c3 ./libkernel.a(sys_manage.o)
 .debug_loc     0x0000000000012b33      0xf85 ./libkernel.a(interrupt.o)
 .debug_loc     0x0000000000013ab8      0xf37 ./libkernel.a(task_term.o)
 .debug_loc     0x00000000000149ef      0x239 /usr/lib/gcc/arm-none-eabi/10.3.1/../../../arm-none-eabi/lib/thumb/v7-a/nofp/libc.a(lib_a-memset.o)

.debug_macinfo
 *(.debug_macinfo)

.debug_weaknames
 *(.debug_weaknames)

.debug_funcnames
 *(.debug_funcnames)

.debug_typenames
 *(.debug_typenames)

.debug_varnames
 *(.debug_varnames)
LOAD objs/start.o
LOAD objs/log_output.o
LOAD objs/vasyslog.o
LOAD objs/t_perror.o
LOAD objs/strerror.o
LOAD objs/tTask_rProcessor1Migratable_tecsgen.o
LOAD objs/tSemaphore_rProcessor1Migratable_tecsgen.o
LOAD objs/tInterruptRequest_rProcessor1Migratable_tecsgen.o
LOAD objs/tISR_rProcessor1Migratable_tecsgen.o
LOAD objs/tTerminateRoutine_rProcessor1Migratable_tecsgen.o
LOAD objs/tSerialPortMain_rProcessor1Migratable_tecsgen.o
LOAD objs/tSerialAdapter_rProcessor1Migratable_tecsgen.o
LOAD objs/tSysLog_rProcessor1Migratable_tecsgen.o
LOAD objs/tSysLogAdapter_rProcessor1Migratable_tecsgen.o
LOAD objs/tLogTaskMain_rProcessor1Migratable_tecsgen.o
LOAD objs/tPutLogZyboZ7_rProcessor1Migratable_tecsgen.o
LOAD objs/tXUartPs_rProcessor1Migratable_tecsgen.o
LOAD objs/tSIOPortZyboZ7Main_rProcessor1Migratable_tecsgen.o
LOAD objs/tTask.o
LOAD objs/tInterruptRequest.o
LOAD objs/tISR.o
LOAD objs/tTerminateRoutine.o
LOAD objs/tSerialPortMain.o
LOAD objs/tSerialAdapter.o
LOAD objs/tSysLog.o
LOAD objs/tSysLogAdapter.o
LOAD objs/tLogTaskMain.o
LOAD objs/tPutLogZyboZ7.o
LOAD objs/tXUartPs.o
LOAD objs/init_tecs.o
LOAD objs/kernel_cfg.o
LOAD ./gen/../tecsrustUART/target/armv7a-none-eabi/release/libitron.a
LOAD ./libkernel.a
LOAD /usr/lib/gcc/arm-none-eabi/10.3.1/../../../arm-none-eabi/lib/thumb/v7-a/nofp/libc.a
LOAD /usr/lib/gcc/arm-none-eabi/10.3.1/thumb/v7-a/nofp/libgcc.a
OUTPUT(fmp.elf elf32-littlearm)
LOAD linker stubs

.debug_ranges   0x0000000000000000    0x12838
 .debug_ranges  0x0000000000000000      0x378 objs/tSerialPortMain.o
 .debug_ranges  0x0000000000000378      0x188 objs/tSysLog.o
 .debug_ranges  0x0000000000000500       0x30 objs/tLogTaskMain.o
 .debug_ranges  0x0000000000000530       0x70 objs/tPutLogZyboZ7.o
 .debug_ranges  0x00000000000005a0      0x218 objs/tXUartPs.o
 .debug_ranges  0x00000000000007b8       0x18 objs/kernel_cfg.o
 .debug_ranges  0x00000000000007d0     0xcae0 ./gen/../tecsrustUART/target/armv7a-none-eabi/release/libitron.a(core-d049573bc16596f9.core.5587a85061e7188a-cgu.0.rcgu.o)
 .debug_ranges  0x000000000000d2b0       0x30 ./gen/../tecsrustUART/target/armv7a-none-eabi/release/libitron.a(compiler_builtins-70f608aea3cde50d.compiler_builtins.5a681add74c93a61-cgu.162.rcgu.o)
 .debug_ranges  0x000000000000d2e0       0x20 ./gen/../tecsrustUART/target/armv7a-none-eabi/release/libitron.a(compiler_builtins-70f608aea3cde50d.compiler_builtins.5a681add74c93a61-cgu.180.rcgu.o)
 .debug_ranges  0x000000000000d300       0x30 ./gen/../tecsrustUART/target/armv7a-none-eabi/release/libitron.a(compiler_builtins-70f608aea3cde50d.compiler_builtins.5a681add74c93a61-cgu.201.rcgu.o)
 .debug_ranges  0x000000000000d330       0x20 ./gen/../tecsrustUART/target/armv7a-none-eabi/release/libitron.a(compiler_builtins-70f608aea3cde50d.compiler_builtins.5a681add74c93a61-cgu.206.rcgu.o)
 .debug_ranges  0x000000000000d350       0xc0 ./gen/../tecsrustUART/target/armv7a-none-eabi/release/libitron.a(compiler_builtins-70f608aea3cde50d.compiler_builtins.5a681add74c93a61-cgu.210.rcgu.o)
 .debug_ranges  0x000000000000d410       0x48 ./gen/../tecsrustUART/target/armv7a-none-eabi/release/libitron.a(compiler_builtins-70f608aea3cde50d.compiler_builtins.5a681add74c93a61-cgu.270.rcgu.o)
 .debug_ranges  0x000000000000d458       0x18 ./gen/../tecsrustUART/target/armv7a-none-eabi/release/libitron.a(compiler_builtins-70f608aea3cde50d.compiler_builtins.5a681add74c93a61-cgu.283.rcgu.o)
 .debug_ranges  0x000000000000d470       0x78 ./gen/../tecsrustUART/target/armv7a-none-eabi/release/libitron.a(compiler_builtins-70f608aea3cde50d.compiler_builtins.5a681add74c93a61-cgu.300.rcgu.o)
 .debug_ranges  0x000000000000d4e8       0x20 ./gen/../tecsrustUART/target/armv7a-none-eabi/release/libitron.a(compiler_builtins-70f608aea3cde50d.compiler_builtins.5a681add74c93a61-cgu.310.rcgu.o)
 .debug_ranges  0x000000000000d508       0x18 ./gen/../tecsrustUART/target/armv7a-none-eabi/release/libitron.a(compiler_builtins-70f608aea3cde50d.compiler_builtins.5a681add74c93a61-cgu.361.rcgu.o)
 .debug_ranges  0x000000000000d520       0x58 ./gen/../tecsrustUART/target/armv7a-none-eabi/release/libitron.a(compiler_builtins-70f608aea3cde50d.compiler_builtins.5a681add74c93a61-cgu.365.rcgu.o)
 .debug_ranges  0x000000000000d578       0x30 ./gen/../tecsrustUART/target/armv7a-none-eabi/release/libitron.a(compiler_builtins-70f608aea3cde50d.compiler_builtins.5a681add74c93a61-cgu.375.rcgu.o)
 .debug_ranges  0x000000000000d5a8       0x30 ./gen/../tecsrustUART/target/armv7a-none-eabi/release/libitron.a(compiler_builtins-70f608aea3cde50d.compiler_builtins.5a681add74c93a61-cgu.395.rcgu.o)
 .debug_ranges  0x000000000000d5d8      0x9f8 ./gen/../tecsrustUART/target/armv7a-none-eabi/release/libitron.a(compiler_builtins-70f608aea3cde50d.compiler_builtins.5a681add74c93a61-cgu.000.rcgu.o)
 .debug_ranges  0x000000000000dfd0      0x588 ./gen/../tecsrustUART/target/armv7a-none-eabi/release/libitron.a(compiler_builtins-70f608aea3cde50d.compiler_builtins.5a681add74c93a61-cgu.004.rcgu.o)
 .debug_ranges  0x000000000000e558      0x3a8 ./gen/../tecsrustUART/target/armv7a-none-eabi/release/libitron.a(compiler_builtins-70f608aea3cde50d.compiler_builtins.5a681add74c93a61-cgu.009.rcgu.o)
 .debug_ranges  0x000000000000e900      0x1e0 ./gen/../tecsrustUART/target/armv7a-none-eabi/release/libitron.a(compiler_builtins-70f608aea3cde50d.compiler_builtins.5a681add74c93a61-cgu.019.rcgu.o)
 .debug_ranges  0x000000000000eae0       0x18 ./gen/../tecsrustUART/target/armv7a-none-eabi/release/libitron.a(63f8a0b8a638da8c-aeabi_div0.o)
 .debug_ranges  0x000000000000eaf8      0x2d8 ./gen/../tecsrustUART/target/armv7a-none-eabi/release/libitron.a(compiler_builtins-70f608aea3cde50d.compiler_builtins.5a681add74c93a61-cgu.010.rcgu.o)
 .debug_ranges  0x000000000000edd0       0x30 ./libkernel.a(target_kernel_impl.o)
 .debug_ranges  0x000000000000ee00       0x48 ./libkernel.a(mpcore_kernel_impl.o)
 .debug_ranges  0x000000000000ee48      0x338 ./libkernel.a(gic_kernel_impl.o)
 .debug_ranges  0x000000000000f180      0x2f0 ./libkernel.a(pl310.o)
 .debug_ranges  0x000000000000f470       0xa0 ./libkernel.a(mpcore_timer.o)
 .debug_ranges  0x000000000000f510      0x128 ./libkernel.a(core_kernel_impl.o)
 .debug_ranges  0x000000000000f638       0x18 ./libkernel.a(arm.o)
 .debug_ranges  0x000000000000f650      0x1a0 ./libkernel.a(startup.o)
 .debug_ranges  0x000000000000f7f0      0x468 ./libkernel.a(task.o)
 .debug_ranges  0x000000000000fc58      0x1e8 ./libkernel.a(wait.o)
 .debug_ranges  0x000000000000fe40      0x6e8 ./libkernel.a(time_event.o)
 .debug_ranges  0x0000000000010528      0x568 ./libkernel.a(task_sync.o)
 .debug_ranges  0x0000000000010a90      0x408 ./libkernel.a(semaphore.o)
 .debug_ranges  0x0000000000010e98      0x8a0 ./libkernel.a(dataqueue.o)
 .debug_ranges  0x0000000000011738      0x1f0 ./libkernel.a(spin_lock.o)
 .debug_ranges  0x0000000000011928      0x7b8 ./libkernel.a(sys_manage.o)
 .debug_ranges  0x00000000000120e0      0x338 ./libkernel.a(interrupt.o)
 .debug_ranges  0x0000000000012418      0x420 ./libkernel.a(task_term.o)
