Archive member included to satisfy reference by file (symbol)

./gen/../tr_api_dispatch/target/armv7a-none-eabi/release/libitron.a(itron-6a63da1272844731.itron.fdadab565b6f4d55-cgu.0.rcgu.o)
                              objs/kernel_cfg.o (tecs_rust_start_r_processor1_symmetric_task1_1)
./gen/../tr_api_dispatch/target/armv7a-none-eabi/release/libitron.a(itron-fbcb73bf0b635dd5.itron.68e737fdf62a80e5-cgu.0.rcgu.o)
                              ./gen/../tr_api_dispatch/target/armv7a-none-eabi/release/libitron.a(itron-6a63da1272844731.itron.fdadab565b6f4d55-cgu.0.rcgu.o) (<itron::error::ErrorCode as core::fmt::Debug>::fmt)
./gen/../tr_api_dispatch/target/armv7a-none-eabi/release/libitron.a(core-d049573bc16596f9.core.5587a85061e7188a-cgu.0.rcgu.o)
                              ./gen/../tr_api_dispatch/target/armv7a-none-eabi/release/libitron.a(itron-fbcb73bf0b635dd5.itron.68e737fdf62a80e5-cgu.0.rcgu.o) (core::fmt::write)
./gen/../tr_api_dispatch/target/armv7a-none-eabi/release/libitron.a(compiler_builtins-70f608aea3cde50d.compiler_builtins.5a681add74c93a61-cgu.162.rcgu.o)
                              ./gen/../tr_api_dispatch/target/armv7a-none-eabi/release/libitron.a(core-d049573bc16596f9.core.5587a85061e7188a-cgu.0.rcgu.o) (__aeabi_memset)
./gen/../tr_api_dispatch/target/armv7a-none-eabi/release/libitron.a(compiler_builtins-70f608aea3cde50d.compiler_builtins.5a681add74c93a61-cgu.174.rcgu.o)
                              ./gen/../tr_api_dispatch/target/armv7a-none-eabi/release/libitron.a(core-d049573bc16596f9.core.5587a85061e7188a-cgu.0.rcgu.o) (__aeabi_memcpy4)
./gen/../tr_api_dispatch/target/armv7a-none-eabi/release/libitron.a(compiler_builtins-70f608aea3cde50d.compiler_builtins.5a681add74c93a61-cgu.178.rcgu.o)
                              ./gen/../tr_api_dispatch/target/armv7a-none-eabi/release/libitron.a(core-d049573bc16596f9.core.5587a85061e7188a-cgu.0.rcgu.o) (__aeabi_dmul)
./gen/../tr_api_dispatch/target/armv7a-none-eabi/release/libitron.a(compiler_builtins-70f608aea3cde50d.compiler_builtins.5a681add74c93a61-cgu.180.rcgu.o)
                              ./gen/../tr_api_dispatch/target/armv7a-none-eabi/release/libitron.a(core-d049573bc16596f9.core.5587a85061e7188a-cgu.0.rcgu.o) (__aeabi_fcmplt)
./gen/../tr_api_dispatch/target/armv7a-none-eabi/release/libitron.a(compiler_builtins-70f608aea3cde50d.compiler_builtins.5a681add74c93a61-cgu.201.rcgu.o)
                              ./gen/../tr_api_dispatch/target/armv7a-none-eabi/release/libitron.a(core-d049573bc16596f9.core.5587a85061e7188a-cgu.0.rcgu.o) (__aeabi_memclr4)
./gen/../tr_api_dispatch/target/armv7a-none-eabi/release/libitron.a(compiler_builtins-70f608aea3cde50d.compiler_builtins.5a681add74c93a61-cgu.206.rcgu.o)
                              ./gen/../tr_api_dispatch/target/armv7a-none-eabi/release/libitron.a(core-d049573bc16596f9.core.5587a85061e7188a-cgu.0.rcgu.o) (__aeabi_fcmpge)
./gen/../tr_api_dispatch/target/armv7a-none-eabi/release/libitron.a(compiler_builtins-70f608aea3cde50d.compiler_builtins.5a681add74c93a61-cgu.210.rcgu.o)
                              ./gen/../tr_api_dispatch/target/armv7a-none-eabi/release/libitron.a(core-d049573bc16596f9.core.5587a85061e7188a-cgu.0.rcgu.o) (__aeabi_f2h)
./gen/../tr_api_dispatch/target/armv7a-none-eabi/release/libitron.a(compiler_builtins-70f608aea3cde50d.compiler_builtins.5a681add74c93a61-cgu.223.rcgu.o)
                              ./gen/../tr_api_dispatch/target/armv7a-none-eabi/release/libitron.a(core-d049573bc16596f9.core.5587a85061e7188a-cgu.0.rcgu.o) (__aeabi_memcpy)
./gen/../tr_api_dispatch/target/armv7a-none-eabi/release/libitron.a(compiler_builtins-70f608aea3cde50d.compiler_builtins.5a681add74c93a61-cgu.253.rcgu.o)
                              ./gen/../tr_api_dispatch/target/armv7a-none-eabi/release/libitron.a(core-d049573bc16596f9.core.5587a85061e7188a-cgu.0.rcgu.o) (__aeabi_memcpy8)
./gen/../tr_api_dispatch/target/armv7a-none-eabi/release/libitron.a(compiler_builtins-70f608aea3cde50d.compiler_builtins.5a681add74c93a61-cgu.261.rcgu.o)
                              ./gen/../tr_api_dispatch/target/armv7a-none-eabi/release/libitron.a(core-d049573bc16596f9.core.5587a85061e7188a-cgu.0.rcgu.o) (__aeabi_dcmplt)
./gen/../tr_api_dispatch/target/armv7a-none-eabi/release/libitron.a(compiler_builtins-70f608aea3cde50d.compiler_builtins.5a681add74c93a61-cgu.263.rcgu.o)
                              ./gen/../tr_api_dispatch/target/armv7a-none-eabi/release/libitron.a(core-d049573bc16596f9.core.5587a85061e7188a-cgu.0.rcgu.o) (__aeabi_ddiv)
./gen/../tr_api_dispatch/target/armv7a-none-eabi/release/libitron.a(compiler_builtins-70f608aea3cde50d.compiler_builtins.5a681add74c93a61-cgu.270.rcgu.o)
                              ./gen/../tr_api_dispatch/target/armv7a-none-eabi/release/libitron.a(core-d049573bc16596f9.core.5587a85061e7188a-cgu.0.rcgu.o) (__aeabi_ul2d)
./gen/../tr_api_dispatch/target/armv7a-none-eabi/release/libitron.a(compiler_builtins-70f608aea3cde50d.compiler_builtins.5a681add74c93a61-cgu.283.rcgu.o)
                              ./gen/../tr_api_dispatch/target/armv7a-none-eabi/release/libitron.a(core-d049573bc16596f9.core.5587a85061e7188a-cgu.0.rcgu.o) (__aeabi_fcmpeq)
./gen/../tr_api_dispatch/target/armv7a-none-eabi/release/libitron.a(compiler_builtins-70f608aea3cde50d.compiler_builtins.5a681add74c93a61-cgu.287.rcgu.o)
                              ./gen/../tr_api_dispatch/target/armv7a-none-eabi/release/libitron.a(core-d049573bc16596f9.core.5587a85061e7188a-cgu.0.rcgu.o) (__aeabi_dcmpeq)
./gen/../tr_api_dispatch/target/armv7a-none-eabi/release/libitron.a(compiler_builtins-70f608aea3cde50d.compiler_builtins.5a681add74c93a61-cgu.300.rcgu.o)
                              ./gen/../tr_api_dispatch/target/armv7a-none-eabi/release/libitron.a(core-d049573bc16596f9.core.5587a85061e7188a-cgu.0.rcgu.o) (__aeabi_h2f)
./gen/../tr_api_dispatch/target/armv7a-none-eabi/release/libitron.a(compiler_builtins-70f608aea3cde50d.compiler_builtins.5a681add74c93a61-cgu.310.rcgu.o)
                              ./gen/../tr_api_dispatch/target/armv7a-none-eabi/release/libitron.a(core-d049573bc16596f9.core.5587a85061e7188a-cgu.0.rcgu.o) (memcmp)
./gen/../tr_api_dispatch/target/armv7a-none-eabi/release/libitron.a(compiler_builtins-70f608aea3cde50d.compiler_builtins.5a681add74c93a61-cgu.355.rcgu.o)
                              ./gen/../tr_api_dispatch/target/armv7a-none-eabi/release/libitron.a(core-d049573bc16596f9.core.5587a85061e7188a-cgu.0.rcgu.o) (__aeabi_fdiv)
./gen/../tr_api_dispatch/target/armv7a-none-eabi/release/libitron.a(compiler_builtins-70f608aea3cde50d.compiler_builtins.5a681add74c93a61-cgu.361.rcgu.o)
                              ./gen/../tr_api_dispatch/target/armv7a-none-eabi/release/libitron.a(core-d049573bc16596f9.core.5587a85061e7188a-cgu.0.rcgu.o) (__aeabi_dcmpge)
./gen/../tr_api_dispatch/target/armv7a-none-eabi/release/libitron.a(compiler_builtins-70f608aea3cde50d.compiler_builtins.5a681add74c93a61-cgu.365.rcgu.o)
                              ./gen/../tr_api_dispatch/target/armv7a-none-eabi/release/libitron.a(core-d049573bc16596f9.core.5587a85061e7188a-cgu.0.rcgu.o) (__aeabi_ul2f)
./gen/../tr_api_dispatch/target/armv7a-none-eabi/release/libitron.a(compiler_builtins-70f608aea3cde50d.compiler_builtins.5a681add74c93a61-cgu.375.rcgu.o)
                              ./gen/../tr_api_dispatch/target/armv7a-none-eabi/release/libitron.a(core-d049573bc16596f9.core.5587a85061e7188a-cgu.0.rcgu.o) (__aeabi_memclr8)
./gen/../tr_api_dispatch/target/armv7a-none-eabi/release/libitron.a(compiler_builtins-70f608aea3cde50d.compiler_builtins.5a681add74c93a61-cgu.393.rcgu.o)
                              ./gen/../tr_api_dispatch/target/armv7a-none-eabi/release/libitron.a(core-d049573bc16596f9.core.5587a85061e7188a-cgu.0.rcgu.o) (__aeabi_fmul)
./gen/../tr_api_dispatch/target/armv7a-none-eabi/release/libitron.a(compiler_builtins-70f608aea3cde50d.compiler_builtins.5a681add74c93a61-cgu.395.rcgu.o)
                              ./gen/../tr_api_dispatch/target/armv7a-none-eabi/release/libitron.a(core-d049573bc16596f9.core.5587a85061e7188a-cgu.0.rcgu.o) (__aeabi_memclr)
./gen/../tr_api_dispatch/target/armv7a-none-eabi/release/libitron.a(compiler_builtins-70f608aea3cde50d.compiler_builtins.5a681add74c93a61-cgu.410.rcgu.o)
                              objs/tSysLog.o (__aeabi_uldivmod)
./gen/../tr_api_dispatch/target/armv7a-none-eabi/release/libitron.a(compiler_builtins-70f608aea3cde50d.compiler_builtins.5a681add74c93a61-cgu.411.rcgu.o)
                              objs/log_output.o (__aeabi_uidivmod)
./gen/../tr_api_dispatch/target/armv7a-none-eabi/release/libitron.a(63f8a0b8a638da8c-udivmodsi4.o)
                              ./gen/../tr_api_dispatch/target/armv7a-none-eabi/release/libitron.a(compiler_builtins-70f608aea3cde50d.compiler_builtins.5a681add74c93a61-cgu.411.rcgu.o) (__udivmodsi4)
./gen/../tr_api_dispatch/target/armv7a-none-eabi/release/libitron.a(63f8a0b8a638da8c-udivsi3.o)
                              ./gen/../tr_api_dispatch/target/armv7a-none-eabi/release/libitron.a(core-d049573bc16596f9.core.5587a85061e7188a-cgu.0.rcgu.o) (__aeabi_uidiv)
./gen/../tr_api_dispatch/target/armv7a-none-eabi/release/libitron.a(compiler_builtins-70f608aea3cde50d.compiler_builtins.5a681add74c93a61-cgu.000.rcgu.o)
                              ./gen/../tr_api_dispatch/target/armv7a-none-eabi/release/libitron.a(compiler_builtins-70f608aea3cde50d.compiler_builtins.5a681add74c93a61-cgu.355.rcgu.o) (compiler_builtins::float::div::__divsf3)
./gen/../tr_api_dispatch/target/armv7a-none-eabi/release/libitron.a(compiler_builtins-70f608aea3cde50d.compiler_builtins.5a681add74c93a61-cgu.004.rcgu.o)
                              ./gen/../tr_api_dispatch/target/armv7a-none-eabi/release/libitron.a(compiler_builtins-70f608aea3cde50d.compiler_builtins.5a681add74c93a61-cgu.393.rcgu.o) (compiler_builtins::float::mul::__mulsf3)
./gen/../tr_api_dispatch/target/armv7a-none-eabi/release/libitron.a(compiler_builtins-70f608aea3cde50d.compiler_builtins.5a681add74c93a61-cgu.009.rcgu.o)
                              ./gen/../tr_api_dispatch/target/armv7a-none-eabi/release/libitron.a(compiler_builtins-70f608aea3cde50d.compiler_builtins.5a681add74c93a61-cgu.174.rcgu.o) (compiler_builtins::mem::memcpy)
./gen/../tr_api_dispatch/target/armv7a-none-eabi/release/libitron.a(compiler_builtins-70f608aea3cde50d.compiler_builtins.5a681add74c93a61-cgu.019.rcgu.o)
                              ./gen/../tr_api_dispatch/target/armv7a-none-eabi/release/libitron.a(compiler_builtins-70f608aea3cde50d.compiler_builtins.5a681add74c93a61-cgu.000.rcgu.o) (compiler_builtins::int::big::<impl compiler_builtins::int::traits::HInt for u128>::zero_widen_mul)
./gen/../tr_api_dispatch/target/armv7a-none-eabi/release/libitron.a(compiler_builtins-70f608aea3cde50d.compiler_builtins.5a681add74c93a61-cgu.347.rcgu.o)
                              ./gen/../tr_api_dispatch/target/armv7a-none-eabi/release/libitron.a(compiler_builtins-70f608aea3cde50d.compiler_builtins.5a681add74c93a61-cgu.410.rcgu.o) (__udivmoddi4)
./gen/../tr_api_dispatch/target/armv7a-none-eabi/release/libitron.a(63f8a0b8a638da8c-aeabi_div0.o)
                              ./gen/../tr_api_dispatch/target/armv7a-none-eabi/release/libitron.a(63f8a0b8a638da8c-udivmodsi4.o) (__aeabi_idiv0)
./gen/../tr_api_dispatch/target/armv7a-none-eabi/release/libitron.a(compiler_builtins-70f608aea3cde50d.compiler_builtins.5a681add74c93a61-cgu.010.rcgu.o)
                              ./gen/../tr_api_dispatch/target/armv7a-none-eabi/release/libitron.a(compiler_builtins-70f608aea3cde50d.compiler_builtins.5a681add74c93a61-cgu.347.rcgu.o) (compiler_builtins::int::specialized_div_rem::u64_div_rem)
./libkernel.a(target_kernel_impl.o)
                              objs/start.o (hardware_init_hook)
./libkernel.a(chip_kernel_impl.o)
                              ./libkernel.a(target_kernel_impl.o) (_kernel_chip_initialize)
./libkernel.a(mpcore_kernel_impl.o)
                              ./libkernel.a(target_kernel_impl.o) (_kernel_mpcore_mprc_initialize)
./libkernel.a(gic_kernel_impl.o)
                              ./libkernel.a(mpcore_kernel_impl.o) (_kernel_gicc_initialize)
./libkernel.a(pl310.o)        ./libkernel.a(chip_kernel_impl.o) (_kernel_pl310_initialize)
./libkernel.a(mpcore_timer.o)
                              objs/kernel_cfg.o (_kernel_target_hrt_initialize)
./libkernel.a(core_kernel_impl.o)
                              ./libkernel.a(mpcore_kernel_impl.o) (_kernel_core_initialize)
./libkernel.a(arm.o)          ./libkernel.a(mpcore_kernel_impl.o) (arm_enable_icache)
./libkernel.a(startup.o)      ./libkernel.a(chip_kernel_impl.o) (_kernel_barrier_sync)
./libkernel.a(task.o)         objs/kernel_cfg.o (_kernel_initialize_task)
./libkernel.a(taskhook.o)     ./libkernel.a(task.o) (_kernel_mtxhook_release_all)
./libkernel.a(wait.o)         ./libkernel.a(task.o) (_kernel_wait_dequeue_wobj)
./libkernel.a(time_event.o)   ./libkernel.a(startup.o) (_kernel_initialize_tmevt)
./libkernel.a(task_manage.o)  ./gen/../tr_api_dispatch/target/armv7a-none-eabi/release/libitron.a(itron-6a63da1272844731.itron.fdadab565b6f4d55-cgu.0.rcgu.o) (act_tsk)
./libkernel.a(task_refer.o)   ./gen/../tr_api_dispatch/target/armv7a-none-eabi/release/libitron.a(itron-6a63da1272844731.itron.fdadab565b6f4d55-cgu.0.rcgu.o) (ref_tsk)
./libkernel.a(task_sync.o)    objs/tLogTaskMain.o (dly_tsk)
./libkernel.a(semaphore.o)    objs/kernel_cfg.o (_kernel_initialize_semaphore)
./libkernel.a(spin_lock.o)    ./libkernel.a(startup.o) (_kernel_force_unlock_spin)
./libkernel.a(sys_manage.o)   ./gen/../tr_api_dispatch/target/armv7a-none-eabi/release/libitron.a(itron-fbcb73bf0b635dd5.itron.68e737fdf62a80e5-cgu.0.rcgu.o) (get_tid)
./libkernel.a(interrupt.o)    objs/tSerialPortMain.o (dis_int)
./libkernel.a(core_support.o)
                              ./libkernel.a(target_kernel_impl.o) (vector_table)
./libkernel.a(task_term.o)    ./libkernel.a(core_support.o) (ext_tsk)
./libkernel.a(gic_support.o)  ./libkernel.a(core_support.o) (_kernel_irc_begin_int)
/usr/lib/gcc/arm-none-eabi/10.3.1/../../../arm-none-eabi/lib/thumb/v7-a/nofp/libc.a(lib_a-memset.o)
                              ./libkernel.a(core_kernel_impl.o) (memset)

Discarded input sections

 .llvmbc        0x0000000000000000   0x146cc0 ./gen/../tr_api_dispatch/target/armv7a-none-eabi/release/libitron.a(core-d049573bc16596f9.core.5587a85061e7188a-cgu.0.rcgu.o)
 .llvmcmd       0x0000000000000000        0x0 ./gen/../tr_api_dispatch/target/armv7a-none-eabi/release/libitron.a(core-d049573bc16596f9.core.5587a85061e7188a-cgu.0.rcgu.o)
 .llvmbc        0x0000000000000000      0xb6c ./gen/../tr_api_dispatch/target/armv7a-none-eabi/release/libitron.a(compiler_builtins-70f608aea3cde50d.compiler_builtins.5a681add74c93a61-cgu.162.rcgu.o)
 .llvmcmd       0x0000000000000000        0x0 ./gen/../tr_api_dispatch/target/armv7a-none-eabi/release/libitron.a(compiler_builtins-70f608aea3cde50d.compiler_builtins.5a681add74c93a61-cgu.162.rcgu.o)
 .llvmbc        0x0000000000000000      0xb70 ./gen/../tr_api_dispatch/target/armv7a-none-eabi/release/libitron.a(compiler_builtins-70f608aea3cde50d.compiler_builtins.5a681add74c93a61-cgu.174.rcgu.o)
 .llvmcmd       0x0000000000000000        0x0 ./gen/../tr_api_dispatch/target/armv7a-none-eabi/release/libitron.a(compiler_builtins-70f608aea3cde50d.compiler_builtins.5a681add74c93a61-cgu.174.rcgu.o)
 .llvmbc        0x0000000000000000      0xb70 ./gen/../tr_api_dispatch/target/armv7a-none-eabi/release/libitron.a(compiler_builtins-70f608aea3cde50d.compiler_builtins.5a681add74c93a61-cgu.178.rcgu.o)
 .llvmcmd       0x0000000000000000        0x0 ./gen/../tr_api_dispatch/target/armv7a-none-eabi/release/libitron.a(compiler_builtins-70f608aea3cde50d.compiler_builtins.5a681add74c93a61-cgu.178.rcgu.o)
 .llvmbc        0x0000000000000000      0xb78 ./gen/../tr_api_dispatch/target/armv7a-none-eabi/release/libitron.a(compiler_builtins-70f608aea3cde50d.compiler_builtins.5a681add74c93a61-cgu.180.rcgu.o)
 .llvmcmd       0x0000000000000000        0x0 ./gen/../tr_api_dispatch/target/armv7a-none-eabi/release/libitron.a(compiler_builtins-70f608aea3cde50d.compiler_builtins.5a681add74c93a61-cgu.180.rcgu.o)
 .llvmbc        0x0000000000000000      0xb64 ./gen/../tr_api_dispatch/target/armv7a-none-eabi/release/libitron.a(compiler_builtins-70f608aea3cde50d.compiler_builtins.5a681add74c93a61-cgu.201.rcgu.o)
 .llvmcmd       0x0000000000000000        0x0 ./gen/../tr_api_dispatch/target/armv7a-none-eabi/release/libitron.a(compiler_builtins-70f608aea3cde50d.compiler_builtins.5a681add74c93a61-cgu.201.rcgu.o)
 .llvmbc        0x0000000000000000      0xb78 ./gen/../tr_api_dispatch/target/armv7a-none-eabi/release/libitron.a(compiler_builtins-70f608aea3cde50d.compiler_builtins.5a681add74c93a61-cgu.206.rcgu.o)
 .llvmcmd       0x0000000000000000        0x0 ./gen/../tr_api_dispatch/target/armv7a-none-eabi/release/libitron.a(compiler_builtins-70f608aea3cde50d.compiler_builtins.5a681add74c93a61-cgu.206.rcgu.o)
 .llvmbc        0x0000000000000000      0xc20 ./gen/../tr_api_dispatch/target/armv7a-none-eabi/release/libitron.a(compiler_builtins-70f608aea3cde50d.compiler_builtins.5a681add74c93a61-cgu.210.rcgu.o)
 .llvmcmd       0x0000000000000000        0x0 ./gen/../tr_api_dispatch/target/armv7a-none-eabi/release/libitron.a(compiler_builtins-70f608aea3cde50d.compiler_builtins.5a681add74c93a61-cgu.210.rcgu.o)
 .llvmbc        0x0000000000000000      0xb6c ./gen/../tr_api_dispatch/target/armv7a-none-eabi/release/libitron.a(compiler_builtins-70f608aea3cde50d.compiler_builtins.5a681add74c93a61-cgu.223.rcgu.o)
 .llvmcmd       0x0000000000000000        0x0 ./gen/../tr_api_dispatch/target/armv7a-none-eabi/release/libitron.a(compiler_builtins-70f608aea3cde50d.compiler_builtins.5a681add74c93a61-cgu.223.rcgu.o)
 .llvmbc        0x0000000000000000      0xb70 ./gen/../tr_api_dispatch/target/armv7a-none-eabi/release/libitron.a(compiler_builtins-70f608aea3cde50d.compiler_builtins.5a681add74c93a61-cgu.253.rcgu.o)
 .llvmcmd       0x0000000000000000        0x0 ./gen/../tr_api_dispatch/target/armv7a-none-eabi/release/libitron.a(compiler_builtins-70f608aea3cde50d.compiler_builtins.5a681add74c93a61-cgu.253.rcgu.o)
 .llvmbc        0x0000000000000000      0xb7c ./gen/../tr_api_dispatch/target/armv7a-none-eabi/release/libitron.a(compiler_builtins-70f608aea3cde50d.compiler_builtins.5a681add74c93a61-cgu.261.rcgu.o)
 .llvmcmd       0x0000000000000000        0x0 ./gen/../tr_api_dispatch/target/armv7a-none-eabi/release/libitron.a(compiler_builtins-70f608aea3cde50d.compiler_builtins.5a681add74c93a61-cgu.261.rcgu.o)
 .llvmbc        0x0000000000000000      0xb74 ./gen/../tr_api_dispatch/target/armv7a-none-eabi/release/libitron.a(compiler_builtins-70f608aea3cde50d.compiler_builtins.5a681add74c93a61-cgu.263.rcgu.o)
 .llvmcmd       0x0000000000000000        0x0 ./gen/../tr_api_dispatch/target/armv7a-none-eabi/release/libitron.a(compiler_builtins-70f608aea3cde50d.compiler_builtins.5a681add74c93a61-cgu.263.rcgu.o)
 .llvmbc        0x0000000000000000      0xb78 ./gen/../tr_api_dispatch/target/armv7a-none-eabi/release/libitron.a(compiler_builtins-70f608aea3cde50d.compiler_builtins.5a681add74c93a61-cgu.270.rcgu.o)
 .llvmcmd       0x0000000000000000        0x0 ./gen/../tr_api_dispatch/target/armv7a-none-eabi/release/libitron.a(compiler_builtins-70f608aea3cde50d.compiler_builtins.5a681add74c93a61-cgu.270.rcgu.o)
 .llvmbc        0x0000000000000000      0xb78 ./gen/../tr_api_dispatch/target/armv7a-none-eabi/release/libitron.a(compiler_builtins-70f608aea3cde50d.compiler_builtins.5a681add74c93a61-cgu.283.rcgu.o)
 .llvmcmd       0x0000000000000000        0x0 ./gen/../tr_api_dispatch/target/armv7a-none-eabi/release/libitron.a(compiler_builtins-70f608aea3cde50d.compiler_builtins.5a681add74c93a61-cgu.283.rcgu.o)
 .llvmbc        0x0000000000000000      0xb78 ./gen/../tr_api_dispatch/target/armv7a-none-eabi/release/libitron.a(compiler_builtins-70f608aea3cde50d.compiler_builtins.5a681add74c93a61-cgu.287.rcgu.o)
 .llvmcmd       0x0000000000000000        0x0 ./gen/../tr_api_dispatch/target/armv7a-none-eabi/release/libitron.a(compiler_builtins-70f608aea3cde50d.compiler_builtins.5a681add74c93a61-cgu.287.rcgu.o)
 .llvmbc        0x0000000000000000      0xc28 ./gen/../tr_api_dispatch/target/armv7a-none-eabi/release/libitron.a(compiler_builtins-70f608aea3cde50d.compiler_builtins.5a681add74c93a61-cgu.300.rcgu.o)
 .llvmcmd       0x0000000000000000        0x0 ./gen/../tr_api_dispatch/target/armv7a-none-eabi/release/libitron.a(compiler_builtins-70f608aea3cde50d.compiler_builtins.5a681add74c93a61-cgu.300.rcgu.o)
 .llvmbc        0x0000000000000000      0xb58 ./gen/../tr_api_dispatch/target/armv7a-none-eabi/release/libitron.a(compiler_builtins-70f608aea3cde50d.compiler_builtins.5a681add74c93a61-cgu.310.rcgu.o)
 .llvmcmd       0x0000000000000000        0x0 ./gen/../tr_api_dispatch/target/armv7a-none-eabi/release/libitron.a(compiler_builtins-70f608aea3cde50d.compiler_builtins.5a681add74c93a61-cgu.310.rcgu.o)
 .llvmbc        0x0000000000000000      0xb70 ./gen/../tr_api_dispatch/target/armv7a-none-eabi/release/libitron.a(compiler_builtins-70f608aea3cde50d.compiler_builtins.5a681add74c93a61-cgu.355.rcgu.o)
 .llvmcmd       0x0000000000000000        0x0 ./gen/../tr_api_dispatch/target/armv7a-none-eabi/release/libitron.a(compiler_builtins-70f608aea3cde50d.compiler_builtins.5a681add74c93a61-cgu.355.rcgu.o)
 .llvmbc        0x0000000000000000      0xb78 ./gen/../tr_api_dispatch/target/armv7a-none-eabi/release/libitron.a(compiler_builtins-70f608aea3cde50d.compiler_builtins.5a681add74c93a61-cgu.361.rcgu.o)
 .llvmcmd       0x0000000000000000        0x0 ./gen/../tr_api_dispatch/target/armv7a-none-eabi/release/libitron.a(compiler_builtins-70f608aea3cde50d.compiler_builtins.5a681add74c93a61-cgu.361.rcgu.o)
 .llvmbc        0x0000000000000000      0xb7c ./gen/../tr_api_dispatch/target/armv7a-none-eabi/release/libitron.a(compiler_builtins-70f608aea3cde50d.compiler_builtins.5a681add74c93a61-cgu.365.rcgu.o)
 .llvmcmd       0x0000000000000000        0x0 ./gen/../tr_api_dispatch/target/armv7a-none-eabi/release/libitron.a(compiler_builtins-70f608aea3cde50d.compiler_builtins.5a681add74c93a61-cgu.365.rcgu.o)
 .llvmbc        0x0000000000000000      0xb64 ./gen/../tr_api_dispatch/target/armv7a-none-eabi/release/libitron.a(compiler_builtins-70f608aea3cde50d.compiler_builtins.5a681add74c93a61-cgu.375.rcgu.o)
 .llvmcmd       0x0000000000000000        0x0 ./gen/../tr_api_dispatch/target/armv7a-none-eabi/release/libitron.a(compiler_builtins-70f608aea3cde50d.compiler_builtins.5a681add74c93a61-cgu.375.rcgu.o)
 .llvmbc        0x0000000000000000      0xb74 ./gen/../tr_api_dispatch/target/armv7a-none-eabi/release/libitron.a(compiler_builtins-70f608aea3cde50d.compiler_builtins.5a681add74c93a61-cgu.393.rcgu.o)
 .llvmcmd       0x0000000000000000        0x0 ./gen/../tr_api_dispatch/target/armv7a-none-eabi/release/libitron.a(compiler_builtins-70f608aea3cde50d.compiler_builtins.5a681add74c93a61-cgu.393.rcgu.o)
 .llvmbc        0x0000000000000000      0xb68 ./gen/../tr_api_dispatch/target/armv7a-none-eabi/release/libitron.a(compiler_builtins-70f608aea3cde50d.compiler_builtins.5a681add74c93a61-cgu.395.rcgu.o)
 .llvmcmd       0x0000000000000000        0x0 ./gen/../tr_api_dispatch/target/armv7a-none-eabi/release/libitron.a(compiler_builtins-70f608aea3cde50d.compiler_builtins.5a681add74c93a61-cgu.395.rcgu.o)
 .llvmbc        0x0000000000000000      0xce4 ./gen/../tr_api_dispatch/target/armv7a-none-eabi/release/libitron.a(compiler_builtins-70f608aea3cde50d.compiler_builtins.5a681add74c93a61-cgu.410.rcgu.o)
 .llvmcmd       0x0000000000000000        0x0 ./gen/../tr_api_dispatch/target/armv7a-none-eabi/release/libitron.a(compiler_builtins-70f608aea3cde50d.compiler_builtins.5a681add74c93a61-cgu.410.rcgu.o)
 .llvmbc        0x0000000000000000      0xca0 ./gen/../tr_api_dispatch/target/armv7a-none-eabi/release/libitron.a(compiler_builtins-70f608aea3cde50d.compiler_builtins.5a681add74c93a61-cgu.411.rcgu.o)
 .llvmcmd       0x0000000000000000        0x0 ./gen/../tr_api_dispatch/target/armv7a-none-eabi/release/libitron.a(compiler_builtins-70f608aea3cde50d.compiler_builtins.5a681add74c93a61-cgu.411.rcgu.o)
 .llvmbc        0x0000000000000000     0x8580 ./gen/../tr_api_dispatch/target/armv7a-none-eabi/release/libitron.a(compiler_builtins-70f608aea3cde50d.compiler_builtins.5a681add74c93a61-cgu.000.rcgu.o)
 .llvmcmd       0x0000000000000000        0x0 ./gen/../tr_api_dispatch/target/armv7a-none-eabi/release/libitron.a(compiler_builtins-70f608aea3cde50d.compiler_builtins.5a681add74c93a61-cgu.000.rcgu.o)
 .llvmbc        0x0000000000000000     0x5ee0 ./gen/../tr_api_dispatch/target/armv7a-none-eabi/release/libitron.a(compiler_builtins-70f608aea3cde50d.compiler_builtins.5a681add74c93a61-cgu.004.rcgu.o)
 .llvmcmd       0x0000000000000000        0x0 ./gen/../tr_api_dispatch/target/armv7a-none-eabi/release/libitron.a(compiler_builtins-70f608aea3cde50d.compiler_builtins.5a681add74c93a61-cgu.004.rcgu.o)
 .llvmbc        0x0000000000000000     0x4cc4 ./gen/../tr_api_dispatch/target/armv7a-none-eabi/release/libitron.a(compiler_builtins-70f608aea3cde50d.compiler_builtins.5a681add74c93a61-cgu.009.rcgu.o)
 .llvmcmd       0x0000000000000000        0x0 ./gen/../tr_api_dispatch/target/armv7a-none-eabi/release/libitron.a(compiler_builtins-70f608aea3cde50d.compiler_builtins.5a681add74c93a61-cgu.009.rcgu.o)
 .llvmbc        0x0000000000000000     0x3f0c ./gen/../tr_api_dispatch/target/armv7a-none-eabi/release/libitron.a(compiler_builtins-70f608aea3cde50d.compiler_builtins.5a681add74c93a61-cgu.019.rcgu.o)
 .llvmcmd       0x0000000000000000        0x0 ./gen/../tr_api_dispatch/target/armv7a-none-eabi/release/libitron.a(compiler_builtins-70f608aea3cde50d.compiler_builtins.5a681add74c93a61-cgu.019.rcgu.o)
 .llvmbc        0x0000000000000000      0xb84 ./gen/../tr_api_dispatch/target/armv7a-none-eabi/release/libitron.a(compiler_builtins-70f608aea3cde50d.compiler_builtins.5a681add74c93a61-cgu.347.rcgu.o)
 .llvmcmd       0x0000000000000000        0x0 ./gen/../tr_api_dispatch/target/armv7a-none-eabi/release/libitron.a(compiler_builtins-70f608aea3cde50d.compiler_builtins.5a681add74c93a61-cgu.347.rcgu.o)
 .llvmbc        0x0000000000000000     0x28b8 ./gen/../tr_api_dispatch/target/armv7a-none-eabi/release/libitron.a(compiler_builtins-70f608aea3cde50d.compiler_builtins.5a681add74c93a61-cgu.010.rcgu.o)
 .llvmcmd       0x0000000000000000        0x0 ./gen/../tr_api_dispatch/target/armv7a-none-eabi/release/libitron.a(compiler_builtins-70f608aea3cde50d.compiler_builtins.5a681add74c93a61-cgu.010.rcgu.o)

Memory Configuration

Name             Origin             Length             Attributes
RAM              0x0000000000100000 0x000000001ff00000 xrw
*default*        0x0000000000000000 0xffffffffffffffff

Linker script and memory map

                [!provide]                        PROVIDE (hardware_init_hook = 0x0)
                0x0000000000000000                PROVIDE (software_init_hook = 0x0)
                0x0000000000000000                PROVIDE (software_term_hook = 0x0)

.text           0x0000000000100000    0x31e7c
                0x0000000000100000                __start_text = .
 *(.vector)
 .vector        0x0000000000100000       0x3c ./libkernel.a(core_support.o)
                0x0000000000100000                vector_table
                0x0000000000100020                vector_ref_table
 *(.text)
 .text          0x000000000010003c      0x11c objs/start.o
                0x000000000010003c                start
 .text          0x0000000000100158      0x42c objs/log_output.o
                0x0000000000100260                syslog_printf
                0x00000000001004f8                syslog_print
                0x000000000010054c                syslog_lostmsg
 .text          0x0000000000100584      0x2a8 objs/vasyslog.o
                0x0000000000100584                tt_syslog
 .text          0x000000000010082c       0x50 objs/t_perror.o
                0x000000000010082c                tt_perror
 .text          0x000000000010087c       0x24 objs/strerror.o
                0x000000000010087c                itron_strerror
 .text          0x00000000001008a0        0x4 objs/tTask_rProcessor1Migratable_tecsgen.o
                0x00000000001008a0                tTask_CB_initialize
 .text          0x00000000001008a4        0x4 objs/tSemaphore_rProcessor1Migratable_tecsgen.o
                0x00000000001008a4                tSemaphore_CB_initialize
 .text          0x00000000001008a8        0x4 objs/tInterruptRequest_rProcessor1Migratable_tecsgen.o
                0x00000000001008a8                tInterruptRequest_CB_initialize
 .text          0x00000000001008ac        0x4 objs/tISR_rProcessor1Migratable_tecsgen.o
                0x00000000001008ac                tISR_CB_initialize
 .text          0x00000000001008b0        0x4 objs/tInitializeRoutine_rProcessor1Migratable_tecsgen.o
                0x00000000001008b0                tInitializeRoutine_CB_initialize
 .text          0x00000000001008b4        0x4 objs/tTerminateRoutine_rProcessor1Migratable_tecsgen.o
                0x00000000001008b4                tTerminateRoutine_CB_initialize
 .text          0x00000000001008b8       0x50 objs/tSerialPortMain_rProcessor1Migratable_tecsgen.o
                0x00000000001008b8                tSerialPortMain_eSerialPort_open_skel
                0x00000000001008c0                tSerialPortMain_eSerialPort_close_skel
                0x00000000001008c8                tSerialPortMain_eSerialPort_read_skel
                0x00000000001008d0                tSerialPortMain_eSerialPort_write_skel
                0x00000000001008d8                tSerialPortMain_eSerialPort_control_skel
                0x00000000001008e0                tSerialPortMain_eSerialPort_refer_skel
                0x00000000001008e8                tSerialPortMain_CB_initialize
 .text          0x0000000000100908        0x4 objs/tSerialAdapter_rProcessor1Migratable_tecsgen.o
                0x0000000000100908                tSerialAdapter_CB_initialize
 .text          0x000000000010090c       0x38 objs/tSysLog_rProcessor1Migratable_tecsgen.o
                0x000000000010090c                tSysLog_CB_initialize
 .text          0x0000000000100944        0x4 objs/tSysLogAdapter_rProcessor1Migratable_tecsgen.o
                0x0000000000100944                tSysLogAdapter_CB_initialize
 .text          0x0000000000100948        0x8 objs/tLogTaskMain_rProcessor1Migratable_tecsgen.o
                0x0000000000100948                tLogTaskMain_eLogTaskTerminate_main_skel
                0x000000000010094c                tLogTaskMain_CB_initialize
 .text          0x0000000000100950        0x4 objs/tBannerMain_rProcessor1Migratable_tecsgen.o
                0x0000000000100950                tBannerMain_CB_initialize
 .text          0x0000000000100954        0x4 objs/tPutLogZyboZ7_rProcessor1Migratable_tecsgen.o
                0x0000000000100954                tPutLogZyboZ7_CB_initialize
 .text          0x0000000000100958       0x20 objs/tXUartPs_rProcessor1Migratable_tecsgen.o
                0x0000000000100958                tXUartPs_eTerminate_main_skel
                0x0000000000100960                tXUartPs_CB_initialize
 .text          0x0000000000100978        0x4 objs/tSIOPortZyboZ7Main_rProcessor1Migratable_tecsgen.o
                0x0000000000100978                tSIOPortZyboZ7Main_CB_initialize
 .text          0x000000000010097c        0x4 objs/tTask.o
                0x000000000010097c                tTask_start
 .text          0x0000000000100980        0x0 objs/tInterruptRequest.o
 .text          0x0000000000100980        0xc objs/tISR.o
                0x0000000000100980                tISR_start
 .text          0x000000000010098c        0x4 objs/tInitializeRoutine.o
                0x000000000010098c                tInitializeRoutine_start
 .text          0x0000000000100990       0x10 objs/tTerminateRoutine.o
                0x0000000000100990                tTerminateRoutine_start
 .text          0x00000000001009a0      0x9e8 objs/tSerialPortMain.o
                0x0000000000100ac8                tSerialPortMain_eSerialPort_open
                0x0000000000100bac                tSerialPortMain_eSerialPort_close
                0x0000000000100c84                tSerialPortMain_eSerialPort_write
                0x0000000000100d90                tSerialPortMain_eSerialPort_read
                0x0000000000100fc4                tSerialPortMain_eSerialPort_control
                0x0000000000101014                tSerialPortMain_eSerialPort_refer
                0x000000000010106c                tSerialPortMain_eiSIOCBR_readySend
                0x0000000000101138                tSerialPortMain_eiSIOCBR_readyReceive
                0x0000000000101324                tSerialPortMain_enSerialPortManage_getChar
 .text          0x0000000000101388      0x258 objs/tSerialAdapter.o
                0x0000000000101388                serial_opn_por
                0x00000000001013e4                serial_cls_por
                0x0000000000101440                serial_rea_dat
                0x00000000001014ac                serial_wri_dat
                0x0000000000101518                serial_ctl_por
                0x000000000010157c                serial_ref_por
 .text          0x00000000001015e0      0x2cc objs/tSysLog.o
                0x00000000001015e4                tSysLog_eSysLog_write
                0x00000000001016fc                tSysLog_eSysLog_read
                0x000000000010179c                tSysLog_eSysLog_mask
                0x00000000001017cc                tSysLog_eSysLog_refer
                0x0000000000101818                tSysLog_eSysLog_flush
 .text          0x00000000001018ac       0x14 objs/tSysLogAdapter.o
                0x00000000001018ac                syslog_wri_log
                0x00000000001018b0                syslog_rea_log
                0x00000000001018b4                syslog_msk_log
                0x00000000001018b8                syslog_ref_log
                0x00000000001018bc                syslog_fls_log
 .text          0x00000000001018c0      0x21c objs/tLogTaskMain.o
                0x00000000001018c0                target_fput_log
                0x00000000001018f0                tLogTaskMain_eLogTask_flush
                0x000000000010199c                tLogTaskMain_eLogTaskBody_main
                0x0000000000101a1c                tLogTaskMain_eLogTaskTerminate_main
 .text          0x0000000000101adc       0x60 objs/tBannerMain.o
                0x0000000000101adc                tBannerMain_eBannerInitialize_main
 .text          0x0000000000101b3c       0x74 objs/tPutLogZyboZ7.o
                0x0000000000101b3c                tPutLogZyboZ7_initialize
                0x0000000000101b60                tPutLogZyboZ7_ePutLog_putChar
 .text          0x0000000000101bb0      0x1f4 objs/tXUartPs.o
                0x0000000000101bb0                tXUartPs_eTerminate_main
                0x0000000000101bf0                tXUartPs_eSIOPort_open
                0x0000000000101c58                tXUartPs_eSIOPort_close
                0x0000000000101c88                tXUartPs_eSIOPort_putChar
                0x0000000000101ca8                tXUartPs_eSIOPort_getChar
                0x0000000000101cc8                tXUartPs_eSIOPort_enableCBR
                0x0000000000101cfc                tXUartPs_eSIOPort_disableCBR
                0x0000000000101d30                tXUartPs_eiISR_main
 .text          0x0000000000101da4       0x44 objs/init_tecs.o
                0x0000000000101da4                initialize_tecs
 .text          0x0000000000101de8       0x2c objs/kernel_cfg.o
                0x0000000000101de8                _kernel_inthdr_82
                0x0000000000101df4                _kernel_initialize_object
 .text          0x0000000000101e14        0x0 ./gen/../tr_api_dispatch/target/armv7a-none-eabi/release/libitron.a(itron-6a63da1272844731.itron.fdadab565b6f4d55-cgu.0.rcgu.o)
 .text          0x0000000000101e14        0x0 ./gen/../tr_api_dispatch/target/armv7a-none-eabi/release/libitron.a(itron-fbcb73bf0b635dd5.itron.68e737fdf62a80e5-cgu.0.rcgu.o)
 .text          0x0000000000101e14        0x0 ./gen/../tr_api_dispatch/target/armv7a-none-eabi/release/libitron.a(core-d049573bc16596f9.core.5587a85061e7188a-cgu.0.rcgu.o)
 .text          0x0000000000101e14        0x0 ./gen/../tr_api_dispatch/target/armv7a-none-eabi/release/libitron.a(compiler_builtins-70f608aea3cde50d.compiler_builtins.5a681add74c93a61-cgu.162.rcgu.o)
 .text          0x0000000000101e14        0x0 ./gen/../tr_api_dispatch/target/armv7a-none-eabi/release/libitron.a(compiler_builtins-70f608aea3cde50d.compiler_builtins.5a681add74c93a61-cgu.174.rcgu.o)
 .text          0x0000000000101e14        0x0 ./gen/../tr_api_dispatch/target/armv7a-none-eabi/release/libitron.a(compiler_builtins-70f608aea3cde50d.compiler_builtins.5a681add74c93a61-cgu.178.rcgu.o)
 .text          0x0000000000101e14        0x0 ./gen/../tr_api_dispatch/target/armv7a-none-eabi/release/libitron.a(compiler_builtins-70f608aea3cde50d.compiler_builtins.5a681add74c93a61-cgu.180.rcgu.o)
 .text          0x0000000000101e14        0x0 ./gen/../tr_api_dispatch/target/armv7a-none-eabi/release/libitron.a(compiler_builtins-70f608aea3cde50d.compiler_builtins.5a681add74c93a61-cgu.201.rcgu.o)
 .text          0x0000000000101e14        0x0 ./gen/../tr_api_dispatch/target/armv7a-none-eabi/release/libitron.a(compiler_builtins-70f608aea3cde50d.compiler_builtins.5a681add74c93a61-cgu.206.rcgu.o)
 .text          0x0000000000101e14        0x0 ./gen/../tr_api_dispatch/target/armv7a-none-eabi/release/libitron.a(compiler_builtins-70f608aea3cde50d.compiler_builtins.5a681add74c93a61-cgu.210.rcgu.o)
 .text          0x0000000000101e14        0x0 ./gen/../tr_api_dispatch/target/armv7a-none-eabi/release/libitron.a(compiler_builtins-70f608aea3cde50d.compiler_builtins.5a681add74c93a61-cgu.223.rcgu.o)
 .text          0x0000000000101e14        0x0 ./gen/../tr_api_dispatch/target/armv7a-none-eabi/release/libitron.a(compiler_builtins-70f608aea3cde50d.compiler_builtins.5a681add74c93a61-cgu.253.rcgu.o)
 .text          0x0000000000101e14        0x0 ./gen/../tr_api_dispatch/target/armv7a-none-eabi/release/libitron.a(compiler_builtins-70f608aea3cde50d.compiler_builtins.5a681add74c93a61-cgu.261.rcgu.o)
 .text          0x0000000000101e14        0x0 ./gen/../tr_api_dispatch/target/armv7a-none-eabi/release/libitron.a(compiler_builtins-70f608aea3cde50d.compiler_builtins.5a681add74c93a61-cgu.263.rcgu.o)
 .text          0x0000000000101e14        0x0 ./gen/../tr_api_dispatch/target/armv7a-none-eabi/release/libitron.a(compiler_builtins-70f608aea3cde50d.compiler_builtins.5a681add74c93a61-cgu.270.rcgu.o)
 .text          0x0000000000101e14        0x0 ./gen/../tr_api_dispatch/target/armv7a-none-eabi/release/libitron.a(compiler_builtins-70f608aea3cde50d.compiler_builtins.5a681add74c93a61-cgu.283.rcgu.o)
 .text          0x0000000000101e14        0x0 ./gen/../tr_api_dispatch/target/armv7a-none-eabi/release/libitron.a(compiler_builtins-70f608aea3cde50d.compiler_builtins.5a681add74c93a61-cgu.287.rcgu.o)
 .text          0x0000000000101e14        0x0 ./gen/../tr_api_dispatch/target/armv7a-none-eabi/release/libitron.a(compiler_builtins-70f608aea3cde50d.compiler_builtins.5a681add74c93a61-cgu.300.rcgu.o)
 .text          0x0000000000101e14        0x0 ./gen/../tr_api_dispatch/target/armv7a-none-eabi/release/libitron.a(compiler_builtins-70f608aea3cde50d.compiler_builtins.5a681add74c93a61-cgu.310.rcgu.o)
 .text          0x0000000000101e14        0x0 ./gen/../tr_api_dispatch/target/armv7a-none-eabi/release/libitron.a(compiler_builtins-70f608aea3cde50d.compiler_builtins.5a681add74c93a61-cgu.355.rcgu.o)
 .text          0x0000000000101e14        0x0 ./gen/../tr_api_dispatch/target/armv7a-none-eabi/release/libitron.a(compiler_builtins-70f608aea3cde50d.compiler_builtins.5a681add74c93a61-cgu.361.rcgu.o)
 .text          0x0000000000101e14        0x0 ./gen/../tr_api_dispatch/target/armv7a-none-eabi/release/libitron.a(compiler_builtins-70f608aea3cde50d.compiler_builtins.5a681add74c93a61-cgu.365.rcgu.o)
 .text          0x0000000000101e14        0x0 ./gen/../tr_api_dispatch/target/armv7a-none-eabi/release/libitron.a(compiler_builtins-70f608aea3cde50d.compiler_builtins.5a681add74c93a61-cgu.375.rcgu.o)
 .text          0x0000000000101e14        0x0 ./gen/../tr_api_dispatch/target/armv7a-none-eabi/release/libitron.a(compiler_builtins-70f608aea3cde50d.compiler_builtins.5a681add74c93a61-cgu.393.rcgu.o)
 .text          0x0000000000101e14        0x0 ./gen/../tr_api_dispatch/target/armv7a-none-eabi/release/libitron.a(compiler_builtins-70f608aea3cde50d.compiler_builtins.5a681add74c93a61-cgu.395.rcgu.o)
 .text          0x0000000000101e14        0x0 ./gen/../tr_api_dispatch/target/armv7a-none-eabi/release/libitron.a(compiler_builtins-70f608aea3cde50d.compiler_builtins.5a681add74c93a61-cgu.410.rcgu.o)
 .text          0x0000000000101e14        0x0 ./gen/../tr_api_dispatch/target/armv7a-none-eabi/release/libitron.a(compiler_builtins-70f608aea3cde50d.compiler_builtins.5a681add74c93a61-cgu.411.rcgu.o)
 .text          0x0000000000101e14      0x1e0 ./gen/../tr_api_dispatch/target/armv7a-none-eabi/release/libitron.a(63f8a0b8a638da8c-udivmodsi4.o)
                0x0000000000101e14                __udivmodsi4
 .text          0x0000000000101ff4      0x1d0 ./gen/../tr_api_dispatch/target/armv7a-none-eabi/release/libitron.a(63f8a0b8a638da8c-udivsi3.o)
                0x0000000000101ff4                __udivsi3
                0x0000000000101ff4                __aeabi_uidiv
 .text          0x00000000001021c4        0x0 ./gen/../tr_api_dispatch/target/armv7a-none-eabi/release/libitron.a(compiler_builtins-70f608aea3cde50d.compiler_builtins.5a681add74c93a61-cgu.000.rcgu.o)
 .text          0x00000000001021c4        0x0 ./gen/../tr_api_dispatch/target/armv7a-none-eabi/release/libitron.a(compiler_builtins-70f608aea3cde50d.compiler_builtins.5a681add74c93a61-cgu.004.rcgu.o)
 .text          0x00000000001021c4        0x0 ./gen/../tr_api_dispatch/target/armv7a-none-eabi/release/libitron.a(compiler_builtins-70f608aea3cde50d.compiler_builtins.5a681add74c93a61-cgu.009.rcgu.o)
 .text          0x00000000001021c4        0x0 ./gen/../tr_api_dispatch/target/armv7a-none-eabi/release/libitron.a(compiler_builtins-70f608aea3cde50d.compiler_builtins.5a681add74c93a61-cgu.019.rcgu.o)
 .text          0x00000000001021c4        0x0 ./gen/../tr_api_dispatch/target/armv7a-none-eabi/release/libitron.a(compiler_builtins-70f608aea3cde50d.compiler_builtins.5a681add74c93a61-cgu.347.rcgu.o)
 .text          0x00000000001021c4        0x0 ./gen/../tr_api_dispatch/target/armv7a-none-eabi/release/libitron.a(63f8a0b8a638da8c-aeabi_div0.o)
 .text          0x00000000001021c4        0x0 ./gen/../tr_api_dispatch/target/armv7a-none-eabi/release/libitron.a(compiler_builtins-70f608aea3cde50d.compiler_builtins.5a681add74c93a61-cgu.010.rcgu.o)
 .text          0x00000000001021c4       0x80 ./libkernel.a(target_kernel_impl.o)
                0x00000000001021c4                hardware_init_hook
                0x00000000001021d4                _kernel_target_mprc_initialize
                0x00000000001021f8                _kernel_target_initialize
                0x0000000000102214                _kernel_target_exit
 .text          0x0000000000102244       0x34 ./libkernel.a(chip_kernel_impl.o)
                0x0000000000102244                _kernel_chip_initialize
                0x0000000000102274                _kernel_chip_terminate
 .text          0x0000000000102278       0x9c ./libkernel.a(mpcore_kernel_impl.o)
                0x0000000000102278                _kernel_mpcore_mprc_initialize
                0x00000000001022ac                _kernel_mpcore_initialize
                0x0000000000102300                _kernel_mpcore_terminate
 .text          0x0000000000102314      0x340 ./libkernel.a(gic_kernel_impl.o)
                0x0000000000102314                _kernel_gicc_initialize
                0x0000000000102348                _kernel_gicc_terminate
                0x000000000010235c                _kernel_gicd_initialize
                0x00000000001023f4                _kernel_gicd_terminate
                0x0000000000102408                _kernel_initialize_interrupt
 .text          0x0000000000102654      0x12c ./libkernel.a(pl310.o)
                0x0000000000102654                _kernel_pl310_initialize
                0x00000000001026c8                _kernel_pl310_disable
                0x0000000000102708                _kernel_pl310_invalidate_all
                0x0000000000102744                _kernel_pl310_clean_and_invalidate_all
 .text          0x0000000000102780       0x90 ./libkernel.a(mpcore_timer.o)
                0x0000000000102780                _kernel_target_hrt_initialize
                0x00000000001027c8                _kernel_target_hrt_terminate
                0x00000000001027fc                _kernel_target_hrt_handler
 .text          0x0000000000102810      0x4f4 ./libkernel.a(core_kernel_impl.o)
                0x0000000000102810                _kernel_arm_mmu_initialize
                0x00000000001029f8                _kernel_core_initialize
                0x0000000000102a58                _kernel_core_terminate
                0x0000000000102a5c                _kernel_xlog_sys
                0x0000000000102b18                _kernel_xlog_fsr
                0x0000000000102b98                _kernel_default_int_handler
                0x0000000000102bcc                _kernel_default_exc_handler
 .text          0x0000000000102d04      0x1b8 ./libkernel.a(arm.o)
                0x0000000000102d04                arm_enable_icache
                0x0000000000102d20                arm_disable_icache
                0x0000000000102d38                armv7_invalidate_dcache
                0x0000000000102ddc                arm_enable_dcache
                0x0000000000102dfc                armv7_clean_and_invalidate_dcache
                0x0000000000102ea0                arm_disable_dcache
 .text          0x0000000000102ebc      0x3a8 ./libkernel.a(startup.o)
                0x0000000000102f34                _kernel_barrier_sync
                0x0000000000102fa8                sta_ker
                0x00000000001030c0                ext_ker
                0x0000000000103128                _kernel_exit_kernel
                0x00000000001031a8                _kernel_ext_ker_handler
 .text          0x0000000000103264      0x9c8 ./libkernel.a(task.o)
                0x0000000000103264                _kernel_search_schedtsk
                0x0000000000103278                _kernel_make_runnable
                0x00000000001033b0                _kernel_initialize_task
                0x00000000001034c4                _kernel_make_non_runnable
                0x00000000001035e8                _kernel_make_dormant
                0x0000000000103614                _kernel_make_active
                0x0000000000103640                _kernel_change_priority
                0x00000000001038dc                _kernel_change_subprio
                0x00000000001039cc                _kernel_rotate_ready_queue
                0x0000000000103ab0                _kernel_task_terminate
                0x0000000000103bdc                _kernel_migrate_self
                0x0000000000103c04                _kernel_migrate_activate_self
 .text          0x0000000000103c2c        0x0 ./libkernel.a(taskhook.o)
 .text          0x0000000000103c2c      0x650 ./libkernel.a(wait.o)
                0x0000000000103c2c                _kernel_wait_tmout
                0x0000000000103d7c                _kernel_make_wait_tmout
                0x0000000000103e38                _kernel_wait_dequeue_wobj
                0x0000000000103e54                _kernel_wait_complete
                0x0000000000103ef8                _kernel_wait_tmout_ok
                0x0000000000104034                _kernel_wobj_make_wait
                0x00000000001040dc                _kernel_wobj_make_wait_tmout
                0x0000000000104168                _kernel_init_wait_queue
 .text          0x000000000010427c      0xaf8 ./libkernel.a(time_event.o)
                0x000000000010427c                _kernel_initialize_tmevt
                0x0000000000104328                _kernel_tmevt_up
                0x0000000000104388                _kernel_tmevt_down
                0x000000000010442c                _kernel_update_current_evttim
                0x00000000001044b4                _kernel_set_hrt_event
                0x0000000000104684                _kernel_set_hrt_event_handler
                0x0000000000104788                _kernel_tmevtb_register
                0x0000000000104820                _kernel_tmevtb_enqueue
                0x00000000001048d4                _kernel_tmevtb_enqueue_reltim
                0x00000000001049a8                _kernel_tmevtb_dequeue
                0x0000000000104ab0                _kernel_check_adjtim
                0x0000000000104b40                _kernel_tmevt_lefttim
                0x0000000000104b78                _kernel_signal_time
 .text          0x0000000000104d74      0xbf8 ./libkernel.a(task_manage.o)
                0x0000000000104d74                act_tsk
                0x0000000000104ee0                mact_tsk
                0x00000000001050a8                can_act
                0x00000000001051a4                mig_tsk
                0x00000000001053b8                get_tst
                0x00000000001054f8                chg_pri
                0x00000000001056e0                get_pri
                0x00000000001057e4                chg_spr
                0x0000000000105914                get_inf
 .text          0x000000000010596c      0x410 ./libkernel.a(task_refer.o)
                0x000000000010596c                ref_tsk
 .text          0x0000000000105d7c      0xb30 ./libkernel.a(task_sync.o)
                0x0000000000105d7c                slp_tsk
                0x0000000000105ec8                tslp_tsk
                0x0000000000106028                wup_tsk
                0x0000000000106194                can_wup
                0x0000000000106298                rel_wai
                0x0000000000106460                sus_tsk
                0x00000000001065ec                rsm_tsk
                0x0000000000106738                dly_tsk
 .text          0x00000000001068ac      0x87c ./libkernel.a(semaphore.o)
                0x00000000001068ac                _kernel_initialize_semaphore
                0x0000000000106908                sig_sem
                0x0000000000106ab0                wai_sem
                0x0000000000106c10                pol_sem
                0x0000000000106d04                twai_sem
                0x0000000000106ea0                ini_sem
                0x0000000000106fc8                ref_sem
 .text          0x0000000000107128      0x318 ./libkernel.a(spin_lock.o)
                0x0000000000107128                _kernel_initialize_spin_lock
                0x0000000000107170                _kernel_force_unlock_spin
                0x000000000010719c                loc_spn
                0x000000000010725c                try_spn
                0x0000000000107300                unl_spn
                0x00000000001073b0                ref_spn
 .text          0x0000000000107440      0xb50 ./libkernel.a(sys_manage.o)
                0x0000000000107440                rot_rdq
                0x0000000000107574                mrot_rdq
                0x00000000001076c4                get_tid
                0x000000000010772c                get_pid
                0x0000000000107754                get_lod
                0x0000000000107860                mget_lod
                0x0000000000107984                get_nth
                0x0000000000107abc                mget_nth
                0x0000000000107c0c                loc_cpu
                0x0000000000107c24                unl_cpu
                0x0000000000107c54                dis_dsp
                0x0000000000107d24                ena_dsp
                0x0000000000107e88                sns_ctx
                0x0000000000107eb8                sns_loc
                0x0000000000107ec4                sns_dsp
                0x0000000000107ef4                sns_dpn
                0x0000000000107f50                sns_ker
 .text          0x0000000000107f90      0x668 ./libkernel.a(interrupt.o)
                0x0000000000107f90                dis_int
                0x0000000000108064                ena_int
                0x0000000000108138                clr_int
                0x000000000010820c                ras_int
                0x0000000000108330                prb_int
                0x00000000001083e8                chg_ipm
                0x0000000000108590                get_ipm
 .text          0x00000000001085f8      0x3dc ./libkernel.a(core_support.o)
                0x00000000001085f8                _kernel_dispatch
                0x0000000000108624                _kernel_start_dispatch
                0x000000000010863c                _kernel_exit_and_dispatch
                0x000000000010866c                _kernel_call_exit_kernel
                0x000000000010867c                _kernel_dispatch_and_migrate
                0x0000000000108698                _kernel_exit_and_migrate
                0x00000000001086a0                _kernel_start_r
                0x00000000001086b8                _kernel_irq_handler
                0x00000000001087a4                _kernel_undef_handler
                0x00000000001087b8                _kernel_svc_handler
                0x00000000001087c8                _kernel_pabort_handler
                0x00000000001087dc                _kernel_dabort_handler
                0x000000000010883c                _kernel_fiq_handler
                0x00000000001089a8                sil_dly_nse
 .text          0x00000000001089d4      0x644 ./libkernel.a(task_term.o)
                0x00000000001089d4                ext_tsk
                0x0000000000108af8                ras_ter
                0x0000000000108cc0                dis_ter
                0x0000000000108d78                ena_ter
                0x0000000000108e90                sns_ter
                0x0000000000108ecc                ter_tsk
 .text          0x0000000000109018       0x8c ./libkernel.a(gic_support.o)
                0x0000000000109018                _kernel_irc_begin_int
                0x0000000000109050                _kernel_irc_end_int
                0x0000000000109060                _kernel_irc_get_intpri
                0x0000000000109074                _kernel_irc_begin_exc
                0x0000000000109084                _kernel_irc_end_exc
 .text          0x00000000001090a4       0xa4 /usr/lib/gcc/arm-none-eabi/10.3.1/../../../arm-none-eabi/lib/thumb/v7-a/nofp/libc.a(lib_a-memset.o)
                0x00000000001090a4                memset
 *(.text.*)
 .text._ZN68_$LT$itron..error..Error$LT$Kind$GT$$u20$as$u20$core..fmt..Debug$GT$3fmt17h7a6abd72f02fffd2E
                0x0000000000109148        0x4 ./gen/../tr_api_dispatch/target/armv7a-none-eabi/release/libitron.a(itron-6a63da1272844731.itron.fdadab565b6f4d55-cgu.0.rcgu.o)
 .text._RNvCsgYTF1aGAkck_7___rustc17rust_begin_unwind
                0x000000000010914c        0x4 ./gen/../tr_api_dispatch/target/armv7a-none-eabi/release/libitron.a(itron-6a63da1272844731.itron.fdadab565b6f4d55-cgu.0.rcgu.o)
                0x000000000010914c                __rustc::rust_begin_unwind
 .text.tecs_rust_start_r_processor1_symmetric_task1_1
                0x0000000000109150      0x1dc ./gen/../tr_api_dispatch/target/armv7a-none-eabi/release/libitron.a(itron-6a63da1272844731.itron.fdadab565b6f4d55-cgu.0.rcgu.o)
                0x0000000000109150                tecs_rust_start_r_processor1_symmetric_task1_1
 .text.tecs_rust_start_r_processor_all_mig_taskmig
                0x000000000010932c       0x80 ./gen/../tr_api_dispatch/target/armv7a-none-eabi/release/libitron.a(itron-6a63da1272844731.itron.fdadab565b6f4d55-cgu.0.rcgu.o)
                0x000000000010932c                tecs_rust_start_r_processor_all_mig_taskmig
 .text.tecs_rust_start_r_processor2_symmetric_task2_1
                0x00000000001093ac        0x4 ./gen/../tr_api_dispatch/target/armv7a-none-eabi/release/libitron.a(itron-6a63da1272844731.itron.fdadab565b6f4d55-cgu.0.rcgu.o)
                0x00000000001093ac                tecs_rust_start_r_processor2_symmetric_task2_1
 .text.tecs_rust_start_r_processor2_symmetric_task2_2
                0x00000000001093b0       0x80 ./gen/../tr_api_dispatch/target/armv7a-none-eabi/release/libitron.a(itron-6a63da1272844731.itron.fdadab565b6f4d55-cgu.0.rcgu.o)
                0x00000000001093b0                tecs_rust_start_r_processor2_symmetric_task2_2
 .text._ZN4core3fmt3num50_$LT$impl$u20$core..fmt..Debug$u20$for$u20$i32$GT$3fmt17h7a0e08473eadbc5bE
                0x0000000000109430       0x20 ./gen/../tr_api_dispatch/target/armv7a-none-eabi/release/libitron.a(itron-fbcb73bf0b635dd5.itron.68e737fdf62a80e5-cgu.0.rcgu.o)
 .text._ZN75_$LT$core..num..nonzero..NonZero$LT$T$GT$$u20$as$u20$core..fmt..Display$GT$3fmt17h850f84802fa3eaddE
                0x0000000000109450       0x20 ./gen/../tr_api_dispatch/target/armv7a-none-eabi/release/libitron.a(itron-fbcb73bf0b635dd5.itron.68e737fdf62a80e5-cgu.0.rcgu.o)
 .text._ZN60_$LT$itron..error..ErrorCode$u20$as$u20$core..fmt..Debug$GT$3fmt17hf3b2cd5bb64ff3e9E
                0x0000000000109470      0x2c4 ./gen/../tr_api_dispatch/target/armv7a-none-eabi/release/libitron.a(itron-fbcb73bf0b635dd5.itron.68e737fdf62a80e5-cgu.0.rcgu.o)
                0x0000000000109470                <itron::error::ErrorCode as core::fmt::Debug>::fmt
 .text._ZN67_$LT$itron..dataqueue..DataqueueRef$u20$as$u20$core..fmt..Debug$GT$3fmt17h5b31219d7835aa6dE
                0x0000000000109734       0x58 ./gen/../tr_api_dispatch/target/armv7a-none-eabi/release/libitron.a(itron-fbcb73bf0b635dd5.itron.68e737fdf62a80e5-cgu.0.rcgu.o)
                0x0000000000109734                <itron::dataqueue::DataqueueRef as core::fmt::Debug>::fmt
 .text._ZN69_$LT$itron..memorypool..MemoryPoolRef$u20$as$u20$core..fmt..Debug$GT$3fmt17h802347f6fdaf37b2E
                0x000000000010978c       0x58 ./gen/../tr_api_dispatch/target/armv7a-none-eabi/release/libitron.a(itron-fbcb73bf0b635dd5.itron.68e737fdf62a80e5-cgu.0.rcgu.o)
                0x000000000010978c                <itron::memorypool::MemoryPoolRef as core::fmt::Debug>::fmt
 .text._ZN59_$LT$itron..mutex..MutexRef$u20$as$u20$core..fmt..Debug$GT$3fmt17h6a8d309fd5365a8bE
                0x00000000001097e4       0x58 ./gen/../tr_api_dispatch/target/armv7a-none-eabi/release/libitron.a(itron-fbcb73bf0b635dd5.itron.68e737fdf62a80e5-cgu.0.rcgu.o)
                0x00000000001097e4                <itron::mutex::MutexRef as core::fmt::Debug>::fmt
 .text._ZN64_$LT$itron..processor..Processor$u20$as$u20$core..fmt..Debug$GT$3fmt17hc75d9d03a1c196fbE
                0x000000000010983c       0x64 ./gen/../tr_api_dispatch/target/armv7a-none-eabi/release/libitron.a(itron-fbcb73bf0b635dd5.itron.68e737fdf62a80e5-cgu.0.rcgu.o)
                0x000000000010983c                <itron::processor::Processor as core::fmt::Debug>::fmt
 .text._ZN67_$LT$itron..semaphore..SemaphoreRef$u20$as$u20$core..fmt..Debug$GT$3fmt17haf2e3079afc34cfaE
                0x00000000001098a0       0x58 ./gen/../tr_api_dispatch/target/armv7a-none-eabi/release/libitron.a(itron-fbcb73bf0b635dd5.itron.68e737fdf62a80e5-cgu.0.rcgu.o)
                0x00000000001098a0                <itron::semaphore::SemaphoreRef as core::fmt::Debug>::fmt
 .text._ZN57_$LT$itron..task..TaskRef$u20$as$u20$core..fmt..Debug$GT$3fmt17h29082a565a1f7a0fE
                0x00000000001098f8       0x58 ./gen/../tr_api_dispatch/target/armv7a-none-eabi/release/libitron.a(itron-fbcb73bf0b635dd5.itron.68e737fdf62a80e5-cgu.0.rcgu.o)
                0x00000000001098f8                <itron::task::TaskRef as core::fmt::Debug>::fmt
 .text._ZN5itron4task7current17he5bb96fe6f36c460E
                0x0000000000109950       0x4c ./gen/../tr_api_dispatch/target/armv7a-none-eabi/release/libitron.a(itron-fbcb73bf0b635dd5.itron.68e737fdf62a80e5-cgu.0.rcgu.o)
                0x0000000000109950                itron::task::current
 .text._ZN4core3num7dec2flt11decimal_seq10DecimalSeq4trim17h5efee5ea5ccf409eE
                0x000000000010999c       0x58 ./gen/../tr_api_dispatch/target/armv7a-none-eabi/release/libitron.a(core-d049573bc16596f9.core.5587a85061e7188a-cgu.0.rcgu.o)
                0x000000000010999c                core::num::dec2flt::decimal_seq::DecimalSeq::trim
 .text._ZN4core3num7dec2flt11decimal_seq10DecimalSeq5round17h25fcaa510171f10cE
                0x00000000001099f4       0xf0 ./gen/../tr_api_dispatch/target/armv7a-none-eabi/release/libitron.a(core-d049573bc16596f9.core.5587a85061e7188a-cgu.0.rcgu.o)
                0x00000000001099f4                core::num::dec2flt::decimal_seq::DecimalSeq::round
 .text._ZN4core3num7dec2flt11decimal_seq10DecimalSeq10left_shift17hc6cf7434fa18fb28E
                0x0000000000109ae4      0x310 ./gen/../tr_api_dispatch/target/armv7a-none-eabi/release/libitron.a(core-d049573bc16596f9.core.5587a85061e7188a-cgu.0.rcgu.o)
                0x0000000000109ae4                core::num::dec2flt::decimal_seq::DecimalSeq::left_shift
 .text._ZN4core3num7dec2flt11decimal_seq10DecimalSeq11right_shift17hb4403252d794ad85E
                0x0000000000109df4      0x2c8 ./gen/../tr_api_dispatch/target/armv7a-none-eabi/release/libitron.a(core-d049573bc16596f9.core.5587a85061e7188a-cgu.0.rcgu.o)
                0x0000000000109df4                core::num::dec2flt::decimal_seq::DecimalSeq::right_shift
 .text._ZN4core3num7dec2flt11decimal_seq17parse_decimal_seq17h720ae35c33f1ca0cE
                0x000000000010a0bc      0x4a0 ./gen/../tr_api_dispatch/target/armv7a-none-eabi/release/libitron.a(core-d049573bc16596f9.core.5587a85061e7188a-cgu.0.rcgu.o)
                0x000000000010a0bc                core::num::dec2flt::decimal_seq::parse_decimal_seq
 .text._ZN59_$LT$f32$u20$as$u20$core..num..dec2flt..float..RawFloat$GT$15pow10_fast_path17h6e48b725f9e4ea17E
                0x000000000010a55c       0x1c ./gen/../tr_api_dispatch/target/armv7a-none-eabi/release/libitron.a(core-d049573bc16596f9.core.5587a85061e7188a-cgu.0.rcgu.o)
                0x000000000010a55c                <f32 as core::num::dec2flt::float::RawFloat>::pow10_fast_path
 .text._ZN59_$LT$f64$u20$as$u20$core..num..dec2flt..float..RawFloat$GT$15pow10_fast_path17h11f46422e910817bE
                0x000000000010a578       0x20 ./gen/../tr_api_dispatch/target/armv7a-none-eabi/release/libitron.a(core-d049573bc16596f9.core.5587a85061e7188a-cgu.0.rcgu.o)
                0x000000000010a578                <f64 as core::num::dec2flt::float::RawFloat>::pow10_fast_path
 .text._ZN4core3num7dec2flt6lemire13compute_float17h16a9ae03feeaa31dE
                0x000000000010a598      0x28c ./gen/../tr_api_dispatch/target/armv7a-none-eabi/release/libitron.a(core-d049573bc16596f9.core.5587a85061e7188a-cgu.0.rcgu.o)
 .text._ZN4core3num7dec2flt6lemire13compute_float17h6afe090d7f4e8ea6E
                0x000000000010a824      0x314 ./gen/../tr_api_dispatch/target/armv7a-none-eabi/release/libitron.a(core-d049573bc16596f9.core.5587a85061e7188a-cgu.0.rcgu.o)
 .text._ZN4core3num7dec2flt6lemire13compute_float17ha99c48ca86bcebfaE
                0x000000000010ab38      0x320 ./gen/../tr_api_dispatch/target/armv7a-none-eabi/release/libitron.a(core-d049573bc16596f9.core.5587a85061e7188a-cgu.0.rcgu.o)
 .text._ZN4core3num7dec2flt6lemire22compute_product_approx17h46540bfe977aa735E
                0x000000000010ae58       0xfc ./gen/../tr_api_dispatch/target/armv7a-none-eabi/release/libitron.a(core-d049573bc16596f9.core.5587a85061e7188a-cgu.0.rcgu.o)
                0x000000000010ae58                core::num::dec2flt::lemire::compute_product_approx
 .text._ZN4core3num7dec2flt5parse12parse_number17hac599539be123f0aE
                0x000000000010af54      0x680 ./gen/../tr_api_dispatch/target/armv7a-none-eabi/release/libitron.a(core-d049573bc16596f9.core.5587a85061e7188a-cgu.0.rcgu.o)
                0x000000000010af54                core::num::dec2flt::parse::parse_number
 .text._ZN74_$LT$core..num..dec2flt..ParseFloatError$u20$as$u20$core..fmt..Display$GT$3fmt17he75ae9ab1989a457E
                0x000000000010b5d4       0x48 ./gen/../tr_api_dispatch/target/armv7a-none-eabi/release/libitron.a(core-d049573bc16596f9.core.5587a85061e7188a-cgu.0.rcgu.o)
                0x000000000010b5d4                <core::num::dec2flt::ParseFloatError as core::fmt::Display>::fmt
 .text._ZN4core3num9diy_float2Fp3mul17h224020beff8dcf6eE
                0x000000000010b61c       0x58 ./gen/../tr_api_dispatch/target/armv7a-none-eabi/release/libitron.a(core-d049573bc16596f9.core.5587a85061e7188a-cgu.0.rcgu.o)
                0x000000000010b61c                core::num::diy_float::Fp::mul
 .text._ZN4core3num9diy_float2Fp9normalize17h769495316c3164f0E
                0x000000000010b674       0x4c ./gen/../tr_api_dispatch/target/armv7a-none-eabi/release/libitron.a(core-d049573bc16596f9.core.5587a85061e7188a-cgu.0.rcgu.o)
                0x000000000010b674                core::num::diy_float::Fp::normalize
 .text._ZN4core3num9diy_float2Fp12normalize_to17h65a8e137fe2a9b34E
                0x000000000010b6c0       0xc8 ./gen/../tr_api_dispatch/target/armv7a-none-eabi/release/libitron.a(core-d049573bc16596f9.core.5587a85061e7188a-cgu.0.rcgu.o)
                0x000000000010b6c0                core::num::diy_float::Fp::normalize_to
 .text._ZN4core3num7flt2dec9estimator23estimate_scaling_factor17h5aed770e3586ed17E
                0x000000000010b788       0x40 ./gen/../tr_api_dispatch/target/armv7a-none-eabi/release/libitron.a(core-d049573bc16596f9.core.5587a85061e7188a-cgu.0.rcgu.o)
                0x000000000010b788                core::num::flt2dec::estimator::estimate_scaling_factor
 .text._ZN4core3num7flt2dec8strategy6dragon9mul_pow1017h8de41a198f06ceffE
                0x000000000010b7c8      0x268 ./gen/../tr_api_dispatch/target/armv7a-none-eabi/release/libitron.a(core-d049573bc16596f9.core.5587a85061e7188a-cgu.0.rcgu.o)
                0x000000000010b7c8                core::num::flt2dec::strategy::dragon::mul_pow10
 .text._ZN4core3num7flt2dec8strategy6dragon15format_shortest17hb5e0ae7b6971114eE
                0x000000000010ba30      0xd24 ./gen/../tr_api_dispatch/target/armv7a-none-eabi/release/libitron.a(core-d049573bc16596f9.core.5587a85061e7188a-cgu.0.rcgu.o)
                0x000000000010ba30                core::num::flt2dec::strategy::dragon::format_shortest
 .text._ZN4core3num7flt2dec8strategy6dragon12format_exact17h413b0182ae77793eE
                0x000000000010c754      0xb6c ./gen/../tr_api_dispatch/target/armv7a-none-eabi/release/libitron.a(core-d049573bc16596f9.core.5587a85061e7188a-cgu.0.rcgu.o)
                0x000000000010c754                core::num::flt2dec::strategy::dragon::format_exact
 .text._ZN4core3num7flt2dec8strategy5grisu12cached_power17h40510fc142d30e5bE
                0x000000000010d2c0       0x70 ./gen/../tr_api_dispatch/target/armv7a-none-eabi/release/libitron.a(core-d049573bc16596f9.core.5587a85061e7188a-cgu.0.rcgu.o)
                0x000000000010d2c0                core::num::flt2dec::strategy::grisu::cached_power
 .text._ZN4core3num7flt2dec8strategy5grisu19format_shortest_opt17ha7dc55675409a111E
                0x000000000010d330      0x9e4 ./gen/../tr_api_dispatch/target/armv7a-none-eabi/release/libitron.a(core-d049573bc16596f9.core.5587a85061e7188a-cgu.0.rcgu.o)
                0x000000000010d330                core::num::flt2dec::strategy::grisu::format_shortest_opt
 .text._ZN4core3num7flt2dec8strategy5grisu15format_shortest17hcc7bcdc55f306e7cE
                0x000000000010dd14       0x5c ./gen/../tr_api_dispatch/target/armv7a-none-eabi/release/libitron.a(core-d049573bc16596f9.core.5587a85061e7188a-cgu.0.rcgu.o)
                0x000000000010dd14                core::num::flt2dec::strategy::grisu::format_shortest
 .text._ZN4core3num7flt2dec8strategy5grisu16format_exact_opt17h10c7733a2f424f87E
                0x000000000010dd70      0x580 ./gen/../tr_api_dispatch/target/armv7a-none-eabi/release/libitron.a(core-d049573bc16596f9.core.5587a85061e7188a-cgu.0.rcgu.o)
                0x000000000010dd70                core::num::flt2dec::strategy::grisu::format_exact_opt
 .text._ZN4core3num7flt2dec8strategy5grisu16format_exact_opt14possibly_round17h324fa6da31e0b7a0E
                0x000000000010e2f0      0x234 ./gen/../tr_api_dispatch/target/armv7a-none-eabi/release/libitron.a(core-d049573bc16596f9.core.5587a85061e7188a-cgu.0.rcgu.o)
 .text._ZN4core3num7flt2dec8strategy5grisu12format_exact17h78d277690b9100bfE
                0x000000000010e524       0x6c ./gen/../tr_api_dispatch/target/armv7a-none-eabi/release/libitron.a(core-d049573bc16596f9.core.5587a85061e7188a-cgu.0.rcgu.o)
                0x000000000010e524                core::num::flt2dec::strategy::grisu::format_exact
 .text._ZN4core3num7flt2dec8round_up17hdfef968791b3b8f1E
                0x000000000010e590       0xb8 ./gen/../tr_api_dispatch/target/armv7a-none-eabi/release/libitron.a(core-d049573bc16596f9.core.5587a85061e7188a-cgu.0.rcgu.o)
                0x000000000010e590                core::num::flt2dec::round_up
 .text._ZN4core3num7flt2dec17digits_to_dec_str17h4ef03e8f4c666413E
                0x000000000010e648      0x17c ./gen/../tr_api_dispatch/target/armv7a-none-eabi/release/libitron.a(core-d049573bc16596f9.core.5587a85061e7188a-cgu.0.rcgu.o)
                0x000000000010e648                core::num::flt2dec::digits_to_dec_str
 .text._ZN4core3num7flt2dec17digits_to_exp_str17hc40222548b9d8bc0E
                0x000000000010e7c4      0x180 ./gen/../tr_api_dispatch/target/armv7a-none-eabi/release/libitron.a(core-d049573bc16596f9.core.5587a85061e7188a-cgu.0.rcgu.o)
                0x000000000010e7c4                core::num::flt2dec::digits_to_exp_str
 .text._ZN4core3num3fmt4Part5write17h5157de02cd0761b1E
                0x000000000010e944      0x18c ./gen/../tr_api_dispatch/target/armv7a-none-eabi/release/libitron.a(core-d049573bc16596f9.core.5587a85061e7188a-cgu.0.rcgu.o)
                0x000000000010e944                core::num::fmt::Part::write
 .text._ZN4core3num3fmt9Formatted3len17ha07e1e9353604e1bE
                0x000000000010ead0       0xa4 ./gen/../tr_api_dispatch/target/armv7a-none-eabi/release/libitron.a(core-d049573bc16596f9.core.5587a85061e7188a-cgu.0.rcgu.o)
                0x000000000010ead0                core::num::fmt::Formatted::len
 .text._ZN4core3num3fmt9Formatted5write17h99ed3f4f2997298bE
                0x000000000010eb74       0xac ./gen/../tr_api_dispatch/target/armv7a-none-eabi/release/libitron.a(core-d049573bc16596f9.core.5587a85061e7188a-cgu.0.rcgu.o)
                0x000000000010eb74                core::num::fmt::Formatted::write
 .text._ZN72_$LT$core..num..error..TryFromIntError$u20$as$u20$core..fmt..Display$GT$3fmt17hce3ba6a6f2a6094bE
                0x000000000010ec20       0x20 ./gen/../tr_api_dispatch/target/armv7a-none-eabi/release/libitron.a(core-d049573bc16596f9.core.5587a85061e7188a-cgu.0.rcgu.o)
                0x000000000010ec20                <core::num::error::TryFromIntError as core::fmt::Display>::fmt
 .text._ZN70_$LT$core..num..error..ParseIntError$u20$as$u20$core..fmt..Display$GT$3fmt17hbaea7be47c23092bE
                0x000000000010ec40       0x34 ./gen/../tr_api_dispatch/target/armv7a-none-eabi/release/libitron.a(core-d049573bc16596f9.core.5587a85061e7188a-cgu.0.rcgu.o)
                0x000000000010ec40                <core::num::error::ParseIntError as core::fmt::Display>::fmt
 .text.unlikely._ZN4core3num9int_log1030panic_for_nonpositive_argument17h1277070ab48dc16bE
                0x000000000010ec74       0x40 ./gen/../tr_api_dispatch/target/armv7a-none-eabi/release/libitron.a(core-d049573bc16596f9.core.5587a85061e7188a-cgu.0.rcgu.o)
                0x000000000010ec74                core::num::int_log10::panic_for_nonpositive_argument
 .text.unlikely._ZN4core3num8int_sqrt27panic_for_negative_argument17h646ece1cae3b97dbE
                0x000000000010ecb4       0x40 ./gen/../tr_api_dispatch/target/armv7a-none-eabi/release/libitron.a(core-d049573bc16596f9.core.5587a85061e7188a-cgu.0.rcgu.o)
                0x000000000010ecb4                core::num::int_sqrt::panic_for_negative_argument
 .text.unlikely._ZN4core3num14overflow_panic3add17hf194787efb41c60bE
                0x000000000010ecf4       0x40 ./gen/../tr_api_dispatch/target/armv7a-none-eabi/release/libitron.a(core-d049573bc16596f9.core.5587a85061e7188a-cgu.0.rcgu.o)
                0x000000000010ecf4                core::num::overflow_panic::add
 .text.unlikely._ZN4core3num14overflow_panic3sub17he2e76c1521f0700fE
                0x000000000010ed34       0x40 ./gen/../tr_api_dispatch/target/armv7a-none-eabi/release/libitron.a(core-d049573bc16596f9.core.5587a85061e7188a-cgu.0.rcgu.o)
                0x000000000010ed34                core::num::overflow_panic::sub
 .text.unlikely._ZN4core3num14overflow_panic3mul17h60bfb5e03c5b71e3E
                0x000000000010ed74       0x40 ./gen/../tr_api_dispatch/target/armv7a-none-eabi/release/libitron.a(core-d049573bc16596f9.core.5587a85061e7188a-cgu.0.rcgu.o)
                0x000000000010ed74                core::num::overflow_panic::mul
 .text.unlikely._ZN4core3num14overflow_panic3div17h31ae6e9c5fc383d9E
                0x000000000010edb4       0x40 ./gen/../tr_api_dispatch/target/armv7a-none-eabi/release/libitron.a(core-d049573bc16596f9.core.5587a85061e7188a-cgu.0.rcgu.o)
                0x000000000010edb4                core::num::overflow_panic::div
 .text.unlikely._ZN4core3num14overflow_panic3rem17h60333cfee06b13cdE
                0x000000000010edf4       0x40 ./gen/../tr_api_dispatch/target/armv7a-none-eabi/release/libitron.a(core-d049573bc16596f9.core.5587a85061e7188a-cgu.0.rcgu.o)
                0x000000000010edf4                core::num::overflow_panic::rem
 .text.unlikely._ZN4core3num14overflow_panic3neg17h94a197b7d7b20279E
                0x000000000010ee34       0x40 ./gen/../tr_api_dispatch/target/armv7a-none-eabi/release/libitron.a(core-d049573bc16596f9.core.5587a85061e7188a-cgu.0.rcgu.o)
                0x000000000010ee34                core::num::overflow_panic::neg
 .text.unlikely._ZN4core3num14overflow_panic3shr17h1944cb74e27c390cE
                0x000000000010ee74       0x40 ./gen/../tr_api_dispatch/target/armv7a-none-eabi/release/libitron.a(core-d049573bc16596f9.core.5587a85061e7188a-cgu.0.rcgu.o)
                0x000000000010ee74                core::num::overflow_panic::shr
 .text.unlikely._ZN4core3num14overflow_panic3shl17hc7ecc243b6763a66E
                0x000000000010eeb4       0x40 ./gen/../tr_api_dispatch/target/armv7a-none-eabi/release/libitron.a(core-d049573bc16596f9.core.5587a85061e7188a-cgu.0.rcgu.o)
                0x000000000010eeb4                core::num::overflow_panic::shl
 .text.unlikely._ZN4core3num22from_ascii_radix_panic17h345174f03d72ebe3E
                0x000000000010eef4        0xc ./gen/../tr_api_dispatch/target/armv7a-none-eabi/release/libitron.a(core-d049573bc16596f9.core.5587a85061e7188a-cgu.0.rcgu.o)
                0x000000000010eef4                core::num::from_ascii_radix_panic
 .text._ZN76_$LT$core..mem..transmutability..Assume$u20$as$u20$core..ops..arith..Sub$GT$3sub17h21ed15b6645713d8E
                0x000000000010ef00       0x48 ./gen/../tr_api_dispatch/target/armv7a-none-eabi/release/libitron.a(core-d049573bc16596f9.core.5587a85061e7188a-cgu.0.rcgu.o)
                0x000000000010ef00                <core::mem::transmutability::Assume as core::ops::arith::Sub>::sub
 .text._ZN68_$LT$core..ptr..alignment..Alignment$u20$as$u20$core..fmt..Debug$GT$3fmt17hd2f4df9dbd6e2f86E
                0x000000000010ef48       0x88 ./gen/../tr_api_dispatch/target/armv7a-none-eabi/release/libitron.a(core-d049573bc16596f9.core.5587a85061e7188a-cgu.0.rcgu.o)
                0x000000000010ef48                <core::ptr::alignment::Alignment as core::fmt::Debug>::fmt
 .text._ZN69_$LT$core..ffi..c_str..CStr$u20$as$u20$core..clone..CloneToUninit$GT$15clone_to_uninit17h80a4ef3d92070d94E
                0x000000000010efd0       0x20 ./gen/../tr_api_dispatch/target/armv7a-none-eabi/release/libitron.a(core-d049573bc16596f9.core.5587a85061e7188a-cgu.0.rcgu.o)
                0x000000000010efd0                <core::ffi::c_str::CStr as core::clone::CloneToUninit>::clone_to_uninit
 .text._ZN57_$LT$core..error..Request$u20$as$u20$core..fmt..Debug$GT$3fmt17h5f561f753496d82cE
                0x000000000010eff0       0x54 ./gen/../tr_api_dispatch/target/armv7a-none-eabi/release/libitron.a(core-d049573bc16596f9.core.5587a85061e7188a-cgu.0.rcgu.o)
                0x000000000010eff0                <core::error::Request as core::fmt::Debug>::fmt
 .text._ZN78_$LT$core..error..Source$u20$as$u20$core..iter..traits..iterator..Iterator$GT$4next17h4a1fc4a2554e7eceE
                0x000000000010f044       0x4c ./gen/../tr_api_dispatch/target/armv7a-none-eabi/release/libitron.a(core-d049573bc16596f9.core.5587a85061e7188a-cgu.0.rcgu.o)
                0x000000000010f044                <core::error::Source as core::iter::traits::iterator::Iterator>::next
 .text._ZN64_$LT$core..ops..range..RangeFull$u20$as$u20$core..fmt..Debug$GT$3fmt17h424403ffd1288619E
                0x000000000010f090       0x24 ./gen/../tr_api_dispatch/target/armv7a-none-eabi/release/libitron.a(core-d049573bc16596f9.core.5587a85061e7188a-cgu.0.rcgu.o)
                0x000000000010f090                <core::ops::range::RangeFull as core::fmt::Debug>::fmt
 .text._ZN71_$LT$core..ops..range..Range$LT$Idx$GT$$u20$as$u20$core..fmt..Debug$GT$3fmt17ha953e6102122b0f8E
                0x000000000010f0b4      0x1c8 ./gen/../tr_api_dispatch/target/armv7a-none-eabi/release/libitron.a(core-d049573bc16596f9.core.5587a85061e7188a-cgu.0.rcgu.o)
 .text._ZN105_$LT$dyn$u20$core..any..Any$u2b$core..marker..Sync$u2b$core..marker..Send$u20$as$u20$core..fmt..Debug$GT$3fmt17habd8592b3ad60da5E
                0x000000000010f27c       0x54 ./gen/../tr_api_dispatch/target/armv7a-none-eabi/release/libitron.a(core-d049573bc16596f9.core.5587a85061e7188a-cgu.0.rcgu.o)
                0x000000000010f27c                <dyn core::any::Any+core::marker::Send as core::fmt::Debug>::fmt
                0x000000000010f27c                <dyn core::any::Any as core::fmt::Debug>::fmt
                0x000000000010f27c                <dyn core::any::Any+core::marker::Sync+core::marker::Send as core::fmt::Debug>::fmt
 .text._ZN54_$LT$core..any..TypeId$u20$as$u20$core..fmt..Debug$GT$3fmt17h85ceed27d8f181fdE
                0x000000000010f2d0       0x78 ./gen/../tr_api_dispatch/target/armv7a-none-eabi/release/libitron.a(core-d049573bc16596f9.core.5587a85061e7188a-cgu.0.rcgu.o)
                0x000000000010f2d0                <core::any::TypeId as core::fmt::Debug>::fmt
 .text._ZN73_$LT$core..ascii..ascii_char..AsciiChar$u20$as$u20$core..fmt..Display$GT$3fmt17h8431bf4e4f9d1f68E
                0x000000000010f348       0x20 ./gen/../tr_api_dispatch/target/armv7a-none-eabi/release/libitron.a(core-d049573bc16596f9.core.5587a85061e7188a-cgu.0.rcgu.o)
                0x000000000010f348                <core::ascii::ascii_char::AsciiChar as core::fmt::Display>::fmt
 .text._ZN71_$LT$core..ascii..ascii_char..AsciiChar$u20$as$u20$core..fmt..Debug$GT$3fmt17h177c64a4e196f32cE
                0x000000000010f368      0x1a8 ./gen/../tr_api_dispatch/target/armv7a-none-eabi/release/libitron.a(core-d049573bc16596f9.core.5587a85061e7188a-cgu.0.rcgu.o)
                0x000000000010f368                <core::ascii::ascii_char::AsciiChar as core::fmt::Debug>::fmt
 .text._ZN4core5ascii14escape_default17h981d8e307eaaa916E
                0x000000000010f510       0x98 ./gen/../tr_api_dispatch/target/armv7a-none-eabi/release/libitron.a(core-d049573bc16596f9.core.5587a85061e7188a-cgu.0.rcgu.o)
                0x000000000010f510                core::ascii::escape_default
 .text._ZN65_$LT$core..ascii..EscapeDefault$u20$as$u20$core..fmt..Display$GT$3fmt17he735515427ec3f2cE
                0x000000000010f5a8       0x30 ./gen/../tr_api_dispatch/target/armv7a-none-eabi/release/libitron.a(core-d049573bc16596f9.core.5587a85061e7188a-cgu.0.rcgu.o)
                0x000000000010f5a8                <core::ascii::EscapeDefault as core::fmt::Display>::fmt
 .text._ZN63_$LT$core..ascii..EscapeDefault$u20$as$u20$core..fmt..Debug$GT$3fmt17h46f02f61de5321cbE
                0x000000000010f5d8       0x54 ./gen/../tr_api_dispatch/target/armv7a-none-eabi/release/libitron.a(core-d049573bc16596f9.core.5587a85061e7188a-cgu.0.rcgu.o)
                0x000000000010f5d8                <core::ascii::EscapeDefault as core::fmt::Debug>::fmt
 .text._ZN56_$LT$core..bstr..ByteStr$u20$as$u20$core..fmt..Debug$GT$3fmt17h8b572b2661a1de36E
                0x000000000010f62c      0x310 ./gen/../tr_api_dispatch/target/armv7a-none-eabi/release/libitron.a(core-d049573bc16596f9.core.5587a85061e7188a-cgu.0.rcgu.o)
                0x000000000010f62c                <core::bstr::ByteStr as core::fmt::Debug>::fmt
 .text._ZN58_$LT$core..bstr..ByteStr$u20$as$u20$core..fmt..Display$GT$3fmt17he4ae28f23ce65a58E
                0x000000000010f93c      0x340 ./gen/../tr_api_dispatch/target/armv7a-none-eabi/release/libitron.a(core-d049573bc16596f9.core.5587a85061e7188a-cgu.0.rcgu.o)
                0x000000000010f93c                <core::bstr::ByteStr as core::fmt::Display>::fmt
 .text.unlikely._ZN4core4cell4lazy14panic_poisoned17h8eb5d443042c4736E
                0x000000000010fc7c       0x44 ./gen/../tr_api_dispatch/target/armv7a-none-eabi/release/libitron.a(core-d049573bc16596f9.core.5587a85061e7188a-cgu.0.rcgu.o)
                0x000000000010fc7c                core::cell::lazy::panic_poisoned
 .text._ZN60_$LT$core..cell..BorrowError$u20$as$u20$core..fmt..Debug$GT$3fmt17h56da770da5e11014E
                0x000000000010fcc0       0x24 ./gen/../tr_api_dispatch/target/armv7a-none-eabi/release/libitron.a(core-d049573bc16596f9.core.5587a85061e7188a-cgu.0.rcgu.o)
                0x000000000010fcc0                <core::cell::BorrowError as core::fmt::Debug>::fmt
 .text._ZN62_$LT$core..cell..BorrowError$u20$as$u20$core..fmt..Display$GT$3fmt17h649aaf4112417b69E
                0x000000000010fce4       0x20 ./gen/../tr_api_dispatch/target/armv7a-none-eabi/release/libitron.a(core-d049573bc16596f9.core.5587a85061e7188a-cgu.0.rcgu.o)
                0x000000000010fce4                <core::cell::BorrowError as core::fmt::Display>::fmt
 .text._ZN63_$LT$core..cell..BorrowMutError$u20$as$u20$core..fmt..Debug$GT$3fmt17h5dd54cc4ab093714E
                0x000000000010fd04       0x24 ./gen/../tr_api_dispatch/target/armv7a-none-eabi/release/libitron.a(core-d049573bc16596f9.core.5587a85061e7188a-cgu.0.rcgu.o)
                0x000000000010fd04                <core::cell::BorrowMutError as core::fmt::Debug>::fmt
 .text._ZN65_$LT$core..cell..BorrowMutError$u20$as$u20$core..fmt..Display$GT$3fmt17h2f7647931a1ef38bE
                0x000000000010fd28       0x20 ./gen/../tr_api_dispatch/target/armv7a-none-eabi/release/libitron.a(core-d049573bc16596f9.core.5587a85061e7188a-cgu.0.rcgu.o)
                0x000000000010fd28                <core::cell::BorrowMutError as core::fmt::Display>::fmt
 .text.unlikely._ZN4core4cell22panic_already_borrowed17h058b49ead05ac00bE
                0x000000000010fd48       0x54 ./gen/../tr_api_dispatch/target/armv7a-none-eabi/release/libitron.a(core-d049573bc16596f9.core.5587a85061e7188a-cgu.0.rcgu.o)
                0x000000000010fd48                core::cell::panic_already_borrowed
 .text.unlikely._ZN4core4cell30panic_already_mutably_borrowed17h9c448cf1bc13461aE
                0x000000000010fd9c       0x54 ./gen/../tr_api_dispatch/target/armv7a-none-eabi/release/libitron.a(core-d049573bc16596f9.core.5587a85061e7188a-cgu.0.rcgu.o)
                0x000000000010fd9c                core::cell::panic_already_mutably_borrowed
 .text._ZN74_$LT$core..char..convert..ParseCharError$u20$as$u20$core..fmt..Display$GT$3fmt17hcaa7912ed162bf56E
                0x000000000010fdf0       0x48 ./gen/../tr_api_dispatch/target/armv7a-none-eabi/release/libitron.a(core-d049573bc16596f9.core.5587a85061e7188a-cgu.0.rcgu.o)
                0x000000000010fdf0                <core::char::convert::ParseCharError as core::fmt::Display>::fmt
 .text._ZN76_$LT$core..char..convert..CharTryFromError$u20$as$u20$core..fmt..Display$GT$3fmt17h19f1ba4eab42fadcE
                0x000000000010fe38       0x20 ./gen/../tr_api_dispatch/target/armv7a-none-eabi/release/libitron.a(core-d049573bc16596f9.core.5587a85061e7188a-cgu.0.rcgu.o)
                0x000000000010fe38                <core::char::convert::CharTryFromError as core::fmt::Display>::fmt
 .text._ZN75_$LT$core..char..decode..DecodeUtf16Error$u20$as$u20$core..fmt..Display$GT$3fmt17hdcf3babdf2cfe76aE
                0x000000000010fe58       0x54 ./gen/../tr_api_dispatch/target/armv7a-none-eabi/release/libitron.a(core-d049573bc16596f9.core.5587a85061e7188a-cgu.0.rcgu.o)
                0x000000000010fe58                <core::char::decode::DecodeUtf16Error as core::fmt::Display>::fmt
 .text._ZN4core4char7methods22_$LT$impl$u20$char$GT$16escape_debug_ext17hd46ad63d40b7f951E
                0x000000000010feac      0x3c0 ./gen/../tr_api_dispatch/target/armv7a-none-eabi/release/libitron.a(core-d049573bc16596f9.core.5587a85061e7188a-cgu.0.rcgu.o)
 .text._ZN64_$LT$core..char..EscapeDefault$u20$as$u20$core..fmt..Display$GT$3fmt17h38aec28b84124e92E
                0x000000000011026c       0x30 ./gen/../tr_api_dispatch/target/armv7a-none-eabi/release/libitron.a(core-d049573bc16596f9.core.5587a85061e7188a-cgu.0.rcgu.o)
                0x000000000011026c                <core::char::EscapeUnicode as core::fmt::Display>::fmt
                0x000000000011026c                <core::char::EscapeDefault as core::fmt::Display>::fmt
 .text._ZN62_$LT$core..char..EscapeDebug$u20$as$u20$core..fmt..Display$GT$3fmt17hafc69afb2cba63d2E
                0x000000000011029c       0x50 ./gen/../tr_api_dispatch/target/armv7a-none-eabi/release/libitron.a(core-d049573bc16596f9.core.5587a85061e7188a-cgu.0.rcgu.o)
                0x000000000011029c                <core::char::EscapeDebug as core::fmt::Display>::fmt
 .text._ZN86_$LT$core..char..CaseMappingIter$u20$as$u20$core..iter..traits..iterator..Iterator$GT$4next17h387613f301dd4fd8E
                0x00000000001102ec       0x28 ./gen/../tr_api_dispatch/target/armv7a-none-eabi/release/libitron.a(core-d049573bc16596f9.core.5587a85061e7188a-cgu.0.rcgu.o)
                0x00000000001102ec                <core::char::CaseMappingIter as core::iter::traits::iterator::Iterator>::next
 .text._ZN86_$LT$core..char..CaseMappingIter$u20$as$u20$core..iter..traits..iterator..Iterator$GT$5count17h9c99394d14e09439E
                0x0000000000110314       0x14 ./gen/../tr_api_dispatch/target/armv7a-none-eabi/release/libitron.a(core-d049573bc16596f9.core.5587a85061e7188a-cgu.0.rcgu.o)
                0x0000000000110314                <core::char::CaseMappingIter as core::iter::traits::iterator::Iterator>::count
 .text._ZN86_$LT$core..char..CaseMappingIter$u20$as$u20$core..iter..traits..iterator..Iterator$GT$4last17h4812d7f7192ee524E
                0x0000000000110328       0x40 ./gen/../tr_api_dispatch/target/armv7a-none-eabi/release/libitron.a(core-d049573bc16596f9.core.5587a85061e7188a-cgu.0.rcgu.o)
                0x0000000000110328                <core::char::CaseMappingIter as core::iter::traits::iterator::Iterator>::last
 .text._ZN86_$LT$core..char..CaseMappingIter$u20$as$u20$core..iter..traits..iterator..Iterator$GT$10advance_by17h0f8a06432075b566E
                0x0000000000110368       0x28 ./gen/../tr_api_dispatch/target/armv7a-none-eabi/release/libitron.a(core-d049573bc16596f9.core.5587a85061e7188a-cgu.0.rcgu.o)
                0x0000000000110368                <core::char::CaseMappingIter as core::iter::traits::iterator::Iterator>::advance_by
 .text._ZN86_$LT$core..char..CaseMappingIter$u20$as$u20$core..iter..traits..iterator..Iterator$GT$24__iterator_get_unchecked17hee300516a572f4b8E
                0x0000000000110390       0x1c ./gen/../tr_api_dispatch/target/armv7a-none-eabi/release/libitron.a(core-d049573bc16596f9.core.5587a85061e7188a-cgu.0.rcgu.o)
                0x0000000000110390                <core::char::CaseMappingIter as core::iter::traits::iterator::Iterator>::__iterator_get_unchecked
 .text._ZN101_$LT$core..char..CaseMappingIter$u20$as$u20$core..iter..traits..double_ended..DoubleEndedIterator$GT$9next_back17h0013dfa0a23bb5c3E
                0x00000000001103ac       0x2c ./gen/../tr_api_dispatch/target/armv7a-none-eabi/release/libitron.a(core-d049573bc16596f9.core.5587a85061e7188a-cgu.0.rcgu.o)
                0x00000000001103ac                <core::char::CaseMappingIter as core::iter::traits::double_ended::DoubleEndedIterator>::next_back
 .text._ZN101_$LT$core..char..CaseMappingIter$u20$as$u20$core..iter..traits..double_ended..DoubleEndedIterator$GT$15advance_back_by17h0e7ec4b92a9eb744E
                0x00000000001103d8       0x28 ./gen/../tr_api_dispatch/target/armv7a-none-eabi/release/libitron.a(core-d049573bc16596f9.core.5587a85061e7188a-cgu.0.rcgu.o)
                0x00000000001103d8                <core::char::CaseMappingIter as core::iter::traits::double_ended::DoubleEndedIterator>::advance_back_by
 .text._ZN67_$LT$core..char..TryFromCharError$u20$as$u20$core..fmt..Display$GT$3fmt17hbf1b0a686f8a1a69E
                0x0000000000110400       0x20 ./gen/../tr_api_dispatch/target/armv7a-none-eabi/release/libitron.a(core-d049573bc16596f9.core.5587a85061e7188a-cgu.0.rcgu.o)
                0x0000000000110400                <core::char::TryFromCharError as core::fmt::Display>::fmt
 .text._ZN79_$LT$core..ffi..c_str..FromBytesUntilNulError$u20$as$u20$core..fmt..Display$GT$3fmt17h71f2c90ca2a80addE
                0x0000000000110420       0x24 ./gen/../tr_api_dispatch/target/armv7a-none-eabi/release/libitron.a(core-d049573bc16596f9.core.5587a85061e7188a-cgu.0.rcgu.o)
                0x0000000000110420                <core::ffi::c_str::FromBytesUntilNulError as core::fmt::Display>::fmt
 .text._ZN59_$LT$core..ffi..c_str..CStr$u20$as$u20$core..fmt..Debug$GT$3fmt17h36ba4289086816d4E
                0x0000000000110444       0x7c ./gen/../tr_api_dispatch/target/armv7a-none-eabi/release/libitron.a(core-d049573bc16596f9.core.5587a85061e7188a-cgu.0.rcgu.o)
                0x0000000000110444                <core::ffi::c_str::CStr as core::fmt::Debug>::fmt
 .text._ZN78_$LT$core..ffi..c_str..FromBytesWithNulError$u20$as$u20$core..fmt..Display$GT$3fmt17hd6785df6bd44c25dE
                0x00000000001104c0       0xc4 ./gen/../tr_api_dispatch/target/armv7a-none-eabi/release/libitron.a(core-d049573bc16596f9.core.5587a85061e7188a-cgu.0.rcgu.o)
                0x00000000001104c0                <core::ffi::c_str::FromBytesWithNulError as core::fmt::Display>::fmt
 .text._ZN4core3ffi5c_str4CStr20from_bytes_until_nul17h223b6a3545723cc2E
                0x0000000000110584      0x1b8 ./gen/../tr_api_dispatch/target/armv7a-none-eabi/release/libitron.a(core-d049573bc16596f9.core.5587a85061e7188a-cgu.0.rcgu.o)
                0x0000000000110584                core::ffi::c_str::CStr::from_bytes_until_nul
 .text._ZN4core3ffi5c_str4CStr19from_bytes_with_nul17h924bc5b5323bf05eE
                0x000000000011073c      0x1cc ./gen/../tr_api_dispatch/target/armv7a-none-eabi/release/libitron.a(core-d049573bc16596f9.core.5587a85061e7188a-cgu.0.rcgu.o)
                0x000000000011073c                core::ffi::c_str::CStr::from_bytes_with_nul
 .text._ZN4core3ffi5c_str4CStr6to_str17hc1faa40fb638a30eE
                0x0000000000110908       0x14 ./gen/../tr_api_dispatch/target/armv7a-none-eabi/release/libitron.a(core-d049573bc16596f9.core.5587a85061e7188a-cgu.0.rcgu.o)
                0x0000000000110908                core::ffi::c_str::CStr::to_str
 .text._ZN67_$LT$core..ffi..va_list..VaListImpl$u20$as$u20$core..fmt..Debug$GT$3fmt17hd26f911d47b97956E
                0x000000000011091c       0x54 ./gen/../tr_api_dispatch/target/armv7a-none-eabi/release/libitron.a(core-d049573bc16596f9.core.5587a85061e7188a-cgu.0.rcgu.o)
                0x000000000011091c                <core::ffi::va_list::VaListImpl as core::fmt::Debug>::fmt
 .text._ZN54_$LT$core..ffi..c_void$u20$as$u20$core..fmt..Debug$GT$3fmt17h3b27b77d454a7b00E
                0x0000000000110970       0x24 ./gen/../tr_api_dispatch/target/armv7a-none-eabi/release/libitron.a(core-d049573bc16596f9.core.5587a85061e7188a-cgu.0.rcgu.o)
                0x0000000000110970                <core::ffi::c_void as core::fmt::Debug>::fmt
 .text._ZN72_$LT$core..io..borrowed_buf..BorrowedBuf$u20$as$u20$core..fmt..Debug$GT$3fmt17h8c5373e369933a1eE
                0x0000000000110994      0x114 ./gen/../tr_api_dispatch/target/armv7a-none-eabi/release/libitron.a(core-d049573bc16596f9.core.5587a85061e7188a-cgu.0.rcgu.o)
                0x0000000000110994                <core::io::borrowed_buf::BorrowedBuf as core::fmt::Debug>::fmt
 .text._ZN86_$LT$core..net..display_buffer..DisplayBuffer$LT$_$GT$$u20$as$u20$core..fmt..Write$GT$9write_str17h297baed95332eae7E
                0x0000000000110aa8       0x48 ./gen/../tr_api_dispatch/target/armv7a-none-eabi/release/libitron.a(core-d049573bc16596f9.core.5587a85061e7188a-cgu.0.rcgu.o)
 .text._ZN86_$LT$core..net..display_buffer..DisplayBuffer$LT$_$GT$$u20$as$u20$core..fmt..Write$GT$9write_str17h839f220912462241E
                0x0000000000110af0       0x48 ./gen/../tr_api_dispatch/target/armv7a-none-eabi/release/libitron.a(core-d049573bc16596f9.core.5587a85061e7188a-cgu.0.rcgu.o)
 .text._ZN86_$LT$core..net..display_buffer..DisplayBuffer$LT$_$GT$$u20$as$u20$core..fmt..Write$GT$9write_str17h8badf8473d9a4002E
                0x0000000000110b38       0x48 ./gen/../tr_api_dispatch/target/armv7a-none-eabi/release/libitron.a(core-d049573bc16596f9.core.5587a85061e7188a-cgu.0.rcgu.o)
 .text._ZN86_$LT$core..net..display_buffer..DisplayBuffer$LT$_$GT$$u20$as$u20$core..fmt..Write$GT$9write_str17hd35c8bb425293b8bE
                0x0000000000110b80       0x48 ./gen/../tr_api_dispatch/target/armv7a-none-eabi/release/libitron.a(core-d049573bc16596f9.core.5587a85061e7188a-cgu.0.rcgu.o)
 .text._ZN65_$LT$core..net..ip_addr..IpAddr$u20$as$u20$core..fmt..Display$GT$3fmt17h3168c33a3915df90E
                0x0000000000110bc8       0x24 ./gen/../tr_api_dispatch/target/armv7a-none-eabi/release/libitron.a(core-d049573bc16596f9.core.5587a85061e7188a-cgu.0.rcgu.o)
                0x0000000000110bc8                <core::net::ip_addr::IpAddr as core::fmt::Display>::fmt
 .text._ZN63_$LT$core..net..ip_addr..IpAddr$u20$as$u20$core..fmt..Debug$GT$3fmt17hfda05f36d5a749a6E
                0x0000000000110bec       0x24 ./gen/../tr_api_dispatch/target/armv7a-none-eabi/release/libitron.a(core-d049573bc16596f9.core.5587a85061e7188a-cgu.0.rcgu.o)
                0x0000000000110bec                <core::net::ip_addr::IpAddr as core::fmt::Debug>::fmt
 .text._ZN67_$LT$core..net..ip_addr..Ipv4Addr$u20$as$u20$core..fmt..Display$GT$3fmt17h8a7f4864e9af7f6bE
                0x0000000000110c10      0x194 ./gen/../tr_api_dispatch/target/armv7a-none-eabi/release/libitron.a(core-d049573bc16596f9.core.5587a85061e7188a-cgu.0.rcgu.o)
                0x0000000000110c10                <core::net::ip_addr::Ipv4Addr as core::fmt::Display>::fmt
 .text._ZN65_$LT$core..net..ip_addr..Ipv4Addr$u20$as$u20$core..fmt..Debug$GT$3fmt17h6a51679a1ff6e7e2E
                0x0000000000110da4       0x10 ./gen/../tr_api_dispatch/target/armv7a-none-eabi/release/libitron.a(core-d049573bc16596f9.core.5587a85061e7188a-cgu.0.rcgu.o)
                0x0000000000110da4                <core::net::ip_addr::Ipv4Addr as core::fmt::Debug>::fmt
 .text._ZN67_$LT$core..net..ip_addr..Ipv6Addr$u20$as$u20$core..fmt..Display$GT$3fmt17ha09719cd9f4aecf6E
                0x0000000000110db4      0x824 ./gen/../tr_api_dispatch/target/armv7a-none-eabi/release/libitron.a(core-d049573bc16596f9.core.5587a85061e7188a-cgu.0.rcgu.o)
                0x0000000000110db4                <core::net::ip_addr::Ipv6Addr as core::fmt::Display>::fmt
 .text._ZN67_$LT$core..net..ip_addr..Ipv6Addr$u20$as$u20$core..fmt..Display$GT$3fmt12fmt_subslice17hba89c8432023046dE
                0x00000000001115d8      0x130 ./gen/../tr_api_dispatch/target/armv7a-none-eabi/release/libitron.a(core-d049573bc16596f9.core.5587a85061e7188a-cgu.0.rcgu.o)
 .text._ZN65_$LT$core..net..ip_addr..Ipv6Addr$u20$as$u20$core..fmt..Debug$GT$3fmt17hd7b6c05483d437dbE
                0x0000000000111708       0x10 ./gen/../tr_api_dispatch/target/armv7a-none-eabi/release/libitron.a(core-d049573bc16596f9.core.5587a85061e7188a-cgu.0.rcgu.o)
                0x0000000000111708                <core::net::ip_addr::Ipv6Addr as core::fmt::Debug>::fmt
 .text._ZN4core3net6parser6Parser11read_number28_$u7b$$u7b$closure$u7d$$u7d$17hcfdf77b7d41ca56bE
                0x0000000000111718      0x304 ./gen/../tr_api_dispatch/target/armv7a-none-eabi/release/libitron.a(core-d049573bc16596f9.core.5587a85061e7188a-cgu.0.rcgu.o)
 .text._ZN4core3net6parser6Parser14read_ipv4_addr17h3efba67ec1312042E
                0x0000000000111a1c      0x37c ./gen/../tr_api_dispatch/target/armv7a-none-eabi/release/libitron.a(core-d049573bc16596f9.core.5587a85061e7188a-cgu.0.rcgu.o)
 .text._ZN4core3net6parser6Parser14read_ipv6_addr17h54c8b5ef622aafb8E
                0x0000000000111d98      0x224 ./gen/../tr_api_dispatch/target/armv7a-none-eabi/release/libitron.a(core-d049573bc16596f9.core.5587a85061e7188a-cgu.0.rcgu.o)
 .text._ZN4core3net6parser6Parser14read_ipv6_addr11read_groups17h16f736446e4eaddeE
                0x0000000000111fbc      0x230 ./gen/../tr_api_dispatch/target/armv7a-none-eabi/release/libitron.a(core-d049573bc16596f9.core.5587a85061e7188a-cgu.0.rcgu.o)
 .text._ZN4core3net6parser6Parser19read_socket_addr_v617hb4d45e4b5ba1a4d4E
                0x00000000001121ec      0x278 ./gen/../tr_api_dispatch/target/armv7a-none-eabi/release/libitron.a(core-d049573bc16596f9.core.5587a85061e7188a-cgu.0.rcgu.o)
 .text._ZN4core3net6parser44_$LT$impl$u20$core..net..ip_addr..IpAddr$GT$11parse_ascii17hd7ed4f332f3caa79E
                0x0000000000112464      0x168 ./gen/../tr_api_dispatch/target/armv7a-none-eabi/release/libitron.a(core-d049573bc16596f9.core.5587a85061e7188a-cgu.0.rcgu.o)
                0x0000000000112464                core::net::parser::<impl core::net::ip_addr::IpAddr>::parse_ascii
 .text._ZN4core3net6parser83_$LT$impl$u20$core..str..traits..FromStr$u20$for$u20$core..net..ip_addr..IpAddr$GT$8from_str17h49e46cb50b46901eE
                0x00000000001125cc      0x168 ./gen/../tr_api_dispatch/target/armv7a-none-eabi/release/libitron.a(core-d049573bc16596f9.core.5587a85061e7188a-cgu.0.rcgu.o)
                0x00000000001125cc                core::net::parser::<impl core::str::traits::FromStr for core::net::ip_addr::IpAddr>::from_str
 .text._ZN4core3net6parser46_$LT$impl$u20$core..net..ip_addr..Ipv4Addr$GT$11parse_ascii17h8028e1785cb7be5fE
                0x0000000000112734       0x9c ./gen/../tr_api_dispatch/target/armv7a-none-eabi/release/libitron.a(core-d049573bc16596f9.core.5587a85061e7188a-cgu.0.rcgu.o)
                0x0000000000112734                core::net::parser::<impl core::net::ip_addr::Ipv4Addr>::parse_ascii
 .text._ZN4core3net6parser85_$LT$impl$u20$core..str..traits..FromStr$u20$for$u20$core..net..ip_addr..Ipv4Addr$GT$8from_str17hc3217d4e0e33b7d5E
                0x00000000001127d0       0x9c ./gen/../tr_api_dispatch/target/armv7a-none-eabi/release/libitron.a(core-d049573bc16596f9.core.5587a85061e7188a-cgu.0.rcgu.o)
                0x00000000001127d0                core::net::parser::<impl core::str::traits::FromStr for core::net::ip_addr::Ipv4Addr>::from_str
 .text._ZN4core3net6parser46_$LT$impl$u20$core..net..ip_addr..Ipv6Addr$GT$11parse_ascii17h767d275eb73823beE
                0x000000000011286c       0x8c ./gen/../tr_api_dispatch/target/armv7a-none-eabi/release/libitron.a(core-d049573bc16596f9.core.5587a85061e7188a-cgu.0.rcgu.o)
                0x000000000011286c                core::net::parser::<impl core::net::ip_addr::Ipv6Addr>::parse_ascii
 .text._ZN4core3net6parser85_$LT$impl$u20$core..str..traits..FromStr$u20$for$u20$core..net..ip_addr..Ipv6Addr$GT$8from_str17h685b7483d3d506d7E
                0x00000000001128f8       0x8c ./gen/../tr_api_dispatch/target/armv7a-none-eabi/release/libitron.a(core-d049573bc16596f9.core.5587a85061e7188a-cgu.0.rcgu.o)
                0x00000000001128f8                core::net::parser::<impl core::str::traits::FromStr for core::net::ip_addr::Ipv6Addr>::from_str
 .text._ZN4core3net6parser54_$LT$impl$u20$core..net..socket_addr..SocketAddrV4$GT$11parse_ascii17hc07de5cf09e25fb1E
                0x0000000000112984       0xfc ./gen/../tr_api_dispatch/target/armv7a-none-eabi/release/libitron.a(core-d049573bc16596f9.core.5587a85061e7188a-cgu.0.rcgu.o)
                0x0000000000112984                core::net::parser::<impl core::net::socket_addr::SocketAddrV4>::parse_ascii
 .text._ZN4core3net6parser93_$LT$impl$u20$core..str..traits..FromStr$u20$for$u20$core..net..socket_addr..SocketAddrV4$GT$8from_str17h5883a36bbe26488dE
                0x0000000000112a80       0xfc ./gen/../tr_api_dispatch/target/armv7a-none-eabi/release/libitron.a(core-d049573bc16596f9.core.5587a85061e7188a-cgu.0.rcgu.o)
                0x0000000000112a80                core::net::parser::<impl core::str::traits::FromStr for core::net::socket_addr::SocketAddrV4>::from_str
 .text._ZN4core3net6parser54_$LT$impl$u20$core..net..socket_addr..SocketAddrV6$GT$11parse_ascii17hbe6498756ef255a7E
                0x0000000000112b7c       0x7c ./gen/../tr_api_dispatch/target/armv7a-none-eabi/release/libitron.a(core-d049573bc16596f9.core.5587a85061e7188a-cgu.0.rcgu.o)
                0x0000000000112b7c                core::net::parser::<impl core::net::socket_addr::SocketAddrV6>::parse_ascii
 .text._ZN4core3net6parser93_$LT$impl$u20$core..str..traits..FromStr$u20$for$u20$core..net..socket_addr..SocketAddrV6$GT$8from_str17hf8a18b6a5bf3759eE
                0x0000000000112bf8       0x7c ./gen/../tr_api_dispatch/target/armv7a-none-eabi/release/libitron.a(core-d049573bc16596f9.core.5587a85061e7188a-cgu.0.rcgu.o)
                0x0000000000112bf8                core::net::parser::<impl core::str::traits::FromStr for core::net::socket_addr::SocketAddrV6>::from_str
 .text._ZN4core3net6parser52_$LT$impl$u20$core..net..socket_addr..SocketAddr$GT$11parse_ascii17h32c0686e61a62a97E
                0x0000000000112c74      0x18c ./gen/../tr_api_dispatch/target/armv7a-none-eabi/release/libitron.a(core-d049573bc16596f9.core.5587a85061e7188a-cgu.0.rcgu.o)
                0x0000000000112c74                core::net::parser::<impl core::net::socket_addr::SocketAddr>::parse_ascii
 .text._ZN4core3net6parser91_$LT$impl$u20$core..str..traits..FromStr$u20$for$u20$core..net..socket_addr..SocketAddr$GT$8from_str17he89fdbe831fc4256E
                0x0000000000112e00       0x10 ./gen/../tr_api_dispatch/target/armv7a-none-eabi/release/libitron.a(core-d049573bc16596f9.core.5587a85061e7188a-cgu.0.rcgu.o)
                0x0000000000112e00                core::net::parser::<impl core::str::traits::FromStr for core::net::socket_addr::SocketAddr>::from_str
 .text._ZN72_$LT$core..net..parser..AddrParseError$u20$as$u20$core..fmt..Display$GT$3fmt17hd7f7df04664d2864E
                0x0000000000112e10       0x38 ./gen/../tr_api_dispatch/target/armv7a-none-eabi/release/libitron.a(core-d049573bc16596f9.core.5587a85061e7188a-cgu.0.rcgu.o)
                0x0000000000112e10                <core::net::parser::AddrParseError as core::fmt::Display>::fmt
 .text._ZN73_$LT$core..net..socket_addr..SocketAddr$u20$as$u20$core..fmt..Display$GT$3fmt17hd0e981e04411525aE
                0x0000000000112e48       0x2c ./gen/../tr_api_dispatch/target/armv7a-none-eabi/release/libitron.a(core-d049573bc16596f9.core.5587a85061e7188a-cgu.0.rcgu.o)
                0x0000000000112e48                <core::net::socket_addr::SocketAddr as core::fmt::Display>::fmt
 .text._ZN71_$LT$core..net..socket_addr..SocketAddr$u20$as$u20$core..fmt..Debug$GT$3fmt17hd95cf7ae4353c951E
                0x0000000000112e74       0x2c ./gen/../tr_api_dispatch/target/armv7a-none-eabi/release/libitron.a(core-d049573bc16596f9.core.5587a85061e7188a-cgu.0.rcgu.o)
                0x0000000000112e74                <core::net::socket_addr::SocketAddr as core::fmt::Debug>::fmt
 .text._ZN75_$LT$core..net..socket_addr..SocketAddrV4$u20$as$u20$core..fmt..Display$GT$3fmt17hb358e369cb8dcc74E
                0x0000000000112ea0      0x16c ./gen/../tr_api_dispatch/target/armv7a-none-eabi/release/libitron.a(core-d049573bc16596f9.core.5587a85061e7188a-cgu.0.rcgu.o)
                0x0000000000112ea0                <core::net::socket_addr::SocketAddrV4 as core::fmt::Display>::fmt
 .text._ZN73_$LT$core..net..socket_addr..SocketAddrV4$u20$as$u20$core..fmt..Debug$GT$3fmt17h47d2c03dbc6abbf5E
                0x000000000011300c       0x10 ./gen/../tr_api_dispatch/target/armv7a-none-eabi/release/libitron.a(core-d049573bc16596f9.core.5587a85061e7188a-cgu.0.rcgu.o)
                0x000000000011300c                <core::net::socket_addr::SocketAddrV4 as core::fmt::Debug>::fmt
 .text._ZN75_$LT$core..net..socket_addr..SocketAddrV6$u20$as$u20$core..fmt..Display$GT$3fmt17hb242d5ced67c2003E
                0x000000000011301c      0x298 ./gen/../tr_api_dispatch/target/armv7a-none-eabi/release/libitron.a(core-d049573bc16596f9.core.5587a85061e7188a-cgu.0.rcgu.o)
                0x000000000011301c                <core::net::socket_addr::SocketAddrV6 as core::fmt::Display>::fmt
 .text._ZN73_$LT$core..net..socket_addr..SocketAddrV6$u20$as$u20$core..fmt..Debug$GT$3fmt17h008793ff64f0e572E
                0x00000000001132b4       0x10 ./gen/../tr_api_dispatch/target/armv7a-none-eabi/release/libitron.a(core-d049573bc16596f9.core.5587a85061e7188a-cgu.0.rcgu.o)
                0x00000000001132b4                <core::net::socket_addr::SocketAddrV6 as core::fmt::Debug>::fmt
 .text.unlikely._ZN4core6option13unwrap_failed17h39a76a4d9e444e97E
                0x00000000001132c4       0x1c ./gen/../tr_api_dispatch/target/armv7a-none-eabi/release/libitron.a(core-d049573bc16596f9.core.5587a85061e7188a-cgu.0.rcgu.o)
                0x00000000001132c4                core::option::unwrap_failed
 .text.unlikely._ZN4core6option13expect_failed17hf032828b69e8f9cdE
                0x00000000001132e0       0x58 ./gen/../tr_api_dispatch/target/armv7a-none-eabi/release/libitron.a(core-d049573bc16596f9.core.5587a85061e7188a-cgu.0.rcgu.o)
                0x00000000001132e0                core::option::expect_failed
 .text._ZN73_$LT$core..panic..panic_info..PanicInfo$u20$as$u20$core..fmt..Display$GT$3fmt17he8ae0930573845dbE
                0x0000000000113338       0xfc ./gen/../tr_api_dispatch/target/armv7a-none-eabi/release/libitron.a(core-d049573bc16596f9.core.5587a85061e7188a-cgu.0.rcgu.o)
                0x0000000000113338                <core::panic::panic_info::PanicInfo as core::fmt::Display>::fmt
 .text.unlikely._ZN4core9panicking9panic_fmt17h5145975cf535bc42E
                0x0000000000113434       0x20 ./gen/../tr_api_dispatch/target/armv7a-none-eabi/release/libitron.a(core-d049573bc16596f9.core.5587a85061e7188a-cgu.0.rcgu.o)
                0x0000000000113434                core::panicking::panic_fmt
 .text.unlikely._ZN4core9panicking18panic_nounwind_fmt17h7e174a309b689b0fE
                0x0000000000113454       0x38 ./gen/../tr_api_dispatch/target/armv7a-none-eabi/release/libitron.a(core-d049573bc16596f9.core.5587a85061e7188a-cgu.0.rcgu.o)
                0x0000000000113454                core::panicking::panic_nounwind_fmt
 .text.unlikely._ZN4core9panicking5panic17h04eb6169f90051c3E
                0x000000000011348c       0x44 ./gen/../tr_api_dispatch/target/armv7a-none-eabi/release/libitron.a(core-d049573bc16596f9.core.5587a85061e7188a-cgu.0.rcgu.o)
                0x000000000011348c                core::panicking::panic
 .text.unlikely._ZN4core9panicking14panic_nounwind17hb8efc6a66a7c1fb5E
                0x00000000001134d0       0x48 ./gen/../tr_api_dispatch/target/armv7a-none-eabi/release/libitron.a(core-d049573bc16596f9.core.5587a85061e7188a-cgu.0.rcgu.o)
                0x00000000001134d0                core::panicking::panic_nounwind
 .text.unlikely._ZN4core9panicking26panic_nounwind_nobacktrace17hcf6b6f7ce89f1dabE
                0x0000000000113518       0x48 ./gen/../tr_api_dispatch/target/armv7a-none-eabi/release/libitron.a(core-d049573bc16596f9.core.5587a85061e7188a-cgu.0.rcgu.o)
                0x0000000000113518                core::panicking::panic_nounwind_nobacktrace
 .text.unlikely._ZN4core9panicking14panic_explicit17he7bebe483a3bfe34E
                0x0000000000113560       0x58 ./gen/../tr_api_dispatch/target/armv7a-none-eabi/release/libitron.a(core-d049573bc16596f9.core.5587a85061e7188a-cgu.0.rcgu.o)
                0x0000000000113560                core::panicking::panic_explicit
 .text.unlikely._ZN4core9panicking18panic_bounds_check17he2f51b500041724aE
                0x00000000001135b8       0x64 ./gen/../tr_api_dispatch/target/armv7a-none-eabi/release/libitron.a(core-d049573bc16596f9.core.5587a85061e7188a-cgu.0.rcgu.o)
                0x00000000001135b8                core::panicking::panic_bounds_check
 .text.unlikely._ZN4core9panicking36panic_misaligned_pointer_dereference17hca8f56f08697e9a1E
                0x000000000011361c       0x6c ./gen/../tr_api_dispatch/target/armv7a-none-eabi/release/libitron.a(core-d049573bc16596f9.core.5587a85061e7188a-cgu.0.rcgu.o)
                0x000000000011361c                core::panicking::panic_misaligned_pointer_dereference
 .text.unlikely._ZN4core9panicking30panic_null_pointer_dereference17hd07e38dada2babd1E
                0x0000000000113688       0x40 ./gen/../tr_api_dispatch/target/armv7a-none-eabi/release/libitron.a(core-d049573bc16596f9.core.5587a85061e7188a-cgu.0.rcgu.o)
                0x0000000000113688                core::panicking::panic_null_pointer_dereference
 .text.unlikely._ZN4core9panicking19panic_cannot_unwind17h88003aad7d959a86E
                0x00000000001136c8       0x18 ./gen/../tr_api_dispatch/target/armv7a-none-eabi/release/libitron.a(core-d049573bc16596f9.core.5587a85061e7188a-cgu.0.rcgu.o)
                0x00000000001136c8                core::panicking::panic_cannot_unwind
 .text.unlikely._ZN4core9panicking16panic_in_cleanup17he6ef00938a5a6327E
                0x00000000001136e0       0x18 ./gen/../tr_api_dispatch/target/armv7a-none-eabi/release/libitron.a(core-d049573bc16596f9.core.5587a85061e7188a-cgu.0.rcgu.o)
                0x00000000001136e0                core::panicking::panic_in_cleanup
 .text.unlikely._ZN4core9panicking15const_panic_fmt17h6a5d3cae6d10461cE
                0x00000000001136f8       0x7c ./gen/../tr_api_dispatch/target/armv7a-none-eabi/release/libitron.a(core-d049573bc16596f9.core.5587a85061e7188a-cgu.0.rcgu.o)
                0x00000000001136f8                core::panicking::const_panic_fmt
 .text.unlikely._ZN4core9panicking13assert_failed17h2f1d8849fc674a9bE
                0x0000000000113774       0x30 ./gen/../tr_api_dispatch/target/armv7a-none-eabi/release/libitron.a(core-d049573bc16596f9.core.5587a85061e7188a-cgu.0.rcgu.o)
                0x0000000000113774                core::panicking::assert_failed
 .text.unlikely._ZN4core9panicking13assert_failed17h8a42116d81ae2397E
                0x00000000001137a4       0x30 ./gen/../tr_api_dispatch/target/armv7a-none-eabi/release/libitron.a(core-d049573bc16596f9.core.5587a85061e7188a-cgu.0.rcgu.o)
                0x00000000001137a4                core::panicking::assert_failed
 .text._ZN84_$LT$core..panicking..assert_matches_failed..Pattern$u20$as$u20$core..fmt..Debug$GT$3fmt17h3bf79b8a4bc8fc51E
                0x00000000001137d4       0x24 ./gen/../tr_api_dispatch/target/armv7a-none-eabi/release/libitron.a(core-d049573bc16596f9.core.5587a85061e7188a-cgu.0.rcgu.o)
                0x00000000001137d4                <core::panicking::assert_matches_failed::Pattern as core::fmt::Debug>::fmt
 .text.unlikely._ZN4core9panicking19assert_failed_inner17h1f0479933a2bc628E
                0x00000000001137f8      0x120 ./gen/../tr_api_dispatch/target/armv7a-none-eabi/release/libitron.a(core-d049573bc16596f9.core.5587a85061e7188a-cgu.0.rcgu.o)
                0x00000000001137f8                core::panicking::assert_failed_inner
 .text._ZN48_$LT$char$u20$as$u20$core..pat..RangePattern$GT$7sub_one17hc1333cb071cfc1b6E
                0x0000000000113918       0x58 ./gen/../tr_api_dispatch/target/armv7a-none-eabi/release/libitron.a(core-d049573bc16596f9.core.5587a85061e7188a-cgu.0.rcgu.o)
                0x0000000000113918                <char as core::pat::RangePattern>::sub_one
 .text.unlikely._ZN4core6result13unwrap_failed17h238a41f9432ebe61E
                0x0000000000113970       0x6c ./gen/../tr_api_dispatch/target/armv7a-none-eabi/release/libitron.a(core-d049573bc16596f9.core.5587a85061e7188a-cgu.0.rcgu.o)
                0x0000000000113970                core::result::unwrap_failed
 .text._ZN67_$LT$core..sync..atomic..AtomicBool$u20$as$u20$core..fmt..Debug$GT$3fmt17h36e87f0defe65ad8E
                0x00000000001139dc       0x48 ./gen/../tr_api_dispatch/target/armv7a-none-eabi/release/libitron.a(core-d049573bc16596f9.core.5587a85061e7188a-cgu.0.rcgu.o)
                0x00000000001139dc                <core::sync::atomic::AtomicBool as core::fmt::Debug>::fmt
 .text._ZN4core3fmt8builders10PadAdapter4wrap17h8cec362b75ec2f49E
                0x0000000000113a24       0x38 ./gen/../tr_api_dispatch/target/armv7a-none-eabi/release/libitron.a(core-d049573bc16596f9.core.5587a85061e7188a-cgu.0.rcgu.o)
                0x0000000000113a24                core::fmt::builders::PadAdapter::wrap
 .text._ZN68_$LT$core..fmt..builders..PadAdapter$u20$as$u20$core..fmt..Write$GT$9write_str17hc81ad4e78c0c990cE
                0x0000000000113a5c      0x270 ./gen/../tr_api_dispatch/target/armv7a-none-eabi/release/libitron.a(core-d049573bc16596f9.core.5587a85061e7188a-cgu.0.rcgu.o)
                0x0000000000113a5c                <core::fmt::builders::PadAdapter as core::fmt::Write>::write_str
 .text._ZN68_$LT$core..fmt..builders..PadAdapter$u20$as$u20$core..fmt..Write$GT$10write_char17h121f3a024053ccfbE
                0x0000000000113ccc       0x6c ./gen/../tr_api_dispatch/target/armv7a-none-eabi/release/libitron.a(core-d049573bc16596f9.core.5587a85061e7188a-cgu.0.rcgu.o)
                0x0000000000113ccc                <core::fmt::builders::PadAdapter as core::fmt::Write>::write_char
 .text._ZN4core3fmt8builders11DebugStruct5field17h118827344b19fbe7E
                0x0000000000113d38      0x1d0 ./gen/../tr_api_dispatch/target/armv7a-none-eabi/release/libitron.a(core-d049573bc16596f9.core.5587a85061e7188a-cgu.0.rcgu.o)
                0x0000000000113d38                core::fmt::builders::DebugStruct::field
 .text._ZN4core3fmt8builders11DebugStruct21finish_non_exhaustive17ha59f74934d70120cE
                0x0000000000113f08       0xd4 ./gen/../tr_api_dispatch/target/armv7a-none-eabi/release/libitron.a(core-d049573bc16596f9.core.5587a85061e7188a-cgu.0.rcgu.o)
                0x0000000000113f08                core::fmt::builders::DebugStruct::finish_non_exhaustive
 .text._ZN4core3fmt8builders11DebugStruct6finish17h62dcffc385683e70E
                0x0000000000113fdc       0x84 ./gen/../tr_api_dispatch/target/armv7a-none-eabi/release/libitron.a(core-d049573bc16596f9.core.5587a85061e7188a-cgu.0.rcgu.o)
                0x0000000000113fdc                core::fmt::builders::DebugStruct::finish
 .text._ZN4core3fmt8builders10DebugTuple5field17hd25f2ea26ee9220fE
                0x0000000000114060      0x184 ./gen/../tr_api_dispatch/target/armv7a-none-eabi/release/libitron.a(core-d049573bc16596f9.core.5587a85061e7188a-cgu.0.rcgu.o)
                0x0000000000114060                core::fmt::builders::DebugTuple::field
 .text._ZN4core3fmt8builders10DebugTuple21finish_non_exhaustive17hbea2c5cc6d18b83cE
                0x00000000001141e4       0xe8 ./gen/../tr_api_dispatch/target/armv7a-none-eabi/release/libitron.a(core-d049573bc16596f9.core.5587a85061e7188a-cgu.0.rcgu.o)
                0x00000000001141e4                core::fmt::builders::DebugTuple::finish_non_exhaustive
 .text._ZN4core3fmt8builders10DebugTuple6finish17h75fa298d273b9537E
                0x00000000001142cc       0xb8 ./gen/../tr_api_dispatch/target/armv7a-none-eabi/release/libitron.a(core-d049573bc16596f9.core.5587a85061e7188a-cgu.0.rcgu.o)
                0x00000000001142cc                core::fmt::builders::DebugTuple::finish
 .text._ZN4core3fmt8builders8DebugSet5entry17h6f9f49712cdf1c8aE
                0x0000000000114384      0x174 ./gen/../tr_api_dispatch/target/armv7a-none-eabi/release/libitron.a(core-d049573bc16596f9.core.5587a85061e7188a-cgu.0.rcgu.o)
                0x0000000000114384                core::fmt::builders::DebugSet::entry
                0x0000000000114384                core::fmt::builders::DebugList::entry
 .text._ZN4core3fmt8builders8DebugSet21finish_non_exhaustive17h056b5628e91579d3E
                0x00000000001144f8       0xd4 ./gen/../tr_api_dispatch/target/armv7a-none-eabi/release/libitron.a(core-d049573bc16596f9.core.5587a85061e7188a-cgu.0.rcgu.o)
                0x00000000001144f8                core::fmt::builders::DebugSet::finish_non_exhaustive
 .text._ZN4core3fmt8builders8DebugSet6finish17hb775269289642050E
                0x00000000001145cc       0x40 ./gen/../tr_api_dispatch/target/armv7a-none-eabi/release/libitron.a(core-d049573bc16596f9.core.5587a85061e7188a-cgu.0.rcgu.o)
                0x00000000001145cc                core::fmt::builders::DebugSet::finish
 .text._ZN4core3fmt8builders9DebugList21finish_non_exhaustive17h0964252c95243519E
                0x000000000011460c       0xe4 ./gen/../tr_api_dispatch/target/armv7a-none-eabi/release/libitron.a(core-d049573bc16596f9.core.5587a85061e7188a-cgu.0.rcgu.o)
                0x000000000011460c                core::fmt::builders::DebugList::finish_non_exhaustive
 .text._ZN4core3fmt8builders9DebugList6finish17h95901bb8c72ebeaaE
                0x00000000001146f0       0x40 ./gen/../tr_api_dispatch/target/armv7a-none-eabi/release/libitron.a(core-d049573bc16596f9.core.5587a85061e7188a-cgu.0.rcgu.o)
                0x00000000001146f0                core::fmt::builders::DebugList::finish
 .text._ZN4core3fmt8builders8DebugMap5entry17hb5fe3985090a797eE
                0x0000000000114730      0x134 ./gen/../tr_api_dispatch/target/armv7a-none-eabi/release/libitron.a(core-d049573bc16596f9.core.5587a85061e7188a-cgu.0.rcgu.o)
                0x0000000000114730                core::fmt::builders::DebugMap::entry
 .text._ZN4core3fmt8builders8DebugMap3key17he972b5db7c272a06E
                0x0000000000114864      0x204 ./gen/../tr_api_dispatch/target/armv7a-none-eabi/release/libitron.a(core-d049573bc16596f9.core.5587a85061e7188a-cgu.0.rcgu.o)
                0x0000000000114864                core::fmt::builders::DebugMap::key
 .text._ZN4core3fmt8builders8DebugMap5value17hc3fc83e3ff16426eE
                0x0000000000114a68      0x158 ./gen/../tr_api_dispatch/target/armv7a-none-eabi/release/libitron.a(core-d049573bc16596f9.core.5587a85061e7188a-cgu.0.rcgu.o)
                0x0000000000114a68                core::fmt::builders::DebugMap::value
 .text._ZN4core3fmt8builders8DebugMap21finish_non_exhaustive17h1d063c8fc17c4fa1E
                0x0000000000114bc0      0x118 ./gen/../tr_api_dispatch/target/armv7a-none-eabi/release/libitron.a(core-d049573bc16596f9.core.5587a85061e7188a-cgu.0.rcgu.o)
                0x0000000000114bc0                core::fmt::builders::DebugMap::finish_non_exhaustive
 .text._ZN4core3fmt8builders8DebugMap6finish17h87c976a15d36c1beE
                0x0000000000114cd8       0x8c ./gen/../tr_api_dispatch/target/armv7a-none-eabi/release/libitron.a(core-d049573bc16596f9.core.5587a85061e7188a-cgu.0.rcgu.o)
                0x0000000000114cd8                core::fmt::builders::DebugMap::finish
 .text._ZN4core3fmt5float29float_to_decimal_common_exact17h7d85dbe2887defb2E
                0x0000000000114d64      0x354 ./gen/../tr_api_dispatch/target/armv7a-none-eabi/release/libitron.a(core-d049573bc16596f9.core.5587a85061e7188a-cgu.0.rcgu.o)
 .text._ZN4core3fmt5float29float_to_decimal_common_exact17hb8ecc3a298064d1fE
                0x00000000001150b8      0x318 ./gen/../tr_api_dispatch/target/armv7a-none-eabi/release/libitron.a(core-d049573bc16596f9.core.5587a85061e7188a-cgu.0.rcgu.o)
 .text._ZN4core3fmt5float29float_to_decimal_common_exact17hc4ee8b5197ebb838E
                0x00000000001153d0      0x328 ./gen/../tr_api_dispatch/target/armv7a-none-eabi/release/libitron.a(core-d049573bc16596f9.core.5587a85061e7188a-cgu.0.rcgu.o)
 .text._ZN4core3fmt5float32float_to_decimal_common_shortest17h57f1a97492206944E
                0x00000000001156f8      0x258 ./gen/../tr_api_dispatch/target/armv7a-none-eabi/release/libitron.a(core-d049573bc16596f9.core.5587a85061e7188a-cgu.0.rcgu.o)
 .text._ZN4core3fmt5float32float_to_decimal_common_shortest17hd1530ac16dbab458E
                0x0000000000115950      0x29c ./gen/../tr_api_dispatch/target/armv7a-none-eabi/release/libitron.a(core-d049573bc16596f9.core.5587a85061e7188a-cgu.0.rcgu.o)
 .text._ZN4core3fmt5float32float_to_decimal_common_shortest17hf774af481b6739e1E
                0x0000000000115bec      0x268 ./gen/../tr_api_dispatch/target/armv7a-none-eabi/release/libitron.a(core-d049573bc16596f9.core.5587a85061e7188a-cgu.0.rcgu.o)
 .text._ZN4core3fmt5float33float_to_exponential_common_exact17h475946fbe25c96b4E
                0x0000000000115e54      0x350 ./gen/../tr_api_dispatch/target/armv7a-none-eabi/release/libitron.a(core-d049573bc16596f9.core.5587a85061e7188a-cgu.0.rcgu.o)
 .text._ZN4core3fmt5float33float_to_exponential_common_exact17h58c854a839c522b9E
                0x00000000001161a4      0x348 ./gen/../tr_api_dispatch/target/armv7a-none-eabi/release/libitron.a(core-d049573bc16596f9.core.5587a85061e7188a-cgu.0.rcgu.o)
 .text._ZN4core3fmt5float33float_to_exponential_common_exact17hf8c347a31f005498E
                0x00000000001164ec      0x394 ./gen/../tr_api_dispatch/target/armv7a-none-eabi/release/libitron.a(core-d049573bc16596f9.core.5587a85061e7188a-cgu.0.rcgu.o)
 .text._ZN4core3fmt5float36float_to_exponential_common_shortest17h110c73098256b07dE
                0x0000000000116880      0x300 ./gen/../tr_api_dispatch/target/armv7a-none-eabi/release/libitron.a(core-d049573bc16596f9.core.5587a85061e7188a-cgu.0.rcgu.o)
 .text._ZN4core3fmt5float36float_to_exponential_common_shortest17hc2048c8ca710d24cE
                0x0000000000116b80      0x35c ./gen/../tr_api_dispatch/target/armv7a-none-eabi/release/libitron.a(core-d049573bc16596f9.core.5587a85061e7188a-cgu.0.rcgu.o)
 .text._ZN4core3fmt5float36float_to_exponential_common_shortest17hded788cc3690643fE
                0x0000000000116edc      0x320 ./gen/../tr_api_dispatch/target/armv7a-none-eabi/release/libitron.a(core-d049573bc16596f9.core.5587a85061e7188a-cgu.0.rcgu.o)
 .text._ZN4core3fmt3num14parse_u64_into17hdae6f27d721cd177E
                0x00000000001171fc      0x494 ./gen/../tr_api_dispatch/target/armv7a-none-eabi/release/libitron.a(core-d049573bc16596f9.core.5587a85061e7188a-cgu.0.rcgu.o)
 .text._ZN4core3fmt3num53_$LT$impl$u20$core..fmt..Display$u20$for$u20$u128$GT$3fmt17he162d142fdfbe23dE
                0x0000000000117690       0x30 ./gen/../tr_api_dispatch/target/armv7a-none-eabi/release/libitron.a(core-d049573bc16596f9.core.5587a85061e7188a-cgu.0.rcgu.o)
                0x0000000000117690                core::fmt::num::<impl core::fmt::Display for u128>::fmt
 .text._ZN4core3fmt3num53_$LT$impl$u20$core..fmt..Display$u20$for$u20$i128$GT$3fmt17h41041c0cb7d944acE
                0x00000000001176c0       0x54 ./gen/../tr_api_dispatch/target/armv7a-none-eabi/release/libitron.a(core-d049573bc16596f9.core.5587a85061e7188a-cgu.0.rcgu.o)
                0x00000000001176c0                core::fmt::num::<impl core::fmt::Display for i128>::fmt
 .text._ZN4core3fmt3num8fmt_u12817h3ce49e52aad09f7aE
                0x0000000000117714      0x2b0 ./gen/../tr_api_dispatch/target/armv7a-none-eabi/release/libitron.a(core-d049573bc16596f9.core.5587a85061e7188a-cgu.0.rcgu.o)
 .text._ZN4core3fmt5Write10write_char17h0deb656a130510dcE
                0x00000000001179c4       0xec ./gen/../tr_api_dispatch/target/armv7a-none-eabi/release/libitron.a(core-d049573bc16596f9.core.5587a85061e7188a-cgu.0.rcgu.o)
 .text._ZN4core3fmt5Write10write_char17h121006013e2c64bdE
                0x0000000000117ab0       0xec ./gen/../tr_api_dispatch/target/armv7a-none-eabi/release/libitron.a(core-d049573bc16596f9.core.5587a85061e7188a-cgu.0.rcgu.o)
 .text._ZN4core3fmt5Write10write_char17h20c6982f67c5a14cE
                0x0000000000117b9c       0xec ./gen/../tr_api_dispatch/target/armv7a-none-eabi/release/libitron.a(core-d049573bc16596f9.core.5587a85061e7188a-cgu.0.rcgu.o)
 .text._ZN4core3fmt5Write10write_char17h884d76389de57237E
                0x0000000000117c88       0xec ./gen/../tr_api_dispatch/target/armv7a-none-eabi/release/libitron.a(core-d049573bc16596f9.core.5587a85061e7188a-cgu.0.rcgu.o)
 .text._ZN4core3fmt5Write9write_fmt17h07c1169efed3c695E
                0x0000000000117d74       0x1c ./gen/../tr_api_dispatch/target/armv7a-none-eabi/release/libitron.a(core-d049573bc16596f9.core.5587a85061e7188a-cgu.0.rcgu.o)
 .text._ZN4core3fmt5Write9write_fmt17h32196b9e35a8bbc2E
                0x0000000000117d90       0x1c ./gen/../tr_api_dispatch/target/armv7a-none-eabi/release/libitron.a(core-d049573bc16596f9.core.5587a85061e7188a-cgu.0.rcgu.o)
 .text._ZN4core3fmt5Write9write_fmt17h8420373094f7f4f3E
                0x0000000000117dac       0x1c ./gen/../tr_api_dispatch/target/armv7a-none-eabi/release/libitron.a(core-d049573bc16596f9.core.5587a85061e7188a-cgu.0.rcgu.o)
 .text._ZN4core3fmt5Write9write_fmt17ha93132b80607745fE
                0x0000000000117dc8       0x1c ./gen/../tr_api_dispatch/target/armv7a-none-eabi/release/libitron.a(core-d049573bc16596f9.core.5587a85061e7188a-cgu.0.rcgu.o)
 .text._ZN4core3fmt5Write9write_fmt17he315d962ad1b87f3E
                0x0000000000117de4       0x1c ./gen/../tr_api_dispatch/target/armv7a-none-eabi/release/libitron.a(core-d049573bc16596f9.core.5587a85061e7188a-cgu.0.rcgu.o)
 .text._ZN4core3fmt17FormattingOptions8get_fill17ha364eba16e39e9f9E
                0x0000000000117e00       0x14 ./gen/../tr_api_dispatch/target/armv7a-none-eabi/release/libitron.a(core-d049573bc16596f9.core.5587a85061e7188a-cgu.0.rcgu.o)
                0x0000000000117e00                core::fmt::FormattingOptions::get_fill
 .text._ZN57_$LT$core..fmt..Arguments$u20$as$u20$core..fmt..Debug$GT$3fmt17hecd0089d3e424aecE
                0x0000000000117e14       0x18 ./gen/../tr_api_dispatch/target/armv7a-none-eabi/release/libitron.a(core-d049573bc16596f9.core.5587a85061e7188a-cgu.0.rcgu.o)
                0x0000000000117e14                <core::fmt::Arguments as core::fmt::Debug>::fmt
 .text._ZN59_$LT$core..fmt..Arguments$u20$as$u20$core..fmt..Display$GT$3fmt17hcd13995007f793f4E
                0x0000000000117e2c       0x18 ./gen/../tr_api_dispatch/target/armv7a-none-eabi/release/libitron.a(core-d049573bc16596f9.core.5587a85061e7188a-cgu.0.rcgu.o)
                0x0000000000117e2c                <core::fmt::Arguments as core::fmt::Display>::fmt
 .text._ZN4core3fmt5write17hb714253c1b9e952cE
                0x0000000000117e44      0x208 ./gen/../tr_api_dispatch/target/armv7a-none-eabi/release/libitron.a(core-d049573bc16596f9.core.5587a85061e7188a-cgu.0.rcgu.o)
                0x0000000000117e44                core::fmt::write
 .text._ZN4core3fmt9Formatter12pad_integral17hec47f37da301c049E
                0x000000000011804c      0x300 ./gen/../tr_api_dispatch/target/armv7a-none-eabi/release/libitron.a(core-d049573bc16596f9.core.5587a85061e7188a-cgu.0.rcgu.o)
                0x000000000011804c                core::fmt::Formatter::pad_integral
 .text._ZN4core3fmt9Formatter12pad_integral12write_prefix17hc4c0a7a0c94985adE
                0x000000000011834c       0x68 ./gen/../tr_api_dispatch/target/armv7a-none-eabi/release/libitron.a(core-d049573bc16596f9.core.5587a85061e7188a-cgu.0.rcgu.o)
 .text._ZN4core3fmt9Formatter3pad17h8e247c0c6f258b85E
                0x00000000001183b4      0x228 ./gen/../tr_api_dispatch/target/armv7a-none-eabi/release/libitron.a(core-d049573bc16596f9.core.5587a85061e7188a-cgu.0.rcgu.o)
                0x00000000001183b4                core::fmt::Formatter::pad
 .text._ZN4core3fmt9Formatter19pad_formatted_parts17ha476f236f4259153E
                0x00000000001185dc      0x26c ./gen/../tr_api_dispatch/target/armv7a-none-eabi/release/libitron.a(core-d049573bc16596f9.core.5587a85061e7188a-cgu.0.rcgu.o)
 .text._ZN4core3fmt9Formatter21write_formatted_parts17h76662c6af77af83aE
                0x0000000000118848      0x280 ./gen/../tr_api_dispatch/target/armv7a-none-eabi/release/libitron.a(core-d049573bc16596f9.core.5587a85061e7188a-cgu.0.rcgu.o)
 .text._ZN4core3fmt9Formatter9write_str17hdfb7ca2c4bb7964eE
                0x0000000000118ac8       0x18 ./gen/../tr_api_dispatch/target/armv7a-none-eabi/release/libitron.a(core-d049573bc16596f9.core.5587a85061e7188a-cgu.0.rcgu.o)
                0x0000000000118ac8                <core::fmt::Formatter as core::fmt::Write>::write_str
                0x0000000000118ac8                core::fmt::Formatter::write_str
 .text._ZN4core3fmt9Formatter4fill17hffaa17a0e6fadb77E
                0x0000000000118ae0       0x14 ./gen/../tr_api_dispatch/target/armv7a-none-eabi/release/libitron.a(core-d049573bc16596f9.core.5587a85061e7188a-cgu.0.rcgu.o)
                0x0000000000118ae0                core::fmt::Formatter::fill
 .text._ZN4core3fmt9Formatter12debug_struct17he204134461ecf684E
                0x0000000000118af4       0x3c ./gen/../tr_api_dispatch/target/armv7a-none-eabi/release/libitron.a(core-d049573bc16596f9.core.5587a85061e7188a-cgu.0.rcgu.o)
                0x0000000000118af4                core::fmt::Formatter::debug_struct
 .text._ZN4core3fmt9Formatter26debug_struct_field1_finish17hfc5577f397af5417E
                0x0000000000118b30       0xc8 ./gen/../tr_api_dispatch/target/armv7a-none-eabi/release/libitron.a(core-d049573bc16596f9.core.5587a85061e7188a-cgu.0.rcgu.o)
                0x0000000000118b30                core::fmt::Formatter::debug_struct_field1_finish
 .text._ZN4core3fmt9Formatter26debug_struct_field2_finish17h250937b50b7d91dbE
                0x0000000000118bf8       0xdc ./gen/../tr_api_dispatch/target/armv7a-none-eabi/release/libitron.a(core-d049573bc16596f9.core.5587a85061e7188a-cgu.0.rcgu.o)
                0x0000000000118bf8                core::fmt::Formatter::debug_struct_field2_finish
 .text._ZN4core3fmt9Formatter26debug_struct_field3_finish17h2e39e36ff7dea516E
                0x0000000000118cd4       0xf0 ./gen/../tr_api_dispatch/target/armv7a-none-eabi/release/libitron.a(core-d049573bc16596f9.core.5587a85061e7188a-cgu.0.rcgu.o)
                0x0000000000118cd4                core::fmt::Formatter::debug_struct_field3_finish
 .text._ZN4core3fmt9Formatter26debug_struct_field4_finish17hd85fc51ea53a6480E
                0x0000000000118dc4      0x104 ./gen/../tr_api_dispatch/target/armv7a-none-eabi/release/libitron.a(core-d049573bc16596f9.core.5587a85061e7188a-cgu.0.rcgu.o)
                0x0000000000118dc4                core::fmt::Formatter::debug_struct_field4_finish
 .text._ZN4core3fmt9Formatter26debug_struct_field5_finish17haacbff9cf3eec5ccE
                0x0000000000118ec8      0x118 ./gen/../tr_api_dispatch/target/armv7a-none-eabi/release/libitron.a(core-d049573bc16596f9.core.5587a85061e7188a-cgu.0.rcgu.o)
                0x0000000000118ec8                core::fmt::Formatter::debug_struct_field5_finish
 .text._ZN4core3fmt9Formatter26debug_struct_fields_finish17hbc4a9600e0d1f479E
                0x0000000000118fe0      0x114 ./gen/../tr_api_dispatch/target/armv7a-none-eabi/release/libitron.a(core-d049573bc16596f9.core.5587a85061e7188a-cgu.0.rcgu.o)
                0x0000000000118fe0                core::fmt::Formatter::debug_struct_fields_finish
 .text._ZN4core3fmt9Formatter11debug_tuple17h940ad0dd22d147c8E
                0x00000000001190f4       0x44 ./gen/../tr_api_dispatch/target/armv7a-none-eabi/release/libitron.a(core-d049573bc16596f9.core.5587a85061e7188a-cgu.0.rcgu.o)
                0x00000000001190f4                core::fmt::Formatter::debug_tuple
 .text._ZN4core3fmt9Formatter25debug_tuple_field1_finish17h3462a89b33c73d6eE
                0x0000000000119138      0x180 ./gen/../tr_api_dispatch/target/armv7a-none-eabi/release/libitron.a(core-d049573bc16596f9.core.5587a85061e7188a-cgu.0.rcgu.o)
                0x0000000000119138                core::fmt::Formatter::debug_tuple_field1_finish
 .text._ZN4core3fmt9Formatter25debug_tuple_field2_finish17hc4dc9b596154de93E
                0x00000000001192b8      0x1fc ./gen/../tr_api_dispatch/target/armv7a-none-eabi/release/libitron.a(core-d049573bc16596f9.core.5587a85061e7188a-cgu.0.rcgu.o)
                0x00000000001192b8                core::fmt::Formatter::debug_tuple_field2_finish
 .text._ZN4core3fmt9Formatter25debug_tuple_field3_finish17h164749d4d77ab572E
                0x00000000001194b4      0x2b8 ./gen/../tr_api_dispatch/target/armv7a-none-eabi/release/libitron.a(core-d049573bc16596f9.core.5587a85061e7188a-cgu.0.rcgu.o)
                0x00000000001194b4                core::fmt::Formatter::debug_tuple_field3_finish
 .text._ZN4core3fmt9Formatter25debug_tuple_field4_finish17h87085ebfbf56e53eE
                0x000000000011976c      0x370 ./gen/../tr_api_dispatch/target/armv7a-none-eabi/release/libitron.a(core-d049573bc16596f9.core.5587a85061e7188a-cgu.0.rcgu.o)
                0x000000000011976c                core::fmt::Formatter::debug_tuple_field4_finish
 .text._ZN4core3fmt9Formatter25debug_tuple_field5_finish17he4dec699aac9d2a9E
                0x0000000000119adc      0x428 ./gen/../tr_api_dispatch/target/armv7a-none-eabi/release/libitron.a(core-d049573bc16596f9.core.5587a85061e7188a-cgu.0.rcgu.o)
                0x0000000000119adc                core::fmt::Formatter::debug_tuple_field5_finish
 .text._ZN4core3fmt9Formatter25debug_tuple_fields_finish17hb3065dfeca0f69b2E
                0x0000000000119f04      0x2c4 ./gen/../tr_api_dispatch/target/armv7a-none-eabi/release/libitron.a(core-d049573bc16596f9.core.5587a85061e7188a-cgu.0.rcgu.o)
                0x0000000000119f04                core::fmt::Formatter::debug_tuple_fields_finish
 .text._ZN4core3fmt9Formatter10debug_list17h324a4227e38e4e1cE
                0x000000000011a1c8       0x3c ./gen/../tr_api_dispatch/target/armv7a-none-eabi/release/libitron.a(core-d049573bc16596f9.core.5587a85061e7188a-cgu.0.rcgu.o)
                0x000000000011a1c8                core::fmt::Formatter::debug_list
 .text._ZN4core3fmt9Formatter9debug_set17h8342974783863c44E
                0x000000000011a204       0x3c ./gen/../tr_api_dispatch/target/armv7a-none-eabi/release/libitron.a(core-d049573bc16596f9.core.5587a85061e7188a-cgu.0.rcgu.o)
                0x000000000011a204                core::fmt::Formatter::debug_set
 .text._ZN4core3fmt9Formatter9debug_map17hd46370b77cf960edE
                0x000000000011a240       0x44 ./gen/../tr_api_dispatch/target/armv7a-none-eabi/release/libitron.a(core-d049573bc16596f9.core.5587a85061e7188a-cgu.0.rcgu.o)
                0x000000000011a240                core::fmt::Formatter::debug_map
 .text._ZN57_$LT$core..fmt..Formatter$u20$as$u20$core..fmt..Write$GT$10write_char17ha022f916fb525171E
                0x000000000011a284       0x18 ./gen/../tr_api_dispatch/target/armv7a-none-eabi/release/libitron.a(core-d049573bc16596f9.core.5587a85061e7188a-cgu.0.rcgu.o)
                0x000000000011a284                <core::fmt::Formatter as core::fmt::Write>::write_char
 .text._ZN55_$LT$core..fmt..Error$u20$as$u20$core..fmt..Display$GT$3fmt17h603b7f267edd160dE
                0x000000000011a29c       0x20 ./gen/../tr_api_dispatch/target/armv7a-none-eabi/release/libitron.a(core-d049573bc16596f9.core.5587a85061e7188a-cgu.0.rcgu.o)
                0x000000000011a29c                <core::fmt::Error as core::fmt::Display>::fmt
 .text._ZN43_$LT$bool$u20$as$u20$core..fmt..Display$GT$3fmt17h37b2e11049775da3E
                0x000000000011a2bc       0x48 ./gen/../tr_api_dispatch/target/armv7a-none-eabi/release/libitron.a(core-d049573bc16596f9.core.5587a85061e7188a-cgu.0.rcgu.o)
                0x000000000011a2bc                <bool as core::fmt::Display>::fmt
 .text._ZN40_$LT$str$u20$as$u20$core..fmt..Debug$GT$3fmt17hbfa9400b4ed4d146E
                0x000000000011a304      0x3e0 ./gen/../tr_api_dispatch/target/armv7a-none-eabi/release/libitron.a(core-d049573bc16596f9.core.5587a85061e7188a-cgu.0.rcgu.o)
                0x000000000011a304                <str as core::fmt::Debug>::fmt
 .text._ZN42_$LT$str$u20$as$u20$core..fmt..Display$GT$3fmt17h1a2739d2b1badf3eE
                0x000000000011a6e4       0x20 ./gen/../tr_api_dispatch/target/armv7a-none-eabi/release/libitron.a(core-d049573bc16596f9.core.5587a85061e7188a-cgu.0.rcgu.o)
                0x000000000011a6e4                <str as core::fmt::Display>::fmt
 .text._ZN41_$LT$char$u20$as$u20$core..fmt..Debug$GT$3fmt17hf8537c7d284af8e9E
                0x000000000011a704       0xb4 ./gen/../tr_api_dispatch/target/armv7a-none-eabi/release/libitron.a(core-d049573bc16596f9.core.5587a85061e7188a-cgu.0.rcgu.o)
                0x000000000011a704                <char as core::fmt::Debug>::fmt
 .text._ZN43_$LT$char$u20$as$u20$core..fmt..Display$GT$3fmt17h759ac83f19cee971E
                0x000000000011a7b8       0xec ./gen/../tr_api_dispatch/target/armv7a-none-eabi/release/libitron.a(core-d049573bc16596f9.core.5587a85061e7188a-cgu.0.rcgu.o)
                0x000000000011a7b8                <char as core::fmt::Display>::fmt
 .text._ZN4core3fmt17pointer_fmt_inner17h83d31351164c23f2E
                0x000000000011a8a4       0xa4 ./gen/../tr_api_dispatch/target/armv7a-none-eabi/release/libitron.a(core-d049573bc16596f9.core.5587a85061e7188a-cgu.0.rcgu.o)
                0x000000000011a8a4                core::fmt::pointer_fmt_inner
 .text._ZN52_$LT$$BP$const$u20$T$u20$as$u20$core..fmt..Debug$GT$3fmt17h52f0d6dcd4868dc8E
                0x000000000011a948       0xa8 ./gen/../tr_api_dispatch/target/armv7a-none-eabi/release/libitron.a(core-d049573bc16596f9.core.5587a85061e7188a-cgu.0.rcgu.o)
 .text._ZN4core5slice6memchr14memchr_aligned17hf608187b782eb764E
                0x000000000011a9f0       0xfc ./gen/../tr_api_dispatch/target/armv7a-none-eabi/release/libitron.a(core-d049573bc16596f9.core.5587a85061e7188a-cgu.0.rcgu.o)
                0x000000000011a9f0                core::slice::memchr::memchr_aligned
 .text._ZN4core5slice6memchr7memrchr17h1b5e6bee0cdc7e3cE
                0x000000000011aaec      0x23c ./gen/../tr_api_dispatch/target/armv7a-none-eabi/release/libitron.a(core-d049573bc16596f9.core.5587a85061e7188a-cgu.0.rcgu.o)
                0x000000000011aaec                core::slice::memchr::memrchr
 .text._ZN4core5slice4sort6stable5drift11sqrt_approx17heb7d8e344c813c3bE
                0x000000000011ad28       0x2c ./gen/../tr_api_dispatch/target/armv7a-none-eabi/release/libitron.a(core-d049573bc16596f9.core.5587a85061e7188a-cgu.0.rcgu.o)
                0x000000000011ad28                core::slice::sort::stable::drift::sqrt_approx
 .text.unlikely._ZN4core5slice4sort6shared9smallsort22panic_on_ord_violation17h26f42ac12335c738E
                0x000000000011ad54       0x44 ./gen/../tr_api_dispatch/target/armv7a-none-eabi/release/libitron.a(core-d049573bc16596f9.core.5587a85061e7188a-cgu.0.rcgu.o)
                0x000000000011ad54                core::slice::sort::shared::smallsort::panic_on_ord_violation
 .text._ZN105_$LT$core..slice..ascii..EscapeAscii$u20$as$u20$core..iter..traits..double_ended..DoubleEndedIterator$GT$9next_back17h58b0f7ecc71c56abE
                0x000000000011ad98      0x208 ./gen/../tr_api_dispatch/target/armv7a-none-eabi/release/libitron.a(core-d049573bc16596f9.core.5587a85061e7188a-cgu.0.rcgu.o)
                0x000000000011ad98                <core::slice::ascii::EscapeAscii as core::iter::traits::double_ended::DoubleEndedIterator>::next_back
 .text._ZN70_$LT$core..slice..ascii..EscapeAscii$u20$as$u20$core..fmt..Display$GT$3fmt17h29e51c0221cfc6f4E
                0x000000000011afa0      0x268 ./gen/../tr_api_dispatch/target/armv7a-none-eabi/release/libitron.a(core-d049573bc16596f9.core.5587a85061e7188a-cgu.0.rcgu.o)
                0x000000000011afa0                <core::slice::ascii::EscapeAscii as core::fmt::Display>::fmt
 .text._ZN68_$LT$core..slice..ascii..EscapeAscii$u20$as$u20$core..fmt..Debug$GT$3fmt17hbb33b900076cece0E
                0x000000000011b208       0x54 ./gen/../tr_api_dispatch/target/armv7a-none-eabi/release/libitron.a(core-d049573bc16596f9.core.5587a85061e7188a-cgu.0.rcgu.o)
                0x000000000011b208                <core::slice::ascii::EscapeAscii as core::fmt::Debug>::fmt
 .text.unlikely._ZN4core5slice5index26slice_start_index_len_fail17h38c824b450734dfcE
                0x000000000011b25c        0xc ./gen/../tr_api_dispatch/target/armv7a-none-eabi/release/libitron.a(core-d049573bc16596f9.core.5587a85061e7188a-cgu.0.rcgu.o)
                0x000000000011b25c                core::slice::index::slice_start_index_len_fail
 .text.unlikely._ZN4core5slice5index24slice_end_index_len_fail17hf4eb2611058c09afE
                0x000000000011b268        0xc ./gen/../tr_api_dispatch/target/armv7a-none-eabi/release/libitron.a(core-d049573bc16596f9.core.5587a85061e7188a-cgu.0.rcgu.o)
                0x000000000011b268                core::slice::index::slice_end_index_len_fail
 .text.unlikely._ZN4core5slice5index22slice_index_order_fail17hb31f14bd82bfcb5bE
                0x000000000011b274        0xc ./gen/../tr_api_dispatch/target/armv7a-none-eabi/release/libitron.a(core-d049573bc16596f9.core.5587a85061e7188a-cgu.0.rcgu.o)
                0x000000000011b274                core::slice::index::slice_index_order_fail
 .text.unlikely._ZN4core5slice5index31slice_start_index_overflow_fail17h682402ba819c482dE
                0x000000000011b280       0x40 ./gen/../tr_api_dispatch/target/armv7a-none-eabi/release/libitron.a(core-d049573bc16596f9.core.5587a85061e7188a-cgu.0.rcgu.o)
                0x000000000011b280                core::slice::index::slice_start_index_overflow_fail
 .text.unlikely._ZN4core5slice5index29slice_end_index_overflow_fail17h6d8526257621818dE
                0x000000000011b2c0       0x40 ./gen/../tr_api_dispatch/target/armv7a-none-eabi/release/libitron.a(core-d049573bc16596f9.core.5587a85061e7188a-cgu.0.rcgu.o)
                0x000000000011b2c0                core::slice::index::slice_end_index_overflow_fail
 .text._ZN4core5slice5index10into_range17h838d5809396762d6E
                0x000000000011b300       0x74 ./gen/../tr_api_dispatch/target/armv7a-none-eabi/release/libitron.a(core-d049573bc16596f9.core.5587a85061e7188a-cgu.0.rcgu.o)
                0x000000000011b300                core::slice::index::into_range
 .text._ZN4core5slice5index16into_slice_range17h4e76af1b067ea36eE
                0x000000000011b374       0x78 ./gen/../tr_api_dispatch/target/armv7a-none-eabi/release/libitron.a(core-d049573bc16596f9.core.5587a85061e7188a-cgu.0.rcgu.o)
                0x000000000011b374                core::slice::index::into_slice_range
 .text.unlikely._ZN4core5slice29_$LT$impl$u20$$u5b$T$u5d$$GT$15copy_from_slice17len_mismatch_fail17hf3c6b69109ca94ceE
                0x000000000011b3ec       0x18 ./gen/../tr_api_dispatch/target/armv7a-none-eabi/release/libitron.a(core-d049573bc16596f9.core.5587a85061e7188a-cgu.0.rcgu.o)
                0x000000000011b3ec                core::slice::<impl [T]>::copy_from_slice::len_mismatch_fail
 .text._ZN4core5slice29_$LT$impl$u20$$u5b$T$u5d$$GT$16align_to_offsets3gcd17h9ccf75cedf78b32bE
                0x000000000011b404       0x38 ./gen/../tr_api_dispatch/target/armv7a-none-eabi/release/libitron.a(core-d049573bc16596f9.core.5587a85061e7188a-cgu.0.rcgu.o)
                0x000000000011b404                core::slice::<impl [T]>::align_to_offsets::gcd
 .text._ZN71_$LT$core..slice..GetDisjointMutError$u20$as$u20$core..fmt..Display$GT$3fmt17h67ba63dcac76d19cE
                0x000000000011b43c       0x48 ./gen/../tr_api_dispatch/target/armv7a-none-eabi/release/libitron.a(core-d049573bc16596f9.core.5587a85061e7188a-cgu.0.rcgu.o)
                0x000000000011b43c                <core::slice::GetDisjointMutError as core::fmt::Display>::fmt
 .text._ZN4core3str8converts9from_utf817h69ed1439eba52b92E
                0x000000000011b484      0x260 ./gen/../tr_api_dispatch/target/armv7a-none-eabi/release/libitron.a(core-d049573bc16596f9.core.5587a85061e7188a-cgu.0.rcgu.o)
                0x000000000011b484                core::str::converts::from_utf8
 .text._ZN4core3str8converts13from_utf8_mut17h4e3a295159d63a91E
                0x000000000011b6e4      0x260 ./gen/../tr_api_dispatch/target/armv7a-none-eabi/release/libitron.a(core-d049573bc16596f9.core.5587a85061e7188a-cgu.0.rcgu.o)
                0x000000000011b6e4                core::str::converts::from_utf8_mut
 .text._ZN4core3str5count14do_count_chars17h9cffd9e3dec45553E
                0x000000000011b944      0x240 ./gen/../tr_api_dispatch/target/armv7a-none-eabi/release/libitron.a(core-d049573bc16596f9.core.5587a85061e7188a-cgu.0.rcgu.o)
                0x000000000011b944                core::str::count::do_count_chars
 .text._ZN4core3str5count23char_count_general_case17h4d4c6ce16c4d1906E
                0x000000000011bb84       0x34 ./gen/../tr_api_dispatch/target/armv7a-none-eabi/release/libitron.a(core-d049573bc16596f9.core.5587a85061e7188a-cgu.0.rcgu.o)
                0x000000000011bb84                core::str::count::char_count_general_case
 .text._ZN66_$LT$core..str..error..Utf8Error$u20$as$u20$core..fmt..Display$GT$3fmt17h291d6cbe57b75336E
                0x000000000011bbb8       0xb8 ./gen/../tr_api_dispatch/target/armv7a-none-eabi/release/libitron.a(core-d049573bc16596f9.core.5587a85061e7188a-cgu.0.rcgu.o)
                0x000000000011bbb8                <core::str::error::Utf8Error as core::fmt::Display>::fmt
 .text._ZN71_$LT$core..str..error..ParseBoolError$u20$as$u20$core..fmt..Display$GT$3fmt17h8ff3dff7cf95e9f3E
                0x000000000011bc70       0x20 ./gen/../tr_api_dispatch/target/armv7a-none-eabi/release/libitron.a(core-d049573bc16596f9.core.5587a85061e7188a-cgu.0.rcgu.o)
                0x000000000011bc70                <core::str::error::ParseBoolError as core::fmt::Display>::fmt
 .text._ZN59_$LT$core..str..iter..Chars$u20$as$u20$core..fmt..Debug$GT$3fmt17hc296714f5aca8f63E
                0x000000000011bc90      0x720 ./gen/../tr_api_dispatch/target/armv7a-none-eabi/release/libitron.a(core-d049573bc16596f9.core.5587a85061e7188a-cgu.0.rcgu.o)
                0x000000000011bc90                <core::str::iter::Chars as core::fmt::Debug>::fmt
 .text._ZN65_$LT$core..str..iter..EncodeUtf16$u20$as$u20$core..fmt..Debug$GT$3fmt17h470f6ac5da350b32E
                0x000000000011c3b0       0x54 ./gen/../tr_api_dispatch/target/armv7a-none-eabi/release/libitron.a(core-d049573bc16596f9.core.5587a85061e7188a-cgu.0.rcgu.o)
                0x000000000011c3b0                <core::str::iter::EncodeUtf16 as core::fmt::Debug>::fmt
 .text.unlikely._ZN4core3str6traits23str_index_overflow_fail17h8bf11899d5e405f7E
                0x000000000011c404       0x40 ./gen/../tr_api_dispatch/target/armv7a-none-eabi/release/libitron.a(core-d049573bc16596f9.core.5587a85061e7188a-cgu.0.rcgu.o)
                0x000000000011c404                core::str::traits::str_index_overflow_fail
 .text._ZN4core3str7pattern11StrSearcher3new17h9540c37606476449E
                0x000000000011c444      0x4a4 ./gen/../tr_api_dispatch/target/armv7a-none-eabi/release/libitron.a(core-d049573bc16596f9.core.5587a85061e7188a-cgu.0.rcgu.o)
                0x000000000011c444                core::str::pattern::StrSearcher::new
 .text._ZN60_$LT$core..str..lossy..Debug$u20$as$u20$core..fmt..Debug$GT$3fmt17h8e77771fab7a2f70E
                0x000000000011c8e8      0x430 ./gen/../tr_api_dispatch/target/armv7a-none-eabi/release/libitron.a(core-d049573bc16596f9.core.5587a85061e7188a-cgu.0.rcgu.o)
                0x000000000011c8e8                <core::str::lossy::Debug as core::fmt::Debug>::fmt
 .text._ZN87_$LT$core..str..lossy..Utf8Chunks$u20$as$u20$core..iter..traits..iterator..Iterator$GT$4next17he7d6cc4011e7786bE
                0x000000000011cd18      0x1e0 ./gen/../tr_api_dispatch/target/armv7a-none-eabi/release/libitron.a(core-d049573bc16596f9.core.5587a85061e7188a-cgu.0.rcgu.o)
                0x000000000011cd18                <core::str::lossy::Utf8Chunks as core::iter::traits::iterator::Iterator>::next
 .text._ZN65_$LT$core..str..lossy..Utf8Chunks$u20$as$u20$core..fmt..Debug$GT$3fmt17h9c45e8ae8211e985E
                0x000000000011cef8       0xe8 ./gen/../tr_api_dispatch/target/armv7a-none-eabi/release/libitron.a(core-d049573bc16596f9.core.5587a85061e7188a-cgu.0.rcgu.o)
                0x000000000011cef8                <core::str::lossy::Utf8Chunks as core::fmt::Debug>::fmt
 .text.unlikely._ZN4core3str16slice_error_fail17h4d59bc1e755bbe4fE
                0x000000000011cfe0       0x18 ./gen/../tr_api_dispatch/target/armv7a-none-eabi/release/libitron.a(core-d049573bc16596f9.core.5587a85061e7188a-cgu.0.rcgu.o)
                0x000000000011cfe0                core::str::slice_error_fail
 .text.unlikely._ZN4core3str19slice_error_fail_ct17hb73804428b3ba7caE
                0x000000000011cff8       0x40 ./gen/../tr_api_dispatch/target/armv7a-none-eabi/release/libitron.a(core-d049573bc16596f9.core.5587a85061e7188a-cgu.0.rcgu.o)
                0x000000000011cff8                core::str::slice_error_fail_ct
 .text._ZN4core3str19slice_error_fail_rt17h7b2b73d8d28473e0E
                0x000000000011d038      0x3d4 ./gen/../tr_api_dispatch/target/armv7a-none-eabi/release/libitron.a(core-d049573bc16596f9.core.5587a85061e7188a-cgu.0.rcgu.o)
                0x000000000011d038                core::str::slice_error_fail_rt
 .text._ZN4core3str21_$LT$impl$u20$str$GT$9from_utf817h9c50c6b49793a8caE
                0x000000000011d40c       0x10 ./gen/../tr_api_dispatch/target/armv7a-none-eabi/release/libitron.a(core-d049573bc16596f9.core.5587a85061e7188a-cgu.0.rcgu.o)
                0x000000000011d40c                core::str::<impl str>::from_utf8
 .text._ZN4core3str21_$LT$impl$u20$str$GT$13from_utf8_mut17hf789198352a0c0d6E
                0x000000000011d41c       0x10 ./gen/../tr_api_dispatch/target/armv7a-none-eabi/release/libitron.a(core-d049573bc16596f9.core.5587a85061e7188a-cgu.0.rcgu.o)
                0x000000000011d41c                core::str::<impl str>::from_utf8_mut
 .text._ZN4core3str21_$LT$impl$u20$str$GT$18split_at_unchecked17h522070e8531a247cE
                0x000000000011d42c       0x20 ./gen/../tr_api_dispatch/target/armv7a-none-eabi/release/libitron.a(core-d049573bc16596f9.core.5587a85061e7188a-cgu.0.rcgu.o)
                0x000000000011d42c                core::str::<impl str>::split_at_unchecked
 .text._ZN4core3str21_$LT$impl$u20$str$GT$22split_at_mut_unchecked17h188b8cf0a61e80b3E
                0x000000000011d44c       0x20 ./gen/../tr_api_dispatch/target/armv7a-none-eabi/release/libitron.a(core-d049573bc16596f9.core.5587a85061e7188a-cgu.0.rcgu.o)
                0x000000000011d44c                core::str::<impl str>::split_at_mut_unchecked
 .text._ZN4core3str21_$LT$impl$u20$str$GT$12escape_debug17h4c843b37cf90aab8E
                0x000000000011d46c      0x13c ./gen/../tr_api_dispatch/target/armv7a-none-eabi/release/libitron.a(core-d049573bc16596f9.core.5587a85061e7188a-cgu.0.rcgu.o)
                0x000000000011d46c                core::str::<impl str>::escape_debug
 .text._ZN4core3str21_$LT$impl$u20$str$GT$12substr_range17ha623b8a5a8d1bca1E
                0x000000000011d5a8       0x30 ./gen/../tr_api_dispatch/target/armv7a-none-eabi/release/libitron.a(core-d049573bc16596f9.core.5587a85061e7188a-cgu.0.rcgu.o)
                0x000000000011d5a8                core::str::<impl str>::substr_range
 .text._ZN57_$LT$core..time..Duration$u20$as$u20$core..fmt..Debug$GT$3fmt17hcd9ec431bc2fce92E
                0x000000000011d5d8      0x160 ./gen/../tr_api_dispatch/target/armv7a-none-eabi/release/libitron.a(core-d049573bc16596f9.core.5587a85061e7188a-cgu.0.rcgu.o)
                0x000000000011d5d8                <core::time::Duration as core::fmt::Debug>::fmt
 .text._ZN57_$LT$core..time..Duration$u20$as$u20$core..fmt..Debug$GT$3fmt11fmt_decimal17h7fdaad1885d942cdE
                0x000000000011d738      0x730 ./gen/../tr_api_dispatch/target/armv7a-none-eabi/release/libitron.a(core-d049573bc16596f9.core.5587a85061e7188a-cgu.0.rcgu.o)
 .text._ZN57_$LT$core..time..Duration$u20$as$u20$core..fmt..Debug$GT$3fmt11fmt_decimal28_$u7b$$u7b$closure$u7d$$u7d$17hbee2c0b3604668e7E
                0x000000000011de68      0x260 ./gen/../tr_api_dispatch/target/armv7a-none-eabi/release/libitron.a(core-d049573bc16596f9.core.5587a85061e7188a-cgu.0.rcgu.o)
 .text._ZN72_$LT$core..time..TryFromFloatSecsError$u20$as$u20$core..fmt..Display$GT$3fmt17hbbacbc01f2a2ba20E
                0x000000000011e0c8       0x48 ./gen/../tr_api_dispatch/target/armv7a-none-eabi/release/libitron.a(core-d049573bc16596f9.core.5587a85061e7188a-cgu.0.rcgu.o)
                0x000000000011e0c8                <core::time::TryFromFloatSecsError as core::fmt::Display>::fmt
 .text._ZN4core7unicode9printable5check17hc9e6c3ef98e586f8E
                0x000000000011e110      0x124 ./gen/../tr_api_dispatch/target/armv7a-none-eabi/release/libitron.a(core-d049573bc16596f9.core.5587a85061e7188a-cgu.0.rcgu.o)
 .text._ZN4core7unicode9printable12is_printable17he99174ef5bcc9597E
                0x000000000011e234      0x1c0 ./gen/../tr_api_dispatch/target/armv7a-none-eabi/release/libitron.a(core-d049573bc16596f9.core.5587a85061e7188a-cgu.0.rcgu.o)
                0x000000000011e234                core::unicode::printable::is_printable
 .text._ZN62_$LT$core..task..wake..Context$u20$as$u20$core..fmt..Debug$GT$3fmt17h2b9656f805ec1368E
                0x000000000011e3f4       0xdc ./gen/../tr_api_dispatch/target/armv7a-none-eabi/release/libitron.a(core-d049573bc16596f9.core.5587a85061e7188a-cgu.0.rcgu.o)
                0x000000000011e3f4                <core::task::wake::Context as core::fmt::Debug>::fmt
 .text._ZN60_$LT$core..task..wake..Waker$u20$as$u20$core..fmt..Debug$GT$3fmt17h961c0fb15e9f08e6E
                0x000000000011e4d0      0x104 ./gen/../tr_api_dispatch/target/armv7a-none-eabi/release/libitron.a(core-d049573bc16596f9.core.5587a85061e7188a-cgu.0.rcgu.o)
                0x000000000011e4d0                <core::task::wake::Waker as core::fmt::Debug>::fmt
 .text._ZN65_$LT$core..task..wake..LocalWaker$u20$as$u20$core..fmt..Debug$GT$3fmt17h9f8823dc3c851087E
                0x000000000011e5d4      0x104 ./gen/../tr_api_dispatch/target/armv7a-none-eabi/release/libitron.a(core-d049573bc16596f9.core.5587a85061e7188a-cgu.0.rcgu.o)
                0x000000000011e5d4                <core::task::wake::LocalWaker as core::fmt::Debug>::fmt
 .text._ZN4core5alloc6layout6Layout19is_size_align_valid17hf9c352be39c461d0E
                0x000000000011e6d8       0x34 ./gen/../tr_api_dispatch/target/armv7a-none-eabi/release/libitron.a(core-d049573bc16596f9.core.5587a85061e7188a-cgu.0.rcgu.o)
                0x000000000011e6d8                core::alloc::layout::Layout::is_size_align_valid
 .text._ZN71_$LT$core..alloc..layout..LayoutError$u20$as$u20$core..fmt..Display$GT$3fmt17hdfc7ce4964ee7964E
                0x000000000011e70c       0x24 ./gen/../tr_api_dispatch/target/armv7a-none-eabi/release/libitron.a(core-d049573bc16596f9.core.5587a85061e7188a-cgu.0.rcgu.o)
                0x000000000011e70c                <core::alloc::layout::LayoutError as core::fmt::Display>::fmt
 .text._ZN62_$LT$core..alloc..AllocError$u20$as$u20$core..fmt..Display$GT$3fmt17h096a3621f7a659a9E
                0x000000000011e730       0x24 ./gen/../tr_api_dispatch/target/armv7a-none-eabi/release/libitron.a(core-d049573bc16596f9.core.5587a85061e7188a-cgu.0.rcgu.o)
                0x000000000011e730                <core::alloc::AllocError as core::fmt::Display>::fmt
 .text.unlikely._ZN4core3f3221_$LT$impl$u20$f32$GT$5clamp8do_panic7runtime17hd78a99da53448aa4E
                0x000000000011e754       0x64 ./gen/../tr_api_dispatch/target/armv7a-none-eabi/release/libitron.a(core-d049573bc16596f9.core.5587a85061e7188a-cgu.0.rcgu.o)
                0x000000000011e754                core::f32::<impl f32>::clamp::do_panic::runtime
 .text.unlikely._ZN4core3f6421_$LT$impl$u20$f64$GT$5clamp8do_panic7runtime17h70e260bb90954182E
                0x000000000011e7b8       0x64 ./gen/../tr_api_dispatch/target/armv7a-none-eabi/release/libitron.a(core-d049573bc16596f9.core.5587a85061e7188a-cgu.0.rcgu.o)
                0x000000000011e7b8                core::f64::<impl f64>::clamp::do_panic::runtime
 .text._ZN49_$LT$u8$u20$as$u20$core..num..bignum..FullOps$GT$12full_div_rem17h2cc384f2d3e77a4fE
                0x000000000011e81c       0x3c ./gen/../tr_api_dispatch/target/armv7a-none-eabi/release/libitron.a(core-d049573bc16596f9.core.5587a85061e7188a-cgu.0.rcgu.o)
                0x000000000011e81c                <u8 as core::num::bignum::FullOps>::full_div_rem
 .text._ZN50_$LT$u16$u20$as$u20$core..num..bignum..FullOps$GT$12full_div_rem17h895795127941bc5fE
                0x000000000011e858       0x3c ./gen/../tr_api_dispatch/target/armv7a-none-eabi/release/libitron.a(core-d049573bc16596f9.core.5587a85061e7188a-cgu.0.rcgu.o)
                0x000000000011e858                <u16 as core::num::bignum::FullOps>::full_div_rem
 .text._ZN50_$LT$u32$u20$as$u20$core..num..bignum..FullOps$GT$12full_div_rem17h28797f3a608675a0E
                0x000000000011e894       0x3c ./gen/../tr_api_dispatch/target/armv7a-none-eabi/release/libitron.a(core-d049573bc16596f9.core.5587a85061e7188a-cgu.0.rcgu.o)
                0x000000000011e894                <u32 as core::num::bignum::FullOps>::full_div_rem
 .text._ZN4core3num6bignum8Big32x408from_u6417hdb3b6b903cdc3a74E
                0x000000000011e8d0       0x48 ./gen/../tr_api_dispatch/target/armv7a-none-eabi/release/libitron.a(core-d049573bc16596f9.core.5587a85061e7188a-cgu.0.rcgu.o)
                0x000000000011e8d0                core::num::bignum::Big32x40::from_u64
 .text._ZN4core3num6bignum8Big32x406digits17hc74a7300cf748785E
                0x000000000011e918       0x28 ./gen/../tr_api_dispatch/target/armv7a-none-eabi/release/libitron.a(core-d049573bc16596f9.core.5587a85061e7188a-cgu.0.rcgu.o)
                0x000000000011e918                core::num::bignum::Big32x40::digits
 .text._ZN4core3num6bignum8Big32x407get_bit17hae59a386b0269424E
                0x000000000011e940       0x3c ./gen/../tr_api_dispatch/target/armv7a-none-eabi/release/libitron.a(core-d049573bc16596f9.core.5587a85061e7188a-cgu.0.rcgu.o)
                0x000000000011e940                core::num::bignum::Big32x40::get_bit
 .text._ZN4core3num6bignum8Big32x407is_zero17h00d7531c94d29d9dE
                0x000000000011e97c       0x54 ./gen/../tr_api_dispatch/target/armv7a-none-eabi/release/libitron.a(core-d049573bc16596f9.core.5587a85061e7188a-cgu.0.rcgu.o)
                0x000000000011e97c                core::num::bignum::Big32x40::is_zero
 .text._ZN4core3num6bignum8Big32x4010bit_length17h970dea92bc07a054E
                0x000000000011e9d0       0x88 ./gen/../tr_api_dispatch/target/armv7a-none-eabi/release/libitron.a(core-d049573bc16596f9.core.5587a85061e7188a-cgu.0.rcgu.o)
                0x000000000011e9d0                core::num::bignum::Big32x40::bit_length
 .text._ZN4core3num6bignum8Big32x403add17hf98911729d873c67E
                0x000000000011ea58       0xbc ./gen/../tr_api_dispatch/target/armv7a-none-eabi/release/libitron.a(core-d049573bc16596f9.core.5587a85061e7188a-cgu.0.rcgu.o)
                0x000000000011ea58                core::num::bignum::Big32x40::add
 .text._ZN4core3num6bignum8Big32x409add_small17hae56cb6d24b5dd80E
                0x000000000011eb14      0x34c ./gen/../tr_api_dispatch/target/armv7a-none-eabi/release/libitron.a(core-d049573bc16596f9.core.5587a85061e7188a-cgu.0.rcgu.o)
                0x000000000011eb14                core::num::bignum::Big32x40::add_small
 .text._ZN4core3num6bignum8Big32x403sub17h8543d30192c621ccE
                0x000000000011ee60       0xa0 ./gen/../tr_api_dispatch/target/armv7a-none-eabi/release/libitron.a(core-d049573bc16596f9.core.5587a85061e7188a-cgu.0.rcgu.o)
                0x000000000011ee60                core::num::bignum::Big32x40::sub
 .text._ZN4core3num6bignum8Big32x409mul_small17h34ad2799e68baebeE
                0x000000000011ef00       0xa0 ./gen/../tr_api_dispatch/target/armv7a-none-eabi/release/libitron.a(core-d049573bc16596f9.core.5587a85061e7188a-cgu.0.rcgu.o)
                0x000000000011ef00                core::num::bignum::Big32x40::mul_small
 .text._ZN4core3num6bignum8Big32x408mul_pow217h15e29a86c60dd6baE
                0x000000000011efa0      0x314 ./gen/../tr_api_dispatch/target/armv7a-none-eabi/release/libitron.a(core-d049573bc16596f9.core.5587a85061e7188a-cgu.0.rcgu.o)
                0x000000000011efa0                core::num::bignum::Big32x40::mul_pow2
 .text._ZN4core3num6bignum8Big32x408mul_pow517h4477c92c4a717ba9E
                0x000000000011f2b4      0x130 ./gen/../tr_api_dispatch/target/armv7a-none-eabi/release/libitron.a(core-d049573bc16596f9.core.5587a85061e7188a-cgu.0.rcgu.o)
                0x000000000011f2b4                core::num::bignum::Big32x40::mul_pow5
 .text._ZN4core3num6bignum8Big32x4010mul_digits17hc6f1ffa637e3696eE
                0x000000000011f3e4      0x2f0 ./gen/../tr_api_dispatch/target/armv7a-none-eabi/release/libitron.a(core-d049573bc16596f9.core.5587a85061e7188a-cgu.0.rcgu.o)
                0x000000000011f3e4                core::num::bignum::Big32x40::mul_digits
 .text._ZN4core3num6bignum8Big32x4013div_rem_small17hddc1707b10a22fddE
                0x000000000011f6d4       0x98 ./gen/../tr_api_dispatch/target/armv7a-none-eabi/release/libitron.a(core-d049573bc16596f9.core.5587a85061e7188a-cgu.0.rcgu.o)
                0x000000000011f6d4                core::num::bignum::Big32x40::div_rem_small
 .text._ZN4core3num6bignum8Big32x407div_rem17h0bf0c17f8e59470eE
                0x000000000011f76c      0x294 ./gen/../tr_api_dispatch/target/armv7a-none-eabi/release/libitron.a(core-d049573bc16596f9.core.5587a85061e7188a-cgu.0.rcgu.o)
                0x000000000011f76c                core::num::bignum::Big32x40::div_rem
 .text._ZN68_$LT$core..num..bignum..Big32x40$u20$as$u20$core..cmp..PartialEq$GT$2eq17h2b3b2b69262323daE
                0x000000000011fa00       0x1c ./gen/../tr_api_dispatch/target/armv7a-none-eabi/release/libitron.a(core-d049573bc16596f9.core.5587a85061e7188a-cgu.0.rcgu.o)
                0x000000000011fa00                <core::num::bignum::Big32x40 as core::cmp::PartialEq>::eq
 .text._ZN69_$LT$core..num..bignum..Big32x40$u20$as$u20$core..cmp..PartialOrd$GT$11partial_cmp17hfaa047bbd7529c6dE
                0x000000000011fa1c       0x80 ./gen/../tr_api_dispatch/target/armv7a-none-eabi/release/libitron.a(core-d049573bc16596f9.core.5587a85061e7188a-cgu.0.rcgu.o)
                0x000000000011fa1c                <core::num::bignum::Big32x40 as core::cmp::PartialOrd>::partial_cmp
 .text._ZN62_$LT$core..num..bignum..Big32x40$u20$as$u20$core..cmp..Ord$GT$3cmp17h3a927d79b9dd52acE
                0x000000000011fa9c       0x80 ./gen/../tr_api_dispatch/target/armv7a-none-eabi/release/libitron.a(core-d049573bc16596f9.core.5587a85061e7188a-cgu.0.rcgu.o)
                0x000000000011fa9c                <core::num::bignum::Big32x40 as core::cmp::Ord>::cmp
 .text._ZN64_$LT$core..num..bignum..Big32x40$u20$as$u20$core..fmt..Debug$GT$3fmt17hc2049124d32db79eE
                0x000000000011fb1c      0x154 ./gen/../tr_api_dispatch/target/armv7a-none-eabi/release/libitron.a(core-d049573bc16596f9.core.5587a85061e7188a-cgu.0.rcgu.o)
                0x000000000011fb1c                <core::num::bignum::Big32x40 as core::fmt::Debug>::fmt
 .text._ZN4core3num6bignum5tests6Big8x38from_u6417hd68b6d9a5152475dE
                0x000000000011fc70       0x98 ./gen/../tr_api_dispatch/target/armv7a-none-eabi/release/libitron.a(core-d049573bc16596f9.core.5587a85061e7188a-cgu.0.rcgu.o)
                0x000000000011fc70                core::num::bignum::tests::Big8x3::from_u64
 .text._ZN4core3num6bignum5tests6Big8x36digits17he3519563a60c1407E
                0x000000000011fd08       0x2c ./gen/../tr_api_dispatch/target/armv7a-none-eabi/release/libitron.a(core-d049573bc16596f9.core.5587a85061e7188a-cgu.0.rcgu.o)
                0x000000000011fd08                core::num::bignum::tests::Big8x3::digits
 .text._ZN4core3num6bignum5tests6Big8x37get_bit17h3c0e105d94bd5b13E
                0x000000000011fd34       0x3c ./gen/../tr_api_dispatch/target/armv7a-none-eabi/release/libitron.a(core-d049573bc16596f9.core.5587a85061e7188a-cgu.0.rcgu.o)
                0x000000000011fd34                core::num::bignum::tests::Big8x3::get_bit
 .text._ZN4core3num6bignum5tests6Big8x37is_zero17h32e72f5d7dbb5adbE
                0x000000000011fd70       0x90 ./gen/../tr_api_dispatch/target/armv7a-none-eabi/release/libitron.a(core-d049573bc16596f9.core.5587a85061e7188a-cgu.0.rcgu.o)
                0x000000000011fd70                core::num::bignum::tests::Big8x3::is_zero
 .text._ZN4core3num6bignum5tests6Big8x310bit_length17h83652b24f2592b66E
                0x000000000011fe00       0xd4 ./gen/../tr_api_dispatch/target/armv7a-none-eabi/release/libitron.a(core-d049573bc16596f9.core.5587a85061e7188a-cgu.0.rcgu.o)
                0x000000000011fe00                core::num::bignum::tests::Big8x3::bit_length
 .text._ZN4core3num6bignum5tests6Big8x33add17h0ea9b7b009d144c0E
                0x000000000011fed4       0xd4 ./gen/../tr_api_dispatch/target/armv7a-none-eabi/release/libitron.a(core-d049573bc16596f9.core.5587a85061e7188a-cgu.0.rcgu.o)
                0x000000000011fed4                core::num::bignum::tests::Big8x3::add
 .text._ZN4core3num6bignum5tests6Big8x39add_small17hfb578bb3ef3121e5E
                0x000000000011ffa8       0x80 ./gen/../tr_api_dispatch/target/armv7a-none-eabi/release/libitron.a(core-d049573bc16596f9.core.5587a85061e7188a-cgu.0.rcgu.o)
                0x000000000011ffa8                core::num::bignum::tests::Big8x3::add_small
 .text._ZN4core3num6bignum5tests6Big8x33sub17he7cc307db19dcf38E
                0x0000000000120028       0xb4 ./gen/../tr_api_dispatch/target/armv7a-none-eabi/release/libitron.a(core-d049573bc16596f9.core.5587a85061e7188a-cgu.0.rcgu.o)
                0x0000000000120028                core::num::bignum::tests::Big8x3::sub
 .text._ZN4core3num6bignum5tests6Big8x39mul_small17h88500d5dffbe03a5E
                0x00000000001200dc       0xc8 ./gen/../tr_api_dispatch/target/armv7a-none-eabi/release/libitron.a(core-d049573bc16596f9.core.5587a85061e7188a-cgu.0.rcgu.o)
                0x00000000001200dc                core::num::bignum::tests::Big8x3::mul_small
 .text._ZN4core3num6bignum5tests6Big8x38mul_pow217h7241f869c32bebc8E
                0x00000000001201a4      0x164 ./gen/../tr_api_dispatch/target/armv7a-none-eabi/release/libitron.a(core-d049573bc16596f9.core.5587a85061e7188a-cgu.0.rcgu.o)
                0x00000000001201a4                core::num::bignum::tests::Big8x3::mul_pow2
 .text._ZN4core3num6bignum5tests6Big8x38mul_pow517hbf8d1887a577d4b9E
                0x0000000000120308      0x174 ./gen/../tr_api_dispatch/target/armv7a-none-eabi/release/libitron.a(core-d049573bc16596f9.core.5587a85061e7188a-cgu.0.rcgu.o)
                0x0000000000120308                core::num::bignum::tests::Big8x3::mul_pow5
 .text._ZN4core3num6bignum5tests6Big8x310mul_digits17hc92e3128bf16df9bE
                0x000000000012047c      0x404 ./gen/../tr_api_dispatch/target/armv7a-none-eabi/release/libitron.a(core-d049573bc16596f9.core.5587a85061e7188a-cgu.0.rcgu.o)
                0x000000000012047c                core::num::bignum::tests::Big8x3::mul_digits
 .text._ZN4core3num6bignum5tests6Big8x313div_rem_small17h3d76b4dc7e13bdf9E
                0x0000000000120880       0xdc ./gen/../tr_api_dispatch/target/armv7a-none-eabi/release/libitron.a(core-d049573bc16596f9.core.5587a85061e7188a-cgu.0.rcgu.o)
                0x0000000000120880                core::num::bignum::tests::Big8x3::div_rem_small
 .text._ZN4core3num6bignum5tests6Big8x37div_rem17hd07a45cafecfa95dE
                0x000000000012095c      0x30c ./gen/../tr_api_dispatch/target/armv7a-none-eabi/release/libitron.a(core-d049573bc16596f9.core.5587a85061e7188a-cgu.0.rcgu.o)
                0x000000000012095c                core::num::bignum::tests::Big8x3::div_rem
 .text._ZN73_$LT$core..num..bignum..tests..Big8x3$u20$as$u20$core..cmp..PartialEq$GT$2eq17h2a5bec94bf0063b9E
                0x0000000000120c68       0x24 ./gen/../tr_api_dispatch/target/armv7a-none-eabi/release/libitron.a(core-d049573bc16596f9.core.5587a85061e7188a-cgu.0.rcgu.o)
                0x0000000000120c68                <core::num::bignum::tests::Big8x3 as core::cmp::PartialEq>::eq
 .text._ZN74_$LT$core..num..bignum..tests..Big8x3$u20$as$u20$core..cmp..PartialOrd$GT$11partial_cmp17h48d5846d2573a5e1E
                0x0000000000120c8c       0xbc ./gen/../tr_api_dispatch/target/armv7a-none-eabi/release/libitron.a(core-d049573bc16596f9.core.5587a85061e7188a-cgu.0.rcgu.o)
                0x0000000000120c8c                <core::num::bignum::tests::Big8x3 as core::cmp::PartialOrd>::partial_cmp
 .text._ZN67_$LT$core..num..bignum..tests..Big8x3$u20$as$u20$core..cmp..Ord$GT$3cmp17h8a7502baf7f3c9a5E
                0x0000000000120d48       0xbc ./gen/../tr_api_dispatch/target/armv7a-none-eabi/release/libitron.a(core-d049573bc16596f9.core.5587a85061e7188a-cgu.0.rcgu.o)
                0x0000000000120d48                <core::num::bignum::tests::Big8x3 as core::cmp::Ord>::cmp
 .text._ZN69_$LT$core..num..bignum..tests..Big8x3$u20$as$u20$core..fmt..Debug$GT$3fmt17hf9300f71b8428542E
                0x0000000000120e04      0x13c ./gen/../tr_api_dispatch/target/armv7a-none-eabi/release/libitron.a(core-d049573bc16596f9.core.5587a85061e7188a-cgu.0.rcgu.o)
                0x0000000000120e04                <core::num::bignum::tests::Big8x3 as core::fmt::Debug>::fmt
 .text._ZN4core3num7dec2flt60_$LT$impl$u20$core..str..traits..FromStr$u20$for$u20$f16$GT$8from_str17h0d34f16cb03d4084E
                0x0000000000120f40      0x638 ./gen/../tr_api_dispatch/target/armv7a-none-eabi/release/libitron.a(core-d049573bc16596f9.core.5587a85061e7188a-cgu.0.rcgu.o)
                0x0000000000120f40                core::num::dec2flt::<impl core::str::traits::FromStr for f16>::from_str
 .text._ZN4core3num7dec2flt60_$LT$impl$u20$core..str..traits..FromStr$u20$for$u20$f32$GT$8from_str17haab41bb9ce3e1e69E
                0x0000000000121578      0x608 ./gen/../tr_api_dispatch/target/armv7a-none-eabi/release/libitron.a(core-d049573bc16596f9.core.5587a85061e7188a-cgu.0.rcgu.o)
                0x0000000000121578                core::num::dec2flt::<impl core::str::traits::FromStr for f32>::from_str
 .text._ZN4core3num7dec2flt60_$LT$impl$u20$core..str..traits..FromStr$u20$for$u20$f64$GT$8from_str17h9934b968a57533b4E
                0x0000000000121b80      0x668 ./gen/../tr_api_dispatch/target/armv7a-none-eabi/release/libitron.a(core-d049573bc16596f9.core.5587a85061e7188a-cgu.0.rcgu.o)
                0x0000000000121b80                core::num::dec2flt::<impl core::str::traits::FromStr for f64>::from_str
 .text._ZN73_$LT$core..num..nonzero..NonZero$LT$T$GT$$u20$as$u20$core..fmt..Debug$GT$3fmt17hfee7ea0a19225bacE
                0x00000000001221e8       0xc0 ./gen/../tr_api_dispatch/target/armv7a-none-eabi/release/libitron.a(core-d049573bc16596f9.core.5587a85061e7188a-cgu.0.rcgu.o)
 .text._ZN84_$LT$core..num..nonzero..NonZero$LT$u8$GT$$u20$as$u20$core..str..traits..FromStr$GT$8from_str17ha566d71859ee37bcE
                0x00000000001222a8      0x148 ./gen/../tr_api_dispatch/target/armv7a-none-eabi/release/libitron.a(core-d049573bc16596f9.core.5587a85061e7188a-cgu.0.rcgu.o)
                0x00000000001222a8                <core::num::nonzero::NonZero<u8> as core::str::traits::FromStr>::from_str
 .text._ZN85_$LT$core..num..nonzero..NonZero$LT$u16$GT$$u20$as$u20$core..str..traits..FromStr$GT$8from_str17h22aefbcb4cc26c68E
                0x00000000001223f0      0x14c ./gen/../tr_api_dispatch/target/armv7a-none-eabi/release/libitron.a(core-d049573bc16596f9.core.5587a85061e7188a-cgu.0.rcgu.o)
                0x00000000001223f0                <core::num::nonzero::NonZero<u16> as core::str::traits::FromStr>::from_str
 .text._ZN85_$LT$core..num..nonzero..NonZero$LT$u32$GT$$u20$as$u20$core..str..traits..FromStr$GT$8from_str17h957fe3dbd5a241bcE
                0x000000000012253c      0x150 ./gen/../tr_api_dispatch/target/armv7a-none-eabi/release/libitron.a(core-d049573bc16596f9.core.5587a85061e7188a-cgu.0.rcgu.o)
                0x000000000012253c                <core::num::nonzero::NonZero<u32> as core::str::traits::FromStr>::from_str
 .text._ZN85_$LT$core..num..nonzero..NonZero$LT$u64$GT$$u20$as$u20$core..str..traits..FromStr$GT$8from_str17hb05b038cb220d66cE
                0x000000000012268c      0x158 ./gen/../tr_api_dispatch/target/armv7a-none-eabi/release/libitron.a(core-d049573bc16596f9.core.5587a85061e7188a-cgu.0.rcgu.o)
                0x000000000012268c                <core::num::nonzero::NonZero<u64> as core::str::traits::FromStr>::from_str
 .text._ZN86_$LT$core..num..nonzero..NonZero$LT$u128$GT$$u20$as$u20$core..str..traits..FromStr$GT$8from_str17hce0b07860262ce09E
                0x00000000001227e4      0x1c8 ./gen/../tr_api_dispatch/target/armv7a-none-eabi/release/libitron.a(core-d049573bc16596f9.core.5587a85061e7188a-cgu.0.rcgu.o)
                0x00000000001227e4                <core::num::nonzero::NonZero<u128> as core::str::traits::FromStr>::from_str
 .text._ZN87_$LT$core..num..nonzero..NonZero$LT$usize$GT$$u20$as$u20$core..str..traits..FromStr$GT$8from_str17h1733288da9636848E
                0x00000000001229ac      0x130 ./gen/../tr_api_dispatch/target/armv7a-none-eabi/release/libitron.a(core-d049573bc16596f9.core.5587a85061e7188a-cgu.0.rcgu.o)
                0x00000000001229ac                <core::num::nonzero::NonZero<usize> as core::str::traits::FromStr>::from_str
 .text._ZN84_$LT$core..num..nonzero..NonZero$LT$i8$GT$$u20$as$u20$core..str..traits..FromStr$GT$8from_str17hebe21d8ddaff9330E
                0x0000000000122adc      0x238 ./gen/../tr_api_dispatch/target/armv7a-none-eabi/release/libitron.a(core-d049573bc16596f9.core.5587a85061e7188a-cgu.0.rcgu.o)
                0x0000000000122adc                <core::num::nonzero::NonZero<i8> as core::str::traits::FromStr>::from_str
 .text._ZN85_$LT$core..num..nonzero..NonZero$LT$i16$GT$$u20$as$u20$core..str..traits..FromStr$GT$8from_str17h5460cf01298f7943E
                0x0000000000122d14      0x230 ./gen/../tr_api_dispatch/target/armv7a-none-eabi/release/libitron.a(core-d049573bc16596f9.core.5587a85061e7188a-cgu.0.rcgu.o)
                0x0000000000122d14                <core::num::nonzero::NonZero<i16> as core::str::traits::FromStr>::from_str
 .text._ZN85_$LT$core..num..nonzero..NonZero$LT$i32$GT$$u20$as$u20$core..str..traits..FromStr$GT$8from_str17h82302f5d78c06a81E
                0x0000000000122f44      0x1e4 ./gen/../tr_api_dispatch/target/armv7a-none-eabi/release/libitron.a(core-d049573bc16596f9.core.5587a85061e7188a-cgu.0.rcgu.o)
                0x0000000000122f44                <core::num::nonzero::NonZero<isize> as core::str::traits::FromStr>::from_str
                0x0000000000122f44                <core::num::nonzero::NonZero<i32> as core::str::traits::FromStr>::from_str
 .text._ZN85_$LT$core..num..nonzero..NonZero$LT$i64$GT$$u20$as$u20$core..str..traits..FromStr$GT$8from_str17hf63377f21a3fb6baE
                0x0000000000123128      0x240 ./gen/../tr_api_dispatch/target/armv7a-none-eabi/release/libitron.a(core-d049573bc16596f9.core.5587a85061e7188a-cgu.0.rcgu.o)
                0x0000000000123128                <core::num::nonzero::NonZero<i64> as core::str::traits::FromStr>::from_str
 .text._ZN86_$LT$core..num..nonzero..NonZero$LT$i128$GT$$u20$as$u20$core..str..traits..FromStr$GT$8from_str17h404bcfcc368805b5E
                0x0000000000123368      0x334 ./gen/../tr_api_dispatch/target/armv7a-none-eabi/release/libitron.a(core-d049573bc16596f9.core.5587a85061e7188a-cgu.0.rcgu.o)
                0x0000000000123368                <core::num::nonzero::NonZero<i128> as core::str::traits::FromStr>::from_str
 .text._ZN72_$LT$core..num..niche_types..Nanoseconds$u20$as$u20$core..fmt..Debug$GT$3fmt17h6df87c1b0e86c542E
                0x000000000012369c       0xc0 ./gen/../tr_api_dispatch/target/armv7a-none-eabi/release/libitron.a(core-d049573bc16596f9.core.5587a85061e7188a-cgu.0.rcgu.o)
                0x000000000012369c                <core::num::niche_types::Nanoseconds as core::fmt::Debug>::fmt
 .text._ZN75_$LT$core..num..niche_types..NonZeroU8Inner$u20$as$u20$core..fmt..Debug$GT$3fmt17h9934d86d94d3ba9dE
                0x000000000012375c       0x14 ./gen/../tr_api_dispatch/target/armv7a-none-eabi/release/libitron.a(core-d049573bc16596f9.core.5587a85061e7188a-cgu.0.rcgu.o)
                0x000000000012375c                <core::num::niche_types::NonZeroU8Inner as core::fmt::Debug>::fmt
 .text._ZN76_$LT$core..num..niche_types..NonZeroU16Inner$u20$as$u20$core..fmt..Debug$GT$3fmt17h1e0f277c7c9985fdE
                0x0000000000123770       0xc8 ./gen/../tr_api_dispatch/target/armv7a-none-eabi/release/libitron.a(core-d049573bc16596f9.core.5587a85061e7188a-cgu.0.rcgu.o)
                0x0000000000123770                <core::num::niche_types::NonZeroU16Inner as core::fmt::Debug>::fmt
 .text._ZN76_$LT$core..num..niche_types..NonZeroU32Inner$u20$as$u20$core..fmt..Debug$GT$3fmt17h4208945a1918bf76E
                0x0000000000123838       0xc0 ./gen/../tr_api_dispatch/target/armv7a-none-eabi/release/libitron.a(core-d049573bc16596f9.core.5587a85061e7188a-cgu.0.rcgu.o)
                0x0000000000123838                <core::num::niche_types::NonZeroUsizeInner as core::fmt::Debug>::fmt
                0x0000000000123838                <core::num::niche_types::NonZeroU32Inner as core::fmt::Debug>::fmt
 .text._ZN76_$LT$core..num..niche_types..NonZeroU64Inner$u20$as$u20$core..fmt..Debug$GT$3fmt17hcec75d0956b73778E
                0x00000000001238f8       0xe0 ./gen/../tr_api_dispatch/target/armv7a-none-eabi/release/libitron.a(core-d049573bc16596f9.core.5587a85061e7188a-cgu.0.rcgu.o)
                0x00000000001238f8                <core::num::niche_types::NonZeroU64Inner as core::fmt::Debug>::fmt
 .text._ZN77_$LT$core..num..niche_types..NonZeroU128Inner$u20$as$u20$core..fmt..Debug$GT$3fmt17h5bc8c49a87650843E
                0x00000000001239d8      0x154 ./gen/../tr_api_dispatch/target/armv7a-none-eabi/release/libitron.a(core-d049573bc16596f9.core.5587a85061e7188a-cgu.0.rcgu.o)
                0x00000000001239d8                <core::num::niche_types::NonZeroU128Inner as core::fmt::Debug>::fmt
 .text._ZN75_$LT$core..num..niche_types..NonZeroI8Inner$u20$as$u20$core..fmt..Debug$GT$3fmt17hc1ad68564dffd6e0E
                0x0000000000123b2c       0x14 ./gen/../tr_api_dispatch/target/armv7a-none-eabi/release/libitron.a(core-d049573bc16596f9.core.5587a85061e7188a-cgu.0.rcgu.o)
                0x0000000000123b2c                <core::num::niche_types::NonZeroI8Inner as core::fmt::Debug>::fmt
 .text._ZN76_$LT$core..num..niche_types..NonZeroI16Inner$u20$as$u20$core..fmt..Debug$GT$3fmt17h1bae456063d3b38aE
                0x0000000000123b40       0xc8 ./gen/../tr_api_dispatch/target/armv7a-none-eabi/release/libitron.a(core-d049573bc16596f9.core.5587a85061e7188a-cgu.0.rcgu.o)
                0x0000000000123b40                <core::num::niche_types::NonZeroI16Inner as core::fmt::Debug>::fmt
 .text._ZN76_$LT$core..num..niche_types..NonZeroI32Inner$u20$as$u20$core..fmt..Debug$GT$3fmt17h22fbf48f72b85284E
                0x0000000000123c08       0xc0 ./gen/../tr_api_dispatch/target/armv7a-none-eabi/release/libitron.a(core-d049573bc16596f9.core.5587a85061e7188a-cgu.0.rcgu.o)
                0x0000000000123c08                <core::num::niche_types::NonZeroIsizeInner as core::fmt::Debug>::fmt
                0x0000000000123c08                <core::num::niche_types::NonZeroI32Inner as core::fmt::Debug>::fmt
 .text._ZN76_$LT$core..num..niche_types..NonZeroI64Inner$u20$as$u20$core..fmt..Debug$GT$3fmt17h8bb2c468a465aac2E
                0x0000000000123cc8       0xe0 ./gen/../tr_api_dispatch/target/armv7a-none-eabi/release/libitron.a(core-d049573bc16596f9.core.5587a85061e7188a-cgu.0.rcgu.o)
                0x0000000000123cc8                <core::num::niche_types::NonZeroI64Inner as core::fmt::Debug>::fmt
 .text._ZN77_$LT$core..num..niche_types..NonZeroI128Inner$u20$as$u20$core..fmt..Debug$GT$3fmt17h7658577fe72d6a93E
                0x0000000000123da8      0x170 ./gen/../tr_api_dispatch/target/armv7a-none-eabi/release/libitron.a(core-d049573bc16596f9.core.5587a85061e7188a-cgu.0.rcgu.o)
                0x0000000000123da8                <core::num::niche_types::NonZeroI128Inner as core::fmt::Debug>::fmt
 .text._ZN75_$LT$core..num..niche_types..UsizeNoHighBit$u20$as$u20$core..fmt..Debug$GT$3fmt17h77e5bca56126e0b7E
                0x0000000000123f18       0xc0 ./gen/../tr_api_dispatch/target/armv7a-none-eabi/release/libitron.a(core-d049573bc16596f9.core.5587a85061e7188a-cgu.0.rcgu.o)
                0x0000000000123f18                <core::num::niche_types::UsizeNoHighBit as core::fmt::Debug>::fmt
 .text._ZN74_$LT$core..num..niche_types..U32NotAllOnes$u20$as$u20$core..fmt..Debug$GT$3fmt17hdae2b85bd7a76fa0E
                0x0000000000123fd8       0xc0 ./gen/../tr_api_dispatch/target/armv7a-none-eabi/release/libitron.a(core-d049573bc16596f9.core.5587a85061e7188a-cgu.0.rcgu.o)
                0x0000000000123fd8                <core::num::niche_types::U32NotAllOnes as core::fmt::Debug>::fmt
 .text._ZN74_$LT$core..num..niche_types..I32NotAllOnes$u20$as$u20$core..fmt..Debug$GT$3fmt17ha30c204f41712d0cE
                0x0000000000124098       0xc0 ./gen/../tr_api_dispatch/target/armv7a-none-eabi/release/libitron.a(core-d049573bc16596f9.core.5587a85061e7188a-cgu.0.rcgu.o)
                0x0000000000124098                <core::num::niche_types::I32NotAllOnes as core::fmt::Debug>::fmt
 .text._ZN74_$LT$core..num..niche_types..U64NotAllOnes$u20$as$u20$core..fmt..Debug$GT$3fmt17h9aae2314a6753889E
                0x0000000000124158       0xe0 ./gen/../tr_api_dispatch/target/armv7a-none-eabi/release/libitron.a(core-d049573bc16596f9.core.5587a85061e7188a-cgu.0.rcgu.o)
                0x0000000000124158                <core::num::niche_types::U64NotAllOnes as core::fmt::Debug>::fmt
 .text._ZN74_$LT$core..num..niche_types..I64NotAllOnes$u20$as$u20$core..fmt..Debug$GT$3fmt17hcd11c67aaecfa5cdE
                0x0000000000124238       0xe0 ./gen/../tr_api_dispatch/target/armv7a-none-eabi/release/libitron.a(core-d049573bc16596f9.core.5587a85061e7188a-cgu.0.rcgu.o)
                0x0000000000124238                <core::num::niche_types::I64NotAllOnes as core::fmt::Debug>::fmt
 .text.unlikely._ZN4core3num22from_ascii_radix_panic8do_panic7runtime17h20bf34c324abd015E
                0x0000000000124318       0x54 ./gen/../tr_api_dispatch/target/armv7a-none-eabi/release/libitron.a(core-d049573bc16596f9.core.5587a85061e7188a-cgu.0.rcgu.o)
                0x0000000000124318                core::num::from_ascii_radix_panic::do_panic::runtime
 .text.unlikely._ZN4core10intrinsics3mir11PtrMetadata19panic_cold_explicit17h38f2b2d764b9fcc9E
                0x000000000012436c        0xc ./gen/../tr_api_dispatch/target/armv7a-none-eabi/release/libitron.a(core-d049573bc16596f9.core.5587a85061e7188a-cgu.0.rcgu.o)
                0x000000000012436c                core::intrinsics::mir::__debuginfo::panic_cold_explicit
                0x000000000012436c                core::intrinsics::mir::CastPtrToPtr::panic_cold_explicit
                0x000000000012436c                core::intrinsics::mir::UnwindUnreachable::panic_cold_explicit
                0x000000000012436c                core::intrinsics::mir::ReturnTo::panic_cold_explicit
                0x000000000012436c                core::intrinsics::mir::UnwindResume::panic_cold_explicit
                0x000000000012436c                core::intrinsics::mir::Retag::panic_cold_explicit
                0x000000000012436c                core::intrinsics::mir::Unreachable::panic_cold_explicit
                0x000000000012436c                core::intrinsics::mir::Offset::panic_cold_explicit
                0x000000000012436c                core::intrinsics::mir::CastTransmute::panic_cold_explicit
                0x000000000012436c                core::intrinsics::mir::Checked::panic_cold_explicit
                0x000000000012436c                core::intrinsics::mir::Static::panic_cold_explicit
                0x000000000012436c                core::intrinsics::mir::TailCall::panic_cold_explicit
                0x000000000012436c                core::intrinsics::mir::Drop::panic_cold_explicit
                0x000000000012436c                core::intrinsics::mir::Variant::panic_cold_explicit
                0x000000000012436c                core::intrinsics::mir::CopyForDeref::panic_cold_explicit
                0x000000000012436c                core::intrinsics::mir::Discriminant::panic_cold_explicit
                0x000000000012436c                core::intrinsics::mir::Call::panic_cold_explicit
                0x000000000012436c                core::intrinsics::mir::UnwindCleanup::panic_cold_explicit
                0x000000000012436c                core::intrinsics::mir::UnwindTerminate::panic_cold_explicit
                0x000000000012436c                core::intrinsics::mir::Assume::panic_cold_explicit
                0x000000000012436c                core::intrinsics::mir::UnwindContinue::panic_cold_explicit
                0x000000000012436c                core::intrinsics::mir::SetDiscriminant::panic_cold_explicit
                0x000000000012436c                core::intrinsics::mir::StorageLive::panic_cold_explicit
                0x000000000012436c                core::intrinsics::mir::StaticMut::panic_cold_explicit
                0x000000000012436c                core::intrinsics::mir::Deinit::panic_cold_explicit
                0x000000000012436c                core::intrinsics::mir::PtrMetadata::panic_cold_explicit
                0x000000000012436c                core::intrinsics::mir::Return::panic_cold_explicit
                0x000000000012436c                core::intrinsics::mir::Len::panic_cold_explicit
                0x000000000012436c                core::intrinsics::mir::Goto::panic_cold_explicit
                0x000000000012436c                core::intrinsics::mir::StorageDead::panic_cold_explicit
                0x000000000012436c                core::intrinsics::mir::Field::panic_cold_explicit
                0x000000000012436c                core::intrinsics::mir::Move::panic_cold_explicit
                0x000000000012436c                core::intrinsics::mir::__internal_make_place::panic_cold_explicit
 .text._ZN85_$LT$core..marker..variance..PhantomCovariantLifetime$u20$as$u20$core..fmt..Debug$GT$3fmt17h092ab231f6840623E
                0x0000000000124378       0x24 ./gen/../tr_api_dispatch/target/armv7a-none-eabi/release/libitron.a(core-d049573bc16596f9.core.5587a85061e7188a-cgu.0.rcgu.o)
                0x0000000000124378                <core::marker::variance::PhantomCovariantLifetime as core::fmt::Debug>::fmt
 .text._ZN89_$LT$core..marker..variance..PhantomContravariantLifetime$u20$as$u20$core..fmt..Debug$GT$3fmt17hc36f606a10431dddE
                0x000000000012439c       0x24 ./gen/../tr_api_dispatch/target/armv7a-none-eabi/release/libitron.a(core-d049573bc16596f9.core.5587a85061e7188a-cgu.0.rcgu.o)
                0x000000000012439c                <core::marker::variance::PhantomContravariantLifetime as core::fmt::Debug>::fmt
 .text._ZN85_$LT$core..marker..variance..PhantomInvariantLifetime$u20$as$u20$core..fmt..Debug$GT$3fmt17h310726426d633410E
                0x00000000001243c0       0x24 ./gen/../tr_api_dispatch/target/armv7a-none-eabi/release/libitron.a(core-d049573bc16596f9.core.5587a85061e7188a-cgu.0.rcgu.o)
                0x00000000001243c0                <core::marker::variance::PhantomInvariantLifetime as core::fmt::Debug>::fmt
 .text.unlikely._ZN4core4char7methods15encode_utf8_raw8do_panic7runtime17h8d77bbd109129b2bE
                0x00000000001243e4       0x80 ./gen/../tr_api_dispatch/target/armv7a-none-eabi/release/libitron.a(core-d049573bc16596f9.core.5587a85061e7188a-cgu.0.rcgu.o)
                0x00000000001243e4                core::char::methods::encode_utf8_raw::do_panic::runtime
 .text.unlikely._ZN4core4char7methods16encode_utf16_raw8do_panic7runtime17h780c16f034ec0cfdE
                0x0000000000124464       0x80 ./gen/../tr_api_dispatch/target/armv7a-none-eabi/release/libitron.a(core-d049573bc16596f9.core.5587a85061e7188a-cgu.0.rcgu.o)
                0x0000000000124464                core::char::methods::encode_utf16_raw::do_panic::runtime
 .text._ZN82_$LT$core..char..ToLowercase$u20$as$u20$core..iter..traits..iterator..Iterator$GT$4next17hb1b5d710b70686acE
                0x00000000001244e4       0x28 ./gen/../tr_api_dispatch/target/armv7a-none-eabi/release/libitron.a(core-d049573bc16596f9.core.5587a85061e7188a-cgu.0.rcgu.o)
                0x00000000001244e4                <core::char::ToUppercase as core::iter::traits::iterator::Iterator>::next
                0x00000000001244e4                <core::char::ToLowercase as core::iter::traits::iterator::Iterator>::next
 .text._ZN82_$LT$core..char..ToLowercase$u20$as$u20$core..iter..traits..iterator..Iterator$GT$5count17h491b5e4cf6ec5bd0E
                0x000000000012450c       0x14 ./gen/../tr_api_dispatch/target/armv7a-none-eabi/release/libitron.a(core-d049573bc16596f9.core.5587a85061e7188a-cgu.0.rcgu.o)
                0x000000000012450c                <core::char::ToLowercase as core::iter::traits::iterator::Iterator>::count
                0x000000000012450c                <core::char::ToUppercase as core::iter::traits::iterator::Iterator>::count
 .text._ZN82_$LT$core..char..ToLowercase$u20$as$u20$core..iter..traits..iterator..Iterator$GT$4last17h2be1d7bd83ecbf83E
                0x0000000000124520       0x40 ./gen/../tr_api_dispatch/target/armv7a-none-eabi/release/libitron.a(core-d049573bc16596f9.core.5587a85061e7188a-cgu.0.rcgu.o)
                0x0000000000124520                <core::char::ToUppercase as core::iter::traits::iterator::Iterator>::last
                0x0000000000124520                <core::char::ToLowercase as core::iter::traits::iterator::Iterator>::last
 .text._ZN82_$LT$core..char..ToLowercase$u20$as$u20$core..iter..traits..iterator..Iterator$GT$10advance_by17h472a89f7f4a2644dE
                0x0000000000124560       0x28 ./gen/../tr_api_dispatch/target/armv7a-none-eabi/release/libitron.a(core-d049573bc16596f9.core.5587a85061e7188a-cgu.0.rcgu.o)
                0x0000000000124560                <core::char::ToLowercase as core::iter::traits::iterator::Iterator>::advance_by
                0x0000000000124560                <core::char::ToUppercase as core::iter::traits::iterator::Iterator>::advance_by
 .text._ZN82_$LT$core..char..ToLowercase$u20$as$u20$core..iter..traits..iterator..Iterator$GT$24__iterator_get_unchecked17h3837a4656c9589c7E
                0x0000000000124588       0x1c ./gen/../tr_api_dispatch/target/armv7a-none-eabi/release/libitron.a(core-d049573bc16596f9.core.5587a85061e7188a-cgu.0.rcgu.o)
                0x0000000000124588                <core::char::ToUppercase as core::iter::traits::iterator::Iterator>::__iterator_get_unchecked
                0x0000000000124588                <core::char::ToLowercase as core::iter::traits::iterator::Iterator>::__iterator_get_unchecked
 .text._ZN97_$LT$core..char..ToLowercase$u20$as$u20$core..iter..traits..double_ended..DoubleEndedIterator$GT$9next_back17h3de266f316e266adE
                0x00000000001245a4       0x2c ./gen/../tr_api_dispatch/target/armv7a-none-eabi/release/libitron.a(core-d049573bc16596f9.core.5587a85061e7188a-cgu.0.rcgu.o)
                0x00000000001245a4                <core::char::ToLowercase as core::iter::traits::double_ended::DoubleEndedIterator>::next_back
                0x00000000001245a4                <core::char::ToUppercase as core::iter::traits::double_ended::DoubleEndedIterator>::next_back
 .text._ZN97_$LT$core..char..ToLowercase$u20$as$u20$core..iter..traits..double_ended..DoubleEndedIterator$GT$15advance_back_by17h5316befd367a240aE
                0x00000000001245d0       0x28 ./gen/../tr_api_dispatch/target/armv7a-none-eabi/release/libitron.a(core-d049573bc16596f9.core.5587a85061e7188a-cgu.0.rcgu.o)
                0x00000000001245d0                <core::char::ToLowercase as core::iter::traits::double_ended::DoubleEndedIterator>::advance_back_by
                0x00000000001245d0                <core::char::ToUppercase as core::iter::traits::double_ended::DoubleEndedIterator>::advance_back_by
 .text._ZN62_$LT$core..char..ToLowercase$u20$as$u20$core..fmt..Display$GT$3fmt17hba63d2a00808b5c9E
                0x00000000001245f8       0xdc ./gen/../tr_api_dispatch/target/armv7a-none-eabi/release/libitron.a(core-d049573bc16596f9.core.5587a85061e7188a-cgu.0.rcgu.o)
                0x00000000001245f8                <core::char::ToLowercase as core::fmt::Display>::fmt
                0x00000000001245f8                <core::char::ToUppercase as core::fmt::Display>::fmt
 .text._ZN77_$LT$core..net..ip_addr..Ipv4Addr$u20$as$u20$core..ops..bit..BitAndAssign$GT$13bitand_assign17h4b36b47131fa5cc4E
                0x00000000001246d4       0x3c ./gen/../tr_api_dispatch/target/armv7a-none-eabi/release/libitron.a(core-d049573bc16596f9.core.5587a85061e7188a-cgu.0.rcgu.o)
                0x00000000001246d4                <core::net::ip_addr::Ipv4Addr as core::ops::bit::BitAndAssign>::bitand_assign
 .text._ZN117_$LT$core..net..ip_addr..Ipv4Addr$u20$as$u20$core..ops..bit..BitAndAssign$LT$$RF$core..net..ip_addr..Ipv4Addr$GT$$GT$13bitand_assign17h0229d9be4c328c70E
                0x0000000000124710       0x4c ./gen/../tr_api_dispatch/target/armv7a-none-eabi/release/libitron.a(core-d049573bc16596f9.core.5587a85061e7188a-cgu.0.rcgu.o)
                0x0000000000124710                <core::net::ip_addr::Ipv4Addr as core::ops::bit::BitAndAssign<&core::net::ip_addr::Ipv4Addr>>::bitand_assign
 .text._ZN76_$LT$core..net..ip_addr..Ipv4Addr$u20$as$u20$core..ops..bit..BitOrAssign$GT$12bitor_assign17h5dbcc27e1bc263c6E
                0x000000000012475c       0x3c ./gen/../tr_api_dispatch/target/armv7a-none-eabi/release/libitron.a(core-d049573bc16596f9.core.5587a85061e7188a-cgu.0.rcgu.o)
                0x000000000012475c                <core::net::ip_addr::Ipv4Addr as core::ops::bit::BitOrAssign>::bitor_assign
 .text._ZN116_$LT$core..net..ip_addr..Ipv4Addr$u20$as$u20$core..ops..bit..BitOrAssign$LT$$RF$core..net..ip_addr..Ipv4Addr$GT$$GT$12bitor_assign17h44764761fe65c596E
                0x0000000000124798       0x4c ./gen/../tr_api_dispatch/target/armv7a-none-eabi/release/libitron.a(core-d049573bc16596f9.core.5587a85061e7188a-cgu.0.rcgu.o)
                0x0000000000124798                <core::net::ip_addr::Ipv4Addr as core::ops::bit::BitOrAssign<&core::net::ip_addr::Ipv4Addr>>::bitor_assign
 .text._ZN77_$LT$core..net..ip_addr..Ipv6Addr$u20$as$u20$core..ops..bit..BitAndAssign$GT$13bitand_assign17hdf1001071943e21cE
                0x00000000001247e4      0x14c ./gen/../tr_api_dispatch/target/armv7a-none-eabi/release/libitron.a(core-d049573bc16596f9.core.5587a85061e7188a-cgu.0.rcgu.o)
                0x00000000001247e4                <core::net::ip_addr::Ipv6Addr as core::ops::bit::BitAndAssign>::bitand_assign
 .text._ZN117_$LT$core..net..ip_addr..Ipv6Addr$u20$as$u20$core..ops..bit..BitAndAssign$LT$$RF$core..net..ip_addr..Ipv6Addr$GT$$GT$13bitand_assign17hecc377bff21d2c6fE
                0x0000000000124930      0x14c ./gen/../tr_api_dispatch/target/armv7a-none-eabi/release/libitron.a(core-d049573bc16596f9.core.5587a85061e7188a-cgu.0.rcgu.o)
                0x0000000000124930                <core::net::ip_addr::Ipv6Addr as core::ops::bit::BitAndAssign<&core::net::ip_addr::Ipv6Addr>>::bitand_assign
 .text._ZN76_$LT$core..net..ip_addr..Ipv6Addr$u20$as$u20$core..ops..bit..BitOrAssign$GT$12bitor_assign17h8802b9526f9e1ec3E
                0x0000000000124a7c      0x14c ./gen/../tr_api_dispatch/target/armv7a-none-eabi/release/libitron.a(core-d049573bc16596f9.core.5587a85061e7188a-cgu.0.rcgu.o)
                0x0000000000124a7c                <core::net::ip_addr::Ipv6Addr as core::ops::bit::BitOrAssign>::bitor_assign
 .text._ZN116_$LT$core..net..ip_addr..Ipv6Addr$u20$as$u20$core..ops..bit..BitOrAssign$LT$$RF$core..net..ip_addr..Ipv6Addr$GT$$GT$12bitor_assign17h15c5b2f4ea6a9f87E
                0x0000000000124bc8      0x14c ./gen/../tr_api_dispatch/target/armv7a-none-eabi/release/libitron.a(core-d049573bc16596f9.core.5587a85061e7188a-cgu.0.rcgu.o)
                0x0000000000124bc8                <core::net::ip_addr::Ipv6Addr as core::ops::bit::BitOrAssign<&core::net::ip_addr::Ipv6Addr>>::bitor_assign
 .text.unlikely._ZN4core9panicking11panic_const24panic_const_add_overflow17h518b917df10cd0eaE
                0x0000000000124d14       0x40 ./gen/../tr_api_dispatch/target/armv7a-none-eabi/release/libitron.a(core-d049573bc16596f9.core.5587a85061e7188a-cgu.0.rcgu.o)
                0x0000000000124d14                core::panicking::panic_const::panic_const_add_overflow
 .text.unlikely._ZN4core9panicking11panic_const24panic_const_sub_overflow17h60c8487e53d0d3c1E
                0x0000000000124d54       0x40 ./gen/../tr_api_dispatch/target/armv7a-none-eabi/release/libitron.a(core-d049573bc16596f9.core.5587a85061e7188a-cgu.0.rcgu.o)
                0x0000000000124d54                core::panicking::panic_const::panic_const_sub_overflow
 .text.unlikely._ZN4core9panicking11panic_const24panic_const_mul_overflow17h1a47d5361b03bf6eE
                0x0000000000124d94       0x40 ./gen/../tr_api_dispatch/target/armv7a-none-eabi/release/libitron.a(core-d049573bc16596f9.core.5587a85061e7188a-cgu.0.rcgu.o)
                0x0000000000124d94                core::panicking::panic_const::panic_const_mul_overflow
 .text.unlikely._ZN4core9panicking11panic_const24panic_const_div_overflow17heddbfb5e687a03bcE
                0x0000000000124dd4       0x40 ./gen/../tr_api_dispatch/target/armv7a-none-eabi/release/libitron.a(core-d049573bc16596f9.core.5587a85061e7188a-cgu.0.rcgu.o)
                0x0000000000124dd4                core::panicking::panic_const::panic_const_div_overflow
 .text.unlikely._ZN4core9panicking11panic_const24panic_const_rem_overflow17h3335d23af842c741E
                0x0000000000124e14       0x40 ./gen/../tr_api_dispatch/target/armv7a-none-eabi/release/libitron.a(core-d049573bc16596f9.core.5587a85061e7188a-cgu.0.rcgu.o)
                0x0000000000124e14                core::panicking::panic_const::panic_const_rem_overflow
 .text.unlikely._ZN4core9panicking11panic_const24panic_const_neg_overflow17hd6798e66c62ddff6E
                0x0000000000124e54       0x40 ./gen/../tr_api_dispatch/target/armv7a-none-eabi/release/libitron.a(core-d049573bc16596f9.core.5587a85061e7188a-cgu.0.rcgu.o)
                0x0000000000124e54                core::panicking::panic_const::panic_const_neg_overflow
 .text.unlikely._ZN4core9panicking11panic_const24panic_const_shr_overflow17hc596d1ddf3d71019E
                0x0000000000124e94       0x40 ./gen/../tr_api_dispatch/target/armv7a-none-eabi/release/libitron.a(core-d049573bc16596f9.core.5587a85061e7188a-cgu.0.rcgu.o)
                0x0000000000124e94                core::panicking::panic_const::panic_const_shr_overflow
 .text.unlikely._ZN4core9panicking11panic_const24panic_const_shl_overflow17hab60c2de69792ef8E
                0x0000000000124ed4       0x40 ./gen/../tr_api_dispatch/target/armv7a-none-eabi/release/libitron.a(core-d049573bc16596f9.core.5587a85061e7188a-cgu.0.rcgu.o)
                0x0000000000124ed4                core::panicking::panic_const::panic_const_shl_overflow
 .text.unlikely._ZN4core9panicking11panic_const23panic_const_div_by_zero17h841ebc415392a309E
                0x0000000000124f14       0x40 ./gen/../tr_api_dispatch/target/armv7a-none-eabi/release/libitron.a(core-d049573bc16596f9.core.5587a85061e7188a-cgu.0.rcgu.o)
                0x0000000000124f14                core::panicking::panic_const::panic_const_div_by_zero
 .text.unlikely._ZN4core9panicking11panic_const23panic_const_rem_by_zero17h84c76eadc69bd9a6E
                0x0000000000124f54       0x40 ./gen/../tr_api_dispatch/target/armv7a-none-eabi/release/libitron.a(core-d049573bc16596f9.core.5587a85061e7188a-cgu.0.rcgu.o)
                0x0000000000124f54                core::panicking::panic_const::panic_const_rem_by_zero
 .text.unlikely._ZN4core9panicking11panic_const29panic_const_coroutine_resumed17hc1fec1f49fb82aacE
                0x0000000000124f94       0x40 ./gen/../tr_api_dispatch/target/armv7a-none-eabi/release/libitron.a(core-d049573bc16596f9.core.5587a85061e7188a-cgu.0.rcgu.o)
                0x0000000000124f94                core::panicking::panic_const::panic_const_coroutine_resumed
 .text.unlikely._ZN4core9panicking11panic_const28panic_const_async_fn_resumed17h4c52fb4e1fc04b7eE
                0x0000000000124fd4       0x40 ./gen/../tr_api_dispatch/target/armv7a-none-eabi/release/libitron.a(core-d049573bc16596f9.core.5587a85061e7188a-cgu.0.rcgu.o)
                0x0000000000124fd4                core::panicking::panic_const::panic_const_async_fn_resumed
 .text.unlikely._ZN4core9panicking11panic_const32panic_const_async_gen_fn_resumed17hf6dc0ef665815d93E
                0x0000000000125014       0x40 ./gen/../tr_api_dispatch/target/armv7a-none-eabi/release/libitron.a(core-d049573bc16596f9.core.5587a85061e7188a-cgu.0.rcgu.o)
                0x0000000000125014                core::panicking::panic_const::panic_const_async_gen_fn_resumed
 .text.unlikely._ZN4core9panicking11panic_const23panic_const_gen_fn_none17h9943346b0c293476E
                0x0000000000125054       0x40 ./gen/../tr_api_dispatch/target/armv7a-none-eabi/release/libitron.a(core-d049573bc16596f9.core.5587a85061e7188a-cgu.0.rcgu.o)
                0x0000000000125054                core::panicking::panic_const::panic_const_gen_fn_none
 .text.unlikely._ZN4core9panicking11panic_const35panic_const_coroutine_resumed_panic17ha931fedc2d097cbcE
                0x0000000000125094       0x40 ./gen/../tr_api_dispatch/target/armv7a-none-eabi/release/libitron.a(core-d049573bc16596f9.core.5587a85061e7188a-cgu.0.rcgu.o)
                0x0000000000125094                core::panicking::panic_const::panic_const_coroutine_resumed_panic
 .text.unlikely._ZN4core9panicking11panic_const34panic_const_async_fn_resumed_panic17he3287dd12fe7b10fE
                0x00000000001250d4       0x40 ./gen/../tr_api_dispatch/target/armv7a-none-eabi/release/libitron.a(core-d049573bc16596f9.core.5587a85061e7188a-cgu.0.rcgu.o)
                0x00000000001250d4                core::panicking::panic_const::panic_const_async_fn_resumed_panic
 .text.unlikely._ZN4core9panicking11panic_const38panic_const_async_gen_fn_resumed_panic17hd2dc1333c03262feE
                0x0000000000125114       0x40 ./gen/../tr_api_dispatch/target/armv7a-none-eabi/release/libitron.a(core-d049573bc16596f9.core.5587a85061e7188a-cgu.0.rcgu.o)
                0x0000000000125114                core::panicking::panic_const::panic_const_async_gen_fn_resumed_panic
 .text.unlikely._ZN4core9panicking11panic_const29panic_const_gen_fn_none_panic17h5c1c229e3a40efecE
                0x0000000000125154       0x40 ./gen/../tr_api_dispatch/target/armv7a-none-eabi/release/libitron.a(core-d049573bc16596f9.core.5587a85061e7188a-cgu.0.rcgu.o)
                0x0000000000125154                core::panicking::panic_const::panic_const_gen_fn_none_panic
 .text.unlikely._ZN4core9panicking11panic_const34panic_const_coroutine_resumed_drop17h80f9fb05c90896faE
                0x0000000000125194       0x40 ./gen/../tr_api_dispatch/target/armv7a-none-eabi/release/libitron.a(core-d049573bc16596f9.core.5587a85061e7188a-cgu.0.rcgu.o)
                0x0000000000125194                core::panicking::panic_const::panic_const_coroutine_resumed_drop
 .text.unlikely._ZN4core9panicking11panic_const33panic_const_async_fn_resumed_drop17h372a153677563730E
                0x00000000001251d4       0x40 ./gen/../tr_api_dispatch/target/armv7a-none-eabi/release/libitron.a(core-d049573bc16596f9.core.5587a85061e7188a-cgu.0.rcgu.o)
                0x00000000001251d4                core::panicking::panic_const::panic_const_async_fn_resumed_drop
 .text.unlikely._ZN4core9panicking11panic_const37panic_const_async_gen_fn_resumed_drop17hf44454f4c0322d5eE
                0x0000000000125214       0x40 ./gen/../tr_api_dispatch/target/armv7a-none-eabi/release/libitron.a(core-d049573bc16596f9.core.5587a85061e7188a-cgu.0.rcgu.o)
                0x0000000000125214                core::panicking::panic_const::panic_const_async_gen_fn_resumed_drop
 .text.unlikely._ZN4core9panicking11panic_const28panic_const_gen_fn_none_drop17h79a2beef01222142E
                0x0000000000125254       0x40 ./gen/../tr_api_dispatch/target/armv7a-none-eabi/release/libitron.a(core-d049573bc16596f9.core.5587a85061e7188a-cgu.0.rcgu.o)
                0x0000000000125254                core::panicking::panic_const::panic_const_gen_fn_none_drop
 .text._ZN46_$LT$i8$u20$as$u20$core..pat..RangePattern$GT$7sub_one17h9c88d58a08cd9976E
                0x0000000000125294       0x50 ./gen/../tr_api_dispatch/target/armv7a-none-eabi/release/libitron.a(core-d049573bc16596f9.core.5587a85061e7188a-cgu.0.rcgu.o)
                0x0000000000125294                <i8 as core::pat::RangePattern>::sub_one
 .text._ZN47_$LT$i16$u20$as$u20$core..pat..RangePattern$GT$7sub_one17h0bea40a7c0a1898dE
                0x00000000001252e4       0x50 ./gen/../tr_api_dispatch/target/armv7a-none-eabi/release/libitron.a(core-d049573bc16596f9.core.5587a85061e7188a-cgu.0.rcgu.o)
                0x00000000001252e4                <i16 as core::pat::RangePattern>::sub_one
 .text._ZN47_$LT$i32$u20$as$u20$core..pat..RangePattern$GT$7sub_one17hee0294d19fcfed5eE
                0x0000000000125334       0x4c ./gen/../tr_api_dispatch/target/armv7a-none-eabi/release/libitron.a(core-d049573bc16596f9.core.5587a85061e7188a-cgu.0.rcgu.o)
                0x0000000000125334                <i32 as core::pat::RangePattern>::sub_one
                0x0000000000125334                <isize as core::pat::RangePattern>::sub_one
 .text._ZN47_$LT$i64$u20$as$u20$core..pat..RangePattern$GT$7sub_one17h7a71a5a054a38f79E
                0x0000000000125380       0x58 ./gen/../tr_api_dispatch/target/armv7a-none-eabi/release/libitron.a(core-d049573bc16596f9.core.5587a85061e7188a-cgu.0.rcgu.o)
                0x0000000000125380                <i64 as core::pat::RangePattern>::sub_one
 .text._ZN48_$LT$i128$u20$as$u20$core..pat..RangePattern$GT$7sub_one17hacd854531e93c0c5E
                0x00000000001253d8       0x74 ./gen/../tr_api_dispatch/target/armv7a-none-eabi/release/libitron.a(core-d049573bc16596f9.core.5587a85061e7188a-cgu.0.rcgu.o)
                0x00000000001253d8                <i128 as core::pat::RangePattern>::sub_one
 .text._ZN46_$LT$u8$u20$as$u20$core..pat..RangePattern$GT$7sub_one17h15e864f0213c9b05E
                0x000000000012544c       0x48 ./gen/../tr_api_dispatch/target/armv7a-none-eabi/release/libitron.a(core-d049573bc16596f9.core.5587a85061e7188a-cgu.0.rcgu.o)
                0x000000000012544c                <u8 as core::pat::RangePattern>::sub_one
 .text._ZN47_$LT$u16$u20$as$u20$core..pat..RangePattern$GT$7sub_one17h4335f9c9d4df86f6E
                0x0000000000125494       0x4c ./gen/../tr_api_dispatch/target/armv7a-none-eabi/release/libitron.a(core-d049573bc16596f9.core.5587a85061e7188a-cgu.0.rcgu.o)
                0x0000000000125494                <u16 as core::pat::RangePattern>::sub_one
 .text._ZN47_$LT$u32$u20$as$u20$core..pat..RangePattern$GT$7sub_one17h3378d20c1f54e79cE
                0x00000000001254e0       0x48 ./gen/../tr_api_dispatch/target/armv7a-none-eabi/release/libitron.a(core-d049573bc16596f9.core.5587a85061e7188a-cgu.0.rcgu.o)
                0x00000000001254e0                <usize as core::pat::RangePattern>::sub_one
                0x00000000001254e0                <u32 as core::pat::RangePattern>::sub_one
 .text._ZN47_$LT$u64$u20$as$u20$core..pat..RangePattern$GT$7sub_one17h6e6e0a2318d9e1f3E
                0x0000000000125528       0x54 ./gen/../tr_api_dispatch/target/armv7a-none-eabi/release/libitron.a(core-d049573bc16596f9.core.5587a85061e7188a-cgu.0.rcgu.o)
                0x0000000000125528                <u64 as core::pat::RangePattern>::sub_one
 .text._ZN48_$LT$u128$u20$as$u20$core..pat..RangePattern$GT$7sub_one17h49e0f9c674b47932E
                0x000000000012557c       0x74 ./gen/../tr_api_dispatch/target/armv7a-none-eabi/release/libitron.a(core-d049573bc16596f9.core.5587a85061e7188a-cgu.0.rcgu.o)
                0x000000000012557c                <u128 as core::pat::RangePattern>::sub_one
 .text._ZN65_$LT$core..sync..atomic..AtomicI8$u20$as$u20$core..fmt..Debug$GT$3fmt17h98530b86a99569a1E
                0x00000000001255f0       0x14 ./gen/../tr_api_dispatch/target/armv7a-none-eabi/release/libitron.a(core-d049573bc16596f9.core.5587a85061e7188a-cgu.0.rcgu.o)
                0x00000000001255f0                <core::sync::atomic::AtomicI8 as core::fmt::Debug>::fmt
 .text._ZN65_$LT$core..sync..atomic..AtomicU8$u20$as$u20$core..fmt..Debug$GT$3fmt17h78ea702c9c6bc9f6E
                0x0000000000125604       0x14 ./gen/../tr_api_dispatch/target/armv7a-none-eabi/release/libitron.a(core-d049573bc16596f9.core.5587a85061e7188a-cgu.0.rcgu.o)
                0x0000000000125604                <core::sync::atomic::AtomicU8 as core::fmt::Debug>::fmt
 .text._ZN66_$LT$core..sync..atomic..AtomicI16$u20$as$u20$core..fmt..Debug$GT$3fmt17h5390cba2b0e4e3dcE
                0x0000000000125618       0xc8 ./gen/../tr_api_dispatch/target/armv7a-none-eabi/release/libitron.a(core-d049573bc16596f9.core.5587a85061e7188a-cgu.0.rcgu.o)
                0x0000000000125618                <core::sync::atomic::AtomicI16 as core::fmt::Debug>::fmt
 .text._ZN66_$LT$core..sync..atomic..AtomicU16$u20$as$u20$core..fmt..Debug$GT$3fmt17h2705d1d8027c0f42E
                0x00000000001256e0       0xc8 ./gen/../tr_api_dispatch/target/armv7a-none-eabi/release/libitron.a(core-d049573bc16596f9.core.5587a85061e7188a-cgu.0.rcgu.o)
                0x00000000001256e0                <core::sync::atomic::AtomicU16 as core::fmt::Debug>::fmt
 .text._ZN66_$LT$core..sync..atomic..AtomicI32$u20$as$u20$core..fmt..Debug$GT$3fmt17h00f7ed8238e72b79E
                0x00000000001257a8       0xc0 ./gen/../tr_api_dispatch/target/armv7a-none-eabi/release/libitron.a(core-d049573bc16596f9.core.5587a85061e7188a-cgu.0.rcgu.o)
                0x00000000001257a8                <core::sync::atomic::AtomicIsize as core::fmt::Debug>::fmt
                0x00000000001257a8                <core::sync::atomic::AtomicI32 as core::fmt::Debug>::fmt
 .text._ZN66_$LT$core..sync..atomic..AtomicU32$u20$as$u20$core..fmt..Debug$GT$3fmt17hf9fe3a6abac6a243E
                0x0000000000125868       0xc0 ./gen/../tr_api_dispatch/target/armv7a-none-eabi/release/libitron.a(core-d049573bc16596f9.core.5587a85061e7188a-cgu.0.rcgu.o)
                0x0000000000125868                <core::sync::atomic::AtomicUsize as core::fmt::Debug>::fmt
                0x0000000000125868                <core::sync::atomic::AtomicU32 as core::fmt::Debug>::fmt
 .text._ZN66_$LT$core..sync..atomic..AtomicI64$u20$as$u20$core..fmt..Debug$GT$3fmt17h553003e062ab2aeaE
                0x0000000000125928       0xec ./gen/../tr_api_dispatch/target/armv7a-none-eabi/release/libitron.a(core-d049573bc16596f9.core.5587a85061e7188a-cgu.0.rcgu.o)
                0x0000000000125928                <core::sync::atomic::AtomicI64 as core::fmt::Debug>::fmt
 .text._ZN66_$LT$core..sync..atomic..AtomicU64$u20$as$u20$core..fmt..Debug$GT$3fmt17h4837e1a6089e1848E
                0x0000000000125a14       0xec ./gen/../tr_api_dispatch/target/armv7a-none-eabi/release/libitron.a(core-d049573bc16596f9.core.5587a85061e7188a-cgu.0.rcgu.o)
                0x0000000000125a14                <core::sync::atomic::AtomicU64 as core::fmt::Debug>::fmt
 .text._ZN55_$LT$f32$u20$as$u20$core..fmt..float..GeneralFormat$GT$44already_rounded_value_should_use_exponential17hb22121c88fcaa0beE
                0x0000000000125b00       0x68 ./gen/../tr_api_dispatch/target/armv7a-none-eabi/release/libitron.a(core-d049573bc16596f9.core.5587a85061e7188a-cgu.0.rcgu.o)
                0x0000000000125b00                <f32 as core::fmt::float::GeneralFormat>::already_rounded_value_should_use_exponential
 .text._ZN55_$LT$f64$u20$as$u20$core..fmt..float..GeneralFormat$GT$44already_rounded_value_should_use_exponential17h8b724b9904cc9c26E
                0x0000000000125b68       0x88 ./gen/../tr_api_dispatch/target/armv7a-none-eabi/release/libitron.a(core-d049573bc16596f9.core.5587a85061e7188a-cgu.0.rcgu.o)
                0x0000000000125b68                <f64 as core::fmt::float::GeneralFormat>::already_rounded_value_should_use_exponential
 .text._ZN4core3fmt5float50_$LT$impl$u20$core..fmt..Debug$u20$for$u20$f32$GT$3fmt17h36f6f70bc5e41684E
                0x0000000000125bf0       0xb8 ./gen/../tr_api_dispatch/target/armv7a-none-eabi/release/libitron.a(core-d049573bc16596f9.core.5587a85061e7188a-cgu.0.rcgu.o)
                0x0000000000125bf0                core::fmt::float::<impl core::fmt::Debug for f32>::fmt
 .text._ZN4core3fmt5float52_$LT$impl$u20$core..fmt..Display$u20$for$u20$f32$GT$3fmt17h80810e25a018a288E
                0x0000000000125ca8       0x44 ./gen/../tr_api_dispatch/target/armv7a-none-eabi/release/libitron.a(core-d049573bc16596f9.core.5587a85061e7188a-cgu.0.rcgu.o)
                0x0000000000125ca8                core::fmt::float::<impl core::fmt::Display for f32>::fmt
 .text._ZN4core3fmt5float53_$LT$impl$u20$core..fmt..LowerExp$u20$for$u20$f32$GT$3fmt17h820dff1b1d643fd6E
                0x0000000000125cec       0x54 ./gen/../tr_api_dispatch/target/armv7a-none-eabi/release/libitron.a(core-d049573bc16596f9.core.5587a85061e7188a-cgu.0.rcgu.o)
                0x0000000000125cec                core::fmt::float::<impl core::fmt::LowerExp for f32>::fmt
 .text._ZN4core3fmt5float53_$LT$impl$u20$core..fmt..UpperExp$u20$for$u20$f32$GT$3fmt17hdf25f1d7057efea1E
                0x0000000000125d40       0x54 ./gen/../tr_api_dispatch/target/armv7a-none-eabi/release/libitron.a(core-d049573bc16596f9.core.5587a85061e7188a-cgu.0.rcgu.o)
                0x0000000000125d40                core::fmt::float::<impl core::fmt::UpperExp for f32>::fmt
 .text._ZN4core3fmt5float50_$LT$impl$u20$core..fmt..Debug$u20$for$u20$f64$GT$3fmt17h12b316315661d7a7E
                0x0000000000125d94      0x10c ./gen/../tr_api_dispatch/target/armv7a-none-eabi/release/libitron.a(core-d049573bc16596f9.core.5587a85061e7188a-cgu.0.rcgu.o)
                0x0000000000125d94                core::fmt::float::<impl core::fmt::Debug for f64>::fmt
 .text._ZN4core3fmt5float52_$LT$impl$u20$core..fmt..Display$u20$for$u20$f64$GT$3fmt17h1658c390055e8683E
                0x0000000000125ea0       0x64 ./gen/../tr_api_dispatch/target/armv7a-none-eabi/release/libitron.a(core-d049573bc16596f9.core.5587a85061e7188a-cgu.0.rcgu.o)
                0x0000000000125ea0                core::fmt::float::<impl core::fmt::Display for f64>::fmt
 .text._ZN4core3fmt5float53_$LT$impl$u20$core..fmt..LowerExp$u20$for$u20$f64$GT$3fmt17hab161d28c266dbf1E
                0x0000000000125f04       0x70 ./gen/../tr_api_dispatch/target/armv7a-none-eabi/release/libitron.a(core-d049573bc16596f9.core.5587a85061e7188a-cgu.0.rcgu.o)
                0x0000000000125f04                core::fmt::float::<impl core::fmt::LowerExp for f64>::fmt
 .text._ZN4core3fmt5float53_$LT$impl$u20$core..fmt..UpperExp$u20$for$u20$f64$GT$3fmt17hfdc423d0ad75608dE
                0x0000000000125f74       0x70 ./gen/../tr_api_dispatch/target/armv7a-none-eabi/release/libitron.a(core-d049573bc16596f9.core.5587a85061e7188a-cgu.0.rcgu.o)
                0x0000000000125f74                core::fmt::float::<impl core::fmt::UpperExp for f64>::fmt
 .text._ZN4core3fmt5float50_$LT$impl$u20$core..fmt..Debug$u20$for$u20$f16$GT$3fmt17h0275f4e20d5ac985E
                0x0000000000125fe4       0xc0 ./gen/../tr_api_dispatch/target/armv7a-none-eabi/release/libitron.a(core-d049573bc16596f9.core.5587a85061e7188a-cgu.0.rcgu.o)
                0x0000000000125fe4                core::fmt::float::<impl core::fmt::Debug for f16>::fmt
 .text._ZN4core3fmt5float52_$LT$impl$u20$core..fmt..Display$u20$for$u20$f16$GT$3fmt17h44d06f4ee009c844E
                0x00000000001260a4       0x44 ./gen/../tr_api_dispatch/target/armv7a-none-eabi/release/libitron.a(core-d049573bc16596f9.core.5587a85061e7188a-cgu.0.rcgu.o)
                0x00000000001260a4                core::fmt::float::<impl core::fmt::Display for f16>::fmt
 .text._ZN4core3fmt5float53_$LT$impl$u20$core..fmt..LowerExp$u20$for$u20$f16$GT$3fmt17h5cc0551d1f587a8bE
                0x00000000001260e8       0x54 ./gen/../tr_api_dispatch/target/armv7a-none-eabi/release/libitron.a(core-d049573bc16596f9.core.5587a85061e7188a-cgu.0.rcgu.o)
                0x00000000001260e8                core::fmt::float::<impl core::fmt::LowerExp for f16>::fmt
 .text._ZN4core3fmt5float53_$LT$impl$u20$core..fmt..UpperExp$u20$for$u20$f16$GT$3fmt17h2a0ba872876a6cb1E
                0x000000000012613c       0x54 ./gen/../tr_api_dispatch/target/armv7a-none-eabi/release/libitron.a(core-d049573bc16596f9.core.5587a85061e7188a-cgu.0.rcgu.o)
                0x000000000012613c                core::fmt::float::<impl core::fmt::UpperExp for f16>::fmt
 .text._ZN71_$LT$core..fmt..num..Binary$u20$as$u20$core..fmt..num..GenericRadix$GT$5digit17he4b6c679024b6753E
                0x0000000000126190       0x7c ./gen/../tr_api_dispatch/target/armv7a-none-eabi/release/libitron.a(core-d049573bc16596f9.core.5587a85061e7188a-cgu.0.rcgu.o)
                0x0000000000126190                <core::fmt::num::Binary as core::fmt::num::GenericRadix>::digit
 .text._ZN70_$LT$core..fmt..num..Octal$u20$as$u20$core..fmt..num..GenericRadix$GT$5digit17h6d524b5314e7839aE
                0x000000000012620c       0x7c ./gen/../tr_api_dispatch/target/armv7a-none-eabi/release/libitron.a(core-d049573bc16596f9.core.5587a85061e7188a-cgu.0.rcgu.o)
                0x000000000012620c                <core::fmt::num::Octal as core::fmt::num::GenericRadix>::digit
 .text._ZN73_$LT$core..fmt..num..LowerHex$u20$as$u20$core..fmt..num..GenericRadix$GT$5digit17h67093c0abfd72a34E
                0x0000000000126288       0x88 ./gen/../tr_api_dispatch/target/armv7a-none-eabi/release/libitron.a(core-d049573bc16596f9.core.5587a85061e7188a-cgu.0.rcgu.o)
                0x0000000000126288                <core::fmt::num::LowerHex as core::fmt::num::GenericRadix>::digit
 .text._ZN73_$LT$core..fmt..num..UpperHex$u20$as$u20$core..fmt..num..GenericRadix$GT$5digit17h2ebf7f3cf75c8942E
                0x0000000000126310       0x88 ./gen/../tr_api_dispatch/target/armv7a-none-eabi/release/libitron.a(core-d049573bc16596f9.core.5587a85061e7188a-cgu.0.rcgu.o)
                0x0000000000126310                <core::fmt::num::UpperHex as core::fmt::num::GenericRadix>::digit
 .text._ZN4core3fmt3num50_$LT$impl$u20$core..fmt..Binary$u20$for$u20$i8$GT$3fmt17hfb8e99514944e386E
                0x0000000000126398       0x68 ./gen/../tr_api_dispatch/target/armv7a-none-eabi/release/libitron.a(core-d049573bc16596f9.core.5587a85061e7188a-cgu.0.rcgu.o)
                0x0000000000126398                core::fmt::num::<impl core::fmt::Binary for u8>::fmt
                0x0000000000126398                core::fmt::num::<impl core::fmt::Binary for i8>::fmt
 .text._ZN4core3fmt3num49_$LT$impl$u20$core..fmt..Octal$u20$for$u20$i8$GT$3fmt17h16740b96b647866aE
                0x0000000000126400       0x68 ./gen/../tr_api_dispatch/target/armv7a-none-eabi/release/libitron.a(core-d049573bc16596f9.core.5587a85061e7188a-cgu.0.rcgu.o)
                0x0000000000126400                core::fmt::num::<impl core::fmt::Octal for i8>::fmt
                0x0000000000126400                core::fmt::num::<impl core::fmt::Octal for u8>::fmt
 .text._ZN4core3fmt3num52_$LT$impl$u20$core..fmt..LowerHex$u20$for$u20$i8$GT$3fmt17ha38e82f4b36477dfE
                0x0000000000126468       0x6c ./gen/../tr_api_dispatch/target/armv7a-none-eabi/release/libitron.a(core-d049573bc16596f9.core.5587a85061e7188a-cgu.0.rcgu.o)
                0x0000000000126468                core::fmt::num::<impl core::fmt::LowerHex for i8>::fmt
                0x0000000000126468                core::fmt::num::<impl core::fmt::LowerHex for u8>::fmt
 .text._ZN4core3fmt3num52_$LT$impl$u20$core..fmt..UpperHex$u20$for$u20$i8$GT$3fmt17hdbc78e6d81b9fc73E
                0x00000000001264d4       0x6c ./gen/../tr_api_dispatch/target/armv7a-none-eabi/release/libitron.a(core-d049573bc16596f9.core.5587a85061e7188a-cgu.0.rcgu.o)
                0x00000000001264d4                core::fmt::num::<impl core::fmt::UpperHex for i8>::fmt
                0x00000000001264d4                core::fmt::num::<impl core::fmt::UpperHex for u8>::fmt
 .text._ZN4core3fmt3num51_$LT$impl$u20$core..fmt..Binary$u20$for$u20$i16$GT$3fmt17hd9dba8c56e1924baE
                0x0000000000126540       0x68 ./gen/../tr_api_dispatch/target/armv7a-none-eabi/release/libitron.a(core-d049573bc16596f9.core.5587a85061e7188a-cgu.0.rcgu.o)
                0x0000000000126540                core::fmt::num::<impl core::fmt::Binary for i16>::fmt
                0x0000000000126540                core::fmt::num::<impl core::fmt::Binary for u16>::fmt
 .text._ZN4core3fmt3num50_$LT$impl$u20$core..fmt..Octal$u20$for$u20$i16$GT$3fmt17h673945bd6fb3acfeE
                0x00000000001265a8       0x68 ./gen/../tr_api_dispatch/target/armv7a-none-eabi/release/libitron.a(core-d049573bc16596f9.core.5587a85061e7188a-cgu.0.rcgu.o)
                0x00000000001265a8                core::fmt::num::<impl core::fmt::Octal for i16>::fmt
                0x00000000001265a8                core::fmt::num::<impl core::fmt::Octal for u16>::fmt
 .text._ZN4core3fmt3num53_$LT$impl$u20$core..fmt..LowerHex$u20$for$u20$i16$GT$3fmt17hd32e4fcbce79670aE
                0x0000000000126610       0x70 ./gen/../tr_api_dispatch/target/armv7a-none-eabi/release/libitron.a(core-d049573bc16596f9.core.5587a85061e7188a-cgu.0.rcgu.o)
                0x0000000000126610                core::fmt::num::<impl core::fmt::LowerHex for i16>::fmt
                0x0000000000126610                core::fmt::num::<impl core::fmt::LowerHex for u16>::fmt
 .text._ZN4core3fmt3num53_$LT$impl$u20$core..fmt..UpperHex$u20$for$u20$i16$GT$3fmt17hc507e3445ac18ebeE
                0x0000000000126680       0x70 ./gen/../tr_api_dispatch/target/armv7a-none-eabi/release/libitron.a(core-d049573bc16596f9.core.5587a85061e7188a-cgu.0.rcgu.o)
                0x0000000000126680                core::fmt::num::<impl core::fmt::UpperHex for i16>::fmt
                0x0000000000126680                core::fmt::num::<impl core::fmt::UpperHex for u16>::fmt
 .text._ZN4core3fmt3num51_$LT$impl$u20$core..fmt..Binary$u20$for$u20$i32$GT$3fmt17hd6aa21fb91002751E
                0x00000000001266f0       0x68 ./gen/../tr_api_dispatch/target/armv7a-none-eabi/release/libitron.a(core-d049573bc16596f9.core.5587a85061e7188a-cgu.0.rcgu.o)
                0x00000000001266f0                core::fmt::num::<impl core::fmt::Binary for isize>::fmt
                0x00000000001266f0                core::fmt::num::<impl core::fmt::Binary for i32>::fmt
                0x00000000001266f0                core::fmt::num::<impl core::fmt::Binary for usize>::fmt
                0x00000000001266f0                core::fmt::num::<impl core::fmt::Binary for u32>::fmt
 .text._ZN4core3fmt3num50_$LT$impl$u20$core..fmt..Octal$u20$for$u20$i32$GT$3fmt17hdfdd079f8dc60dc7E
                0x0000000000126758       0x68 ./gen/../tr_api_dispatch/target/armv7a-none-eabi/release/libitron.a(core-d049573bc16596f9.core.5587a85061e7188a-cgu.0.rcgu.o)
                0x0000000000126758                core::fmt::num::<impl core::fmt::Octal for usize>::fmt
                0x0000000000126758                core::fmt::num::<impl core::fmt::Octal for isize>::fmt
                0x0000000000126758                core::fmt::num::<impl core::fmt::Octal for u32>::fmt
                0x0000000000126758                core::fmt::num::<impl core::fmt::Octal for i32>::fmt
 .text._ZN4core3fmt3num53_$LT$impl$u20$core..fmt..LowerHex$u20$for$u20$i32$GT$3fmt17h1bfe37b07cf28800E
                0x00000000001267c0       0x6c ./gen/../tr_api_dispatch/target/armv7a-none-eabi/release/libitron.a(core-d049573bc16596f9.core.5587a85061e7188a-cgu.0.rcgu.o)
                0x00000000001267c0                core::fmt::num::<impl core::fmt::LowerHex for usize>::fmt
                0x00000000001267c0                core::fmt::num::<impl core::fmt::LowerHex for isize>::fmt
                0x00000000001267c0                core::fmt::num::<impl core::fmt::LowerHex for u32>::fmt
                0x00000000001267c0                core::fmt::num::<impl core::fmt::LowerHex for i32>::fmt
 .text._ZN4core3fmt3num53_$LT$impl$u20$core..fmt..UpperHex$u20$for$u20$i32$GT$3fmt17hf4441f29103186f0E
                0x000000000012682c       0x6c ./gen/../tr_api_dispatch/target/armv7a-none-eabi/release/libitron.a(core-d049573bc16596f9.core.5587a85061e7188a-cgu.0.rcgu.o)
                0x000000000012682c                core::fmt::num::<impl core::fmt::UpperHex for u32>::fmt
                0x000000000012682c                core::fmt::num::<impl core::fmt::UpperHex for isize>::fmt
                0x000000000012682c                core::fmt::num::<impl core::fmt::UpperHex for usize>::fmt
                0x000000000012682c                core::fmt::num::<impl core::fmt::UpperHex for i32>::fmt
 .text._ZN4core3fmt3num51_$LT$impl$u20$core..fmt..Binary$u20$for$u20$i64$GT$3fmt17h2344af75f6c15b7fE
                0x0000000000126898       0x70 ./gen/../tr_api_dispatch/target/armv7a-none-eabi/release/libitron.a(core-d049573bc16596f9.core.5587a85061e7188a-cgu.0.rcgu.o)
                0x0000000000126898                core::fmt::num::<impl core::fmt::Binary for i64>::fmt
                0x0000000000126898                core::fmt::num::<impl core::fmt::Binary for u64>::fmt
 .text._ZN4core3fmt3num50_$LT$impl$u20$core..fmt..Octal$u20$for$u20$i64$GT$3fmt17hc6f5294ea5289e43E
                0x0000000000126908       0x70 ./gen/../tr_api_dispatch/target/armv7a-none-eabi/release/libitron.a(core-d049573bc16596f9.core.5587a85061e7188a-cgu.0.rcgu.o)
                0x0000000000126908                core::fmt::num::<impl core::fmt::Octal for u64>::fmt
                0x0000000000126908                core::fmt::num::<impl core::fmt::Octal for i64>::fmt
 .text._ZN4core3fmt3num53_$LT$impl$u20$core..fmt..LowerHex$u20$for$u20$i64$GT$3fmt17hac7e501d59390ecfE
                0x0000000000126978       0x78 ./gen/../tr_api_dispatch/target/armv7a-none-eabi/release/libitron.a(core-d049573bc16596f9.core.5587a85061e7188a-cgu.0.rcgu.o)
                0x0000000000126978                core::fmt::num::<impl core::fmt::LowerHex for u64>::fmt
                0x0000000000126978                core::fmt::num::<impl core::fmt::LowerHex for i64>::fmt
 .text._ZN4core3fmt3num53_$LT$impl$u20$core..fmt..UpperHex$u20$for$u20$i64$GT$3fmt17h51257ca6c0f8239cE
                0x00000000001269f0       0x78 ./gen/../tr_api_dispatch/target/armv7a-none-eabi/release/libitron.a(core-d049573bc16596f9.core.5587a85061e7188a-cgu.0.rcgu.o)
                0x00000000001269f0                core::fmt::num::<impl core::fmt::UpperHex for u64>::fmt
                0x00000000001269f0                core::fmt::num::<impl core::fmt::UpperHex for i64>::fmt
 .text._ZN4core3fmt3num52_$LT$impl$u20$core..fmt..Binary$u20$for$u20$i128$GT$3fmt17h7be091d3317e0d6cE
                0x0000000000126a68       0xa4 ./gen/../tr_api_dispatch/target/armv7a-none-eabi/release/libitron.a(core-d049573bc16596f9.core.5587a85061e7188a-cgu.0.rcgu.o)
                0x0000000000126a68                core::fmt::num::<impl core::fmt::Binary for i128>::fmt
                0x0000000000126a68                core::fmt::num::<impl core::fmt::Binary for u128>::fmt
 .text._ZN4core3fmt3num51_$LT$impl$u20$core..fmt..Octal$u20$for$u20$i128$GT$3fmt17h5fb2ef3ead5b0ea5E
                0x0000000000126b0c       0xb0 ./gen/../tr_api_dispatch/target/armv7a-none-eabi/release/libitron.a(core-d049573bc16596f9.core.5587a85061e7188a-cgu.0.rcgu.o)
                0x0000000000126b0c                core::fmt::num::<impl core::fmt::Octal for u128>::fmt
                0x0000000000126b0c                core::fmt::num::<impl core::fmt::Octal for i128>::fmt
 .text._ZN4core3fmt3num54_$LT$impl$u20$core..fmt..LowerHex$u20$for$u20$i128$GT$3fmt17h4f123a38d1270953E
                0x0000000000126bbc       0xb8 ./gen/../tr_api_dispatch/target/armv7a-none-eabi/release/libitron.a(core-d049573bc16596f9.core.5587a85061e7188a-cgu.0.rcgu.o)
                0x0000000000126bbc                core::fmt::num::<impl core::fmt::LowerHex for i128>::fmt
                0x0000000000126bbc                core::fmt::num::<impl core::fmt::LowerHex for u128>::fmt
 .text._ZN4core3fmt3num54_$LT$impl$u20$core..fmt..UpperHex$u20$for$u20$i128$GT$3fmt17ha49e3851795cfdefE
                0x0000000000126c74       0xb8 ./gen/../tr_api_dispatch/target/armv7a-none-eabi/release/libitron.a(core-d049573bc16596f9.core.5587a85061e7188a-cgu.0.rcgu.o)
                0x0000000000126c74                core::fmt::num::<impl core::fmt::UpperHex for u128>::fmt
                0x0000000000126c74                core::fmt::num::<impl core::fmt::UpperHex for i128>::fmt
 .text._ZN4core3fmt3num49_$LT$impl$u20$core..fmt..Debug$u20$for$u20$i8$GT$3fmt17h34acdd6c4c2b4cccE
                0x0000000000126d2c      0x16c ./gen/../tr_api_dispatch/target/armv7a-none-eabi/release/libitron.a(core-d049573bc16596f9.core.5587a85061e7188a-cgu.0.rcgu.o)
 .text._ZN4core3fmt3num49_$LT$impl$u20$core..fmt..Debug$u20$for$u20$u8$GT$3fmt17h8d8c411144315c72E
                0x0000000000126e98      0x154 ./gen/../tr_api_dispatch/target/armv7a-none-eabi/release/libitron.a(core-d049573bc16596f9.core.5587a85061e7188a-cgu.0.rcgu.o)
 .text._ZN4core3fmt3num50_$LT$impl$u20$core..fmt..Debug$u20$for$u20$u32$GT$3fmt17h71bef540c929d311E
                0x0000000000126fec       0xbc ./gen/../tr_api_dispatch/target/armv7a-none-eabi/release/libitron.a(core-d049573bc16596f9.core.5587a85061e7188a-cgu.0.rcgu.o)
 .text._ZN4core3fmt3num3imp51_$LT$impl$u20$core..fmt..Display$u20$for$u20$u8$GT$3fmt17hbcfcd188bf01c23fE
                0x00000000001270a8       0xbc ./gen/../tr_api_dispatch/target/armv7a-none-eabi/release/libitron.a(core-d049573bc16596f9.core.5587a85061e7188a-cgu.0.rcgu.o)
                0x00000000001270a8                core::fmt::num::imp::<impl core::fmt::Display for u8>::fmt
 .text._ZN4core3fmt3num3imp51_$LT$impl$u20$core..fmt..Display$u20$for$u20$i8$GT$3fmt17hff22c034098846a1E
                0x0000000000127164       0xcc ./gen/../tr_api_dispatch/target/armv7a-none-eabi/release/libitron.a(core-d049573bc16596f9.core.5587a85061e7188a-cgu.0.rcgu.o)
                0x0000000000127164                core::fmt::num::imp::<impl core::fmt::Display for i8>::fmt
 .text._ZN4core3fmt3num3imp20_$LT$impl$u20$u8$GT$4_fmt17hb5a7663e8a0544e3E
                0x0000000000127230       0x94 ./gen/../tr_api_dispatch/target/armv7a-none-eabi/release/libitron.a(core-d049573bc16596f9.core.5587a85061e7188a-cgu.0.rcgu.o)
                0x0000000000127230                core::fmt::num::imp::<impl u8>::_fmt
 .text._ZN4core3fmt3num3imp52_$LT$impl$u20$core..fmt..Display$u20$for$u20$u16$GT$3fmt17hb807d5b07197dd3cE
                0x00000000001272c4      0x10c ./gen/../tr_api_dispatch/target/armv7a-none-eabi/release/libitron.a(core-d049573bc16596f9.core.5587a85061e7188a-cgu.0.rcgu.o)
                0x00000000001272c4                core::fmt::num::imp::<impl core::fmt::Display for u16>::fmt
 .text._ZN4core3fmt3num3imp52_$LT$impl$u20$core..fmt..Display$u20$for$u20$i16$GT$3fmt17hd6d0d2db5935d675E
                0x00000000001273d0      0x138 ./gen/../tr_api_dispatch/target/armv7a-none-eabi/release/libitron.a(core-d049573bc16596f9.core.5587a85061e7188a-cgu.0.rcgu.o)
                0x00000000001273d0                core::fmt::num::imp::<impl core::fmt::Display for i16>::fmt
 .text._ZN4core3fmt3num3imp21_$LT$impl$u20$u16$GT$4_fmt17h2eab8ac218d2ab0cE
                0x0000000000127508      0x108 ./gen/../tr_api_dispatch/target/armv7a-none-eabi/release/libitron.a(core-d049573bc16596f9.core.5587a85061e7188a-cgu.0.rcgu.o)
                0x0000000000127508                core::fmt::num::imp::<impl u16>::_fmt
 .text._ZN4core3fmt3num3imp52_$LT$impl$u20$core..fmt..Display$u20$for$u20$u32$GT$3fmt17hfed0ce75b320fdfeE
                0x0000000000127610      0x174 ./gen/../tr_api_dispatch/target/armv7a-none-eabi/release/libitron.a(core-d049573bc16596f9.core.5587a85061e7188a-cgu.0.rcgu.o)
                0x0000000000127610                core::fmt::num::imp::<impl core::fmt::Display for u32>::fmt
                0x0000000000127610                core::fmt::num::imp::<impl core::fmt::Display for usize>::fmt
 .text._ZN4core3fmt3num3imp52_$LT$impl$u20$core..fmt..Display$u20$for$u20$i32$GT$3fmt17h6694708af44e6410E
                0x0000000000127784      0x188 ./gen/../tr_api_dispatch/target/armv7a-none-eabi/release/libitron.a(core-d049573bc16596f9.core.5587a85061e7188a-cgu.0.rcgu.o)
                0x0000000000127784                core::fmt::num::imp::<impl core::fmt::Display for i32>::fmt
                0x0000000000127784                core::fmt::num::imp::<impl core::fmt::Display for isize>::fmt
 .text._ZN4core3fmt3num3imp21_$LT$impl$u20$u32$GT$4_fmt17he3f4180fb8f739b6E
                0x000000000012790c      0x15c ./gen/../tr_api_dispatch/target/armv7a-none-eabi/release/libitron.a(core-d049573bc16596f9.core.5587a85061e7188a-cgu.0.rcgu.o)
                0x000000000012790c                core::fmt::num::imp::<impl u32>::_fmt
                0x000000000012790c                core::fmt::num::imp::<impl usize>::_fmt
 .text._ZN4core3fmt3num3imp52_$LT$impl$u20$core..fmt..Display$u20$for$u20$u64$GT$3fmt17hca688f18ea3812f0E
                0x0000000000127a68      0x198 ./gen/../tr_api_dispatch/target/armv7a-none-eabi/release/libitron.a(core-d049573bc16596f9.core.5587a85061e7188a-cgu.0.rcgu.o)
                0x0000000000127a68                core::fmt::num::imp::<impl core::fmt::Display for u64>::fmt
 .text._ZN4core3fmt3num3imp52_$LT$impl$u20$core..fmt..Display$u20$for$u20$i64$GT$3fmt17h746d5f02f990caf3E
                0x0000000000127c00      0x1b4 ./gen/../tr_api_dispatch/target/armv7a-none-eabi/release/libitron.a(core-d049573bc16596f9.core.5587a85061e7188a-cgu.0.rcgu.o)
                0x0000000000127c00                core::fmt::num::imp::<impl core::fmt::Display for i64>::fmt
 .text._ZN4core3fmt3num3imp21_$LT$impl$u20$u64$GT$4_fmt17h5cad236623dacc7fE
                0x0000000000127db4      0x16c ./gen/../tr_api_dispatch/target/armv7a-none-eabi/release/libitron.a(core-d049573bc16596f9.core.5587a85061e7188a-cgu.0.rcgu.o)
                0x0000000000127db4                core::fmt::num::imp::<impl u64>::_fmt
 .text._ZN4core3fmt3num3imp7exp_u3217he01470f61c0319e7E
                0x0000000000127f20      0x428 ./gen/../tr_api_dispatch/target/armv7a-none-eabi/release/libitron.a(core-d049573bc16596f9.core.5587a85061e7188a-cgu.0.rcgu.o)
 .text._ZN4core3fmt3num3imp52_$LT$impl$u20$core..fmt..LowerExp$u20$for$u20$i8$GT$3fmt17hc0edf995b11d88a4E
                0x0000000000128348       0x30 ./gen/../tr_api_dispatch/target/armv7a-none-eabi/release/libitron.a(core-d049573bc16596f9.core.5587a85061e7188a-cgu.0.rcgu.o)
                0x0000000000128348                core::fmt::num::imp::<impl core::fmt::LowerExp for i8>::fmt
 .text._ZN4core3fmt3num3imp52_$LT$impl$u20$core..fmt..LowerExp$u20$for$u20$u8$GT$3fmt17h9f71b4e1975c97b3E
                0x0000000000128378       0x20 ./gen/../tr_api_dispatch/target/armv7a-none-eabi/release/libitron.a(core-d049573bc16596f9.core.5587a85061e7188a-cgu.0.rcgu.o)
                0x0000000000128378                core::fmt::num::imp::<impl core::fmt::LowerExp for u8>::fmt
 .text._ZN4core3fmt3num3imp53_$LT$impl$u20$core..fmt..LowerExp$u20$for$u20$i16$GT$3fmt17h2ec4792f26758582E
                0x0000000000128398       0x30 ./gen/../tr_api_dispatch/target/armv7a-none-eabi/release/libitron.a(core-d049573bc16596f9.core.5587a85061e7188a-cgu.0.rcgu.o)
                0x0000000000128398                core::fmt::num::imp::<impl core::fmt::LowerExp for i16>::fmt
 .text._ZN4core3fmt3num3imp53_$LT$impl$u20$core..fmt..LowerExp$u20$for$u20$u16$GT$3fmt17he1630ced7897f954E
                0x00000000001283c8       0x20 ./gen/../tr_api_dispatch/target/armv7a-none-eabi/release/libitron.a(core-d049573bc16596f9.core.5587a85061e7188a-cgu.0.rcgu.o)
                0x00000000001283c8                core::fmt::num::imp::<impl core::fmt::LowerExp for u16>::fmt
 .text._ZN4core3fmt3num3imp53_$LT$impl$u20$core..fmt..LowerExp$u20$for$u20$i32$GT$3fmt17hc830ff5284d762bdE
                0x00000000001283e8       0x30 ./gen/../tr_api_dispatch/target/armv7a-none-eabi/release/libitron.a(core-d049573bc16596f9.core.5587a85061e7188a-cgu.0.rcgu.o)
                0x00000000001283e8                core::fmt::num::imp::<impl core::fmt::LowerExp for isize>::fmt
                0x00000000001283e8                core::fmt::num::imp::<impl core::fmt::LowerExp for i32>::fmt
 .text._ZN4core3fmt3num3imp53_$LT$impl$u20$core..fmt..LowerExp$u20$for$u20$u32$GT$3fmt17he84cd695e6f75fd8E
                0x0000000000128418       0x20 ./gen/../tr_api_dispatch/target/armv7a-none-eabi/release/libitron.a(core-d049573bc16596f9.core.5587a85061e7188a-cgu.0.rcgu.o)
                0x0000000000128418                core::fmt::num::imp::<impl core::fmt::LowerExp for usize>::fmt
                0x0000000000128418                core::fmt::num::imp::<impl core::fmt::LowerExp for u32>::fmt
 .text._ZN4core3fmt3num3imp52_$LT$impl$u20$core..fmt..UpperExp$u20$for$u20$i8$GT$3fmt17h3cc98f3a87f4ea66E
                0x0000000000128438       0x30 ./gen/../tr_api_dispatch/target/armv7a-none-eabi/release/libitron.a(core-d049573bc16596f9.core.5587a85061e7188a-cgu.0.rcgu.o)
                0x0000000000128438                core::fmt::num::imp::<impl core::fmt::UpperExp for i8>::fmt
 .text._ZN4core3fmt3num3imp52_$LT$impl$u20$core..fmt..UpperExp$u20$for$u20$u8$GT$3fmt17h04e779386a1b925eE
                0x0000000000128468       0x20 ./gen/../tr_api_dispatch/target/armv7a-none-eabi/release/libitron.a(core-d049573bc16596f9.core.5587a85061e7188a-cgu.0.rcgu.o)
                0x0000000000128468                core::fmt::num::imp::<impl core::fmt::UpperExp for u8>::fmt
 .text._ZN4core3fmt3num3imp53_$LT$impl$u20$core..fmt..UpperExp$u20$for$u20$i16$GT$3fmt17ha0dd815a12b4d383E
                0x0000000000128488       0x30 ./gen/../tr_api_dispatch/target/armv7a-none-eabi/release/libitron.a(core-d049573bc16596f9.core.5587a85061e7188a-cgu.0.rcgu.o)
                0x0000000000128488                core::fmt::num::imp::<impl core::fmt::UpperExp for i16>::fmt
 .text._ZN4core3fmt3num3imp53_$LT$impl$u20$core..fmt..UpperExp$u20$for$u20$u16$GT$3fmt17h07d48ce0e1e749dcE
                0x00000000001284b8       0x20 ./gen/../tr_api_dispatch/target/armv7a-none-eabi/release/libitron.a(core-d049573bc16596f9.core.5587a85061e7188a-cgu.0.rcgu.o)
                0x00000000001284b8                core::fmt::num::imp::<impl core::fmt::UpperExp for u16>::fmt
 .text._ZN4core3fmt3num3imp53_$LT$impl$u20$core..fmt..UpperExp$u20$for$u20$i32$GT$3fmt17hf0350addfa1667d3E
                0x00000000001284d8       0x30 ./gen/../tr_api_dispatch/target/armv7a-none-eabi/release/libitron.a(core-d049573bc16596f9.core.5587a85061e7188a-cgu.0.rcgu.o)
                0x00000000001284d8                core::fmt::num::imp::<impl core::fmt::UpperExp for isize>::fmt
                0x00000000001284d8                core::fmt::num::imp::<impl core::fmt::UpperExp for i32>::fmt
 .text._ZN4core3fmt3num3imp53_$LT$impl$u20$core..fmt..UpperExp$u20$for$u20$u32$GT$3fmt17he78d3191f07bcd68E
                0x0000000000128508       0x20 ./gen/../tr_api_dispatch/target/armv7a-none-eabi/release/libitron.a(core-d049573bc16596f9.core.5587a85061e7188a-cgu.0.rcgu.o)
                0x0000000000128508                core::fmt::num::imp::<impl core::fmt::UpperExp for u32>::fmt
                0x0000000000128508                core::fmt::num::imp::<impl core::fmt::UpperExp for usize>::fmt
 .text._ZN4core3fmt3num3imp7exp_u6417h10bcc1a2e249db0dE
                0x0000000000128528      0x6a4 ./gen/../tr_api_dispatch/target/armv7a-none-eabi/release/libitron.a(core-d049573bc16596f9.core.5587a85061e7188a-cgu.0.rcgu.o)
 .text._ZN4core3fmt3num3imp53_$LT$impl$u20$core..fmt..LowerExp$u20$for$u20$i64$GT$3fmt17hcf4752f526debdaeE
                0x0000000000128bcc       0x40 ./gen/../tr_api_dispatch/target/armv7a-none-eabi/release/libitron.a(core-d049573bc16596f9.core.5587a85061e7188a-cgu.0.rcgu.o)
                0x0000000000128bcc                core::fmt::num::imp::<impl core::fmt::LowerExp for i64>::fmt
 .text._ZN4core3fmt3num3imp53_$LT$impl$u20$core..fmt..LowerExp$u20$for$u20$u64$GT$3fmt17h1137bee068b4f16aE
                0x0000000000128c0c       0x2c ./gen/../tr_api_dispatch/target/armv7a-none-eabi/release/libitron.a(core-d049573bc16596f9.core.5587a85061e7188a-cgu.0.rcgu.o)
                0x0000000000128c0c                core::fmt::num::imp::<impl core::fmt::LowerExp for u64>::fmt
 .text._ZN4core3fmt3num3imp53_$LT$impl$u20$core..fmt..UpperExp$u20$for$u20$i64$GT$3fmt17hb868ad8f77e533adE
                0x0000000000128c38       0x40 ./gen/../tr_api_dispatch/target/armv7a-none-eabi/release/libitron.a(core-d049573bc16596f9.core.5587a85061e7188a-cgu.0.rcgu.o)
                0x0000000000128c38                core::fmt::num::imp::<impl core::fmt::UpperExp for i64>::fmt
 .text._ZN4core3fmt3num3imp53_$LT$impl$u20$core..fmt..UpperExp$u20$for$u20$u64$GT$3fmt17h63c965249d38ffaaE
                0x0000000000128c78       0x2c ./gen/../tr_api_dispatch/target/armv7a-none-eabi/release/libitron.a(core-d049573bc16596f9.core.5587a85061e7188a-cgu.0.rcgu.o)
                0x0000000000128c78                core::fmt::num::imp::<impl core::fmt::UpperExp for u64>::fmt
 .text._ZN4core3fmt3num8exp_u12817hebe915adc93a3f65E
                0x0000000000128ca4     0x3264 ./gen/../tr_api_dispatch/target/armv7a-none-eabi/release/libitron.a(core-d049573bc16596f9.core.5587a85061e7188a-cgu.0.rcgu.o)
 .text._ZN4core3fmt3num54_$LT$impl$u20$core..fmt..LowerExp$u20$for$u20$i128$GT$3fmt17h5da6959838468447E
                0x000000000012bf08       0x5c ./gen/../tr_api_dispatch/target/armv7a-none-eabi/release/libitron.a(core-d049573bc16596f9.core.5587a85061e7188a-cgu.0.rcgu.o)
                0x000000000012bf08                core::fmt::num::<impl core::fmt::LowerExp for i128>::fmt
 .text._ZN4core3fmt3num54_$LT$impl$u20$core..fmt..LowerExp$u20$for$u20$u128$GT$3fmt17h376c18320fa0ab27E
                0x000000000012bf64       0x3c ./gen/../tr_api_dispatch/target/armv7a-none-eabi/release/libitron.a(core-d049573bc16596f9.core.5587a85061e7188a-cgu.0.rcgu.o)
                0x000000000012bf64                core::fmt::num::<impl core::fmt::LowerExp for u128>::fmt
 .text._ZN4core3fmt3num54_$LT$impl$u20$core..fmt..UpperExp$u20$for$u20$i128$GT$3fmt17h4fa0aa44e9ac138bE
                0x000000000012bfa0       0x5c ./gen/../tr_api_dispatch/target/armv7a-none-eabi/release/libitron.a(core-d049573bc16596f9.core.5587a85061e7188a-cgu.0.rcgu.o)
                0x000000000012bfa0                core::fmt::num::<impl core::fmt::UpperExp for i128>::fmt
 .text._ZN4core3fmt3num54_$LT$impl$u20$core..fmt..UpperExp$u20$for$u20$u128$GT$3fmt17h8104a47a73970792E
                0x000000000012bffc       0x38 ./gen/../tr_api_dispatch/target/armv7a-none-eabi/release/libitron.a(core-d049573bc16596f9.core.5587a85061e7188a-cgu.0.rcgu.o)
                0x000000000012bffc                core::fmt::num::<impl core::fmt::UpperExp for u128>::fmt
 .text._ZN53_$LT$core..fmt..Error$u20$as$u20$core..fmt..Debug$GT$3fmt17h1fc33b0efc6d4457E
                0x000000000012c034       0x24 ./gen/../tr_api_dispatch/target/armv7a-none-eabi/release/libitron.a(core-d049573bc16596f9.core.5587a85061e7188a-cgu.0.rcgu.o)
 .text._ZN42_$LT$$RF$T$u20$as$u20$core..fmt..Debug$GT$3fmt17h24b88fa73242f32eE
                0x000000000012c058       0xc0 ./gen/../tr_api_dispatch/target/armv7a-none-eabi/release/libitron.a(core-d049573bc16596f9.core.5587a85061e7188a-cgu.0.rcgu.o)
 .text._ZN42_$LT$$RF$T$u20$as$u20$core..fmt..Debug$GT$3fmt17h2b8606028715b277E
                0x000000000012c118       0xd8 ./gen/../tr_api_dispatch/target/armv7a-none-eabi/release/libitron.a(core-d049573bc16596f9.core.5587a85061e7188a-cgu.0.rcgu.o)
 .text._ZN42_$LT$$RF$T$u20$as$u20$core..fmt..Debug$GT$3fmt17h2c94c47449fce077E
                0x000000000012c1f0       0x18 ./gen/../tr_api_dispatch/target/armv7a-none-eabi/release/libitron.a(core-d049573bc16596f9.core.5587a85061e7188a-cgu.0.rcgu.o)
 .text._ZN42_$LT$$RF$T$u20$as$u20$core..fmt..Debug$GT$3fmt17hf161bf64d7c0ef1eE
                0x000000000012c208       0x14 ./gen/../tr_api_dispatch/target/armv7a-none-eabi/release/libitron.a(core-d049573bc16596f9.core.5587a85061e7188a-cgu.0.rcgu.o)
 .text._ZN44_$LT$$RF$T$u20$as$u20$core..fmt..Display$GT$3fmt17h61386bb67a2fbd60E
                0x000000000012c21c       0x14 ./gen/../tr_api_dispatch/target/armv7a-none-eabi/release/libitron.a(core-d049573bc16596f9.core.5587a85061e7188a-cgu.0.rcgu.o)
 .text._ZN44_$LT$$RF$T$u20$as$u20$core..fmt..Display$GT$3fmt17h8f0befc82ddda638E
                0x000000000012c230       0x20 ./gen/../tr_api_dispatch/target/armv7a-none-eabi/release/libitron.a(core-d049573bc16596f9.core.5587a85061e7188a-cgu.0.rcgu.o)
 .text._ZN44_$LT$$RF$T$u20$as$u20$core..fmt..Display$GT$3fmt17hfac9eb6f9e514871E
                0x000000000012c250       0x14 ./gen/../tr_api_dispatch/target/armv7a-none-eabi/release/libitron.a(core-d049573bc16596f9.core.5587a85061e7188a-cgu.0.rcgu.o)
 .text._ZN44_$LT$$RF$T$u20$as$u20$core..fmt..Display$GT$3fmt17hfcf05cee7c9056f6E
                0x000000000012c264       0x14 ./gen/../tr_api_dispatch/target/armv7a-none-eabi/release/libitron.a(core-d049573bc16596f9.core.5587a85061e7188a-cgu.0.rcgu.o)
 .text._ZN45_$LT$$RF$T$u20$as$u20$core..fmt..LowerHex$GT$3fmt17ha26303ddcb46393bE
                0x000000000012c278       0x74 ./gen/../tr_api_dispatch/target/armv7a-none-eabi/release/libitron.a(core-d049573bc16596f9.core.5587a85061e7188a-cgu.0.rcgu.o)
 .text.unlikely._ZN4core5slice5index26slice_start_index_len_fail8do_panic7runtime17h6b9a2d72cc528d7dE
                0x000000000012c2ec       0x64 ./gen/../tr_api_dispatch/target/armv7a-none-eabi/release/libitron.a(core-d049573bc16596f9.core.5587a85061e7188a-cgu.0.rcgu.o)
                0x000000000012c2ec                core::slice::index::slice_start_index_len_fail::do_panic::runtime
 .text.unlikely._ZN4core5slice5index24slice_end_index_len_fail8do_panic7runtime17h389d609c37b06f43E
                0x000000000012c350       0x64 ./gen/../tr_api_dispatch/target/armv7a-none-eabi/release/libitron.a(core-d049573bc16596f9.core.5587a85061e7188a-cgu.0.rcgu.o)
                0x000000000012c350                core::slice::index::slice_end_index_len_fail::do_panic::runtime
 .text.unlikely._ZN4core5slice5index22slice_index_order_fail8do_panic7runtime17hba4d89077763ab27E
                0x000000000012c3b4       0x64 ./gen/../tr_api_dispatch/target/armv7a-none-eabi/release/libitron.a(core-d049573bc16596f9.core.5587a85061e7188a-cgu.0.rcgu.o)
                0x000000000012c3b4                core::slice::index::slice_index_order_fail::do_panic::runtime
 .text.unlikely._ZN4core5slice29_$LT$impl$u20$$u5b$T$u5d$$GT$15copy_from_slice17len_mismatch_fail8do_panic7runtime17ha2cc200a2ee383aeE
                0x000000000012c418       0x68 ./gen/../tr_api_dispatch/target/armv7a-none-eabi/release/libitron.a(core-d049573bc16596f9.core.5587a85061e7188a-cgu.0.rcgu.o)
                0x000000000012c418                core::slice::<impl [T]>::copy_from_slice::len_mismatch_fail::do_panic::runtime
 .text._ZN67_$LT$core..str..iter..EscapeDebug$u20$as$u20$core..fmt..Display$GT$3fmt17h2e2431f416ffb01dE
                0x000000000012c480      0x984 ./gen/../tr_api_dispatch/target/armv7a-none-eabi/release/libitron.a(core-d049573bc16596f9.core.5587a85061e7188a-cgu.0.rcgu.o)
                0x000000000012c480                <core::str::iter::EscapeDebug as core::fmt::Display>::fmt
 .text._ZN69_$LT$core..str..iter..EscapeDefault$u20$as$u20$core..fmt..Display$GT$3fmt17ha94bdd14781dc3d5E
                0x000000000012ce04      0x590 ./gen/../tr_api_dispatch/target/armv7a-none-eabi/release/libitron.a(core-d049573bc16596f9.core.5587a85061e7188a-cgu.0.rcgu.o)
                0x000000000012ce04                <core::str::iter::EscapeDefault as core::fmt::Display>::fmt
 .text._ZN69_$LT$core..str..iter..EscapeUnicode$u20$as$u20$core..fmt..Display$GT$3fmt17h5c27075c7f7ee5aeE
                0x000000000012d394      0x3ac ./gen/../tr_api_dispatch/target/armv7a-none-eabi/release/libitron.a(core-d049573bc16596f9.core.5587a85061e7188a-cgu.0.rcgu.o)
                0x000000000012d394                <core::str::iter::EscapeUnicode as core::fmt::Display>::fmt
 .text._ZN4core7unicode12unicode_data10alphabetic6lookup17h0425ea10b4aa7bf8E
                0x000000000012d740      0x118 ./gen/../tr_api_dispatch/target/armv7a-none-eabi/release/libitron.a(core-d049573bc16596f9.core.5587a85061e7188a-cgu.0.rcgu.o)
                0x000000000012d740                core::unicode::unicode_data::alphabetic::lookup
 .text._ZN4core7unicode12unicode_data14case_ignorable6lookup17ha88a31073cb4ea00E
                0x000000000012d858      0x118 ./gen/../tr_api_dispatch/target/armv7a-none-eabi/release/libitron.a(core-d049573bc16596f9.core.5587a85061e7188a-cgu.0.rcgu.o)
                0x000000000012d858                core::unicode::unicode_data::case_ignorable::lookup
 .text._ZN4core7unicode12unicode_data5cased6lookup17h855070ae3579273aE
                0x000000000012d970      0x104 ./gen/../tr_api_dispatch/target/armv7a-none-eabi/release/libitron.a(core-d049573bc16596f9.core.5587a85061e7188a-cgu.0.rcgu.o)
                0x000000000012d970                core::unicode::unicode_data::cased::lookup
 .text._ZN4core7unicode12unicode_data2cc6lookup17hbd92340422846ed5E
                0x000000000012da74       0x2c ./gen/../tr_api_dispatch/target/armv7a-none-eabi/release/libitron.a(core-d049573bc16596f9.core.5587a85061e7188a-cgu.0.rcgu.o)
                0x000000000012da74                core::unicode::unicode_data::cc::lookup
 .text._ZN4core7unicode12unicode_data15grapheme_extend11lookup_slow17ha0f2bcc528f4b24fE
                0x000000000012daa0      0x118 ./gen/../tr_api_dispatch/target/armv7a-none-eabi/release/libitron.a(core-d049573bc16596f9.core.5587a85061e7188a-cgu.0.rcgu.o)
                0x000000000012daa0                core::unicode::unicode_data::grapheme_extend::lookup_slow
 .text._ZN4core7unicode12unicode_data9lowercase6lookup17h25b6cb6d69b065d2E
                0x000000000012dbb8      0x15c ./gen/../tr_api_dispatch/target/armv7a-none-eabi/release/libitron.a(core-d049573bc16596f9.core.5587a85061e7188a-cgu.0.rcgu.o)
                0x000000000012dbb8                core::unicode::unicode_data::lowercase::lookup
 .text._ZN4core7unicode12unicode_data1n6lookup17hab35f8f69f966811E
                0x000000000012dd14      0x118 ./gen/../tr_api_dispatch/target/armv7a-none-eabi/release/libitron.a(core-d049573bc16596f9.core.5587a85061e7188a-cgu.0.rcgu.o)
                0x000000000012dd14                core::unicode::unicode_data::n::lookup
 .text._ZN4core7unicode12unicode_data9uppercase6lookup17h93e2abe42af36001E
                0x000000000012de2c      0x15c ./gen/../tr_api_dispatch/target/armv7a-none-eabi/release/libitron.a(core-d049573bc16596f9.core.5587a85061e7188a-cgu.0.rcgu.o)
                0x000000000012de2c                core::unicode::unicode_data::uppercase::lookup
 .text._ZN4core7unicode12unicode_data11conversions8to_lower17h8b23e01b2072e971E
                0x000000000012df88      0x158 ./gen/../tr_api_dispatch/target/armv7a-none-eabi/release/libitron.a(core-d049573bc16596f9.core.5587a85061e7188a-cgu.0.rcgu.o)
                0x000000000012df88                core::unicode::unicode_data::conversions::to_lower
 .text._ZN4core7unicode12unicode_data11conversions8to_upper17hb90ef9b0b7a7f5d4E
                0x000000000012e0e0      0x168 ./gen/../tr_api_dispatch/target/armv7a-none-eabi/release/libitron.a(core-d049573bc16596f9.core.5587a85061e7188a-cgu.0.rcgu.o)
                0x000000000012e0e0                core::unicode::unicode_data::conversions::to_upper
 .text.__aeabi_memset
                0x000000000012e248       0x84 ./gen/../tr_api_dispatch/target/armv7a-none-eabi/release/libitron.a(compiler_builtins-70f608aea3cde50d.compiler_builtins.5a681add74c93a61-cgu.162.rcgu.o)
                0x000000000012e248                __aeabi_memset
 .text.__aeabi_memcpy4
                0x000000000012e2cc       0x2c ./gen/../tr_api_dispatch/target/armv7a-none-eabi/release/libitron.a(compiler_builtins-70f608aea3cde50d.compiler_builtins.5a681add74c93a61-cgu.174.rcgu.o)
                0x000000000012e2cc                __aeabi_memcpy4
 .text.__aeabi_dmul
                0x000000000012e2f8       0x10 ./gen/../tr_api_dispatch/target/armv7a-none-eabi/release/libitron.a(compiler_builtins-70f608aea3cde50d.compiler_builtins.5a681add74c93a61-cgu.178.rcgu.o)
                0x000000000012e2f8                __aeabi_dmul
 .text.__aeabi_fcmplt
                0x000000000012e308       0x64 ./gen/../tr_api_dispatch/target/armv7a-none-eabi/release/libitron.a(compiler_builtins-70f608aea3cde50d.compiler_builtins.5a681add74c93a61-cgu.180.rcgu.o)
                0x000000000012e308                __aeabi_fcmplt
 .text.__aeabi_memclr4
                0x000000000012e36c       0x44 ./gen/../tr_api_dispatch/target/armv7a-none-eabi/release/libitron.a(compiler_builtins-70f608aea3cde50d.compiler_builtins.5a681add74c93a61-cgu.201.rcgu.o)
                0x000000000012e36c                __aeabi_memclr4
 .text.__aeabi_fcmpge
                0x000000000012e3b0       0x6c ./gen/../tr_api_dispatch/target/armv7a-none-eabi/release/libitron.a(compiler_builtins-70f608aea3cde50d.compiler_builtins.5a681add74c93a61-cgu.206.rcgu.o)
                0x000000000012e3b0                __aeabi_fcmpge
 .text.__aeabi_f2h
                0x000000000012e41c      0x128 ./gen/../tr_api_dispatch/target/armv7a-none-eabi/release/libitron.a(compiler_builtins-70f608aea3cde50d.compiler_builtins.5a681add74c93a61-cgu.210.rcgu.o)
                0x000000000012e41c                __aeabi_f2h
 .text.__aeabi_memcpy
                0x000000000012e544       0x10 ./gen/../tr_api_dispatch/target/armv7a-none-eabi/release/libitron.a(compiler_builtins-70f608aea3cde50d.compiler_builtins.5a681add74c93a61-cgu.223.rcgu.o)
                0x000000000012e544                __aeabi_memcpy
 .text.__aeabi_memcpy8
                0x000000000012e554       0x2c ./gen/../tr_api_dispatch/target/armv7a-none-eabi/release/libitron.a(compiler_builtins-70f608aea3cde50d.compiler_builtins.5a681add74c93a61-cgu.253.rcgu.o)
                0x000000000012e554                __aeabi_memcpy8
 .text.__aeabi_dcmplt
                0x000000000012e580       0x78 ./gen/../tr_api_dispatch/target/armv7a-none-eabi/release/libitron.a(compiler_builtins-70f608aea3cde50d.compiler_builtins.5a681add74c93a61-cgu.261.rcgu.o)
                0x000000000012e580                __aeabi_dcmplt
 .text.__aeabi_ddiv
                0x000000000012e5f8       0x10 ./gen/../tr_api_dispatch/target/armv7a-none-eabi/release/libitron.a(compiler_builtins-70f608aea3cde50d.compiler_builtins.5a681add74c93a61-cgu.263.rcgu.o)
                0x000000000012e5f8                __aeabi_ddiv
 .text.__aeabi_ul2d
                0x000000000012e608       0x88 ./gen/../tr_api_dispatch/target/armv7a-none-eabi/release/libitron.a(compiler_builtins-70f608aea3cde50d.compiler_builtins.5a681add74c93a61-cgu.270.rcgu.o)
                0x000000000012e608                __aeabi_ul2d
 .text.__aeabi_fcmpeq
                0x000000000012e690       0x54 ./gen/../tr_api_dispatch/target/armv7a-none-eabi/release/libitron.a(compiler_builtins-70f608aea3cde50d.compiler_builtins.5a681add74c93a61-cgu.283.rcgu.o)
                0x000000000012e690                __aeabi_fcmpeq
 .text.__aeabi_dcmpeq
                0x000000000012e6e4       0x68 ./gen/../tr_api_dispatch/target/armv7a-none-eabi/release/libitron.a(compiler_builtins-70f608aea3cde50d.compiler_builtins.5a681add74c93a61-cgu.287.rcgu.o)
                0x000000000012e6e4                __aeabi_dcmpeq
 .text.__aeabi_h2f
                0x000000000012e74c       0x9c ./gen/../tr_api_dispatch/target/armv7a-none-eabi/release/libitron.a(compiler_builtins-70f608aea3cde50d.compiler_builtins.5a681add74c93a61-cgu.300.rcgu.o)
                0x000000000012e74c                __aeabi_h2f
 .text.memcmp   0x000000000012e7e8       0x44 ./gen/../tr_api_dispatch/target/armv7a-none-eabi/release/libitron.a(compiler_builtins-70f608aea3cde50d.compiler_builtins.5a681add74c93a61-cgu.310.rcgu.o)
                0x000000000012e7e8                memcmp
 .text.__aeabi_fdiv
                0x000000000012e82c       0x10 ./gen/../tr_api_dispatch/target/armv7a-none-eabi/release/libitron.a(compiler_builtins-70f608aea3cde50d.compiler_builtins.5a681add74c93a61-cgu.355.rcgu.o)
                0x000000000012e82c                __aeabi_fdiv
 .text.__aeabi_dcmpge
                0x000000000012e83c       0x80 ./gen/../tr_api_dispatch/target/armv7a-none-eabi/release/libitron.a(compiler_builtins-70f608aea3cde50d.compiler_builtins.5a681add74c93a61-cgu.361.rcgu.o)
                0x000000000012e83c                __aeabi_dcmpge
 .text.__aeabi_ul2f
                0x000000000012e8bc       0x74 ./gen/../tr_api_dispatch/target/armv7a-none-eabi/release/libitron.a(compiler_builtins-70f608aea3cde50d.compiler_builtins.5a681add74c93a61-cgu.365.rcgu.o)
                0x000000000012e8bc                __aeabi_ul2f
 .text.__aeabi_memclr8
                0x000000000012e930       0x44 ./gen/../tr_api_dispatch/target/armv7a-none-eabi/release/libitron.a(compiler_builtins-70f608aea3cde50d.compiler_builtins.5a681add74c93a61-cgu.375.rcgu.o)
                0x000000000012e930                __aeabi_memclr8
 .text.__aeabi_fmul
                0x000000000012e974       0x10 ./gen/../tr_api_dispatch/target/armv7a-none-eabi/release/libitron.a(compiler_builtins-70f608aea3cde50d.compiler_builtins.5a681add74c93a61-cgu.393.rcgu.o)
                0x000000000012e974                __aeabi_fmul
 .text.__aeabi_memclr
                0x000000000012e984       0x80 ./gen/../tr_api_dispatch/target/armv7a-none-eabi/release/libitron.a(compiler_builtins-70f608aea3cde50d.compiler_builtins.5a681add74c93a61-cgu.395.rcgu.o)
                0x000000000012e984                __aeabi_memclr
 .text.__aeabi_uldivmod
                0x000000000012ea04       0x24 ./gen/../tr_api_dispatch/target/armv7a-none-eabi/release/libitron.a(compiler_builtins-70f608aea3cde50d.compiler_builtins.5a681add74c93a61-cgu.410.rcgu.o)
                0x000000000012ea04                __aeabi_uldivmod
 .text.__aeabi_uidivmod
                0x000000000012ea28       0x1c ./gen/../tr_api_dispatch/target/armv7a-none-eabi/release/libitron.a(compiler_builtins-70f608aea3cde50d.compiler_builtins.5a681add74c93a61-cgu.411.rcgu.o)
                0x000000000012ea28                __aeabi_uidivmod
 .text._ZN17compiler_builtins5float3div3div17he78d0620a7b75566E
                0x000000000012ea44      0xbe8 ./gen/../tr_api_dispatch/target/armv7a-none-eabi/release/libitron.a(compiler_builtins-70f608aea3cde50d.compiler_builtins.5a681add74c93a61-cgu.000.rcgu.o)
                0x000000000012ea44                compiler_builtins::float::div::div
 .text._ZN17compiler_builtins5float3div8__divsf317h2b1d2160bcddc788E
                0x000000000012f62c      0x258 ./gen/../tr_api_dispatch/target/armv7a-none-eabi/release/libitron.a(compiler_builtins-70f608aea3cde50d.compiler_builtins.5a681add74c93a61-cgu.000.rcgu.o)
                0x000000000012f62c                compiler_builtins::float::div::__divsf3
 .text._ZN17compiler_builtins5float3div8__divdf317hce8b9ad476be59d6E
                0x000000000012f884      0x3f8 ./gen/../tr_api_dispatch/target/armv7a-none-eabi/release/libitron.a(compiler_builtins-70f608aea3cde50d.compiler_builtins.5a681add74c93a61-cgu.000.rcgu.o)
                0x000000000012f884                compiler_builtins::float::div::__divdf3
 .text._ZN17compiler_builtins5float3mul3mul17hf2a17768751d3093E
                0x000000000012fc7c      0x6e8 ./gen/../tr_api_dispatch/target/armv7a-none-eabi/release/libitron.a(compiler_builtins-70f608aea3cde50d.compiler_builtins.5a681add74c93a61-cgu.004.rcgu.o)
                0x000000000012fc7c                compiler_builtins::float::mul::mul
 .text._ZN17compiler_builtins5float3mul8__mulsf317h25278f3241c059d4E
                0x0000000000130364      0x1c4 ./gen/../tr_api_dispatch/target/armv7a-none-eabi/release/libitron.a(compiler_builtins-70f608aea3cde50d.compiler_builtins.5a681add74c93a61-cgu.004.rcgu.o)
                0x0000000000130364                compiler_builtins::float::mul::__mulsf3
 .text._ZN17compiler_builtins5float3mul8__muldf317hccb81ca3c0286231E
                0x0000000000130528      0x34c ./gen/../tr_api_dispatch/target/armv7a-none-eabi/release/libitron.a(compiler_builtins-70f608aea3cde50d.compiler_builtins.5a681add74c93a61-cgu.004.rcgu.o)
                0x0000000000130528                compiler_builtins::float::mul::__muldf3
 .text._ZN17compiler_builtins3mem6memcpy17h2e27bf7b653d77b8E
                0x0000000000130874      0x1d4 ./gen/../tr_api_dispatch/target/armv7a-none-eabi/release/libitron.a(compiler_builtins-70f608aea3cde50d.compiler_builtins.5a681add74c93a61-cgu.009.rcgu.o)
                0x0000000000130874                compiler_builtins::mem::memcpy
 .text._ZN17compiler_builtins3mem7memmove17h5a3e1228d8082146E
                0x0000000000130a48      0x438 ./gen/../tr_api_dispatch/target/armv7a-none-eabi/release/libitron.a(compiler_builtins-70f608aea3cde50d.compiler_builtins.5a681add74c93a61-cgu.009.rcgu.o)
                0x0000000000130a48                compiler_builtins::mem::memmove
 .text._ZN17compiler_builtins3mem6memset17h37b1769849978255E
                0x0000000000130e80       0x9c ./gen/../tr_api_dispatch/target/armv7a-none-eabi/release/libitron.a(compiler_builtins-70f608aea3cde50d.compiler_builtins.5a681add74c93a61-cgu.009.rcgu.o)
                0x0000000000130e80                compiler_builtins::mem::memset
 .text._ZN17compiler_builtins3mem4bcmp17h6438afe9a882ff74E
                0x0000000000130f1c       0x44 ./gen/../tr_api_dispatch/target/armv7a-none-eabi/release/libitron.a(compiler_builtins-70f608aea3cde50d.compiler_builtins.5a681add74c93a61-cgu.009.rcgu.o)
                0x0000000000130f1c                compiler_builtins::mem::bcmp
                0x0000000000130f1c                compiler_builtins::mem::memcmp
 .text._ZN17compiler_builtins3mem6strlen17hdb1c52627ea21c52E
                0x0000000000130f60       0x38 ./gen/../tr_api_dispatch/target/armv7a-none-eabi/release/libitron.a(compiler_builtins-70f608aea3cde50d.compiler_builtins.5a681add74c93a61-cgu.009.rcgu.o)
                0x0000000000130f60                compiler_builtins::mem::strlen
 .text._ZN84_$LT$compiler_builtins..int..big..u256$u20$as$u20$core..ops..bit..Shr$LT$u32$GT$$GT$3shr17h700137e2b572ae43E
                0x0000000000130f98      0x240 ./gen/../tr_api_dispatch/target/armv7a-none-eabi/release/libitron.a(compiler_builtins-70f608aea3cde50d.compiler_builtins.5a681add74c93a61-cgu.019.rcgu.o)
                0x0000000000130f98                <compiler_builtins::int::big::u256 as core::ops::bit::Shr<u32>>::shr
 .text._ZN17compiler_builtins3int3big71_$LT$impl$u20$compiler_builtins..int..traits..HInt$u20$for$u20$u128$GT$14zero_widen_mul17h2a6f60738a72942fE
                0x00000000001311d8      0x214 ./gen/../tr_api_dispatch/target/armv7a-none-eabi/release/libitron.a(compiler_builtins-70f608aea3cde50d.compiler_builtins.5a681add74c93a61-cgu.019.rcgu.o)
                0x00000000001311d8                compiler_builtins::int::big::<impl compiler_builtins::int::traits::HInt for u128>::zero_widen_mul
 .text._ZN17compiler_builtins3int3big71_$LT$impl$u20$compiler_builtins..int..traits..HInt$u20$for$u20$i128$GT$14zero_widen_mul17h757cd97f511fe0d1E
                0x00000000001313ec       0x40 ./gen/../tr_api_dispatch/target/armv7a-none-eabi/release/libitron.a(compiler_builtins-70f608aea3cde50d.compiler_builtins.5a681add74c93a61-cgu.019.rcgu.o)
                0x00000000001313ec                compiler_builtins::int::big::<impl compiler_builtins::int::traits::HInt for i128>::zero_widen_mul
                0x00000000001313ec                compiler_builtins::int::big::<impl compiler_builtins::int::traits::HInt for u128>::widen_mul
 .text.unlikely._ZN17compiler_builtins3int3big71_$LT$impl$u20$compiler_builtins..int..traits..HInt$u20$for$u20$i128$GT$9widen_mul17hbe745c677a8cf624E
                0x000000000013142c        0xc ./gen/../tr_api_dispatch/target/armv7a-none-eabi/release/libitron.a(compiler_builtins-70f608aea3cde50d.compiler_builtins.5a681add74c93a61-cgu.019.rcgu.o)
                0x000000000013142c                compiler_builtins::int::big::<impl compiler_builtins::int::traits::HInt for i128>::widen_mul
 .text.unlikely._ZN17compiler_builtins3int3big71_$LT$impl$u20$compiler_builtins..int..traits..HInt$u20$for$u20$i128$GT$8widen_hi17hd02f55ec31f3daf8E
                0x0000000000131438        0xc ./gen/../tr_api_dispatch/target/armv7a-none-eabi/release/libitron.a(compiler_builtins-70f608aea3cde50d.compiler_builtins.5a681add74c93a61-cgu.019.rcgu.o)
                0x0000000000131438                compiler_builtins::int::big::<impl compiler_builtins::int::traits::HInt for u128>::widen_hi
                0x0000000000131438                compiler_builtins::int::big::<impl compiler_builtins::int::traits::HInt for i128>::widen_hi
 .text._ZN90_$LT$compiler_builtins..int..big..i256$u20$as$u20$compiler_builtins..int..traits..DInt$GT$2lo17h7b22363a25d41783E
                0x0000000000131444       0x1c ./gen/../tr_api_dispatch/target/armv7a-none-eabi/release/libitron.a(compiler_builtins-70f608aea3cde50d.compiler_builtins.5a681add74c93a61-cgu.019.rcgu.o)
                0x0000000000131444                <compiler_builtins::int::big::i256 as compiler_builtins::int::traits::DInt>::lo
                0x0000000000131444                <compiler_builtins::int::big::u256 as compiler_builtins::int::traits::DInt>::lo
 .text._ZN90_$LT$compiler_builtins..int..big..i256$u20$as$u20$compiler_builtins..int..traits..DInt$GT$2hi17h3540cc33fb75817bE
                0x0000000000131460       0x20 ./gen/../tr_api_dispatch/target/armv7a-none-eabi/release/libitron.a(compiler_builtins-70f608aea3cde50d.compiler_builtins.5a681add74c93a61-cgu.019.rcgu.o)
                0x0000000000131460                <compiler_builtins::int::big::u256 as compiler_builtins::int::traits::DInt>::hi
                0x0000000000131460                <compiler_builtins::int::big::i256 as compiler_builtins::int::traits::DInt>::hi
 .text._ZN17compiler_builtins3int6traits4DInt5lo_hi17ha308a58add6cc6a0E
                0x0000000000131480       0x2c ./gen/../tr_api_dispatch/target/armv7a-none-eabi/release/libitron.a(compiler_builtins-70f608aea3cde50d.compiler_builtins.5a681add74c93a61-cgu.019.rcgu.o)
                0x0000000000131480                compiler_builtins::int::traits::DInt::lo_hi
 .text.unlikely._ZN84_$LT$compiler_builtins..int..big..i256$u20$as$u20$core..ops..bit..Shl$LT$u32$GT$$GT$3shl17h7aea36307c5c7502E
                0x00000000001314ac        0xc ./gen/../tr_api_dispatch/target/armv7a-none-eabi/release/libitron.a(compiler_builtins-70f608aea3cde50d.compiler_builtins.5a681add74c93a61-cgu.019.rcgu.o)
                0x00000000001314ac                <compiler_builtins::int::big::u256 as core::ops::bit::Shl<u32>>::shl
                0x00000000001314ac                <compiler_builtins::int::big::i256 as core::ops::bit::Shl<u32>>::shl
 .text.__udivmoddi4
                0x00000000001314b8       0x4c ./gen/../tr_api_dispatch/target/armv7a-none-eabi/release/libitron.a(compiler_builtins-70f608aea3cde50d.compiler_builtins.5a681add74c93a61-cgu.347.rcgu.o)
                0x00000000001314b8                __udivmoddi4
 .text.__aeabi_idiv0
                0x0000000000131504        0x4 ./gen/../tr_api_dispatch/target/armv7a-none-eabi/release/libitron.a(63f8a0b8a638da8c-aeabi_div0.o)
                0x0000000000131504                __aeabi_idiv0
 .text.__aeabi_ldiv0
                0x0000000000131508        0x4 ./gen/../tr_api_dispatch/target/armv7a-none-eabi/release/libitron.a(63f8a0b8a638da8c-aeabi_div0.o)
                0x0000000000131508                __aeabi_ldiv0
 .text._ZN17compiler_builtins3int19specialized_div_rem12u128_div_rem17h745fc7146425b8c6E
                0x000000000013150c      0x698 ./gen/../tr_api_dispatch/target/armv7a-none-eabi/release/libitron.a(compiler_builtins-70f608aea3cde50d.compiler_builtins.5a681add74c93a61-cgu.010.rcgu.o)
                0x000000000013150c                compiler_builtins::int::specialized_div_rem::u128_div_rem
 .text._ZN17compiler_builtins3int19specialized_div_rem11u64_div_rem17h1dcded8ad6a6aa41E
                0x0000000000131ba4      0x2d8 ./gen/../tr_api_dispatch/target/armv7a-none-eabi/release/libitron.a(compiler_builtins-70f608aea3cde50d.compiler_builtins.5a681add74c93a61-cgu.010.rcgu.o)
                0x0000000000131ba4                compiler_builtins::int::specialized_div_rem::u64_div_rem
 *(.glue_7t)
 .glue_7t       0x0000000000131e7c        0x0 linker stubs
 *(.glue_7)
 .glue_7        0x0000000000131e7c        0x0 linker stubs
                0x0000000000131e7c                __end_kernel = .
                0x0000000000131e7c                _etext = .
                [!provide]                        PROVIDE (etext = .)

.vfp11_veneer   0x0000000000131e7c        0x0
 .vfp11_veneer  0x0000000000131e7c        0x0 linker stubs

.v4_bx          0x0000000000131e7c        0x0
 .v4_bx         0x0000000000131e7c        0x0 linker stubs

.iplt           0x0000000000131e7c        0x0
 .iplt          0x0000000000131e7c        0x0 objs/start.o

.rodata         0x0000000000131e7c     0xf1fc
                0x0000000000131e7c                __start_rodata = .
 *(.rodata)
 .rodata        0x0000000000131e7c       0x31 objs/log_output.o
 *fill*         0x0000000000131ead        0x3 
 .rodata        0x0000000000131eb0       0x2d objs/t_perror.o
 *fill*         0x0000000000131edd        0x3 
 .rodata        0x0000000000131ee0      0x108 objs/strerror.o
 .rodata        0x0000000000131fe8        0x4 objs/tTask_rProcessor1Migratable_tecsgen.o
                0x0000000000131fe8                tTask_INIB_tab
 .rodata        0x0000000000131fec        0x8 objs/tSemaphore_rProcessor1Migratable_tecsgen.o
                0x0000000000131fec                tSemaphore_INIB_tab
 .rodata        0x0000000000131ff4        0x4 objs/tInterruptRequest_rProcessor1Migratable_tecsgen.o
                0x0000000000131ff4                tInterruptRequest_INIB_tab
 .rodata        0x0000000000131ff8        0x4 objs/tISR_rProcessor1Migratable_tecsgen.o
                0x0000000000131ff8                tISR_INIB_tab
 .rodata        0x0000000000131ffc        0x8 objs/tTerminateRoutine_rProcessor1Migratable_tecsgen.o
                0x0000000000131ffc                tTerminateRoutine_INIB_tab
 .rodata        0x0000000000132004       0x30 objs/tSerialPortMain_rProcessor1Migratable_tecsgen.o
                0x0000000000132004                tSerialPortMain_INIB_tab
                0x0000000000132014                rProcessor1Migratable_SerialPort1_SerialPortMain_eSerialPort_des
                0x000000000013201c                tSerialPortMain_eSerialPort_MT_
 .rodata        0x0000000000132034        0xc objs/tSerialAdapter_rProcessor1Migratable_tecsgen.o
                0x0000000000132034                tSerialAdapter_SINGLE_CELL_INIB
                0x000000000013203c                rProcessor1Migratable_SerialAdapter_cSerialPort
 .rodata        0x0000000000132040       0x10 objs/tSysLog_rProcessor1Migratable_tecsgen.o
                0x0000000000132040                tSysLog_SINGLE_CELL_INIB
 .rodata        0x0000000000132050       0x14 objs/tLogTaskMain_rProcessor1Migratable_tecsgen.o
                0x0000000000132050                rProcessor1Migratable_LogTask_LogTaskMain_eLogTaskTerminate_des
                0x0000000000132058                tLogTaskMain_SINGLE_CELL_INIB
                0x0000000000132060                tLogTaskMain_eLogTaskTerminate_MT_
 .rodata        0x0000000000132064        0x8 objs/tBannerMain_rProcessor1Migratable_tecsgen.o
                0x0000000000132064                tBannerMain_SINGLE_CELL_INIB
 .rodata        0x000000000013206c       0x18 objs/tXUartPs_rProcessor1Migratable_tecsgen.o
                0x000000000013206c                tXUartPs_INIB_tab
                0x0000000000132078                rProcessor1Migratable_SIOPortTarget1_XUartPs_eTerminate_des
                0x0000000000132080                tXUartPs_eTerminate_MT_
 .rodata        0x0000000000132084      0x162 objs/tBannerMain.o
 *fill*         0x00000000001321e6        0x2 
 .rodata        0x00000000001321e8      0x67c objs/kernel_cfg.o
                0x00000000001321e8                _kernel_p_exc_table
                0x00000000001321f0                _kernel_exc_table_prc2
                0x000000000013220c                _kernel_exc_table_prc1
                0x0000000000132228                _kernel_p_intcfg_table
                0x0000000000132230                _kernel_intcfg_table_prc2
                0x0000000000132290                _kernel_intcfg_table_prc1
                0x00000000001322f0                _kernel_p_inh_table
                0x00000000001322f8                _kernel_inh_table_prc2
                0x0000000000132478                _kernel_inh_table_prc1
                0x00000000001325f8                _kernel_terrtnbb_table
                0x0000000000132610                _kernel_terrtnb_table_prc2
                0x0000000000132618                _kernel_terrtnb_table_prc1
                0x0000000000132630                _kernel_inirtnbb_table
                0x0000000000132648                _kernel_inirtnb_table_prc2
                0x0000000000132650                _kernel_inirtnb_table_prc1
                0x0000000000132660                _kernel_p_tevtcb_table
                0x0000000000132668                _kernel_p_tmevt_heap_table
                0x0000000000132670                _kernel_idstkpt_table
                0x0000000000132678                _kernel_istkpt_table
                0x0000000000132680                _kernel_istk_table
                0x0000000000132688                _kernel_istksz_table
                0x0000000000132690                _kernel_intinib_table
                0x0000000000132744                _kernel_tnum_cfg_intno
                0x0000000000132748                _kernel_p_almcb_table
                0x0000000000132748                _kernel_alminib_table
                0x0000000000132748                _kernel_tmax_almid
                0x000000000013274c                _kernel_cycinib_table
                0x000000000013274c                _kernel_p_cyccb_table
                0x000000000013274c                _kernel_tmax_cycid
                0x0000000000132750                _kernel_tmax_mpfid
                0x0000000000132750                _kernel_mpfinib_table
                0x0000000000132750                _kernel_p_mpfcb_table
                0x0000000000132754                _kernel_spninib_table
                0x0000000000132754                _kernel_tmax_spnid
                0x0000000000132758                _kernel_mtxinib_table
                0x0000000000132758                _kernel_p_mtxcb_table
                0x0000000000132758                _kernel_tmax_mtxid
                0x000000000013275c                _kernel_pdqinib_table
                0x000000000013275c                _kernel_tmax_pdqid
                0x000000000013275c                _kernel_p_pdqcb_table
                0x0000000000132760                _kernel_dtqinib_table
                0x0000000000132760                _kernel_tmax_dtqid
                0x0000000000132760                _kernel_p_dtqcb_table
                0x0000000000132764                _kernel_p_flgcb_table
                0x0000000000132764                _kernel_flginib_table
                0x0000000000132764                _kernel_tmax_flgid
                0x0000000000132768                _kernel_p_semcb_table
                0x0000000000132770                _kernel_seminib_table
                0x0000000000132788                _kernel_tmax_semid
                0x000000000013278c                _kernel_subprio_primap
                0x0000000000132790                _kernel_torder_table
                0x00000000001327a4                _kernel_p_tcb_table
                0x00000000001327b8                _kernel_tinib_table
                0x0000000000132858                _kernel_tmax_tskid
                0x000000000013285c                _kernel_p_pcb_table
 .rodata        0x0000000000132864        0x4 ./libkernel.a(target_kernel_impl.o)
                0x0000000000132864                arm_tnum_memory_area
 .rodata        0x0000000000132868       0x3c ./libkernel.a(core_kernel_impl.o)
 *(.rodata.*)
 .rodata.str1.4
                0x00000000001328a4       0x36 objs/log_output.o
 *fill*         0x00000000001328da        0x2 
 .rodata.str1.4
                0x00000000001328dc       0xd9 objs/strerror.o
 *fill*         0x00000000001329b5        0x3 
 .rodata.str1.4
                0x00000000001329b8        0xc objs/tBannerMain_rProcessor1Migratable_tecsgen.o
                                          0xd (size before relaxing)
 .rodata.str1.4
                0x00000000001329c4       0x39 objs/tLogTaskMain.o
 .rodata.str1.1
                0x00000000001329fd       0x32 ./gen/../tr_api_dispatch/target/armv7a-none-eabi/release/libitron.a(itron-6a63da1272844731.itron.fdadab565b6f4d55-cgu.0.rcgu.o)
 .rodata..Lanon.ef2c9bc69efd4744ba05dc125aae448f.2
                0x0000000000132a2f       0x1f ./gen/../tr_api_dispatch/target/armv7a-none-eabi/release/libitron.a(itron-6a63da1272844731.itron.fdadab565b6f4d55-cgu.0.rcgu.o)
 *fill*         0x0000000000132a4e        0x2 
 .rodata..Lanon.ef2c9bc69efd4744ba05dc125aae448f.3
                0x0000000000132a50       0x10 ./gen/../tr_api_dispatch/target/armv7a-none-eabi/release/libitron.a(itron-6a63da1272844731.itron.fdadab565b6f4d55-cgu.0.rcgu.o)
 .rodata..Lanon.ef2c9bc69efd4744ba05dc125aae448f.4
                0x0000000000132a60        0xc ./gen/../tr_api_dispatch/target/armv7a-none-eabi/release/libitron.a(itron-6a63da1272844731.itron.fdadab565b6f4d55-cgu.0.rcgu.o)
 .rodata..Lanon.ef2c9bc69efd4744ba05dc125aae448f.5
                0x0000000000132a6c       0x10 ./gen/../tr_api_dispatch/target/armv7a-none-eabi/release/libitron.a(itron-6a63da1272844731.itron.fdadab565b6f4d55-cgu.0.rcgu.o)
 .rodata..Lanon.ef2c9bc69efd4744ba05dc125aae448f.6
                0x0000000000132a7c       0x10 ./gen/../tr_api_dispatch/target/armv7a-none-eabi/release/libitron.a(itron-6a63da1272844731.itron.fdadab565b6f4d55-cgu.0.rcgu.o)
 .rodata..Lanon.ef2c9bc69efd4744ba05dc125aae448f.7
                0x0000000000132a8c       0x2b ./gen/../tr_api_dispatch/target/armv7a-none-eabi/release/libitron.a(itron-6a63da1272844731.itron.fdadab565b6f4d55-cgu.0.rcgu.o)
 *fill*         0x0000000000132ab7        0x1 
 .rodata..Lanon.ef2c9bc69efd4744ba05dc125aae448f.8
                0x0000000000132ab8       0x10 ./gen/../tr_api_dispatch/target/armv7a-none-eabi/release/libitron.a(itron-6a63da1272844731.itron.fdadab565b6f4d55-cgu.0.rcgu.o)
 .rodata..Lanon.ef2c9bc69efd4744ba05dc125aae448f.9
                0x0000000000132ac8       0x10 ./gen/../tr_api_dispatch/target/armv7a-none-eabi/release/libitron.a(itron-6a63da1272844731.itron.fdadab565b6f4d55-cgu.0.rcgu.o)
 .rodata..Lanon.ef2c9bc69efd4744ba05dc125aae448f.10
                0x0000000000132ad8       0x10 ./gen/../tr_api_dispatch/target/armv7a-none-eabi/release/libitron.a(itron-6a63da1272844731.itron.fdadab565b6f4d55-cgu.0.rcgu.o)
 .rodata..Lanon.cdcacac2f3e4733548ac1a094073207f.0
                0x0000000000132ae8        0x5 ./gen/../tr_api_dispatch/target/armv7a-none-eabi/release/libitron.a(itron-fbcb73bf0b635dd5.itron.68e737fdf62a80e5-cgu.0.rcgu.o)
 .rodata..Lanon.cdcacac2f3e4733548ac1a094073207f.1
                0x0000000000132aed        0x7 ./gen/../tr_api_dispatch/target/armv7a-none-eabi/release/libitron.a(itron-fbcb73bf0b635dd5.itron.68e737fdf62a80e5-cgu.0.rcgu.o)
 .rodata..Lanon.cdcacac2f3e4733548ac1a094073207f.2
                0x0000000000132af4        0x6 ./gen/../tr_api_dispatch/target/armv7a-none-eabi/release/libitron.a(itron-fbcb73bf0b635dd5.itron.68e737fdf62a80e5-cgu.0.rcgu.o)
 .rodata..Lanon.cdcacac2f3e4733548ac1a094073207f.3
                0x0000000000132afa        0x7 ./gen/../tr_api_dispatch/target/armv7a-none-eabi/release/libitron.a(itron-fbcb73bf0b635dd5.itron.68e737fdf62a80e5-cgu.0.rcgu.o)
 .rodata..Lanon.cdcacac2f3e4733548ac1a094073207f.4
                0x0000000000132b01        0x5 ./gen/../tr_api_dispatch/target/armv7a-none-eabi/release/libitron.a(itron-fbcb73bf0b635dd5.itron.68e737fdf62a80e5-cgu.0.rcgu.o)
 .rodata.cst4   0x0000000000132b06        0x4 ./gen/../tr_api_dispatch/target/armv7a-none-eabi/release/libitron.a(itron-fbcb73bf0b635dd5.itron.68e737fdf62a80e5-cgu.0.rcgu.o)
 .rodata..Lanon.cdcacac2f3e4733548ac1a094073207f.6
                0x0000000000132b0a        0x5 ./gen/../tr_api_dispatch/target/armv7a-none-eabi/release/libitron.a(itron-fbcb73bf0b635dd5.itron.68e737fdf62a80e5-cgu.0.rcgu.o)
 .rodata..Lanon.cdcacac2f3e4733548ac1a094073207f.7
                0x0000000000132b0f        0x6 ./gen/../tr_api_dispatch/target/armv7a-none-eabi/release/libitron.a(itron-fbcb73bf0b635dd5.itron.68e737fdf62a80e5-cgu.0.rcgu.o)
 .rodata..Lanon.cdcacac2f3e4733548ac1a094073207f.8
                0x0000000000132b15        0x6 ./gen/../tr_api_dispatch/target/armv7a-none-eabi/release/libitron.a(itron-fbcb73bf0b635dd5.itron.68e737fdf62a80e5-cgu.0.rcgu.o)
 .rodata..Lanon.cdcacac2f3e4733548ac1a094073207f.9
                0x0000000000132b1b        0x7 ./gen/../tr_api_dispatch/target/armv7a-none-eabi/release/libitron.a(itron-fbcb73bf0b635dd5.itron.68e737fdf62a80e5-cgu.0.rcgu.o)
 .rodata..Lanon.cdcacac2f3e4733548ac1a094073207f.10
                0x0000000000132b22        0x7 ./gen/../tr_api_dispatch/target/armv7a-none-eabi/release/libitron.a(itron-fbcb73bf0b635dd5.itron.68e737fdf62a80e5-cgu.0.rcgu.o)
 .rodata..Lanon.cdcacac2f3e4733548ac1a094073207f.11
                0x0000000000132b29        0x6 ./gen/../tr_api_dispatch/target/armv7a-none-eabi/release/libitron.a(itron-fbcb73bf0b635dd5.itron.68e737fdf62a80e5-cgu.0.rcgu.o)
 .rodata..Lanon.cdcacac2f3e4733548ac1a094073207f.12
                0x0000000000132b2f        0x7 ./gen/../tr_api_dispatch/target/armv7a-none-eabi/release/libitron.a(itron-fbcb73bf0b635dd5.itron.68e737fdf62a80e5-cgu.0.rcgu.o)
 .rodata..Lanon.cdcacac2f3e4733548ac1a094073207f.13
                0x0000000000132b36        0x5 ./gen/../tr_api_dispatch/target/armv7a-none-eabi/release/libitron.a(itron-fbcb73bf0b635dd5.itron.68e737fdf62a80e5-cgu.0.rcgu.o)
 .rodata..Lanon.cdcacac2f3e4733548ac1a094073207f.14
                0x0000000000132b3b        0x7 ./gen/../tr_api_dispatch/target/armv7a-none-eabi/release/libitron.a(itron-fbcb73bf0b635dd5.itron.68e737fdf62a80e5-cgu.0.rcgu.o)
 .rodata..Lanon.cdcacac2f3e4733548ac1a094073207f.15
                0x0000000000132b42        0x6 ./gen/../tr_api_dispatch/target/armv7a-none-eabi/release/libitron.a(itron-fbcb73bf0b635dd5.itron.68e737fdf62a80e5-cgu.0.rcgu.o)
 .rodata..Lanon.cdcacac2f3e4733548ac1a094073207f.16
                0x0000000000132b48        0x7 ./gen/../tr_api_dispatch/target/armv7a-none-eabi/release/libitron.a(itron-fbcb73bf0b635dd5.itron.68e737fdf62a80e5-cgu.0.rcgu.o)
 .rodata..Lanon.cdcacac2f3e4733548ac1a094073207f.17
                0x0000000000132b4f        0x7 ./gen/../tr_api_dispatch/target/armv7a-none-eabi/release/libitron.a(itron-fbcb73bf0b635dd5.itron.68e737fdf62a80e5-cgu.0.rcgu.o)
 .rodata..Lanon.cdcacac2f3e4733548ac1a094073207f.18
                0x0000000000132b56        0x5 ./gen/../tr_api_dispatch/target/armv7a-none-eabi/release/libitron.a(itron-fbcb73bf0b635dd5.itron.68e737fdf62a80e5-cgu.0.rcgu.o)
 .rodata..Lanon.cdcacac2f3e4733548ac1a094073207f.19
                0x0000000000132b5b        0x5 ./gen/../tr_api_dispatch/target/armv7a-none-eabi/release/libitron.a(itron-fbcb73bf0b635dd5.itron.68e737fdf62a80e5-cgu.0.rcgu.o)
 .rodata.cst8   0x0000000000132b60       0x10 ./gen/../tr_api_dispatch/target/armv7a-none-eabi/release/libitron.a(itron-fbcb73bf0b635dd5.itron.68e737fdf62a80e5-cgu.0.rcgu.o)
 .rodata..Lanon.cdcacac2f3e4733548ac1a094073207f.21
                0x0000000000132b70        0x6 ./gen/../tr_api_dispatch/target/armv7a-none-eabi/release/libitron.a(itron-fbcb73bf0b635dd5.itron.68e737fdf62a80e5-cgu.0.rcgu.o)
 .rodata..Lanon.cdcacac2f3e4733548ac1a094073207f.22
                0x0000000000132b76        0x6 ./gen/../tr_api_dispatch/target/armv7a-none-eabi/release/libitron.a(itron-fbcb73bf0b635dd5.itron.68e737fdf62a80e5-cgu.0.rcgu.o)
 .rodata..Lanon.cdcacac2f3e4733548ac1a094073207f.23
                0x0000000000132b7c        0x6 ./gen/../tr_api_dispatch/target/armv7a-none-eabi/release/libitron.a(itron-fbcb73bf0b635dd5.itron.68e737fdf62a80e5-cgu.0.rcgu.o)
 .rodata..Lanon.cdcacac2f3e4733548ac1a094073207f.25
                0x0000000000132b82        0xa ./gen/../tr_api_dispatch/target/armv7a-none-eabi/release/libitron.a(itron-fbcb73bf0b635dd5.itron.68e737fdf62a80e5-cgu.0.rcgu.o)
 .rodata..Lanon.cdcacac2f3e4733548ac1a094073207f.26
                0x0000000000132b8c        0x1 ./gen/../tr_api_dispatch/target/armv7a-none-eabi/release/libitron.a(itron-fbcb73bf0b635dd5.itron.68e737fdf62a80e5-cgu.0.rcgu.o)
 *fill*         0x0000000000132b8d        0x3 
 .rodata..Lanon.cdcacac2f3e4733548ac1a094073207f.27
                0x0000000000132b90       0x10 ./gen/../tr_api_dispatch/target/armv7a-none-eabi/release/libitron.a(itron-fbcb73bf0b635dd5.itron.68e737fdf62a80e5-cgu.0.rcgu.o)
 .rodata..Lanon.cdcacac2f3e4733548ac1a094073207f.28
                0x0000000000132ba0        0xb ./gen/../tr_api_dispatch/target/armv7a-none-eabi/release/libitron.a(itron-fbcb73bf0b635dd5.itron.68e737fdf62a80e5-cgu.0.rcgu.o)
 *fill*         0x0000000000132bab        0x1 
 .rodata..Lanon.cdcacac2f3e4733548ac1a094073207f.29
                0x0000000000132bac       0x10 ./gen/../tr_api_dispatch/target/armv7a-none-eabi/release/libitron.a(itron-fbcb73bf0b635dd5.itron.68e737fdf62a80e5-cgu.0.rcgu.o)
 .rodata..Lanon.cdcacac2f3e4733548ac1a094073207f.30
                0x0000000000132bbc        0x6 ./gen/../tr_api_dispatch/target/armv7a-none-eabi/release/libitron.a(itron-fbcb73bf0b635dd5.itron.68e737fdf62a80e5-cgu.0.rcgu.o)
 *fill*         0x0000000000132bc2        0x2 
 .rodata..Lanon.cdcacac2f3e4733548ac1a094073207f.31
                0x0000000000132bc4       0x10 ./gen/../tr_api_dispatch/target/armv7a-none-eabi/release/libitron.a(itron-fbcb73bf0b635dd5.itron.68e737fdf62a80e5-cgu.0.rcgu.o)
 .rodata..Lanon.cdcacac2f3e4733548ac1a094073207f.32
                0x0000000000132bd4        0xa ./gen/../tr_api_dispatch/target/armv7a-none-eabi/release/libitron.a(itron-fbcb73bf0b635dd5.itron.68e737fdf62a80e5-cgu.0.rcgu.o)
 *fill*         0x0000000000132bde        0x2 
 .rodata..Lanon.cdcacac2f3e4733548ac1a094073207f.33
                0x0000000000132be0       0x10 ./gen/../tr_api_dispatch/target/armv7a-none-eabi/release/libitron.a(itron-fbcb73bf0b635dd5.itron.68e737fdf62a80e5-cgu.0.rcgu.o)
 .rodata..Lanon.cdcacac2f3e4733548ac1a094073207f.34
                0x0000000000132bf0        0xa ./gen/../tr_api_dispatch/target/armv7a-none-eabi/release/libitron.a(itron-fbcb73bf0b635dd5.itron.68e737fdf62a80e5-cgu.0.rcgu.o)
 *fill*         0x0000000000132bfa        0x2 
 .rodata..Lanon.cdcacac2f3e4733548ac1a094073207f.35
                0x0000000000132bfc       0x10 ./gen/../tr_api_dispatch/target/armv7a-none-eabi/release/libitron.a(itron-fbcb73bf0b635dd5.itron.68e737fdf62a80e5-cgu.0.rcgu.o)
 .rodata..Lanon.cdcacac2f3e4733548ac1a094073207f.36
                0x0000000000132c0c        0x5 ./gen/../tr_api_dispatch/target/armv7a-none-eabi/release/libitron.a(itron-fbcb73bf0b635dd5.itron.68e737fdf62a80e5-cgu.0.rcgu.o)
 *fill*         0x0000000000132c11        0x3 
 .rodata..Lanon.cdcacac2f3e4733548ac1a094073207f.37
                0x0000000000132c14       0x10 ./gen/../tr_api_dispatch/target/armv7a-none-eabi/release/libitron.a(itron-fbcb73bf0b635dd5.itron.68e737fdf62a80e5-cgu.0.rcgu.o)
 .rodata..Lanon.cdcacac2f3e4733548ac1a094073207f.38
                0x0000000000132c24       0x59 ./gen/../tr_api_dispatch/target/armv7a-none-eabi/release/libitron.a(itron-fbcb73bf0b635dd5.itron.68e737fdf62a80e5-cgu.0.rcgu.o)
 *fill*         0x0000000000132c7d        0x3 
 .rodata..Lanon.cdcacac2f3e4733548ac1a094073207f.39
                0x0000000000132c80       0x10 ./gen/../tr_api_dispatch/target/armv7a-none-eabi/release/libitron.a(itron-fbcb73bf0b635dd5.itron.68e737fdf62a80e5-cgu.0.rcgu.o)
 .rodata._ZN4core7unicode12unicode_data10alphabetic7OFFSETS17hdc526415903ccd82E
                0x0000000000132c90      0x5eb ./gen/../tr_api_dispatch/target/armv7a-none-eabi/release/libitron.a(core-d049573bc16596f9.core.5587a85061e7188a-cgu.0.rcgu.o)
 .rodata._ZN4core7unicode12unicode_data14case_ignorable7OFFSETS17hde027294297a5b30E
                0x000000000013327b      0x389 ./gen/../tr_api_dispatch/target/armv7a-none-eabi/release/libitron.a(core-d049573bc16596f9.core.5587a85061e7188a-cgu.0.rcgu.o)
 .rodata._ZN4core7unicode12unicode_data5cased7OFFSETS17h4d7f7f757bbbcd2fE
                0x0000000000133604      0x13f ./gen/../tr_api_dispatch/target/armv7a-none-eabi/release/libitron.a(core-d049573bc16596f9.core.5587a85061e7188a-cgu.0.rcgu.o)
 .rodata._ZN4core7unicode12unicode_data15grapheme_extend7OFFSETS17h10bd76417f3c2fd6E
                0x0000000000133743      0x2ef ./gen/../tr_api_dispatch/target/armv7a-none-eabi/release/libitron.a(core-d049573bc16596f9.core.5587a85061e7188a-cgu.0.rcgu.o)
 .rodata._ZN4core7unicode12unicode_data9lowercase17BITSET_CHUNKS_MAP17hffaf68f0f508fac7E
                0x0000000000133a32       0x7b ./gen/../tr_api_dispatch/target/armv7a-none-eabi/release/libitron.a(core-d049573bc16596f9.core.5587a85061e7188a-cgu.0.rcgu.o)
                0x0000000000133a32                core::unicode::unicode_data::lowercase::BITSET_CHUNKS_MAP
 .rodata._ZN4core7unicode12unicode_data1n7OFFSETS17hdb97b96c7cf27088E
                0x0000000000133aad      0x121 ./gen/../tr_api_dispatch/target/armv7a-none-eabi/release/libitron.a(core-d049573bc16596f9.core.5587a85061e7188a-cgu.0.rcgu.o)
 .rodata._ZN4core7unicode12unicode_data9uppercase17BITSET_CHUNKS_MAP17h6b9400355040de03E
                0x0000000000133bce       0x7d ./gen/../tr_api_dispatch/target/armv7a-none-eabi/release/libitron.a(core-d049573bc16596f9.core.5587a85061e7188a-cgu.0.rcgu.o)
                0x0000000000133bce                core::unicode::unicode_data::uppercase::BITSET_CHUNKS_MAP
 .rodata._ZN4core7unicode12unicode_data11white_space14WHITESPACE_MAP17h2de0024a71532bf3E
                0x0000000000133c4b      0x100 ./gen/../tr_api_dispatch/target/armv7a-none-eabi/release/libitron.a(core-d049573bc16596f9.core.5587a85061e7188a-cgu.0.rcgu.o)
                0x0000000000133c4b                core::unicode::unicode_data::white_space::WHITESPACE_MAP
 *fill*         0x0000000000133d4b        0x5 
 .rodata..Lanon.a0506fc3c6b36e5783e71ab63da9841e.0
                0x0000000000133d50       0x80 ./gen/../tr_api_dispatch/target/armv7a-none-eabi/release/libitron.a(core-d049573bc16596f9.core.5587a85061e7188a-cgu.0.rcgu.o)
 .rodata..Lanon.a0506fc3c6b36e5783e71ab63da9841e.1
                0x0000000000133dd0       0x2b ./gen/../tr_api_dispatch/target/armv7a-none-eabi/release/libitron.a(core-d049573bc16596f9.core.5587a85061e7188a-cgu.0.rcgu.o)
 *fill*         0x0000000000133dfb        0x1 
 .rodata..Lanon.a0506fc3c6b36e5783e71ab63da9841e.2
                0x0000000000133dfc       0x10 ./gen/../tr_api_dispatch/target/armv7a-none-eabi/release/libitron.a(core-d049573bc16596f9.core.5587a85061e7188a-cgu.0.rcgu.o)
 .rodata..Lanon.a0506fc3c6b36e5783e71ab63da9841e.3
                0x0000000000133e0c       0x10 ./gen/../tr_api_dispatch/target/armv7a-none-eabi/release/libitron.a(core-d049573bc16596f9.core.5587a85061e7188a-cgu.0.rcgu.o)
 .rodata..Lanon.a0506fc3c6b36e5783e71ab63da9841e.4
                0x0000000000133e1c       0x10 ./gen/../tr_api_dispatch/target/armv7a-none-eabi/release/libitron.a(core-d049573bc16596f9.core.5587a85061e7188a-cgu.0.rcgu.o)
 .rodata..Lanon.a0506fc3c6b36e5783e71ab63da9841e.5
                0x0000000000133e2c       0x10 ./gen/../tr_api_dispatch/target/armv7a-none-eabi/release/libitron.a(core-d049573bc16596f9.core.5587a85061e7188a-cgu.0.rcgu.o)
 .rodata..Lanon.a0506fc3c6b36e5783e71ab63da9841e.6
                0x0000000000133e3c       0x10 ./gen/../tr_api_dispatch/target/armv7a-none-eabi/release/libitron.a(core-d049573bc16596f9.core.5587a85061e7188a-cgu.0.rcgu.o)
 .rodata..Lanon.a0506fc3c6b36e5783e71ab63da9841e.7
                0x0000000000133e4c       0x10 ./gen/../tr_api_dispatch/target/armv7a-none-eabi/release/libitron.a(core-d049573bc16596f9.core.5587a85061e7188a-cgu.0.rcgu.o)
 .rodata..Lanon.a0506fc3c6b36e5783e71ab63da9841e.8
                0x0000000000133e5c       0x82 ./gen/../tr_api_dispatch/target/armv7a-none-eabi/release/libitron.a(core-d049573bc16596f9.core.5587a85061e7188a-cgu.0.rcgu.o)
 .rodata..Lanon.a0506fc3c6b36e5783e71ab63da9841e.9
                0x0000000000133ede      0x51c ./gen/../tr_api_dispatch/target/armv7a-none-eabi/release/libitron.a(core-d049573bc16596f9.core.5587a85061e7188a-cgu.0.rcgu.o)
 *fill*         0x00000000001343fa        0x2 
 .rodata..Lanon.a0506fc3c6b36e5783e71ab63da9841e.10
                0x00000000001343fc       0x10 ./gen/../tr_api_dispatch/target/armv7a-none-eabi/release/libitron.a(core-d049573bc16596f9.core.5587a85061e7188a-cgu.0.rcgu.o)
 .rodata..Lanon.a0506fc3c6b36e5783e71ab63da9841e.11
                0x000000000013440c       0x10 ./gen/../tr_api_dispatch/target/armv7a-none-eabi/release/libitron.a(core-d049573bc16596f9.core.5587a85061e7188a-cgu.0.rcgu.o)
 .rodata.cst16  0x000000000013441c       0x80 ./gen/../tr_api_dispatch/target/armv7a-none-eabi/release/libitron.a(core-d049573bc16596f9.core.5587a85061e7188a-cgu.0.rcgu.o)
 .rodata..Lanon.a0506fc3c6b36e5783e71ab63da9841e.13
                0x000000000013449c       0x40 ./gen/../tr_api_dispatch/target/armv7a-none-eabi/release/libitron.a(core-d049573bc16596f9.core.5587a85061e7188a-cgu.0.rcgu.o)
 *fill*         0x00000000001344dc        0x4 
 .rodata..Lanon.a0506fc3c6b36e5783e71ab63da9841e.14
                0x00000000001344e0      0x100 ./gen/../tr_api_dispatch/target/armv7a-none-eabi/release/libitron.a(core-d049573bc16596f9.core.5587a85061e7188a-cgu.0.rcgu.o)
 .rodata..Lanon.a0506fc3c6b36e5783e71ab63da9841e.15
                0x00000000001345e0       0x26 ./gen/../tr_api_dispatch/target/armv7a-none-eabi/release/libitron.a(core-d049573bc16596f9.core.5587a85061e7188a-cgu.0.rcgu.o)
 *fill*         0x0000000000134606        0x2 
 .rodata..Lanon.a0506fc3c6b36e5783e71ab63da9841e.16
                0x0000000000134608       0x10 ./gen/../tr_api_dispatch/target/armv7a-none-eabi/release/libitron.a(core-d049573bc16596f9.core.5587a85061e7188a-cgu.0.rcgu.o)
 .rodata..Lanon.a0506fc3c6b36e5783e71ab63da9841e.17
                0x0000000000134618       0x25 ./gen/../tr_api_dispatch/target/armv7a-none-eabi/release/libitron.a(core-d049573bc16596f9.core.5587a85061e7188a-cgu.0.rcgu.o)
 *fill*         0x000000000013463d        0x3 
 .rodata..Lanon.a0506fc3c6b36e5783e71ab63da9841e.18
                0x0000000000134640       0x10 ./gen/../tr_api_dispatch/target/armv7a-none-eabi/release/libitron.a(core-d049573bc16596f9.core.5587a85061e7188a-cgu.0.rcgu.o)
 .rodata..Lanon.a0506fc3c6b36e5783e71ab63da9841e.19
                0x0000000000134650       0x24 ./gen/../tr_api_dispatch/target/armv7a-none-eabi/release/libitron.a(core-d049573bc16596f9.core.5587a85061e7188a-cgu.0.rcgu.o)
 .rodata..Lanon.a0506fc3c6b36e5783e71ab63da9841e.20
                0x0000000000134674       0x15 ./gen/../tr_api_dispatch/target/armv7a-none-eabi/release/libitron.a(core-d049573bc16596f9.core.5587a85061e7188a-cgu.0.rcgu.o)
 .rodata..Lanon.a0506fc3c6b36e5783e71ab63da9841e.21
                0x0000000000134689       0x1d ./gen/../tr_api_dispatch/target/armv7a-none-eabi/release/libitron.a(core-d049573bc16596f9.core.5587a85061e7188a-cgu.0.rcgu.o)
 .rodata..Lanon.a0506fc3c6b36e5783e71ab63da9841e.22
                0x00000000001346a6       0x21 ./gen/../tr_api_dispatch/target/armv7a-none-eabi/release/libitron.a(core-d049573bc16596f9.core.5587a85061e7188a-cgu.0.rcgu.o)
 *fill*         0x00000000001346c7        0x1 
 .rodata..Lanon.a0506fc3c6b36e5783e71ab63da9841e.23
                0x00000000001346c8       0x10 ./gen/../tr_api_dispatch/target/armv7a-none-eabi/release/libitron.a(core-d049573bc16596f9.core.5587a85061e7188a-cgu.0.rcgu.o)
 .rodata..Lanon.a0506fc3c6b36e5783e71ab63da9841e.24
                0x00000000001346d8       0x10 ./gen/../tr_api_dispatch/target/armv7a-none-eabi/release/libitron.a(core-d049573bc16596f9.core.5587a85061e7188a-cgu.0.rcgu.o)
 .rodata._ZN4core3num7flt2dec8strategy6dragon8POW5TO1617h9aa120b17aa06f22E
                0x00000000001346e8        0x8 ./gen/../tr_api_dispatch/target/armv7a-none-eabi/release/libitron.a(core-d049573bc16596f9.core.5587a85061e7188a-cgu.0.rcgu.o)
 .rodata._ZN4core3num7flt2dec8strategy6dragon8POW5TO3217hd052c03e770190b7E
                0x00000000001346f0        0xc ./gen/../tr_api_dispatch/target/armv7a-none-eabi/release/libitron.a(core-d049573bc16596f9.core.5587a85061e7188a-cgu.0.rcgu.o)
 .rodata._ZN4core3num7flt2dec8strategy6dragon8POW5TO6417h2dc1159c29093a1eE
                0x00000000001346fc       0x14 ./gen/../tr_api_dispatch/target/armv7a-none-eabi/release/libitron.a(core-d049573bc16596f9.core.5587a85061e7188a-cgu.0.rcgu.o)
 .rodata._ZN4core3num7flt2dec8strategy6dragon9POW5TO12817ha974d5882b6b5763E
                0x0000000000134710       0x28 ./gen/../tr_api_dispatch/target/armv7a-none-eabi/release/libitron.a(core-d049573bc16596f9.core.5587a85061e7188a-cgu.0.rcgu.o)
 .rodata._ZN4core3num7flt2dec8strategy6dragon9POW5TO25617hec924f6a1e1f056cE
                0x0000000000134738       0x4c ./gen/../tr_api_dispatch/target/armv7a-none-eabi/release/libitron.a(core-d049573bc16596f9.core.5587a85061e7188a-cgu.0.rcgu.o)
 .rodata..Lanon.a0506fc3c6b36e5783e71ab63da9841e.25
                0x0000000000134784       0x2f ./gen/../tr_api_dispatch/target/armv7a-none-eabi/release/libitron.a(core-d049573bc16596f9.core.5587a85061e7188a-cgu.0.rcgu.o)
 .rodata..Lanon.a0506fc3c6b36e5783e71ab63da9841e.26
                0x00000000001347b3       0x1c ./gen/../tr_api_dispatch/target/armv7a-none-eabi/release/libitron.a(core-d049573bc16596f9.core.5587a85061e7188a-cgu.0.rcgu.o)
 *fill*         0x00000000001347cf        0x1 
 .rodata..Lanon.a0506fc3c6b36e5783e71ab63da9841e.27
                0x00000000001347d0       0x10 ./gen/../tr_api_dispatch/target/armv7a-none-eabi/release/libitron.a(core-d049573bc16596f9.core.5587a85061e7188a-cgu.0.rcgu.o)
 .rodata..Lanon.a0506fc3c6b36e5783e71ab63da9841e.28
                0x00000000001347e0       0x1d ./gen/../tr_api_dispatch/target/armv7a-none-eabi/release/libitron.a(core-d049573bc16596f9.core.5587a85061e7188a-cgu.0.rcgu.o)
 *fill*         0x00000000001347fd        0x3 
 .rodata..Lanon.a0506fc3c6b36e5783e71ab63da9841e.29
                0x0000000000134800       0x10 ./gen/../tr_api_dispatch/target/armv7a-none-eabi/release/libitron.a(core-d049573bc16596f9.core.5587a85061e7188a-cgu.0.rcgu.o)
 .rodata..Lanon.a0506fc3c6b36e5783e71ab63da9841e.30
                0x0000000000134810       0x1c ./gen/../tr_api_dispatch/target/armv7a-none-eabi/release/libitron.a(core-d049573bc16596f9.core.5587a85061e7188a-cgu.0.rcgu.o)
 .rodata..Lanon.a0506fc3c6b36e5783e71ab63da9841e.31
                0x000000000013482c       0x10 ./gen/../tr_api_dispatch/target/armv7a-none-eabi/release/libitron.a(core-d049573bc16596f9.core.5587a85061e7188a-cgu.0.rcgu.o)
 .rodata..Lanon.a0506fc3c6b36e5783e71ab63da9841e.32
                0x000000000013483c       0x2d ./gen/../tr_api_dispatch/target/armv7a-none-eabi/release/libitron.a(core-d049573bc16596f9.core.5587a85061e7188a-cgu.0.rcgu.o)
 *fill*         0x0000000000134869        0x3 
 .rodata..Lanon.a0506fc3c6b36e5783e71ab63da9841e.33
                0x000000000013486c       0x10 ./gen/../tr_api_dispatch/target/armv7a-none-eabi/release/libitron.a(core-d049573bc16596f9.core.5587a85061e7188a-cgu.0.rcgu.o)
 .rodata..Lanon.a0506fc3c6b36e5783e71ab63da9841e.34
                0x000000000013487c       0x10 ./gen/../tr_api_dispatch/target/armv7a-none-eabi/release/libitron.a(core-d049573bc16596f9.core.5587a85061e7188a-cgu.0.rcgu.o)
 .rodata..Lanon.a0506fc3c6b36e5783e71ab63da9841e.35
                0x000000000013488c       0x10 ./gen/../tr_api_dispatch/target/armv7a-none-eabi/release/libitron.a(core-d049573bc16596f9.core.5587a85061e7188a-cgu.0.rcgu.o)
 .rodata..Lanon.a0506fc3c6b36e5783e71ab63da9841e.36
                0x000000000013489c       0x10 ./gen/../tr_api_dispatch/target/armv7a-none-eabi/release/libitron.a(core-d049573bc16596f9.core.5587a85061e7188a-cgu.0.rcgu.o)
 .rodata..Lanon.a0506fc3c6b36e5783e71ab63da9841e.37
                0x00000000001348ac       0x37 ./gen/../tr_api_dispatch/target/armv7a-none-eabi/release/libitron.a(core-d049573bc16596f9.core.5587a85061e7188a-cgu.0.rcgu.o)
 *fill*         0x00000000001348e3        0x1 
 .rodata..Lanon.a0506fc3c6b36e5783e71ab63da9841e.38
                0x00000000001348e4       0x10 ./gen/../tr_api_dispatch/target/armv7a-none-eabi/release/libitron.a(core-d049573bc16596f9.core.5587a85061e7188a-cgu.0.rcgu.o)
 .rodata..Lanon.a0506fc3c6b36e5783e71ab63da9841e.39
                0x00000000001348f4       0x36 ./gen/../tr_api_dispatch/target/armv7a-none-eabi/release/libitron.a(core-d049573bc16596f9.core.5587a85061e7188a-cgu.0.rcgu.o)
 *fill*         0x000000000013492a        0x2 
 .rodata..Lanon.a0506fc3c6b36e5783e71ab63da9841e.40
                0x000000000013492c       0x10 ./gen/../tr_api_dispatch/target/armv7a-none-eabi/release/libitron.a(core-d049573bc16596f9.core.5587a85061e7188a-cgu.0.rcgu.o)
 .rodata..Lanon.a0506fc3c6b36e5783e71ab63da9841e.41
                0x000000000013493c       0x10 ./gen/../tr_api_dispatch/target/armv7a-none-eabi/release/libitron.a(core-d049573bc16596f9.core.5587a85061e7188a-cgu.0.rcgu.o)
 .rodata..Lanon.a0506fc3c6b36e5783e71ab63da9841e.42
                0x000000000013494c       0x10 ./gen/../tr_api_dispatch/target/armv7a-none-eabi/release/libitron.a(core-d049573bc16596f9.core.5587a85061e7188a-cgu.0.rcgu.o)
 .rodata..Lanon.a0506fc3c6b36e5783e71ab63da9841e.43
                0x000000000013495c       0x10 ./gen/../tr_api_dispatch/target/armv7a-none-eabi/release/libitron.a(core-d049573bc16596f9.core.5587a85061e7188a-cgu.0.rcgu.o)
 .rodata..Lanon.a0506fc3c6b36e5783e71ab63da9841e.44
                0x000000000013496c       0x10 ./gen/../tr_api_dispatch/target/armv7a-none-eabi/release/libitron.a(core-d049573bc16596f9.core.5587a85061e7188a-cgu.0.rcgu.o)
 .rodata..Lanon.a0506fc3c6b36e5783e71ab63da9841e.45
                0x000000000013497c       0x10 ./gen/../tr_api_dispatch/target/armv7a-none-eabi/release/libitron.a(core-d049573bc16596f9.core.5587a85061e7188a-cgu.0.rcgu.o)
 .rodata..Lanon.a0506fc3c6b36e5783e71ab63da9841e.46
                0x000000000013498c       0x10 ./gen/../tr_api_dispatch/target/armv7a-none-eabi/release/libitron.a(core-d049573bc16596f9.core.5587a85061e7188a-cgu.0.rcgu.o)
 .rodata..Lanon.a0506fc3c6b36e5783e71ab63da9841e.47
                0x000000000013499c       0x10 ./gen/../tr_api_dispatch/target/armv7a-none-eabi/release/libitron.a(core-d049573bc16596f9.core.5587a85061e7188a-cgu.0.rcgu.o)
 .rodata..Lanon.a0506fc3c6b36e5783e71ab63da9841e.48
                0x00000000001349ac       0x10 ./gen/../tr_api_dispatch/target/armv7a-none-eabi/release/libitron.a(core-d049573bc16596f9.core.5587a85061e7188a-cgu.0.rcgu.o)
 .rodata..Lanon.a0506fc3c6b36e5783e71ab63da9841e.49
                0x00000000001349bc       0x10 ./gen/../tr_api_dispatch/target/armv7a-none-eabi/release/libitron.a(core-d049573bc16596f9.core.5587a85061e7188a-cgu.0.rcgu.o)
 .rodata..Lanon.a0506fc3c6b36e5783e71ab63da9841e.50
                0x00000000001349cc       0x10 ./gen/../tr_api_dispatch/target/armv7a-none-eabi/release/libitron.a(core-d049573bc16596f9.core.5587a85061e7188a-cgu.0.rcgu.o)
 *fill*         0x00000000001349dc        0x4 
 .rodata._ZN4core3num7flt2dec8strategy5grisu12CACHED_POW1017h9e7e1a5908bb56b3E
                0x00000000001349e0      0x510 ./gen/../tr_api_dispatch/target/armv7a-none-eabi/release/libitron.a(core-d049573bc16596f9.core.5587a85061e7188a-cgu.0.rcgu.o)
                0x00000000001349e0                core::num::flt2dec::strategy::grisu::CACHED_POW10
 .rodata..Lanon.a0506fc3c6b36e5783e71ab63da9841e.51
                0x0000000000134ef0       0x2e ./gen/../tr_api_dispatch/target/armv7a-none-eabi/release/libitron.a(core-d049573bc16596f9.core.5587a85061e7188a-cgu.0.rcgu.o)
 *fill*         0x0000000000134f1e        0x2 
 .rodata..Lanon.a0506fc3c6b36e5783e71ab63da9841e.52
                0x0000000000134f20       0x10 ./gen/../tr_api_dispatch/target/armv7a-none-eabi/release/libitron.a(core-d049573bc16596f9.core.5587a85061e7188a-cgu.0.rcgu.o)
 .rodata..Lanon.a0506fc3c6b36e5783e71ab63da9841e.53
                0x0000000000134f30       0x10 ./gen/../tr_api_dispatch/target/armv7a-none-eabi/release/libitron.a(core-d049573bc16596f9.core.5587a85061e7188a-cgu.0.rcgu.o)
 .rodata..Lanon.a0506fc3c6b36e5783e71ab63da9841e.54
                0x0000000000134f40       0x10 ./gen/../tr_api_dispatch/target/armv7a-none-eabi/release/libitron.a(core-d049573bc16596f9.core.5587a85061e7188a-cgu.0.rcgu.o)
 .rodata..Lanon.a0506fc3c6b36e5783e71ab63da9841e.55
                0x0000000000134f50       0x10 ./gen/../tr_api_dispatch/target/armv7a-none-eabi/release/libitron.a(core-d049573bc16596f9.core.5587a85061e7188a-cgu.0.rcgu.o)
 .rodata..Lanon.a0506fc3c6b36e5783e71ab63da9841e.56
                0x0000000000134f60       0x10 ./gen/../tr_api_dispatch/target/armv7a-none-eabi/release/libitron.a(core-d049573bc16596f9.core.5587a85061e7188a-cgu.0.rcgu.o)
 .rodata..Lanon.a0506fc3c6b36e5783e71ab63da9841e.57
                0x0000000000134f70       0x2d ./gen/../tr_api_dispatch/target/armv7a-none-eabi/release/libitron.a(core-d049573bc16596f9.core.5587a85061e7188a-cgu.0.rcgu.o)
 *fill*         0x0000000000134f9d        0x3 
 .rodata..Lanon.a0506fc3c6b36e5783e71ab63da9841e.58
                0x0000000000134fa0       0x10 ./gen/../tr_api_dispatch/target/armv7a-none-eabi/release/libitron.a(core-d049573bc16596f9.core.5587a85061e7188a-cgu.0.rcgu.o)
 .rodata..Lanon.a0506fc3c6b36e5783e71ab63da9841e.59
                0x0000000000134fb0       0x10 ./gen/../tr_api_dispatch/target/armv7a-none-eabi/release/libitron.a(core-d049573bc16596f9.core.5587a85061e7188a-cgu.0.rcgu.o)
 .rodata..Lanon.a0506fc3c6b36e5783e71ab63da9841e.60
                0x0000000000134fc0       0x10 ./gen/../tr_api_dispatch/target/armv7a-none-eabi/release/libitron.a(core-d049573bc16596f9.core.5587a85061e7188a-cgu.0.rcgu.o)
 .rodata..Lanon.a0506fc3c6b36e5783e71ab63da9841e.61
                0x0000000000134fd0       0x10 ./gen/../tr_api_dispatch/target/armv7a-none-eabi/release/libitron.a(core-d049573bc16596f9.core.5587a85061e7188a-cgu.0.rcgu.o)
 .rodata..Lanon.a0506fc3c6b36e5783e71ab63da9841e.62
                0x0000000000134fe0       0x10 ./gen/../tr_api_dispatch/target/armv7a-none-eabi/release/libitron.a(core-d049573bc16596f9.core.5587a85061e7188a-cgu.0.rcgu.o)
 .rodata..Lanon.a0506fc3c6b36e5783e71ab63da9841e.63
                0x0000000000134ff0       0x10 ./gen/../tr_api_dispatch/target/armv7a-none-eabi/release/libitron.a(core-d049573bc16596f9.core.5587a85061e7188a-cgu.0.rcgu.o)
 .rodata..Lanon.a0506fc3c6b36e5783e71ab63da9841e.64
                0x0000000000135000       0x21 ./gen/../tr_api_dispatch/target/armv7a-none-eabi/release/libitron.a(core-d049573bc16596f9.core.5587a85061e7188a-cgu.0.rcgu.o)
 *fill*         0x0000000000135021        0x3 
 .rodata..Lanon.a0506fc3c6b36e5783e71ab63da9841e.65
                0x0000000000135024       0x10 ./gen/../tr_api_dispatch/target/armv7a-none-eabi/release/libitron.a(core-d049573bc16596f9.core.5587a85061e7188a-cgu.0.rcgu.o)
 .rodata..Lanon.a0506fc3c6b36e5783e71ab63da9841e.66
                0x0000000000135034       0x24 ./gen/../tr_api_dispatch/target/armv7a-none-eabi/release/libitron.a(core-d049573bc16596f9.core.5587a85061e7188a-cgu.0.rcgu.o)
 .rodata..Lanon.a0506fc3c6b36e5783e71ab63da9841e.67
                0x0000000000135058       0x10 ./gen/../tr_api_dispatch/target/armv7a-none-eabi/release/libitron.a(core-d049573bc16596f9.core.5587a85061e7188a-cgu.0.rcgu.o)
 .rodata..Lanon.a0506fc3c6b36e5783e71ab63da9841e.68
                0x0000000000135068       0x10 ./gen/../tr_api_dispatch/target/armv7a-none-eabi/release/libitron.a(core-d049573bc16596f9.core.5587a85061e7188a-cgu.0.rcgu.o)
 .rodata..Lanon.a0506fc3c6b36e5783e71ab63da9841e.69
                0x0000000000135078       0x28 ./gen/../tr_api_dispatch/target/armv7a-none-eabi/release/libitron.a(core-d049573bc16596f9.core.5587a85061e7188a-cgu.0.rcgu.o)
 .rodata..Lanon.a0506fc3c6b36e5783e71ab63da9841e.70
                0x00000000001350a0       0x10 ./gen/../tr_api_dispatch/target/armv7a-none-eabi/release/libitron.a(core-d049573bc16596f9.core.5587a85061e7188a-cgu.0.rcgu.o)
 .rodata..Lanon.a0506fc3c6b36e5783e71ab63da9841e.71
                0x00000000001350b0       0x10 ./gen/../tr_api_dispatch/target/armv7a-none-eabi/release/libitron.a(core-d049573bc16596f9.core.5587a85061e7188a-cgu.0.rcgu.o)
 .rodata..Lanon.a0506fc3c6b36e5783e71ab63da9841e.72
                0x00000000001350c0       0x10 ./gen/../tr_api_dispatch/target/armv7a-none-eabi/release/libitron.a(core-d049573bc16596f9.core.5587a85061e7188a-cgu.0.rcgu.o)
 .rodata..Lanon.a0506fc3c6b36e5783e71ab63da9841e.73
                0x00000000001350d0       0x10 ./gen/../tr_api_dispatch/target/armv7a-none-eabi/release/libitron.a(core-d049573bc16596f9.core.5587a85061e7188a-cgu.0.rcgu.o)
 .rodata..Lanon.a0506fc3c6b36e5783e71ab63da9841e.74
                0x00000000001350e0       0x10 ./gen/../tr_api_dispatch/target/armv7a-none-eabi/release/libitron.a(core-d049573bc16596f9.core.5587a85061e7188a-cgu.0.rcgu.o)
 .rodata..Lanon.a0506fc3c6b36e5783e71ab63da9841e.75
                0x00000000001350f0       0x10 ./gen/../tr_api_dispatch/target/armv7a-none-eabi/release/libitron.a(core-d049573bc16596f9.core.5587a85061e7188a-cgu.0.rcgu.o)
 .rodata..Lanon.a0506fc3c6b36e5783e71ab63da9841e.76
                0x0000000000135100       0x23 ./gen/../tr_api_dispatch/target/armv7a-none-eabi/release/libitron.a(core-d049573bc16596f9.core.5587a85061e7188a-cgu.0.rcgu.o)
 *fill*         0x0000000000135123        0x1 
 .rodata..Lanon.a0506fc3c6b36e5783e71ab63da9841e.77
                0x0000000000135124       0x10 ./gen/../tr_api_dispatch/target/armv7a-none-eabi/release/libitron.a(core-d049573bc16596f9.core.5587a85061e7188a-cgu.0.rcgu.o)
 .rodata..Lanon.a0506fc3c6b36e5783e71ab63da9841e.78
                0x0000000000135134       0x1f ./gen/../tr_api_dispatch/target/armv7a-none-eabi/release/libitron.a(core-d049573bc16596f9.core.5587a85061e7188a-cgu.0.rcgu.o)
 *fill*         0x0000000000135153        0x1 
 .rodata..Lanon.a0506fc3c6b36e5783e71ab63da9841e.79
                0x0000000000135154       0x10 ./gen/../tr_api_dispatch/target/armv7a-none-eabi/release/libitron.a(core-d049573bc16596f9.core.5587a85061e7188a-cgu.0.rcgu.o)
 .rodata..Lanon.a0506fc3c6b36e5783e71ab63da9841e.80
                0x0000000000135164       0x22 ./gen/../tr_api_dispatch/target/armv7a-none-eabi/release/libitron.a(core-d049573bc16596f9.core.5587a85061e7188a-cgu.0.rcgu.o)
 *fill*         0x0000000000135186        0x2 
 .rodata..Lanon.a0506fc3c6b36e5783e71ab63da9841e.81
                0x0000000000135188       0x10 ./gen/../tr_api_dispatch/target/armv7a-none-eabi/release/libitron.a(core-d049573bc16596f9.core.5587a85061e7188a-cgu.0.rcgu.o)
 .rodata..Lanon.a0506fc3c6b36e5783e71ab63da9841e.82
                0x0000000000135198        0x1 ./gen/../tr_api_dispatch/target/armv7a-none-eabi/release/libitron.a(core-d049573bc16596f9.core.5587a85061e7188a-cgu.0.rcgu.o)
 .rodata..Lanon.a0506fc3c6b36e5783e71ab63da9841e.83
                0x0000000000135199        0x2 ./gen/../tr_api_dispatch/target/armv7a-none-eabi/release/libitron.a(core-d049573bc16596f9.core.5587a85061e7188a-cgu.0.rcgu.o)
 *fill*         0x000000000013519b        0x1 
 .rodata..Lanon.a0506fc3c6b36e5783e71ab63da9841e.84
                0x000000000013519c       0x10 ./gen/../tr_api_dispatch/target/armv7a-none-eabi/release/libitron.a(core-d049573bc16596f9.core.5587a85061e7188a-cgu.0.rcgu.o)
 .rodata..Lanon.a0506fc3c6b36e5783e71ab63da9841e.85
                0x00000000001351ac       0x10 ./gen/../tr_api_dispatch/target/armv7a-none-eabi/release/libitron.a(core-d049573bc16596f9.core.5587a85061e7188a-cgu.0.rcgu.o)
 .rodata..Lanon.a0506fc3c6b36e5783e71ab63da9841e.86
                0x00000000001351bc       0x22 ./gen/../tr_api_dispatch/target/armv7a-none-eabi/release/libitron.a(core-d049573bc16596f9.core.5587a85061e7188a-cgu.0.rcgu.o)
 *fill*         0x00000000001351de        0x2 
 .rodata..Lanon.a0506fc3c6b36e5783e71ab63da9841e.87
                0x00000000001351e0       0x10 ./gen/../tr_api_dispatch/target/armv7a-none-eabi/release/libitron.a(core-d049573bc16596f9.core.5587a85061e7188a-cgu.0.rcgu.o)
 .rodata..Lanon.a0506fc3c6b36e5783e71ab63da9841e.88
                0x00000000001351f0        0x1 ./gen/../tr_api_dispatch/target/armv7a-none-eabi/release/libitron.a(core-d049573bc16596f9.core.5587a85061e7188a-cgu.0.rcgu.o)
 .rodata..Lanon.a0506fc3c6b36e5783e71ab63da9841e.89
                0x00000000001351f1        0x1 ./gen/../tr_api_dispatch/target/armv7a-none-eabi/release/libitron.a(core-d049573bc16596f9.core.5587a85061e7188a-cgu.0.rcgu.o)
 .rodata..Lanon.a0506fc3c6b36e5783e71ab63da9841e.90
                0x00000000001351f2        0x2 ./gen/../tr_api_dispatch/target/armv7a-none-eabi/release/libitron.a(core-d049573bc16596f9.core.5587a85061e7188a-cgu.0.rcgu.o)
 .rodata..Lanon.a0506fc3c6b36e5783e71ab63da9841e.91
                0x00000000001351f4        0x2 ./gen/../tr_api_dispatch/target/armv7a-none-eabi/release/libitron.a(core-d049573bc16596f9.core.5587a85061e7188a-cgu.0.rcgu.o)
 .rodata..Lanon.a0506fc3c6b36e5783e71ab63da9841e.92
                0x00000000001351f6        0x1 ./gen/../tr_api_dispatch/target/armv7a-none-eabi/release/libitron.a(core-d049573bc16596f9.core.5587a85061e7188a-cgu.0.rcgu.o)
 .rodata..Lanon.a0506fc3c6b36e5783e71ab63da9841e.93
                0x00000000001351f7        0x1 ./gen/../tr_api_dispatch/target/armv7a-none-eabi/release/libitron.a(core-d049573bc16596f9.core.5587a85061e7188a-cgu.0.rcgu.o)
 .rodata..Lanon.a0506fc3c6b36e5783e71ab63da9841e.94
                0x00000000001351f8        0x3 ./gen/../tr_api_dispatch/target/armv7a-none-eabi/release/libitron.a(core-d049573bc16596f9.core.5587a85061e7188a-cgu.0.rcgu.o)
 .rodata..Lanon.a0506fc3c6b36e5783e71ab63da9841e.95
                0x00000000001351fb        0x3 ./gen/../tr_api_dispatch/target/armv7a-none-eabi/release/libitron.a(core-d049573bc16596f9.core.5587a85061e7188a-cgu.0.rcgu.o)
 .rodata..Lanon.a0506fc3c6b36e5783e71ab63da9841e.96
                0x00000000001351fe        0x1 ./gen/../tr_api_dispatch/target/armv7a-none-eabi/release/libitron.a(core-d049573bc16596f9.core.5587a85061e7188a-cgu.0.rcgu.o)
 .rodata..Lanon.a0506fc3c6b36e5783e71ab63da9841e.97
                0x00000000001351ff        0x3 ./gen/../tr_api_dispatch/target/armv7a-none-eabi/release/libitron.a(core-d049573bc16596f9.core.5587a85061e7188a-cgu.0.rcgu.o)
 .rodata..Lanon.a0506fc3c6b36e5783e71ab63da9841e.98
                0x0000000000135202        0x3 ./gen/../tr_api_dispatch/target/armv7a-none-eabi/release/libitron.a(core-d049573bc16596f9.core.5587a85061e7188a-cgu.0.rcgu.o)
 .rodata..Lanon.a0506fc3c6b36e5783e71ab63da9841e.99
                0x0000000000135205       0x1d ./gen/../tr_api_dispatch/target/armv7a-none-eabi/release/libitron.a(core-d049573bc16596f9.core.5587a85061e7188a-cgu.0.rcgu.o)
 *fill*         0x0000000000135222        0x2 
 .rodata..Lanon.a0506fc3c6b36e5783e71ab63da9841e.100
                0x0000000000135224       0x10 ./gen/../tr_api_dispatch/target/armv7a-none-eabi/release/libitron.a(core-d049573bc16596f9.core.5587a85061e7188a-cgu.0.rcgu.o)
 .rodata..Lanon.a0506fc3c6b36e5783e71ab63da9841e.101
                0x0000000000135234        0x2 ./gen/../tr_api_dispatch/target/armv7a-none-eabi/release/libitron.a(core-d049573bc16596f9.core.5587a85061e7188a-cgu.0.rcgu.o)
 .rodata..Lanon.a0506fc3c6b36e5783e71ab63da9841e.102
                0x0000000000135236        0x2 ./gen/../tr_api_dispatch/target/armv7a-none-eabi/release/libitron.a(core-d049573bc16596f9.core.5587a85061e7188a-cgu.0.rcgu.o)
 .rodata..Lanon.a0506fc3c6b36e5783e71ab63da9841e.103
                0x0000000000135238       0x3d ./gen/../tr_api_dispatch/target/armv7a-none-eabi/release/libitron.a(core-d049573bc16596f9.core.5587a85061e7188a-cgu.0.rcgu.o)
 *fill*         0x0000000000135275        0x3 
 .rodata..Lanon.a0506fc3c6b36e5783e71ab63da9841e.104
                0x0000000000135278       0x10 ./gen/../tr_api_dispatch/target/armv7a-none-eabi/release/libitron.a(core-d049573bc16596f9.core.5587a85061e7188a-cgu.0.rcgu.o)
 .rodata..Lanon.a0506fc3c6b36e5783e71ab63da9841e.105
                0x0000000000135288       0x10 ./gen/../tr_api_dispatch/target/armv7a-none-eabi/release/libitron.a(core-d049573bc16596f9.core.5587a85061e7188a-cgu.0.rcgu.o)
 .rodata..Lanon.a0506fc3c6b36e5783e71ab63da9841e.106
                0x0000000000135298       0x25 ./gen/../tr_api_dispatch/target/armv7a-none-eabi/release/libitron.a(core-d049573bc16596f9.core.5587a85061e7188a-cgu.0.rcgu.o)
 *fill*         0x00000000001352bd        0x3 
 .rodata..Lanon.a0506fc3c6b36e5783e71ab63da9841e.107
                0x00000000001352c0       0x10 ./gen/../tr_api_dispatch/target/armv7a-none-eabi/release/libitron.a(core-d049573bc16596f9.core.5587a85061e7188a-cgu.0.rcgu.o)
 .rodata..Lanon.a0506fc3c6b36e5783e71ab63da9841e.108
                0x00000000001352d0       0x1b ./gen/../tr_api_dispatch/target/armv7a-none-eabi/release/libitron.a(core-d049573bc16596f9.core.5587a85061e7188a-cgu.0.rcgu.o)
 *fill*         0x00000000001352eb        0x1 
 .rodata..Lanon.a0506fc3c6b36e5783e71ab63da9841e.109
                0x00000000001352ec       0x10 ./gen/../tr_api_dispatch/target/armv7a-none-eabi/release/libitron.a(core-d049573bc16596f9.core.5587a85061e7188a-cgu.0.rcgu.o)
 .rodata..Lanon.a0506fc3c6b36e5783e71ab63da9841e.110
                0x00000000001352fc       0x10 ./gen/../tr_api_dispatch/target/armv7a-none-eabi/release/libitron.a(core-d049573bc16596f9.core.5587a85061e7188a-cgu.0.rcgu.o)
 .rodata..Lanon.a0506fc3c6b36e5783e71ab63da9841e.111
                0x000000000013530c       0x10 ./gen/../tr_api_dispatch/target/armv7a-none-eabi/release/libitron.a(core-d049573bc16596f9.core.5587a85061e7188a-cgu.0.rcgu.o)
 .rodata..Lanon.a0506fc3c6b36e5783e71ab63da9841e.112
                0x000000000013531c       0x2f ./gen/../tr_api_dispatch/target/armv7a-none-eabi/release/libitron.a(core-d049573bc16596f9.core.5587a85061e7188a-cgu.0.rcgu.o)
 .rodata..Lanon.a0506fc3c6b36e5783e71ab63da9841e.113
                0x000000000013534b       0x26 ./gen/../tr_api_dispatch/target/armv7a-none-eabi/release/libitron.a(core-d049573bc16596f9.core.5587a85061e7188a-cgu.0.rcgu.o)
 .rodata..Lanon.a0506fc3c6b36e5783e71ab63da9841e.114
                0x0000000000135371       0x1d ./gen/../tr_api_dispatch/target/armv7a-none-eabi/release/libitron.a(core-d049573bc16596f9.core.5587a85061e7188a-cgu.0.rcgu.o)
 .rodata..Lanon.a0506fc3c6b36e5783e71ab63da9841e.115
                0x000000000013538e       0x26 ./gen/../tr_api_dispatch/target/armv7a-none-eabi/release/libitron.a(core-d049573bc16596f9.core.5587a85061e7188a-cgu.0.rcgu.o)
 .rodata..Lanon.a0506fc3c6b36e5783e71ab63da9841e.116
                0x00000000001353b4       0x26 ./gen/../tr_api_dispatch/target/armv7a-none-eabi/release/libitron.a(core-d049573bc16596f9.core.5587a85061e7188a-cgu.0.rcgu.o)
 .rodata..Lanon.a0506fc3c6b36e5783e71ab63da9841e.117
                0x00000000001353da       0x26 ./gen/../tr_api_dispatch/target/armv7a-none-eabi/release/libitron.a(core-d049573bc16596f9.core.5587a85061e7188a-cgu.0.rcgu.o)
 .rodata..Lanon.a0506fc3c6b36e5783e71ab63da9841e.118
                0x0000000000135400       0x2e ./gen/../tr_api_dispatch/target/armv7a-none-eabi/release/libitron.a(core-d049573bc16596f9.core.5587a85061e7188a-cgu.0.rcgu.o)
 *fill*         0x000000000013542e        0x2 
 .rodata..Lanon.a0506fc3c6b36e5783e71ab63da9841e.119
                0x0000000000135430        0x8 ./gen/../tr_api_dispatch/target/armv7a-none-eabi/release/libitron.a(core-d049573bc16596f9.core.5587a85061e7188a-cgu.0.rcgu.o)
 .rodata..Lanon.a0506fc3c6b36e5783e71ab63da9841e.120
                0x0000000000135438       0x32 ./gen/../tr_api_dispatch/target/armv7a-none-eabi/release/libitron.a(core-d049573bc16596f9.core.5587a85061e7188a-cgu.0.rcgu.o)
 *fill*         0x000000000013546a        0x2 
 .rodata..Lanon.a0506fc3c6b36e5783e71ab63da9841e.121
                0x000000000013546c        0x8 ./gen/../tr_api_dispatch/target/armv7a-none-eabi/release/libitron.a(core-d049573bc16596f9.core.5587a85061e7188a-cgu.0.rcgu.o)
 .rodata..Lanon.a0506fc3c6b36e5783e71ab63da9841e.122
                0x0000000000135474       0x1c ./gen/../tr_api_dispatch/target/armv7a-none-eabi/release/libitron.a(core-d049573bc16596f9.core.5587a85061e7188a-cgu.0.rcgu.o)
 .rodata..Lanon.a0506fc3c6b36e5783e71ab63da9841e.123
                0x0000000000135490        0x8 ./gen/../tr_api_dispatch/target/armv7a-none-eabi/release/libitron.a(core-d049573bc16596f9.core.5587a85061e7188a-cgu.0.rcgu.o)
 .rodata..Lanon.a0506fc3c6b36e5783e71ab63da9841e.124
                0x0000000000135498       0x21 ./gen/../tr_api_dispatch/target/armv7a-none-eabi/release/libitron.a(core-d049573bc16596f9.core.5587a85061e7188a-cgu.0.rcgu.o)
 *fill*         0x00000000001354b9        0x3 
 .rodata..Lanon.a0506fc3c6b36e5783e71ab63da9841e.125
                0x00000000001354bc        0x8 ./gen/../tr_api_dispatch/target/armv7a-none-eabi/release/libitron.a(core-d049573bc16596f9.core.5587a85061e7188a-cgu.0.rcgu.o)
 .rodata..Lanon.a0506fc3c6b36e5783e71ab63da9841e.126
                0x00000000001354c4       0x21 ./gen/../tr_api_dispatch/target/armv7a-none-eabi/release/libitron.a(core-d049573bc16596f9.core.5587a85061e7188a-cgu.0.rcgu.o)
 *fill*         0x00000000001354e5        0x3 
 .rodata..Lanon.a0506fc3c6b36e5783e71ab63da9841e.127
                0x00000000001354e8        0x8 ./gen/../tr_api_dispatch/target/armv7a-none-eabi/release/libitron.a(core-d049573bc16596f9.core.5587a85061e7188a-cgu.0.rcgu.o)
 .rodata..Lanon.a0506fc3c6b36e5783e71ab63da9841e.128
                0x00000000001354f0       0x1f ./gen/../tr_api_dispatch/target/armv7a-none-eabi/release/libitron.a(core-d049573bc16596f9.core.5587a85061e7188a-cgu.0.rcgu.o)
 *fill*         0x000000000013550f        0x1 
 .rodata..Lanon.a0506fc3c6b36e5783e71ab63da9841e.129
                0x0000000000135510        0x8 ./gen/../tr_api_dispatch/target/armv7a-none-eabi/release/libitron.a(core-d049573bc16596f9.core.5587a85061e7188a-cgu.0.rcgu.o)
 .rodata..Lanon.a0506fc3c6b36e5783e71ab63da9841e.130
                0x0000000000135518       0x30 ./gen/../tr_api_dispatch/target/armv7a-none-eabi/release/libitron.a(core-d049573bc16596f9.core.5587a85061e7188a-cgu.0.rcgu.o)
 .rodata..Lanon.a0506fc3c6b36e5783e71ab63da9841e.131
                0x0000000000135548        0x8 ./gen/../tr_api_dispatch/target/armv7a-none-eabi/release/libitron.a(core-d049573bc16596f9.core.5587a85061e7188a-cgu.0.rcgu.o)
 .rodata..Lanon.a0506fc3c6b36e5783e71ab63da9841e.132
                0x0000000000135550       0x1f ./gen/../tr_api_dispatch/target/armv7a-none-eabi/release/libitron.a(core-d049573bc16596f9.core.5587a85061e7188a-cgu.0.rcgu.o)
 *fill*         0x000000000013556f        0x1 
 .rodata..Lanon.a0506fc3c6b36e5783e71ab63da9841e.133
                0x0000000000135570        0x8 ./gen/../tr_api_dispatch/target/armv7a-none-eabi/release/libitron.a(core-d049573bc16596f9.core.5587a85061e7188a-cgu.0.rcgu.o)
 .rodata..Lanon.a0506fc3c6b36e5783e71ab63da9841e.134
                0x0000000000135578       0x24 ./gen/../tr_api_dispatch/target/armv7a-none-eabi/release/libitron.a(core-d049573bc16596f9.core.5587a85061e7188a-cgu.0.rcgu.o)
 .rodata..Lanon.a0506fc3c6b36e5783e71ab63da9841e.135
                0x000000000013559c        0x8 ./gen/../tr_api_dispatch/target/armv7a-none-eabi/release/libitron.a(core-d049573bc16596f9.core.5587a85061e7188a-cgu.0.rcgu.o)
 .rodata..Lanon.a0506fc3c6b36e5783e71ab63da9841e.136
                0x00000000001355a4       0x23 ./gen/../tr_api_dispatch/target/armv7a-none-eabi/release/libitron.a(core-d049573bc16596f9.core.5587a85061e7188a-cgu.0.rcgu.o)
 *fill*         0x00000000001355c7        0x1 
 .rodata..Lanon.a0506fc3c6b36e5783e71ab63da9841e.137
                0x00000000001355c8        0x8 ./gen/../tr_api_dispatch/target/armv7a-none-eabi/release/libitron.a(core-d049573bc16596f9.core.5587a85061e7188a-cgu.0.rcgu.o)
 .rodata..Lanon.a0506fc3c6b36e5783e71ab63da9841e.138
                0x00000000001355d0        0x7 ./gen/../tr_api_dispatch/target/armv7a-none-eabi/release/libitron.a(core-d049573bc16596f9.core.5587a85061e7188a-cgu.0.rcgu.o)
 .rodata..Lanon.a0506fc3c6b36e5783e71ab63da9841e.139
                0x00000000001355d7        0x1 ./gen/../tr_api_dispatch/target/armv7a-none-eabi/release/libitron.a(core-d049573bc16596f9.core.5587a85061e7188a-cgu.0.rcgu.o)
 .rodata..Lanon.a0506fc3c6b36e5783e71ab63da9841e.140
                0x00000000001355d8       0x18 ./gen/../tr_api_dispatch/target/armv7a-none-eabi/release/libitron.a(core-d049573bc16596f9.core.5587a85061e7188a-cgu.0.rcgu.o)
 .rodata..Lanon.a0506fc3c6b36e5783e71ab63da9841e.141
                0x00000000001355f0        0x7 ./gen/../tr_api_dispatch/target/armv7a-none-eabi/release/libitron.a(core-d049573bc16596f9.core.5587a85061e7188a-cgu.0.rcgu.o)
 .rodata..Lanon.a0506fc3c6b36e5783e71ab63da9841e.142
                0x00000000001355f7        0x2 ./gen/../tr_api_dispatch/target/armv7a-none-eabi/release/libitron.a(core-d049573bc16596f9.core.5587a85061e7188a-cgu.0.rcgu.o)
 .rodata..Lanon.a0506fc3c6b36e5783e71ab63da9841e.143
                0x00000000001355f9        0x3 ./gen/../tr_api_dispatch/target/armv7a-none-eabi/release/libitron.a(core-d049573bc16596f9.core.5587a85061e7188a-cgu.0.rcgu.o)
 .rodata..Lanon.a0506fc3c6b36e5783e71ab63da9841e.144
                0x00000000001355fc        0x7 ./gen/../tr_api_dispatch/target/armv7a-none-eabi/release/libitron.a(core-d049573bc16596f9.core.5587a85061e7188a-cgu.0.rcgu.o)
 *fill*         0x0000000000135603        0x1 
 .rodata..Lanon.a0506fc3c6b36e5783e71ab63da9841e.145
                0x0000000000135604       0x10 ./gen/../tr_api_dispatch/target/armv7a-none-eabi/release/libitron.a(core-d049573bc16596f9.core.5587a85061e7188a-cgu.0.rcgu.o)
 .rodata..Lanon.a0506fc3c6b36e5783e71ab63da9841e.146
                0x0000000000135614       0x18 ./gen/../tr_api_dispatch/target/armv7a-none-eabi/release/libitron.a(core-d049573bc16596f9.core.5587a85061e7188a-cgu.0.rcgu.o)
 .rodata..Lanon.a0506fc3c6b36e5783e71ab63da9841e.148
                0x000000000013562c        0xd ./gen/../tr_api_dispatch/target/armv7a-none-eabi/release/libitron.a(core-d049573bc16596f9.core.5587a85061e7188a-cgu.0.rcgu.o)
 .rodata..Lanon.a0506fc3c6b36e5783e71ab63da9841e.149
                0x0000000000135639        0x1 ./gen/../tr_api_dispatch/target/armv7a-none-eabi/release/libitron.a(core-d049573bc16596f9.core.5587a85061e7188a-cgu.0.rcgu.o)
 *fill*         0x000000000013563a        0x2 
 .rodata.cst8   0x000000000013563c       0x20 ./gen/../tr_api_dispatch/target/armv7a-none-eabi/release/libitron.a(core-d049573bc16596f9.core.5587a85061e7188a-cgu.0.rcgu.o)
                                         0x28 (size before relaxing)
 .rodata..Lanon.a0506fc3c6b36e5783e71ab63da9841e.151
                0x000000000013565c        0x2 ./gen/../tr_api_dispatch/target/armv7a-none-eabi/release/libitron.a(core-d049573bc16596f9.core.5587a85061e7188a-cgu.0.rcgu.o)
 .rodata..Lanon.a0506fc3c6b36e5783e71ab63da9841e.152
                0x000000000013565e        0x3 ./gen/../tr_api_dispatch/target/armv7a-none-eabi/release/libitron.a(core-d049573bc16596f9.core.5587a85061e7188a-cgu.0.rcgu.o)
 .rodata..Lanon.a0506fc3c6b36e5783e71ab63da9841e.153
                0x0000000000135661       0x2e ./gen/../tr_api_dispatch/target/armv7a-none-eabi/release/libitron.a(core-d049573bc16596f9.core.5587a85061e7188a-cgu.0.rcgu.o)
 *fill*         0x000000000013568f        0x1 
 .rodata..Lanon.a0506fc3c6b36e5783e71ab63da9841e.154
                0x0000000000135690        0x8 ./gen/../tr_api_dispatch/target/armv7a-none-eabi/release/libitron.a(core-d049573bc16596f9.core.5587a85061e7188a-cgu.0.rcgu.o)
 .rodata..Lanon.a0506fc3c6b36e5783e71ab63da9841e.155
                0x0000000000135698       0x1d ./gen/../tr_api_dispatch/target/armv7a-none-eabi/release/libitron.a(core-d049573bc16596f9.core.5587a85061e7188a-cgu.0.rcgu.o)
 *fill*         0x00000000001356b5        0x3 
 .rodata..Lanon.a0506fc3c6b36e5783e71ab63da9841e.156
                0x00000000001356b8       0x10 ./gen/../tr_api_dispatch/target/armv7a-none-eabi/release/libitron.a(core-d049573bc16596f9.core.5587a85061e7188a-cgu.0.rcgu.o)
 .rodata..Lanon.a0506fc3c6b36e5783e71ab63da9841e.157
                0x00000000001356c8        0xb ./gen/../tr_api_dispatch/target/armv7a-none-eabi/release/libitron.a(core-d049573bc16596f9.core.5587a85061e7188a-cgu.0.rcgu.o)
 .rodata..Lanon.a0506fc3c6b36e5783e71ab63da9841e.158
                0x00000000001356d3       0x18 ./gen/../tr_api_dispatch/target/armv7a-none-eabi/release/libitron.a(core-d049573bc16596f9.core.5587a85061e7188a-cgu.0.rcgu.o)
 .rodata..Lanon.a0506fc3c6b36e5783e71ab63da9841e.159
                0x00000000001356eb        0xe ./gen/../tr_api_dispatch/target/armv7a-none-eabi/release/libitron.a(core-d049573bc16596f9.core.5587a85061e7188a-cgu.0.rcgu.o)
 .rodata..Lanon.a0506fc3c6b36e5783e71ab63da9841e.161
                0x00000000001356f9       0x12 ./gen/../tr_api_dispatch/target/armv7a-none-eabi/release/libitron.a(core-d049573bc16596f9.core.5587a85061e7188a-cgu.0.rcgu.o)
 *fill*         0x000000000013570b        0x1 
 .rodata..Lanon.a0506fc3c6b36e5783e71ab63da9841e.162
                0x000000000013570c        0x8 ./gen/../tr_api_dispatch/target/armv7a-none-eabi/release/libitron.a(core-d049573bc16596f9.core.5587a85061e7188a-cgu.0.rcgu.o)
 .rodata..Lanon.a0506fc3c6b36e5783e71ab63da9841e.163
                0x0000000000135714       0x1a ./gen/../tr_api_dispatch/target/armv7a-none-eabi/release/libitron.a(core-d049573bc16596f9.core.5587a85061e7188a-cgu.0.rcgu.o)
 *fill*         0x000000000013572e        0x2 
 .rodata..Lanon.a0506fc3c6b36e5783e71ab63da9841e.164
                0x0000000000135730        0x8 ./gen/../tr_api_dispatch/target/armv7a-none-eabi/release/libitron.a(core-d049573bc16596f9.core.5587a85061e7188a-cgu.0.rcgu.o)
 .rodata..Lanon.a0506fc3c6b36e5783e71ab63da9841e.165
                0x0000000000135738       0x23 ./gen/../tr_api_dispatch/target/armv7a-none-eabi/release/libitron.a(core-d049573bc16596f9.core.5587a85061e7188a-cgu.0.rcgu.o)
 .rodata..Lanon.a0506fc3c6b36e5783e71ab63da9841e.166
                0x000000000013575b       0x1d ./gen/../tr_api_dispatch/target/armv7a-none-eabi/release/libitron.a(core-d049573bc16596f9.core.5587a85061e7188a-cgu.0.rcgu.o)
 .rodata..Lanon.a0506fc3c6b36e5783e71ab63da9841e.167
                0x0000000000135778       0x29 ./gen/../tr_api_dispatch/target/armv7a-none-eabi/release/libitron.a(core-d049573bc16596f9.core.5587a85061e7188a-cgu.0.rcgu.o)
 .rodata..Lanon.a0506fc3c6b36e5783e71ab63da9841e.168
                0x00000000001357a1       0x1a ./gen/../tr_api_dispatch/target/armv7a-none-eabi/release/libitron.a(core-d049573bc16596f9.core.5587a85061e7188a-cgu.0.rcgu.o)
 *fill*         0x00000000001357bb        0x1 
 .rodata..Lanon.a0506fc3c6b36e5783e71ab63da9841e.169
                0x00000000001357bc        0x8 ./gen/../tr_api_dispatch/target/armv7a-none-eabi/release/libitron.a(core-d049573bc16596f9.core.5587a85061e7188a-cgu.0.rcgu.o)
 .rodata..Lanon.a0506fc3c6b36e5783e71ab63da9841e.170
                0x00000000001357c4       0x47 ./gen/../tr_api_dispatch/target/armv7a-none-eabi/release/libitron.a(core-d049573bc16596f9.core.5587a85061e7188a-cgu.0.rcgu.o)
 *fill*         0x000000000013580b        0x1 
 .rodata..Lanon.a0506fc3c6b36e5783e71ab63da9841e.171
                0x000000000013580c        0x8 ./gen/../tr_api_dispatch/target/armv7a-none-eabi/release/libitron.a(core-d049573bc16596f9.core.5587a85061e7188a-cgu.0.rcgu.o)
 .rodata.cst32  0x0000000000135814       0xa0 ./gen/../tr_api_dispatch/target/armv7a-none-eabi/release/libitron.a(core-d049573bc16596f9.core.5587a85061e7188a-cgu.0.rcgu.o)
 .rodata..Lanon.a0506fc3c6b36e5783e71ab63da9841e.173
                0x00000000001358b4       0x10 ./gen/../tr_api_dispatch/target/armv7a-none-eabi/release/libitron.a(core-d049573bc16596f9.core.5587a85061e7188a-cgu.0.rcgu.o)
 .rodata..Lanon.a0506fc3c6b36e5783e71ab63da9841e.174
                0x00000000001358c4       0x1f ./gen/../tr_api_dispatch/target/armv7a-none-eabi/release/libitron.a(core-d049573bc16596f9.core.5587a85061e7188a-cgu.0.rcgu.o)
 .rodata..Lanon.a0506fc3c6b36e5783e71ab63da9841e.175
                0x00000000001358e3       0x24 ./gen/../tr_api_dispatch/target/armv7a-none-eabi/release/libitron.a(core-d049573bc16596f9.core.5587a85061e7188a-cgu.0.rcgu.o)
 *fill*         0x0000000000135907        0x1 
 .rodata..Lanon.a0506fc3c6b36e5783e71ab63da9841e.176
                0x0000000000135908       0x10 ./gen/../tr_api_dispatch/target/armv7a-none-eabi/release/libitron.a(core-d049573bc16596f9.core.5587a85061e7188a-cgu.0.rcgu.o)
 .rodata..Lanon.a0506fc3c6b36e5783e71ab63da9841e.177
                0x0000000000135918       0x2b ./gen/../tr_api_dispatch/target/armv7a-none-eabi/release/libitron.a(core-d049573bc16596f9.core.5587a85061e7188a-cgu.0.rcgu.o)
 .rodata..Lanon.a0506fc3c6b36e5783e71ab63da9841e.178
                0x0000000000135943       0x23 ./gen/../tr_api_dispatch/target/armv7a-none-eabi/release/libitron.a(core-d049573bc16596f9.core.5587a85061e7188a-cgu.0.rcgu.o)
 .rodata..Lanon.a0506fc3c6b36e5783e71ab63da9841e.179
                0x0000000000135966        0xd ./gen/../tr_api_dispatch/target/armv7a-none-eabi/release/libitron.a(core-d049573bc16596f9.core.5587a85061e7188a-cgu.0.rcgu.o)
 *fill*         0x0000000000135973        0x1 
 .rodata..Lanon.a0506fc3c6b36e5783e71ab63da9841e.180
                0x0000000000135974        0x8 ./gen/../tr_api_dispatch/target/armv7a-none-eabi/release/libitron.a(core-d049573bc16596f9.core.5587a85061e7188a-cgu.0.rcgu.o)
 .rodata..Lanon.a0506fc3c6b36e5783e71ab63da9841e.181
                0x000000000013597c        0x9 ./gen/../tr_api_dispatch/target/armv7a-none-eabi/release/libitron.a(core-d049573bc16596f9.core.5587a85061e7188a-cgu.0.rcgu.o)
 *fill*         0x0000000000135985        0x3 
 .rodata..Lanon.a0506fc3c6b36e5783e71ab63da9841e.182
                0x0000000000135988        0x8 ./gen/../tr_api_dispatch/target/armv7a-none-eabi/release/libitron.a(core-d049573bc16596f9.core.5587a85061e7188a-cgu.0.rcgu.o)
 .rodata..Lanon.a0506fc3c6b36e5783e71ab63da9841e.183
                0x0000000000135990        0x6 ./gen/../tr_api_dispatch/target/armv7a-none-eabi/release/libitron.a(core-d049573bc16596f9.core.5587a85061e7188a-cgu.0.rcgu.o)
 .rodata..Lanon.a0506fc3c6b36e5783e71ab63da9841e.184
                0x0000000000135996        0xb ./gen/../tr_api_dispatch/target/armv7a-none-eabi/release/libitron.a(core-d049573bc16596f9.core.5587a85061e7188a-cgu.0.rcgu.o)
 *fill*         0x00000000001359a1        0x3 
 .rodata..Lanon.a0506fc3c6b36e5783e71ab63da9841e.185
                0x00000000001359a4       0x10 ./gen/../tr_api_dispatch/target/armv7a-none-eabi/release/libitron.a(core-d049573bc16596f9.core.5587a85061e7188a-cgu.0.rcgu.o)
 .rodata.cst4   0x00000000001359b4       0x18 ./gen/../tr_api_dispatch/target/armv7a-none-eabi/release/libitron.a(core-d049573bc16596f9.core.5587a85061e7188a-cgu.0.rcgu.o)
 .rodata..Lanon.a0506fc3c6b36e5783e71ab63da9841e.187
                0x00000000001359cc        0x6 ./gen/../tr_api_dispatch/target/armv7a-none-eabi/release/libitron.a(core-d049573bc16596f9.core.5587a85061e7188a-cgu.0.rcgu.o)
 *fill*         0x00000000001359d2        0x2 
 .rodata..Lanon.a0506fc3c6b36e5783e71ab63da9841e.189
                0x00000000001359d4       0x20 ./gen/../tr_api_dispatch/target/armv7a-none-eabi/release/libitron.a(core-d049573bc16596f9.core.5587a85061e7188a-cgu.0.rcgu.o)
 .rodata..Lanon.a0506fc3c6b36e5783e71ab63da9841e.190
                0x00000000001359f4       0x26 ./gen/../tr_api_dispatch/target/armv7a-none-eabi/release/libitron.a(core-d049573bc16596f9.core.5587a85061e7188a-cgu.0.rcgu.o)
 *fill*         0x0000000000135a1a        0x2 
 .rodata..Lanon.a0506fc3c6b36e5783e71ab63da9841e.191
                0x0000000000135a1c       0x10 ./gen/../tr_api_dispatch/target/armv7a-none-eabi/release/libitron.a(core-d049573bc16596f9.core.5587a85061e7188a-cgu.0.rcgu.o)
 .rodata..Lanon.a0506fc3c6b36e5783e71ab63da9841e.192
                0x0000000000135a2c       0x10 ./gen/../tr_api_dispatch/target/armv7a-none-eabi/release/libitron.a(core-d049573bc16596f9.core.5587a85061e7188a-cgu.0.rcgu.o)
 .rodata..Lanon.a0506fc3c6b36e5783e71ab63da9841e.193
                0x0000000000135a3c       0x2b ./gen/../tr_api_dispatch/target/armv7a-none-eabi/release/libitron.a(core-d049573bc16596f9.core.5587a85061e7188a-cgu.0.rcgu.o)
 .rodata..Lanon.a0506fc3c6b36e5783e71ab63da9841e.194
                0x0000000000135a67       0x1f ./gen/../tr_api_dispatch/target/armv7a-none-eabi/release/libitron.a(core-d049573bc16596f9.core.5587a85061e7188a-cgu.0.rcgu.o)
 *fill*         0x0000000000135a86        0x2 
 .rodata..Lanon.a0506fc3c6b36e5783e71ab63da9841e.195
                0x0000000000135a88       0x10 ./gen/../tr_api_dispatch/target/armv7a-none-eabi/release/libitron.a(core-d049573bc16596f9.core.5587a85061e7188a-cgu.0.rcgu.o)
 .rodata..Lanon.a0506fc3c6b36e5783e71ab63da9841e.196
                0x0000000000135a98       0x10 ./gen/../tr_api_dispatch/target/armv7a-none-eabi/release/libitron.a(core-d049573bc16596f9.core.5587a85061e7188a-cgu.0.rcgu.o)
 .rodata..Lanon.a0506fc3c6b36e5783e71ab63da9841e.197
                0x0000000000135aa8        0x7 ./gen/../tr_api_dispatch/target/armv7a-none-eabi/release/libitron.a(core-d049573bc16596f9.core.5587a85061e7188a-cgu.0.rcgu.o)
 *fill*         0x0000000000135aaf        0x1 
 .rodata..Lanon.a0506fc3c6b36e5783e71ab63da9841e.198
                0x0000000000135ab0        0x8 ./gen/../tr_api_dispatch/target/armv7a-none-eabi/release/libitron.a(core-d049573bc16596f9.core.5587a85061e7188a-cgu.0.rcgu.o)
 .rodata..Lanon.a0506fc3c6b36e5783e71ab63da9841e.199
                0x0000000000135ab8        0x2 ./gen/../tr_api_dispatch/target/armv7a-none-eabi/release/libitron.a(core-d049573bc16596f9.core.5587a85061e7188a-cgu.0.rcgu.o)
 *fill*         0x0000000000135aba        0x2 
 .rodata..Lanon.a0506fc3c6b36e5783e71ab63da9841e.200
                0x0000000000135abc       0x10 ./gen/../tr_api_dispatch/target/armv7a-none-eabi/release/libitron.a(core-d049573bc16596f9.core.5587a85061e7188a-cgu.0.rcgu.o)
 .rodata..Lanon.a0506fc3c6b36e5783e71ab63da9841e.201
                0x0000000000135acc       0x1e ./gen/../tr_api_dispatch/target/armv7a-none-eabi/release/libitron.a(core-d049573bc16596f9.core.5587a85061e7188a-cgu.0.rcgu.o)
 *fill*         0x0000000000135aea        0x2 
 .rodata..Lanon.a0506fc3c6b36e5783e71ab63da9841e.202
                0x0000000000135aec       0x10 ./gen/../tr_api_dispatch/target/armv7a-none-eabi/release/libitron.a(core-d049573bc16596f9.core.5587a85061e7188a-cgu.0.rcgu.o)
 .rodata..Lanon.a0506fc3c6b36e5783e71ab63da9841e.203
                0x0000000000135afc       0x10 ./gen/../tr_api_dispatch/target/armv7a-none-eabi/release/libitron.a(core-d049573bc16596f9.core.5587a85061e7188a-cgu.0.rcgu.o)
 .rodata..Lanon.a0506fc3c6b36e5783e71ab63da9841e.204
                0x0000000000135b0c       0x10 ./gen/../tr_api_dispatch/target/armv7a-none-eabi/release/libitron.a(core-d049573bc16596f9.core.5587a85061e7188a-cgu.0.rcgu.o)
 .rodata..Lanon.a0506fc3c6b36e5783e71ab63da9841e.205
                0x0000000000135b1c       0x19 ./gen/../tr_api_dispatch/target/armv7a-none-eabi/release/libitron.a(core-d049573bc16596f9.core.5587a85061e7188a-cgu.0.rcgu.o)
 .rodata..Lanon.a0506fc3c6b36e5783e71ab63da9841e.206
                0x0000000000135b35       0x1b ./gen/../tr_api_dispatch/target/armv7a-none-eabi/release/libitron.a(core-d049573bc16596f9.core.5587a85061e7188a-cgu.0.rcgu.o)
 .rodata..Lanon.a0506fc3c6b36e5783e71ab63da9841e.207
                0x0000000000135b50       0x1b ./gen/../tr_api_dispatch/target/armv7a-none-eabi/release/libitron.a(core-d049573bc16596f9.core.5587a85061e7188a-cgu.0.rcgu.o)
 .rodata..Lanon.a0506fc3c6b36e5783e71ab63da9841e.208
                0x0000000000135b6b       0x1d ./gen/../tr_api_dispatch/target/armv7a-none-eabi/release/libitron.a(core-d049573bc16596f9.core.5587a85061e7188a-cgu.0.rcgu.o)
 .rodata..Lanon.a0506fc3c6b36e5783e71ab63da9841e.209
                0x0000000000135b88       0x22 ./gen/../tr_api_dispatch/target/armv7a-none-eabi/release/libitron.a(core-d049573bc16596f9.core.5587a85061e7188a-cgu.0.rcgu.o)
 .rodata..Lanon.a0506fc3c6b36e5783e71ab63da9841e.210
                0x0000000000135baa       0x22 ./gen/../tr_api_dispatch/target/armv7a-none-eabi/release/libitron.a(core-d049573bc16596f9.core.5587a85061e7188a-cgu.0.rcgu.o)
 .rodata..Lanon.a0506fc3c6b36e5783e71ab63da9841e.211
                0x0000000000135bcc        0x1 ./gen/../tr_api_dispatch/target/armv7a-none-eabi/release/libitron.a(core-d049573bc16596f9.core.5587a85061e7188a-cgu.0.rcgu.o)
 *fill*         0x0000000000135bcd        0x3 
 .rodata..Lanon.a0506fc3c6b36e5783e71ab63da9841e.212
                0x0000000000135bd0       0x10 ./gen/../tr_api_dispatch/target/armv7a-none-eabi/release/libitron.a(core-d049573bc16596f9.core.5587a85061e7188a-cgu.0.rcgu.o)
 .rodata..Lanon.a0506fc3c6b36e5783e71ab63da9841e.213
                0x0000000000135be0       0x23 ./gen/../tr_api_dispatch/target/armv7a-none-eabi/release/libitron.a(core-d049573bc16596f9.core.5587a85061e7188a-cgu.0.rcgu.o)
 *fill*         0x0000000000135c03        0x1 
 .rodata..Lanon.a0506fc3c6b36e5783e71ab63da9841e.214
                0x0000000000135c04       0x10 ./gen/../tr_api_dispatch/target/armv7a-none-eabi/release/libitron.a(core-d049573bc16596f9.core.5587a85061e7188a-cgu.0.rcgu.o)
 .rodata..Lanon.a0506fc3c6b36e5783e71ab63da9841e.215
                0x0000000000135c14        0x1 ./gen/../tr_api_dispatch/target/armv7a-none-eabi/release/libitron.a(core-d049573bc16596f9.core.5587a85061e7188a-cgu.0.rcgu.o)
 .rodata..Lanon.a0506fc3c6b36e5783e71ab63da9841e.216
                0x0000000000135c15        0x2 ./gen/../tr_api_dispatch/target/armv7a-none-eabi/release/libitron.a(core-d049573bc16596f9.core.5587a85061e7188a-cgu.0.rcgu.o)
 *fill*         0x0000000000135c17        0x1 
 .rodata..Lanon.a0506fc3c6b36e5783e71ab63da9841e.217
                0x0000000000135c18       0x10 ./gen/../tr_api_dispatch/target/armv7a-none-eabi/release/libitron.a(core-d049573bc16596f9.core.5587a85061e7188a-cgu.0.rcgu.o)
 .rodata..Lanon.a0506fc3c6b36e5783e71ab63da9841e.218
                0x0000000000135c28        0x1 ./gen/../tr_api_dispatch/target/armv7a-none-eabi/release/libitron.a(core-d049573bc16596f9.core.5587a85061e7188a-cgu.0.rcgu.o)
 *fill*         0x0000000000135c29        0x3 
 .rodata..Lanon.a0506fc3c6b36e5783e71ab63da9841e.219
                0x0000000000135c2c       0x18 ./gen/../tr_api_dispatch/target/armv7a-none-eabi/release/libitron.a(core-d049573bc16596f9.core.5587a85061e7188a-cgu.0.rcgu.o)
 .rodata..Lanon.a0506fc3c6b36e5783e71ab63da9841e.220
                0x0000000000135c44       0x10 ./gen/../tr_api_dispatch/target/armv7a-none-eabi/release/libitron.a(core-d049573bc16596f9.core.5587a85061e7188a-cgu.0.rcgu.o)
 .rodata..Lanon.a0506fc3c6b36e5783e71ab63da9841e.221
                0x0000000000135c54       0x2b ./gen/../tr_api_dispatch/target/armv7a-none-eabi/release/libitron.a(core-d049573bc16596f9.core.5587a85061e7188a-cgu.0.rcgu.o)
 *fill*         0x0000000000135c7f        0x1 
 .rodata..Lanon.a0506fc3c6b36e5783e71ab63da9841e.222
                0x0000000000135c80       0x18 ./gen/../tr_api_dispatch/target/armv7a-none-eabi/release/libitron.a(core-d049573bc16596f9.core.5587a85061e7188a-cgu.0.rcgu.o)
 .rodata..Lanon.a0506fc3c6b36e5783e71ab63da9841e.223
                0x0000000000135c98        0xc ./gen/../tr_api_dispatch/target/armv7a-none-eabi/release/libitron.a(core-d049573bc16596f9.core.5587a85061e7188a-cgu.0.rcgu.o)
 .rodata..Lanon.a0506fc3c6b36e5783e71ab63da9841e.224
                0x0000000000135ca4        0x2 ./gen/../tr_api_dispatch/target/armv7a-none-eabi/release/libitron.a(core-d049573bc16596f9.core.5587a85061e7188a-cgu.0.rcgu.o)
 .rodata..Lanon.a0506fc3c6b36e5783e71ab63da9841e.225
                0x0000000000135ca6       0x1d ./gen/../tr_api_dispatch/target/armv7a-none-eabi/release/libitron.a(core-d049573bc16596f9.core.5587a85061e7188a-cgu.0.rcgu.o)
 *fill*         0x0000000000135cc3        0x1 
 .rodata..Lanon.a0506fc3c6b36e5783e71ab63da9841e.226
                0x0000000000135cc4       0x10 ./gen/../tr_api_dispatch/target/armv7a-none-eabi/release/libitron.a(core-d049573bc16596f9.core.5587a85061e7188a-cgu.0.rcgu.o)
 .rodata..Lanon.a0506fc3c6b36e5783e71ab63da9841e.227
                0x0000000000135cd4       0x10 ./gen/../tr_api_dispatch/target/armv7a-none-eabi/release/libitron.a(core-d049573bc16596f9.core.5587a85061e7188a-cgu.0.rcgu.o)
 .rodata..Lanon.a0506fc3c6b36e5783e71ab63da9841e.228
                0x0000000000135ce4        0xe ./gen/../tr_api_dispatch/target/armv7a-none-eabi/release/libitron.a(core-d049573bc16596f9.core.5587a85061e7188a-cgu.0.rcgu.o)
 *fill*         0x0000000000135cf2        0x2 
 .rodata..Lanon.a0506fc3c6b36e5783e71ab63da9841e.229
                0x0000000000135cf4        0x8 ./gen/../tr_api_dispatch/target/armv7a-none-eabi/release/libitron.a(core-d049573bc16596f9.core.5587a85061e7188a-cgu.0.rcgu.o)
 .rodata..Lanon.a0506fc3c6b36e5783e71ab63da9841e.231
                0x0000000000135cfc       0x12 ./gen/../tr_api_dispatch/target/armv7a-none-eabi/release/libitron.a(core-d049573bc16596f9.core.5587a85061e7188a-cgu.0.rcgu.o)
 *fill*         0x0000000000135d0e        0x2 
 .rodata..Lanon.a0506fc3c6b36e5783e71ab63da9841e.232
                0x0000000000135d10       0x10 ./gen/../tr_api_dispatch/target/armv7a-none-eabi/release/libitron.a(core-d049573bc16596f9.core.5587a85061e7188a-cgu.0.rcgu.o)
 .rodata..Lanon.a0506fc3c6b36e5783e71ab63da9841e.233
                0x0000000000135d20       0x3e ./gen/../tr_api_dispatch/target/armv7a-none-eabi/release/libitron.a(core-d049573bc16596f9.core.5587a85061e7188a-cgu.0.rcgu.o)
 *fill*         0x0000000000135d5e        0x2 
 .rodata..Lanon.a0506fc3c6b36e5783e71ab63da9841e.235
                0x0000000000135d60       0x10 ./gen/../tr_api_dispatch/target/armv7a-none-eabi/release/libitron.a(core-d049573bc16596f9.core.5587a85061e7188a-cgu.0.rcgu.o)
 .rodata..Lanon.a0506fc3c6b36e5783e71ab63da9841e.236
                0x0000000000135d70       0x30 ./gen/../tr_api_dispatch/target/armv7a-none-eabi/release/libitron.a(core-d049573bc16596f9.core.5587a85061e7188a-cgu.0.rcgu.o)
 .rodata..Lanon.a0506fc3c6b36e5783e71ab63da9841e.237
                0x0000000000135da0       0x21 ./gen/../tr_api_dispatch/target/armv7a-none-eabi/release/libitron.a(core-d049573bc16596f9.core.5587a85061e7188a-cgu.0.rcgu.o)
 *fill*         0x0000000000135dc1        0x3 
 .rodata..Lanon.a0506fc3c6b36e5783e71ab63da9841e.238
                0x0000000000135dc4        0x8 ./gen/../tr_api_dispatch/target/armv7a-none-eabi/release/libitron.a(core-d049573bc16596f9.core.5587a85061e7188a-cgu.0.rcgu.o)
 .rodata..Lanon.a0506fc3c6b36e5783e71ab63da9841e.239
                0x0000000000135dcc       0x26 ./gen/../tr_api_dispatch/target/armv7a-none-eabi/release/libitron.a(core-d049573bc16596f9.core.5587a85061e7188a-cgu.0.rcgu.o)
 .rodata..Lanon.a0506fc3c6b36e5783e71ab63da9841e.240
                0x0000000000135df2       0x24 ./gen/../tr_api_dispatch/target/armv7a-none-eabi/release/libitron.a(core-d049573bc16596f9.core.5587a85061e7188a-cgu.0.rcgu.o)
 *fill*         0x0000000000135e16        0x2 
 .rodata..Lanon.a0506fc3c6b36e5783e71ab63da9841e.241
                0x0000000000135e18       0x10 ./gen/../tr_api_dispatch/target/armv7a-none-eabi/release/libitron.a(core-d049573bc16596f9.core.5587a85061e7188a-cgu.0.rcgu.o)
 .rodata..Lanon.a0506fc3c6b36e5783e71ab63da9841e.242
                0x0000000000135e28       0x10 ./gen/../tr_api_dispatch/target/armv7a-none-eabi/release/libitron.a(core-d049573bc16596f9.core.5587a85061e7188a-cgu.0.rcgu.o)
 .rodata..Lanon.a0506fc3c6b36e5783e71ab63da9841e.243
                0x0000000000135e38       0x10 ./gen/../tr_api_dispatch/target/armv7a-none-eabi/release/libitron.a(core-d049573bc16596f9.core.5587a85061e7188a-cgu.0.rcgu.o)
 .rodata..Lanon.a0506fc3c6b36e5783e71ab63da9841e.244
                0x0000000000135e48        0x2 ./gen/../tr_api_dispatch/target/armv7a-none-eabi/release/libitron.a(core-d049573bc16596f9.core.5587a85061e7188a-cgu.0.rcgu.o)
 .rodata..Lanon.a0506fc3c6b36e5783e71ab63da9841e.245
                0x0000000000135e4a        0x2 ./gen/../tr_api_dispatch/target/armv7a-none-eabi/release/libitron.a(core-d049573bc16596f9.core.5587a85061e7188a-cgu.0.rcgu.o)
 .rodata..Lanon.a0506fc3c6b36e5783e71ab63da9841e.246
                0x0000000000135e4c        0x7 ./gen/../tr_api_dispatch/target/armv7a-none-eabi/release/libitron.a(core-d049573bc16596f9.core.5587a85061e7188a-cgu.0.rcgu.o)
 .rodata..Lanon.a0506fc3c6b36e5783e71ab63da9841e.248
                0x0000000000135e53       0x17 ./gen/../tr_api_dispatch/target/armv7a-none-eabi/release/libitron.a(core-d049573bc16596f9.core.5587a85061e7188a-cgu.0.rcgu.o)
 .rodata..Lanon.a0506fc3c6b36e5783e71ab63da9841e.249
                0x0000000000135e6a        0x9 ./gen/../tr_api_dispatch/target/armv7a-none-eabi/release/libitron.a(core-d049573bc16596f9.core.5587a85061e7188a-cgu.0.rcgu.o)
 *fill*         0x0000000000135e73        0x1 
 .rodata..Lanon.a0506fc3c6b36e5783e71ab63da9841e.250
                0x0000000000135e74       0x18 ./gen/../tr_api_dispatch/target/armv7a-none-eabi/release/libitron.a(core-d049573bc16596f9.core.5587a85061e7188a-cgu.0.rcgu.o)
 .rodata..Lanon.a0506fc3c6b36e5783e71ab63da9841e.252
                0x0000000000135e8c        0x9 ./gen/../tr_api_dispatch/target/armv7a-none-eabi/release/libitron.a(core-d049573bc16596f9.core.5587a85061e7188a-cgu.0.rcgu.o)
 *fill*         0x0000000000135e95        0x3 
 .rodata..Lanon.a0506fc3c6b36e5783e71ab63da9841e.253
                0x0000000000135e98       0x20 ./gen/../tr_api_dispatch/target/armv7a-none-eabi/release/libitron.a(core-d049573bc16596f9.core.5587a85061e7188a-cgu.0.rcgu.o)
 .rodata..Lanon.a0506fc3c6b36e5783e71ab63da9841e.254
                0x0000000000135eb8       0x27 ./gen/../tr_api_dispatch/target/armv7a-none-eabi/release/libitron.a(core-d049573bc16596f9.core.5587a85061e7188a-cgu.0.rcgu.o)
 *fill*         0x0000000000135edf        0x1 
 .rodata..Lanon.a0506fc3c6b36e5783e71ab63da9841e.255
                0x0000000000135ee0        0x8 ./gen/../tr_api_dispatch/target/armv7a-none-eabi/release/libitron.a(core-d049573bc16596f9.core.5587a85061e7188a-cgu.0.rcgu.o)
 .rodata..Lanon.a0506fc3c6b36e5783e71ab63da9841e.256
                0x0000000000135ee8        0x2 ./gen/../tr_api_dispatch/target/armv7a-none-eabi/release/libitron.a(core-d049573bc16596f9.core.5587a85061e7188a-cgu.0.rcgu.o)
 *fill*         0x0000000000135eea        0x2 
 .rodata..Lanon.a0506fc3c6b36e5783e71ab63da9841e.257
                0x0000000000135eec       0x10 ./gen/../tr_api_dispatch/target/armv7a-none-eabi/release/libitron.a(core-d049573bc16596f9.core.5587a85061e7188a-cgu.0.rcgu.o)
 .rodata..Lanon.a0506fc3c6b36e5783e71ab63da9841e.258
                0x0000000000135efc       0x18 ./gen/../tr_api_dispatch/target/armv7a-none-eabi/release/libitron.a(core-d049573bc16596f9.core.5587a85061e7188a-cgu.0.rcgu.o)
 .rodata..Lanon.a0506fc3c6b36e5783e71ab63da9841e.260
                0x0000000000135f14        0x3 ./gen/../tr_api_dispatch/target/armv7a-none-eabi/release/libitron.a(core-d049573bc16596f9.core.5587a85061e7188a-cgu.0.rcgu.o)
 .rodata..Lanon.a0506fc3c6b36e5783e71ab63da9841e.261
                0x0000000000135f17        0x2 ./gen/../tr_api_dispatch/target/armv7a-none-eabi/release/libitron.a(core-d049573bc16596f9.core.5587a85061e7188a-cgu.0.rcgu.o)
 .rodata..Lanon.a0506fc3c6b36e5783e71ab63da9841e.262
                0x0000000000135f19        0x3 ./gen/../tr_api_dispatch/target/armv7a-none-eabi/release/libitron.a(core-d049573bc16596f9.core.5587a85061e7188a-cgu.0.rcgu.o)
 .rodata..Lanon.a0506fc3c6b36e5783e71ab63da9841e.263
                0x0000000000135f1c        0x2 ./gen/../tr_api_dispatch/target/armv7a-none-eabi/release/libitron.a(core-d049573bc16596f9.core.5587a85061e7188a-cgu.0.rcgu.o)
 .rodata..Lanon.a0506fc3c6b36e5783e71ab63da9841e.264
                0x0000000000135f1e        0x7 ./gen/../tr_api_dispatch/target/armv7a-none-eabi/release/libitron.a(core-d049573bc16596f9.core.5587a85061e7188a-cgu.0.rcgu.o)
 .rodata..Lanon.a0506fc3c6b36e5783e71ab63da9841e.265
                0x0000000000135f25        0x6 ./gen/../tr_api_dispatch/target/armv7a-none-eabi/release/libitron.a(core-d049573bc16596f9.core.5587a85061e7188a-cgu.0.rcgu.o)
 .rodata..Lanon.a0506fc3c6b36e5783e71ab63da9841e.266
                0x0000000000135f2b        0x3 ./gen/../tr_api_dispatch/target/armv7a-none-eabi/release/libitron.a(core-d049573bc16596f9.core.5587a85061e7188a-cgu.0.rcgu.o)
 .rodata..Lanon.a0506fc3c6b36e5783e71ab63da9841e.267
                0x0000000000135f2e        0x1 ./gen/../tr_api_dispatch/target/armv7a-none-eabi/release/libitron.a(core-d049573bc16596f9.core.5587a85061e7188a-cgu.0.rcgu.o)
 .rodata..Lanon.a0506fc3c6b36e5783e71ab63da9841e.268
                0x0000000000135f2f        0x2 ./gen/../tr_api_dispatch/target/armv7a-none-eabi/release/libitron.a(core-d049573bc16596f9.core.5587a85061e7188a-cgu.0.rcgu.o)
 .rodata..Lanon.a0506fc3c6b36e5783e71ab63da9841e.269
                0x0000000000135f31        0x1 ./gen/../tr_api_dispatch/target/armv7a-none-eabi/release/libitron.a(core-d049573bc16596f9.core.5587a85061e7188a-cgu.0.rcgu.o)
 .rodata..Lanon.a0506fc3c6b36e5783e71ab63da9841e.270
                0x0000000000135f32        0x2 ./gen/../tr_api_dispatch/target/armv7a-none-eabi/release/libitron.a(core-d049573bc16596f9.core.5587a85061e7188a-cgu.0.rcgu.o)
 .rodata..Lanon.a0506fc3c6b36e5783e71ab63da9841e.272
                0x0000000000135f34        0x5 ./gen/../tr_api_dispatch/target/armv7a-none-eabi/release/libitron.a(core-d049573bc16596f9.core.5587a85061e7188a-cgu.0.rcgu.o)
 .rodata..Lanon.a0506fc3c6b36e5783e71ab63da9841e.273
                0x0000000000135f39        0x1 ./gen/../tr_api_dispatch/target/armv7a-none-eabi/release/libitron.a(core-d049573bc16596f9.core.5587a85061e7188a-cgu.0.rcgu.o)
 .rodata..Lanon.a0506fc3c6b36e5783e71ab63da9841e.274
                0x0000000000135f3a        0x1 ./gen/../tr_api_dispatch/target/armv7a-none-eabi/release/libitron.a(core-d049573bc16596f9.core.5587a85061e7188a-cgu.0.rcgu.o)
 .rodata..Lanon.a0506fc3c6b36e5783e71ab63da9841e.275
                0x0000000000135f3b        0x1 ./gen/../tr_api_dispatch/target/armv7a-none-eabi/release/libitron.a(core-d049573bc16596f9.core.5587a85061e7188a-cgu.0.rcgu.o)
 .rodata..Lanon.a0506fc3c6b36e5783e71ab63da9841e.276
                0x0000000000135f3c        0x3 ./gen/../tr_api_dispatch/target/armv7a-none-eabi/release/libitron.a(core-d049573bc16596f9.core.5587a85061e7188a-cgu.0.rcgu.o)
 .rodata..Lanon.a0506fc3c6b36e5783e71ab63da9841e.277
                0x0000000000135f3f        0x5 ./gen/../tr_api_dispatch/target/armv7a-none-eabi/release/libitron.a(core-d049573bc16596f9.core.5587a85061e7188a-cgu.0.rcgu.o)
 .rodata..Lanon.a0506fc3c6b36e5783e71ab63da9841e.278
                0x0000000000135f44        0x3 ./gen/../tr_api_dispatch/target/armv7a-none-eabi/release/libitron.a(core-d049573bc16596f9.core.5587a85061e7188a-cgu.0.rcgu.o)
 .rodata..Lanon.a0506fc3c6b36e5783e71ab63da9841e.279
                0x0000000000135f47        0x5 ./gen/../tr_api_dispatch/target/armv7a-none-eabi/release/libitron.a(core-d049573bc16596f9.core.5587a85061e7188a-cgu.0.rcgu.o)
 .rodata..Lanon.a0506fc3c6b36e5783e71ab63da9841e.280
                0x0000000000135f4c        0x1 ./gen/../tr_api_dispatch/target/armv7a-none-eabi/release/libitron.a(core-d049573bc16596f9.core.5587a85061e7188a-cgu.0.rcgu.o)
 .rodata..Lanon.a0506fc3c6b36e5783e71ab63da9841e.281
                0x0000000000135f4d       0x46 ./gen/../tr_api_dispatch/target/armv7a-none-eabi/release/libitron.a(core-d049573bc16596f9.core.5587a85061e7188a-cgu.0.rcgu.o)
 *fill*         0x0000000000135f93        0x1 
 .rodata..Lanon.a0506fc3c6b36e5783e71ab63da9841e.282
                0x0000000000135f94        0x8 ./gen/../tr_api_dispatch/target/armv7a-none-eabi/release/libitron.a(core-d049573bc16596f9.core.5587a85061e7188a-cgu.0.rcgu.o)
 .rodata..Lanon.a0506fc3c6b36e5783e71ab63da9841e.284
                0x0000000000135f9c       0x10 ./gen/../tr_api_dispatch/target/armv7a-none-eabi/release/libitron.a(core-d049573bc16596f9.core.5587a85061e7188a-cgu.0.rcgu.o)
 .rodata..Lanon.a0506fc3c6b36e5783e71ab63da9841e.285
                0x0000000000135fac       0x2e ./gen/../tr_api_dispatch/target/armv7a-none-eabi/release/libitron.a(core-d049573bc16596f9.core.5587a85061e7188a-cgu.0.rcgu.o)
 *fill*         0x0000000000135fda        0x2 
 .rodata..Lanon.a0506fc3c6b36e5783e71ab63da9841e.286
                0x0000000000135fdc        0x8 ./gen/../tr_api_dispatch/target/armv7a-none-eabi/release/libitron.a(core-d049573bc16596f9.core.5587a85061e7188a-cgu.0.rcgu.o)
 .rodata..Lanon.a0506fc3c6b36e5783e71ab63da9841e.287
                0x0000000000135fe4       0x10 ./gen/../tr_api_dispatch/target/armv7a-none-eabi/release/libitron.a(core-d049573bc16596f9.core.5587a85061e7188a-cgu.0.rcgu.o)
 .rodata..Lanon.a0506fc3c6b36e5783e71ab63da9841e.288
                0x0000000000135ff4       0x2e ./gen/../tr_api_dispatch/target/armv7a-none-eabi/release/libitron.a(core-d049573bc16596f9.core.5587a85061e7188a-cgu.0.rcgu.o)
 *fill*         0x0000000000136022        0x2 
 .rodata..Lanon.a0506fc3c6b36e5783e71ab63da9841e.289
                0x0000000000136024        0x8 ./gen/../tr_api_dispatch/target/armv7a-none-eabi/release/libitron.a(core-d049573bc16596f9.core.5587a85061e7188a-cgu.0.rcgu.o)
 .rodata..Lanon.a0506fc3c6b36e5783e71ab63da9841e.290
                0x000000000013602c       0x10 ./gen/../tr_api_dispatch/target/armv7a-none-eabi/release/libitron.a(core-d049573bc16596f9.core.5587a85061e7188a-cgu.0.rcgu.o)
 .rodata..Lanon.a0506fc3c6b36e5783e71ab63da9841e.291
                0x000000000013603c       0x10 ./gen/../tr_api_dispatch/target/armv7a-none-eabi/release/libitron.a(core-d049573bc16596f9.core.5587a85061e7188a-cgu.0.rcgu.o)
 .rodata..Lanon.a0506fc3c6b36e5783e71ab63da9841e.292
                0x000000000013604c       0x1b ./gen/../tr_api_dispatch/target/armv7a-none-eabi/release/libitron.a(core-d049573bc16596f9.core.5587a85061e7188a-cgu.0.rcgu.o)
 *fill*         0x0000000000136067        0x1 
 .rodata..Lanon.a0506fc3c6b36e5783e71ab63da9841e.293
                0x0000000000136068       0x10 ./gen/../tr_api_dispatch/target/armv7a-none-eabi/release/libitron.a(core-d049573bc16596f9.core.5587a85061e7188a-cgu.0.rcgu.o)
 .rodata..Lanon.a0506fc3c6b36e5783e71ab63da9841e.294
                0x0000000000136078        0x2 ./gen/../tr_api_dispatch/target/armv7a-none-eabi/release/libitron.a(core-d049573bc16596f9.core.5587a85061e7188a-cgu.0.rcgu.o)
 .rodata..Lanon.a0506fc3c6b36e5783e71ab63da9841e.295
                0x000000000013607a        0x2 ./gen/../tr_api_dispatch/target/armv7a-none-eabi/release/libitron.a(core-d049573bc16596f9.core.5587a85061e7188a-cgu.0.rcgu.o)
 .rodata..Lanon.a0506fc3c6b36e5783e71ab63da9841e.296
                0x000000000013607c        0x2 ./gen/../tr_api_dispatch/target/armv7a-none-eabi/release/libitron.a(core-d049573bc16596f9.core.5587a85061e7188a-cgu.0.rcgu.o)
 .rodata..Lanon.a0506fc3c6b36e5783e71ab63da9841e.297
                0x000000000013607e       0xc8 ./gen/../tr_api_dispatch/target/armv7a-none-eabi/release/libitron.a(core-d049573bc16596f9.core.5587a85061e7188a-cgu.0.rcgu.o)
 .rodata..Lanon.a0506fc3c6b36e5783e71ab63da9841e.298
                0x0000000000136146       0x1c ./gen/../tr_api_dispatch/target/armv7a-none-eabi/release/libitron.a(core-d049573bc16596f9.core.5587a85061e7188a-cgu.0.rcgu.o)
 *fill*         0x0000000000136162        0x2 
 .rodata..Lanon.a0506fc3c6b36e5783e71ab63da9841e.299
                0x0000000000136164       0x10 ./gen/../tr_api_dispatch/target/armv7a-none-eabi/release/libitron.a(core-d049573bc16596f9.core.5587a85061e7188a-cgu.0.rcgu.o)
 .rodata..Lanon.a0506fc3c6b36e5783e71ab63da9841e.300
                0x0000000000136174       0x18 ./gen/../tr_api_dispatch/target/armv7a-none-eabi/release/libitron.a(core-d049573bc16596f9.core.5587a85061e7188a-cgu.0.rcgu.o)
 .rodata..Lanon.a0506fc3c6b36e5783e71ab63da9841e.301
                0x000000000013618c       0x18 ./gen/../tr_api_dispatch/target/armv7a-none-eabi/release/libitron.a(core-d049573bc16596f9.core.5587a85061e7188a-cgu.0.rcgu.o)
 .rodata..Lanon.a0506fc3c6b36e5783e71ab63da9841e.302
                0x00000000001361a4       0x18 ./gen/../tr_api_dispatch/target/armv7a-none-eabi/release/libitron.a(core-d049573bc16596f9.core.5587a85061e7188a-cgu.0.rcgu.o)
 .rodata..Lanon.a0506fc3c6b36e5783e71ab63da9841e.303
                0x00000000001361bc       0x18 ./gen/../tr_api_dispatch/target/armv7a-none-eabi/release/libitron.a(core-d049573bc16596f9.core.5587a85061e7188a-cgu.0.rcgu.o)
 .rodata..Lanon.a0506fc3c6b36e5783e71ab63da9841e.304
                0x00000000001361d4       0x40 ./gen/../tr_api_dispatch/target/armv7a-none-eabi/release/libitron.a(core-d049573bc16596f9.core.5587a85061e7188a-cgu.0.rcgu.o)
 .rodata..Lanon.a0506fc3c6b36e5783e71ab63da9841e.305
                0x0000000000136214       0x1b ./gen/../tr_api_dispatch/target/armv7a-none-eabi/release/libitron.a(core-d049573bc16596f9.core.5587a85061e7188a-cgu.0.rcgu.o)
 *fill*         0x000000000013622f        0x1 
 .rodata..Lanon.a0506fc3c6b36e5783e71ab63da9841e.306
                0x0000000000136230       0x10 ./gen/../tr_api_dispatch/target/armv7a-none-eabi/release/libitron.a(core-d049573bc16596f9.core.5587a85061e7188a-cgu.0.rcgu.o)
 .rodata..Lanon.a0506fc3c6b36e5783e71ab63da9841e.307
                0x0000000000136240       0x10 ./gen/../tr_api_dispatch/target/armv7a-none-eabi/release/libitron.a(core-d049573bc16596f9.core.5587a85061e7188a-cgu.0.rcgu.o)
 .rodata..Lanon.a0506fc3c6b36e5783e71ab63da9841e.308
                0x0000000000136250       0x2d ./gen/../tr_api_dispatch/target/armv7a-none-eabi/release/libitron.a(core-d049573bc16596f9.core.5587a85061e7188a-cgu.0.rcgu.o)
 .rodata..Lanon.a0506fc3c6b36e5783e71ab63da9841e.309
                0x000000000013627d        0x5 ./gen/../tr_api_dispatch/target/armv7a-none-eabi/release/libitron.a(core-d049573bc16596f9.core.5587a85061e7188a-cgu.0.rcgu.o)
 *fill*         0x0000000000136282        0x2 
 .rodata..Lanon.a0506fc3c6b36e5783e71ab63da9841e.311
                0x0000000000136284       0x10 ./gen/../tr_api_dispatch/target/armv7a-none-eabi/release/libitron.a(core-d049573bc16596f9.core.5587a85061e7188a-cgu.0.rcgu.o)
 .rodata..Lanon.a0506fc3c6b36e5783e71ab63da9841e.312
                0x0000000000136294       0x10 ./gen/../tr_api_dispatch/target/armv7a-none-eabi/release/libitron.a(core-d049573bc16596f9.core.5587a85061e7188a-cgu.0.rcgu.o)
 .rodata..Lanon.a0506fc3c6b36e5783e71ab63da9841e.314
                0x00000000001362a4       0x10 ./gen/../tr_api_dispatch/target/armv7a-none-eabi/release/libitron.a(core-d049573bc16596f9.core.5587a85061e7188a-cgu.0.rcgu.o)
 .rodata..Lanon.a0506fc3c6b36e5783e71ab63da9841e.315
                0x00000000001362b4       0x10 ./gen/../tr_api_dispatch/target/armv7a-none-eabi/release/libitron.a(core-d049573bc16596f9.core.5587a85061e7188a-cgu.0.rcgu.o)
 .rodata..Lanon.a0506fc3c6b36e5783e71ab63da9841e.316
                0x00000000001362c4       0x4c ./gen/../tr_api_dispatch/target/armv7a-none-eabi/release/libitron.a(core-d049573bc16596f9.core.5587a85061e7188a-cgu.0.rcgu.o)
 .rodata..Lanon.a0506fc3c6b36e5783e71ab63da9841e.317
                0x0000000000136310        0x8 ./gen/../tr_api_dispatch/target/armv7a-none-eabi/release/libitron.a(core-d049573bc16596f9.core.5587a85061e7188a-cgu.0.rcgu.o)
 .rodata..Lanon.a0506fc3c6b36e5783e71ab63da9841e.318
                0x0000000000136318       0x2f ./gen/../tr_api_dispatch/target/armv7a-none-eabi/release/libitron.a(core-d049573bc16596f9.core.5587a85061e7188a-cgu.0.rcgu.o)
 *fill*         0x0000000000136347        0x1 
 .rodata..Lanon.a0506fc3c6b36e5783e71ab63da9841e.319
                0x0000000000136348       0x10 ./gen/../tr_api_dispatch/target/armv7a-none-eabi/release/libitron.a(core-d049573bc16596f9.core.5587a85061e7188a-cgu.0.rcgu.o)
 .rodata..Lanon.a0506fc3c6b36e5783e71ab63da9841e.320
                0x0000000000136358        0xb ./gen/../tr_api_dispatch/target/armv7a-none-eabi/release/libitron.a(core-d049573bc16596f9.core.5587a85061e7188a-cgu.0.rcgu.o)
 .rodata..Lanon.a0506fc3c6b36e5783e71ab63da9841e.321
                0x0000000000136363       0x31 ./gen/../tr_api_dispatch/target/armv7a-none-eabi/release/libitron.a(core-d049573bc16596f9.core.5587a85061e7188a-cgu.0.rcgu.o)
 .rodata..Lanon.a0506fc3c6b36e5783e71ab63da9841e.322
                0x0000000000136394        0x8 ./gen/../tr_api_dispatch/target/armv7a-none-eabi/release/libitron.a(core-d049573bc16596f9.core.5587a85061e7188a-cgu.0.rcgu.o)
 .rodata..Lanon.a0506fc3c6b36e5783e71ab63da9841e.323
                0x000000000013639c       0x2c ./gen/../tr_api_dispatch/target/armv7a-none-eabi/release/libitron.a(core-d049573bc16596f9.core.5587a85061e7188a-cgu.0.rcgu.o)
 .rodata..Lanon.a0506fc3c6b36e5783e71ab63da9841e.324
                0x00000000001363c8        0x8 ./gen/../tr_api_dispatch/target/armv7a-none-eabi/release/libitron.a(core-d049573bc16596f9.core.5587a85061e7188a-cgu.0.rcgu.o)
 .rodata..Lanon.a0506fc3c6b36e5783e71ab63da9841e.325
                0x00000000001363d0       0x1f ./gen/../tr_api_dispatch/target/armv7a-none-eabi/release/libitron.a(core-d049573bc16596f9.core.5587a85061e7188a-cgu.0.rcgu.o)
 *fill*         0x00000000001363ef        0x1 
 .rodata..Lanon.a0506fc3c6b36e5783e71ab63da9841e.326
                0x00000000001363f0       0x10 ./gen/../tr_api_dispatch/target/armv7a-none-eabi/release/libitron.a(core-d049573bc16596f9.core.5587a85061e7188a-cgu.0.rcgu.o)
 .rodata..Lanon.a0506fc3c6b36e5783e71ab63da9841e.327
                0x0000000000136400       0x10 ./gen/../tr_api_dispatch/target/armv7a-none-eabi/release/libitron.a(core-d049573bc16596f9.core.5587a85061e7188a-cgu.0.rcgu.o)
 .rodata..Lanon.a0506fc3c6b36e5783e71ab63da9841e.328
                0x0000000000136410       0x19 ./gen/../tr_api_dispatch/target/armv7a-none-eabi/release/libitron.a(core-d049573bc16596f9.core.5587a85061e7188a-cgu.0.rcgu.o)
 .rodata..Lanon.a0506fc3c6b36e5783e71ab63da9841e.329
                0x0000000000136429       0x1e ./gen/../tr_api_dispatch/target/armv7a-none-eabi/release/libitron.a(core-d049573bc16596f9.core.5587a85061e7188a-cgu.0.rcgu.o)
 .rodata..Lanon.a0506fc3c6b36e5783e71ab63da9841e.330
                0x0000000000136447       0x1a ./gen/../tr_api_dispatch/target/armv7a-none-eabi/release/libitron.a(core-d049573bc16596f9.core.5587a85061e7188a-cgu.0.rcgu.o)
 .rodata..Lanon.a0506fc3c6b36e5783e71ab63da9841e.331
                0x0000000000136461       0x12 ./gen/../tr_api_dispatch/target/armv7a-none-eabi/release/libitron.a(core-d049573bc16596f9.core.5587a85061e7188a-cgu.0.rcgu.o)
 *fill*         0x0000000000136473        0x1 
 .rodata..Lanon.a0506fc3c6b36e5783e71ab63da9841e.332
                0x0000000000136474       0x10 ./gen/../tr_api_dispatch/target/armv7a-none-eabi/release/libitron.a(core-d049573bc16596f9.core.5587a85061e7188a-cgu.0.rcgu.o)
 .rodata..Lanon.a0506fc3c6b36e5783e71ab63da9841e.333
                0x0000000000136484       0x2a ./gen/../tr_api_dispatch/target/armv7a-none-eabi/release/libitron.a(core-d049573bc16596f9.core.5587a85061e7188a-cgu.0.rcgu.o)
 *fill*         0x00000000001364ae        0x2 
 .rodata..Lanon.a0506fc3c6b36e5783e71ab63da9841e.334
                0x00000000001364b0        0x8 ./gen/../tr_api_dispatch/target/armv7a-none-eabi/release/libitron.a(core-d049573bc16596f9.core.5587a85061e7188a-cgu.0.rcgu.o)
 .rodata..Lanon.a0506fc3c6b36e5783e71ab63da9841e.335
                0x00000000001364b8       0x29 ./gen/../tr_api_dispatch/target/armv7a-none-eabi/release/libitron.a(core-d049573bc16596f9.core.5587a85061e7188a-cgu.0.rcgu.o)
 .rodata..Lanon.a0506fc3c6b36e5783e71ab63da9841e.336
                0x00000000001364e1        0x6 ./gen/../tr_api_dispatch/target/armv7a-none-eabi/release/libitron.a(core-d049573bc16596f9.core.5587a85061e7188a-cgu.0.rcgu.o)
 .rodata..Lanon.a0506fc3c6b36e5783e71ab63da9841e.337
                0x00000000001364e7        0xb ./gen/../tr_api_dispatch/target/armv7a-none-eabi/release/libitron.a(core-d049573bc16596f9.core.5587a85061e7188a-cgu.0.rcgu.o)
 .rodata..Lanon.a0506fc3c6b36e5783e71ab63da9841e.338
                0x00000000001364f2       0x2a ./gen/../tr_api_dispatch/target/armv7a-none-eabi/release/libitron.a(core-d049573bc16596f9.core.5587a85061e7188a-cgu.0.rcgu.o)
 .rodata..Lanon.a0506fc3c6b36e5783e71ab63da9841e.339
                0x000000000013651c        0x8 ./gen/../tr_api_dispatch/target/armv7a-none-eabi/release/libitron.a(core-d049573bc16596f9.core.5587a85061e7188a-cgu.0.rcgu.o)
 .rodata..Lanon.a0506fc3c6b36e5783e71ab63da9841e.340
                0x0000000000136524       0x1b ./gen/../tr_api_dispatch/target/armv7a-none-eabi/release/libitron.a(core-d049573bc16596f9.core.5587a85061e7188a-cgu.0.rcgu.o)
 .rodata..Lanon.a0506fc3c6b36e5783e71ab63da9841e.341
                0x000000000013653f      0x100 ./gen/../tr_api_dispatch/target/armv7a-none-eabi/release/libitron.a(core-d049573bc16596f9.core.5587a85061e7188a-cgu.0.rcgu.o)
 .rodata..Lanon.a0506fc3c6b36e5783e71ab63da9841e.342
                0x000000000013663f       0x1f ./gen/../tr_api_dispatch/target/armv7a-none-eabi/release/libitron.a(core-d049573bc16596f9.core.5587a85061e7188a-cgu.0.rcgu.o)
 *fill*         0x000000000013665e        0x2 
 .rodata..Lanon.a0506fc3c6b36e5783e71ab63da9841e.343
                0x0000000000136660       0x10 ./gen/../tr_api_dispatch/target/armv7a-none-eabi/release/libitron.a(core-d049573bc16596f9.core.5587a85061e7188a-cgu.0.rcgu.o)
 .rodata..Lanon.a0506fc3c6b36e5783e71ab63da9841e.344
                0x0000000000136670       0x10 ./gen/../tr_api_dispatch/target/armv7a-none-eabi/release/libitron.a(core-d049573bc16596f9.core.5587a85061e7188a-cgu.0.rcgu.o)
 .rodata..Lanon.a0506fc3c6b36e5783e71ab63da9841e.345
                0x0000000000136680       0x10 ./gen/../tr_api_dispatch/target/armv7a-none-eabi/release/libitron.a(core-d049573bc16596f9.core.5587a85061e7188a-cgu.0.rcgu.o)
 .rodata..Lanon.a0506fc3c6b36e5783e71ab63da9841e.346
                0x0000000000136690       0x10 ./gen/../tr_api_dispatch/target/armv7a-none-eabi/release/libitron.a(core-d049573bc16596f9.core.5587a85061e7188a-cgu.0.rcgu.o)
 .rodata..Lanon.a0506fc3c6b36e5783e71ab63da9841e.347
                0x00000000001366a0       0x10 ./gen/../tr_api_dispatch/target/armv7a-none-eabi/release/libitron.a(core-d049573bc16596f9.core.5587a85061e7188a-cgu.0.rcgu.o)
 .rodata..Lanon.a0506fc3c6b36e5783e71ab63da9841e.348
                0x00000000001366b0       0x1d ./gen/../tr_api_dispatch/target/armv7a-none-eabi/release/libitron.a(core-d049573bc16596f9.core.5587a85061e7188a-cgu.0.rcgu.o)
 *fill*         0x00000000001366cd        0x3 
 .rodata..Lanon.a0506fc3c6b36e5783e71ab63da9841e.349
                0x00000000001366d0       0x10 ./gen/../tr_api_dispatch/target/armv7a-none-eabi/release/libitron.a(core-d049573bc16596f9.core.5587a85061e7188a-cgu.0.rcgu.o)
 .rodata..Lanon.a0506fc3c6b36e5783e71ab63da9841e.350
                0x00000000001366e0        0x2 ./gen/../tr_api_dispatch/target/armv7a-none-eabi/release/libitron.a(core-d049573bc16596f9.core.5587a85061e7188a-cgu.0.rcgu.o)
 *fill*         0x00000000001366e2        0x2 
 .rodata..Lanon.a0506fc3c6b36e5783e71ab63da9841e.351
                0x00000000001366e4        0x8 ./gen/../tr_api_dispatch/target/armv7a-none-eabi/release/libitron.a(core-d049573bc16596f9.core.5587a85061e7188a-cgu.0.rcgu.o)
 .rodata..Lanon.a0506fc3c6b36e5783e71ab63da9841e.352
                0x00000000001366ec       0x18 ./gen/../tr_api_dispatch/target/armv7a-none-eabi/release/libitron.a(core-d049573bc16596f9.core.5587a85061e7188a-cgu.0.rcgu.o)
 .rodata..Lanon.a0506fc3c6b36e5783e71ab63da9841e.353
                0x0000000000136704       0x10 ./gen/../tr_api_dispatch/target/armv7a-none-eabi/release/libitron.a(core-d049573bc16596f9.core.5587a85061e7188a-cgu.0.rcgu.o)
 .rodata.str1.1
                0x0000000000136714       0x32 ./gen/../tr_api_dispatch/target/armv7a-none-eabi/release/libitron.a(core-d049573bc16596f9.core.5587a85061e7188a-cgu.0.rcgu.o)
                                          0x1 (size before relaxing)
 .rodata..Lanon.a0506fc3c6b36e5783e71ab63da9841e.355
                0x0000000000136714        0xa ./gen/../tr_api_dispatch/target/armv7a-none-eabi/release/libitron.a(core-d049573bc16596f9.core.5587a85061e7188a-cgu.0.rcgu.o)
 *fill*         0x000000000013671e        0x2 
 .rodata..Lanon.a0506fc3c6b36e5783e71ab63da9841e.356
                0x0000000000136720       0x10 ./gen/../tr_api_dispatch/target/armv7a-none-eabi/release/libitron.a(core-d049573bc16596f9.core.5587a85061e7188a-cgu.0.rcgu.o)
 .rodata..Lanon.a0506fc3c6b36e5783e71ab63da9841e.357
                0x0000000000136730        0x6 ./gen/../tr_api_dispatch/target/armv7a-none-eabi/release/libitron.a(core-d049573bc16596f9.core.5587a85061e7188a-cgu.0.rcgu.o)
 .rodata..Lanon.a0506fc3c6b36e5783e71ab63da9841e.358
                0x0000000000136736       0x16 ./gen/../tr_api_dispatch/target/armv7a-none-eabi/release/libitron.a(core-d049573bc16596f9.core.5587a85061e7188a-cgu.0.rcgu.o)
 .rodata..Lanon.a0506fc3c6b36e5783e71ab63da9841e.359
                0x000000000013674c        0x8 ./gen/../tr_api_dispatch/target/armv7a-none-eabi/release/libitron.a(core-d049573bc16596f9.core.5587a85061e7188a-cgu.0.rcgu.o)
 .rodata..Lanon.a0506fc3c6b36e5783e71ab63da9841e.360
                0x0000000000136754        0x5 ./gen/../tr_api_dispatch/target/armv7a-none-eabi/release/libitron.a(core-d049573bc16596f9.core.5587a85061e7188a-cgu.0.rcgu.o)
 .rodata..Lanon.a0506fc3c6b36e5783e71ab63da9841e.361
                0x0000000000136759        0xe ./gen/../tr_api_dispatch/target/armv7a-none-eabi/release/libitron.a(core-d049573bc16596f9.core.5587a85061e7188a-cgu.0.rcgu.o)
 .rodata..Lanon.a0506fc3c6b36e5783e71ab63da9841e.364
                0x0000000000136767        0x1 ./gen/../tr_api_dispatch/target/armv7a-none-eabi/release/libitron.a(core-d049573bc16596f9.core.5587a85061e7188a-cgu.0.rcgu.o)
 .rodata..Lanon.a0506fc3c6b36e5783e71ab63da9841e.365
                0x0000000000136768       0x20 ./gen/../tr_api_dispatch/target/armv7a-none-eabi/release/libitron.a(core-d049573bc16596f9.core.5587a85061e7188a-cgu.0.rcgu.o)
 .rodata..Lanon.a0506fc3c6b36e5783e71ab63da9841e.366
                0x0000000000136788        0xb ./gen/../tr_api_dispatch/target/armv7a-none-eabi/release/libitron.a(core-d049573bc16596f9.core.5587a85061e7188a-cgu.0.rcgu.o)
 .rodata..Lanon.a0506fc3c6b36e5783e71ab63da9841e.367
                0x0000000000136793       0x26 ./gen/../tr_api_dispatch/target/armv7a-none-eabi/release/libitron.a(core-d049573bc16596f9.core.5587a85061e7188a-cgu.0.rcgu.o)
 .rodata..Lanon.a0506fc3c6b36e5783e71ab63da9841e.369
                0x00000000001367b9        0x6 ./gen/../tr_api_dispatch/target/armv7a-none-eabi/release/libitron.a(core-d049573bc16596f9.core.5587a85061e7188a-cgu.0.rcgu.o)
 *fill*         0x00000000001367bf        0x1 
 .rodata..Lanon.a0506fc3c6b36e5783e71ab63da9841e.370
                0x00000000001367c0       0x28 ./gen/../tr_api_dispatch/target/armv7a-none-eabi/release/libitron.a(core-d049573bc16596f9.core.5587a85061e7188a-cgu.0.rcgu.o)
 .rodata..Lanon.a0506fc3c6b36e5783e71ab63da9841e.371
                0x00000000001367e8       0x16 ./gen/../tr_api_dispatch/target/armv7a-none-eabi/release/libitron.a(core-d049573bc16596f9.core.5587a85061e7188a-cgu.0.rcgu.o)
 *fill*         0x00000000001367fe        0x2 
 .rodata..Lanon.a0506fc3c6b36e5783e71ab63da9841e.372
                0x0000000000136800       0x18 ./gen/../tr_api_dispatch/target/armv7a-none-eabi/release/libitron.a(core-d049573bc16596f9.core.5587a85061e7188a-cgu.0.rcgu.o)
 .rodata..Lanon.a0506fc3c6b36e5783e71ab63da9841e.373
                0x0000000000136818       0x10 ./gen/../tr_api_dispatch/target/armv7a-none-eabi/release/libitron.a(core-d049573bc16596f9.core.5587a85061e7188a-cgu.0.rcgu.o)
 .rodata..Lanon.a0506fc3c6b36e5783e71ab63da9841e.374
                0x0000000000136828        0x2 ./gen/../tr_api_dispatch/target/armv7a-none-eabi/release/libitron.a(core-d049573bc16596f9.core.5587a85061e7188a-cgu.0.rcgu.o)
 .rodata..Lanon.a0506fc3c6b36e5783e71ab63da9841e.375
                0x000000000013682a        0x3 ./gen/../tr_api_dispatch/target/armv7a-none-eabi/release/libitron.a(core-d049573bc16596f9.core.5587a85061e7188a-cgu.0.rcgu.o)
 .rodata..Lanon.a0506fc3c6b36e5783e71ab63da9841e.376
                0x000000000013682d        0x2 ./gen/../tr_api_dispatch/target/armv7a-none-eabi/release/libitron.a(core-d049573bc16596f9.core.5587a85061e7188a-cgu.0.rcgu.o)
 .rodata..Lanon.a0506fc3c6b36e5783e71ab63da9841e.377
                0x000000000013682f        0x1 ./gen/../tr_api_dispatch/target/armv7a-none-eabi/release/libitron.a(core-d049573bc16596f9.core.5587a85061e7188a-cgu.0.rcgu.o)
 .rodata..Lanon.a0506fc3c6b36e5783e71ab63da9841e.378
                0x0000000000136830       0x18 ./gen/../tr_api_dispatch/target/armv7a-none-eabi/release/libitron.a(core-d049573bc16596f9.core.5587a85061e7188a-cgu.0.rcgu.o)
 .rodata..Lanon.a0506fc3c6b36e5783e71ab63da9841e.379
                0x0000000000136848       0x10 ./gen/../tr_api_dispatch/target/armv7a-none-eabi/release/libitron.a(core-d049573bc16596f9.core.5587a85061e7188a-cgu.0.rcgu.o)
 .rodata..Lanon.a0506fc3c6b36e5783e71ab63da9841e.381
                0x0000000000136858       0x14 ./gen/../tr_api_dispatch/target/armv7a-none-eabi/release/libitron.a(core-d049573bc16596f9.core.5587a85061e7188a-cgu.0.rcgu.o)
 .rodata..Lanon.a0506fc3c6b36e5783e71ab63da9841e.382
                0x000000000013686c       0x10 ./gen/../tr_api_dispatch/target/armv7a-none-eabi/release/libitron.a(core-d049573bc16596f9.core.5587a85061e7188a-cgu.0.rcgu.o)
 .rodata..Lanon.a0506fc3c6b36e5783e71ab63da9841e.383
                0x000000000013687c       0x10 ./gen/../tr_api_dispatch/target/armv7a-none-eabi/release/libitron.a(core-d049573bc16596f9.core.5587a85061e7188a-cgu.0.rcgu.o)
 .rodata..Lanon.a0506fc3c6b36e5783e71ab63da9841e.384
                0x000000000013688c        0x8 ./gen/../tr_api_dispatch/target/armv7a-none-eabi/release/libitron.a(core-d049573bc16596f9.core.5587a85061e7188a-cgu.0.rcgu.o)
 .rodata..Lanon.a0506fc3c6b36e5783e71ab63da9841e.385
                0x0000000000136894       0x18 ./gen/../tr_api_dispatch/target/armv7a-none-eabi/release/libitron.a(core-d049573bc16596f9.core.5587a85061e7188a-cgu.0.rcgu.o)
 .rodata..Lanon.a0506fc3c6b36e5783e71ab63da9841e.387
                0x00000000001368ac        0x8 ./gen/../tr_api_dispatch/target/armv7a-none-eabi/release/libitron.a(core-d049573bc16596f9.core.5587a85061e7188a-cgu.0.rcgu.o)
 .rodata..Lanon.a0506fc3c6b36e5783e71ab63da9841e.388
                0x00000000001368b4       0x10 ./gen/../tr_api_dispatch/target/armv7a-none-eabi/release/libitron.a(core-d049573bc16596f9.core.5587a85061e7188a-cgu.0.rcgu.o)
 .rodata..Lanon.a0506fc3c6b36e5783e71ab63da9841e.389
                0x00000000001368c4       0x3b ./gen/../tr_api_dispatch/target/armv7a-none-eabi/release/libitron.a(core-d049573bc16596f9.core.5587a85061e7188a-cgu.0.rcgu.o)
 .rodata..Lanon.a0506fc3c6b36e5783e71ab63da9841e.390
                0x00000000001368ff       0x48 ./gen/../tr_api_dispatch/target/armv7a-none-eabi/release/libitron.a(core-d049573bc16596f9.core.5587a85061e7188a-cgu.0.rcgu.o)
 .rodata..Lanon.a0506fc3c6b36e5783e71ab63da9841e.391
                0x0000000000136947       0x25 ./gen/../tr_api_dispatch/target/armv7a-none-eabi/release/libitron.a(core-d049573bc16596f9.core.5587a85061e7188a-cgu.0.rcgu.o)
 .rodata..Lanon.a0506fc3c6b36e5783e71ab63da9841e.392
                0x000000000013696c       0x10 ./gen/../tr_api_dispatch/target/armv7a-none-eabi/release/libitron.a(core-d049573bc16596f9.core.5587a85061e7188a-cgu.0.rcgu.o)
 .rodata..Lanon.a0506fc3c6b36e5783e71ab63da9841e.393
                0x000000000013697c       0x10 ./gen/../tr_api_dispatch/target/armv7a-none-eabi/release/libitron.a(core-d049573bc16596f9.core.5587a85061e7188a-cgu.0.rcgu.o)
 .rodata..Lanon.a0506fc3c6b36e5783e71ab63da9841e.394
                0x000000000013698c       0x58 ./gen/../tr_api_dispatch/target/armv7a-none-eabi/release/libitron.a(core-d049573bc16596f9.core.5587a85061e7188a-cgu.0.rcgu.o)
 .rodata..Lanon.a0506fc3c6b36e5783e71ab63da9841e.395
                0x00000000001369e4       0xd0 ./gen/../tr_api_dispatch/target/armv7a-none-eabi/release/libitron.a(core-d049573bc16596f9.core.5587a85061e7188a-cgu.0.rcgu.o)
 .rodata..Lanon.a0506fc3c6b36e5783e71ab63da9841e.396
                0x0000000000136ab4      0x1e6 ./gen/../tr_api_dispatch/target/armv7a-none-eabi/release/libitron.a(core-d049573bc16596f9.core.5587a85061e7188a-cgu.0.rcgu.o)
 .rodata..Lanon.a0506fc3c6b36e5783e71ab63da9841e.397
                0x0000000000136c9a       0x50 ./gen/../tr_api_dispatch/target/armv7a-none-eabi/release/libitron.a(core-d049573bc16596f9.core.5587a85061e7188a-cgu.0.rcgu.o)
 .rodata..Lanon.a0506fc3c6b36e5783e71ab63da9841e.398
                0x0000000000136cea      0x122 ./gen/../tr_api_dispatch/target/armv7a-none-eabi/release/libitron.a(core-d049573bc16596f9.core.5587a85061e7188a-cgu.0.rcgu.o)
 .rodata..Lanon.a0506fc3c6b36e5783e71ab63da9841e.399
                0x0000000000136e0c      0x129 ./gen/../tr_api_dispatch/target/armv7a-none-eabi/release/libitron.a(core-d049573bc16596f9.core.5587a85061e7188a-cgu.0.rcgu.o)
 .rodata..Lanon.a0506fc3c6b36e5783e71ab63da9841e.400
                0x0000000000136f35       0x28 ./gen/../tr_api_dispatch/target/armv7a-none-eabi/release/libitron.a(core-d049573bc16596f9.core.5587a85061e7188a-cgu.0.rcgu.o)
 *fill*         0x0000000000136f5d        0x3 
 .rodata..Lanon.a0506fc3c6b36e5783e71ab63da9841e.401
                0x0000000000136f60       0x10 ./gen/../tr_api_dispatch/target/armv7a-none-eabi/release/libitron.a(core-d049573bc16596f9.core.5587a85061e7188a-cgu.0.rcgu.o)
 .rodata..Lanon.a0506fc3c6b36e5783e71ab63da9841e.402
                0x0000000000136f70       0x10 ./gen/../tr_api_dispatch/target/armv7a-none-eabi/release/libitron.a(core-d049573bc16596f9.core.5587a85061e7188a-cgu.0.rcgu.o)
 .rodata..Lanon.a0506fc3c6b36e5783e71ab63da9841e.403
                0x0000000000136f80       0x10 ./gen/../tr_api_dispatch/target/armv7a-none-eabi/release/libitron.a(core-d049573bc16596f9.core.5587a85061e7188a-cgu.0.rcgu.o)
 .rodata..Lanon.a0506fc3c6b36e5783e71ab63da9841e.404
                0x0000000000136f90        0x7 ./gen/../tr_api_dispatch/target/armv7a-none-eabi/release/libitron.a(core-d049573bc16596f9.core.5587a85061e7188a-cgu.0.rcgu.o)
 *fill*         0x0000000000136f97        0x1 
 .rodata..Lanon.a0506fc3c6b36e5783e71ab63da9841e.405
                0x0000000000136f98       0x10 ./gen/../tr_api_dispatch/target/armv7a-none-eabi/release/libitron.a(core-d049573bc16596f9.core.5587a85061e7188a-cgu.0.rcgu.o)
 .rodata..Lanon.a0506fc3c6b36e5783e71ab63da9841e.406
                0x0000000000136fa8        0x5 ./gen/../tr_api_dispatch/target/armv7a-none-eabi/release/libitron.a(core-d049573bc16596f9.core.5587a85061e7188a-cgu.0.rcgu.o)
 .rodata..Lanon.a0506fc3c6b36e5783e71ab63da9841e.407
                0x0000000000136fad        0x5 ./gen/../tr_api_dispatch/target/armv7a-none-eabi/release/libitron.a(core-d049573bc16596f9.core.5587a85061e7188a-cgu.0.rcgu.o)
 *fill*         0x0000000000136fb2        0x2 
 .rodata..Lanon.a0506fc3c6b36e5783e71ab63da9841e.408
                0x0000000000136fb4       0x10 ./gen/../tr_api_dispatch/target/armv7a-none-eabi/release/libitron.a(core-d049573bc16596f9.core.5587a85061e7188a-cgu.0.rcgu.o)
 .rodata..Lanon.a0506fc3c6b36e5783e71ab63da9841e.410
                0x0000000000136fc4       0x10 ./gen/../tr_api_dispatch/target/armv7a-none-eabi/release/libitron.a(core-d049573bc16596f9.core.5587a85061e7188a-cgu.0.rcgu.o)
 .rodata..Lanon.a0506fc3c6b36e5783e71ab63da9841e.411
                0x0000000000136fd4        0x6 ./gen/../tr_api_dispatch/target/armv7a-none-eabi/release/libitron.a(core-d049573bc16596f9.core.5587a85061e7188a-cgu.0.rcgu.o)
 .rodata..Lanon.a0506fc3c6b36e5783e71ab63da9841e.412
                0x0000000000136fda        0xa ./gen/../tr_api_dispatch/target/armv7a-none-eabi/release/libitron.a(core-d049573bc16596f9.core.5587a85061e7188a-cgu.0.rcgu.o)
 .rodata..Lanon.a0506fc3c6b36e5783e71ab63da9841e.413
                0x0000000000136fe4       0x2d ./gen/../tr_api_dispatch/target/armv7a-none-eabi/release/libitron.a(core-d049573bc16596f9.core.5587a85061e7188a-cgu.0.rcgu.o)
 .rodata..Lanon.a0506fc3c6b36e5783e71ab63da9841e.414
                0x0000000000137011       0x18 ./gen/../tr_api_dispatch/target/armv7a-none-eabi/release/libitron.a(core-d049573bc16596f9.core.5587a85061e7188a-cgu.0.rcgu.o)
 .rodata..Lanon.a0506fc3c6b36e5783e71ab63da9841e.415
                0x0000000000137029      0x100 ./gen/../tr_api_dispatch/target/armv7a-none-eabi/release/libitron.a(core-d049573bc16596f9.core.5587a85061e7188a-cgu.0.rcgu.o)
 .rodata..Lanon.a0506fc3c6b36e5783e71ab63da9841e.416
                0x0000000000137129       0x24 ./gen/../tr_api_dispatch/target/armv7a-none-eabi/release/libitron.a(core-d049573bc16596f9.core.5587a85061e7188a-cgu.0.rcgu.o)
 *fill*         0x000000000013714d        0x3 
 .rodata..Lanon.a0506fc3c6b36e5783e71ab63da9841e.418
                0x0000000000137150       0x10 ./gen/../tr_api_dispatch/target/armv7a-none-eabi/release/libitron.a(core-d049573bc16596f9.core.5587a85061e7188a-cgu.0.rcgu.o)
 .rodata..Lanon.a0506fc3c6b36e5783e71ab63da9841e.419
                0x0000000000137160       0x1e ./gen/../tr_api_dispatch/target/armv7a-none-eabi/release/libitron.a(core-d049573bc16596f9.core.5587a85061e7188a-cgu.0.rcgu.o)
 *fill*         0x000000000013717e        0x2 
 .rodata..Lanon.a0506fc3c6b36e5783e71ab63da9841e.420
                0x0000000000137180       0x10 ./gen/../tr_api_dispatch/target/armv7a-none-eabi/release/libitron.a(core-d049573bc16596f9.core.5587a85061e7188a-cgu.0.rcgu.o)
 .rodata..Lanon.a0506fc3c6b36e5783e71ab63da9841e.421
                0x0000000000137190       0x10 ./gen/../tr_api_dispatch/target/armv7a-none-eabi/release/libitron.a(core-d049573bc16596f9.core.5587a85061e7188a-cgu.0.rcgu.o)
 .rodata..Lanon.a0506fc3c6b36e5783e71ab63da9841e.422
                0x00000000001371a0       0x1a ./gen/../tr_api_dispatch/target/armv7a-none-eabi/release/libitron.a(core-d049573bc16596f9.core.5587a85061e7188a-cgu.0.rcgu.o)
 .rodata..Lanon.a0506fc3c6b36e5783e71ab63da9841e.423
                0x00000000001371ba       0x1d ./gen/../tr_api_dispatch/target/armv7a-none-eabi/release/libitron.a(core-d049573bc16596f9.core.5587a85061e7188a-cgu.0.rcgu.o)
 .rodata..Lanon.a0506fc3c6b36e5783e71ab63da9841e.424
                0x00000000001371d7       0x1b ./gen/../tr_api_dispatch/target/armv7a-none-eabi/release/libitron.a(core-d049573bc16596f9.core.5587a85061e7188a-cgu.0.rcgu.o)
 .rodata..Lanon.a0506fc3c6b36e5783e71ab63da9841e.425
                0x00000000001371f2       0x1e ./gen/../tr_api_dispatch/target/armv7a-none-eabi/release/libitron.a(core-d049573bc16596f9.core.5587a85061e7188a-cgu.0.rcgu.o)
 .rodata..Lanon.a0506fc3c6b36e5783e71ab63da9841e.426
                0x0000000000137210       0x18 ./gen/../tr_api_dispatch/target/armv7a-none-eabi/release/libitron.a(core-d049573bc16596f9.core.5587a85061e7188a-cgu.0.rcgu.o)
 .rodata..Lanon.a0506fc3c6b36e5783e71ab63da9841e.427
                0x0000000000137228        0x1 ./gen/../tr_api_dispatch/target/armv7a-none-eabi/release/libitron.a(core-d049573bc16596f9.core.5587a85061e7188a-cgu.0.rcgu.o)
 *fill*         0x0000000000137229        0x3 
 .rodata..Lanon.a0506fc3c6b36e5783e71ab63da9841e.428
                0x000000000013722c        0x8 ./gen/../tr_api_dispatch/target/armv7a-none-eabi/release/libitron.a(core-d049573bc16596f9.core.5587a85061e7188a-cgu.0.rcgu.o)
 .rodata..Lanon.a0506fc3c6b36e5783e71ab63da9841e.429
                0x0000000000137234       0x18 ./gen/../tr_api_dispatch/target/armv7a-none-eabi/release/libitron.a(core-d049573bc16596f9.core.5587a85061e7188a-cgu.0.rcgu.o)
 .rodata..Lanon.a0506fc3c6b36e5783e71ab63da9841e.430
                0x000000000013724c       0x10 ./gen/../tr_api_dispatch/target/armv7a-none-eabi/release/libitron.a(core-d049573bc16596f9.core.5587a85061e7188a-cgu.0.rcgu.o)
 .rodata..Lanon.a0506fc3c6b36e5783e71ab63da9841e.431
                0x000000000013725c       0x1c ./gen/../tr_api_dispatch/target/armv7a-none-eabi/release/libitron.a(core-d049573bc16596f9.core.5587a85061e7188a-cgu.0.rcgu.o)
 .rodata._ZN4core3num7dec2flt5table17POWER_OF_FIVE_12817h60379a77b3c83400E
                0x0000000000137278     0x28b0 ./gen/../tr_api_dispatch/target/armv7a-none-eabi/release/libitron.a(core-d049573bc16596f9.core.5587a85061e7188a-cgu.0.rcgu.o)
 .rodata..Lanon.a0506fc3c6b36e5783e71ab63da9841e.432
                0x0000000000139b28       0x40 ./gen/../tr_api_dispatch/target/armv7a-none-eabi/release/libitron.a(core-d049573bc16596f9.core.5587a85061e7188a-cgu.0.rcgu.o)
 .rodata..Lanon.a0506fc3c6b36e5783e71ab63da9841e.433
                0x0000000000139b68        0x8 ./gen/../tr_api_dispatch/target/armv7a-none-eabi/release/libitron.a(core-d049573bc16596f9.core.5587a85061e7188a-cgu.0.rcgu.o)
 .rodata..Lanon.a0506fc3c6b36e5783e71ab63da9841e.434
                0x0000000000139b70       0x18 ./gen/../tr_api_dispatch/target/armv7a-none-eabi/release/libitron.a(core-d049573bc16596f9.core.5587a85061e7188a-cgu.0.rcgu.o)
 .rodata..Lanon.a0506fc3c6b36e5783e71ab63da9841e.435
                0x0000000000139b88       0x1c ./gen/../tr_api_dispatch/target/armv7a-none-eabi/release/libitron.a(core-d049573bc16596f9.core.5587a85061e7188a-cgu.0.rcgu.o)
 .rodata..Lanon.a0506fc3c6b36e5783e71ab63da9841e.436
                0x0000000000139ba4       0x18 ./gen/../tr_api_dispatch/target/armv7a-none-eabi/release/libitron.a(core-d049573bc16596f9.core.5587a85061e7188a-cgu.0.rcgu.o)
 .rodata..Lanon.a0506fc3c6b36e5783e71ab63da9841e.437
                0x0000000000139bbc       0x12 ./gen/../tr_api_dispatch/target/armv7a-none-eabi/release/libitron.a(core-d049573bc16596f9.core.5587a85061e7188a-cgu.0.rcgu.o)
 .rodata..Lanon.a0506fc3c6b36e5783e71ab63da9841e.438
                0x0000000000139bce       0x13 ./gen/../tr_api_dispatch/target/armv7a-none-eabi/release/libitron.a(core-d049573bc16596f9.core.5587a85061e7188a-cgu.0.rcgu.o)
 .rodata..Lanon.a0506fc3c6b36e5783e71ab63da9841e.439
                0x0000000000139be1       0x15 ./gen/../tr_api_dispatch/target/armv7a-none-eabi/release/libitron.a(core-d049573bc16596f9.core.5587a85061e7188a-cgu.0.rcgu.o)
 *fill*         0x0000000000139bf6        0x2 
 .rodata..Lanon.a0506fc3c6b36e5783e71ab63da9841e.440
                0x0000000000139bf8       0x18 ./gen/../tr_api_dispatch/target/armv7a-none-eabi/release/libitron.a(core-d049573bc16596f9.core.5587a85061e7188a-cgu.0.rcgu.o)
 .rodata..Lanon.a0506fc3c6b36e5783e71ab63da9841e.441
                0x0000000000139c10       0x48 ./gen/../tr_api_dispatch/target/armv7a-none-eabi/release/libitron.a(core-d049573bc16596f9.core.5587a85061e7188a-cgu.0.rcgu.o)
 .rodata..Lanon.a0506fc3c6b36e5783e71ab63da9841e.442
                0x0000000000139c58       0x13 ./gen/../tr_api_dispatch/target/armv7a-none-eabi/release/libitron.a(core-d049573bc16596f9.core.5587a85061e7188a-cgu.0.rcgu.o)
 *fill*         0x0000000000139c6b        0x1 
 .rodata..Lanon.a0506fc3c6b36e5783e71ab63da9841e.443
                0x0000000000139c6c       0x18 ./gen/../tr_api_dispatch/target/armv7a-none-eabi/release/libitron.a(core-d049573bc16596f9.core.5587a85061e7188a-cgu.0.rcgu.o)
 .rodata..Lanon.a0506fc3c6b36e5783e71ab63da9841e.444
                0x0000000000139c84       0x19 ./gen/../tr_api_dispatch/target/armv7a-none-eabi/release/libitron.a(core-d049573bc16596f9.core.5587a85061e7188a-cgu.0.rcgu.o)
 *fill*         0x0000000000139c9d        0x3 
 .rodata..Lanon.a0506fc3c6b36e5783e71ab63da9841e.445
                0x0000000000139ca0        0x8 ./gen/../tr_api_dispatch/target/armv7a-none-eabi/release/libitron.a(core-d049573bc16596f9.core.5587a85061e7188a-cgu.0.rcgu.o)
 .rodata..Lanon.a0506fc3c6b36e5783e71ab63da9841e.446
                0x0000000000139ca8       0x39 ./gen/../tr_api_dispatch/target/armv7a-none-eabi/release/libitron.a(core-d049573bc16596f9.core.5587a85061e7188a-cgu.0.rcgu.o)
 *fill*         0x0000000000139ce1        0x3 
 .rodata..Lanon.a0506fc3c6b36e5783e71ab63da9841e.447
                0x0000000000139ce4        0x8 ./gen/../tr_api_dispatch/target/armv7a-none-eabi/release/libitron.a(core-d049573bc16596f9.core.5587a85061e7188a-cgu.0.rcgu.o)
 .rodata..Lanon.a0506fc3c6b36e5783e71ab63da9841e.448
                0x0000000000139cec       0x22 ./gen/../tr_api_dispatch/target/armv7a-none-eabi/release/libitron.a(core-d049573bc16596f9.core.5587a85061e7188a-cgu.0.rcgu.o)
 *fill*         0x0000000000139d0e        0x2 
 .rodata..Lanon.a0506fc3c6b36e5783e71ab63da9841e.449
                0x0000000000139d10        0x8 ./gen/../tr_api_dispatch/target/armv7a-none-eabi/release/libitron.a(core-d049573bc16596f9.core.5587a85061e7188a-cgu.0.rcgu.o)
 .rodata..Lanon.a0506fc3c6b36e5783e71ab63da9841e.450
                0x0000000000139d18       0x23 ./gen/../tr_api_dispatch/target/armv7a-none-eabi/release/libitron.a(core-d049573bc16596f9.core.5587a85061e7188a-cgu.0.rcgu.o)
 *fill*         0x0000000000139d3b        0x1 
 .rodata..Lanon.a0506fc3c6b36e5783e71ab63da9841e.451
                0x0000000000139d3c        0x8 ./gen/../tr_api_dispatch/target/armv7a-none-eabi/release/libitron.a(core-d049573bc16596f9.core.5587a85061e7188a-cgu.0.rcgu.o)
 .rodata..Lanon.a0506fc3c6b36e5783e71ab63da9841e.452
                0x0000000000139d44       0x27 ./gen/../tr_api_dispatch/target/armv7a-none-eabi/release/libitron.a(core-d049573bc16596f9.core.5587a85061e7188a-cgu.0.rcgu.o)
 *fill*         0x0000000000139d6b        0x1 
 .rodata..Lanon.a0506fc3c6b36e5783e71ab63da9841e.453
                0x0000000000139d6c        0x8 ./gen/../tr_api_dispatch/target/armv7a-none-eabi/release/libitron.a(core-d049573bc16596f9.core.5587a85061e7188a-cgu.0.rcgu.o)
 .rodata..Lanon.a0506fc3c6b36e5783e71ab63da9841e.454
                0x0000000000139d74       0x3b ./gen/../tr_api_dispatch/target/armv7a-none-eabi/release/libitron.a(core-d049573bc16596f9.core.5587a85061e7188a-cgu.0.rcgu.o)
 *fill*         0x0000000000139daf        0x1 
 .rodata..Lanon.a0506fc3c6b36e5783e71ab63da9841e.455
                0x0000000000139db0        0x8 ./gen/../tr_api_dispatch/target/armv7a-none-eabi/release/libitron.a(core-d049573bc16596f9.core.5587a85061e7188a-cgu.0.rcgu.o)
 .rodata..Lanon.a0506fc3c6b36e5783e71ab63da9841e.456
                0x0000000000139db8       0x21 ./gen/../tr_api_dispatch/target/armv7a-none-eabi/release/libitron.a(core-d049573bc16596f9.core.5587a85061e7188a-cgu.0.rcgu.o)
 *fill*         0x0000000000139dd9        0x3 
 .rodata..Lanon.a0506fc3c6b36e5783e71ab63da9841e.457
                0x0000000000139ddc        0x8 ./gen/../tr_api_dispatch/target/armv7a-none-eabi/release/libitron.a(core-d049573bc16596f9.core.5587a85061e7188a-cgu.0.rcgu.o)
 .rodata..Lanon.a0506fc3c6b36e5783e71ab63da9841e.458
                0x0000000000139de4       0x22 ./gen/../tr_api_dispatch/target/armv7a-none-eabi/release/libitron.a(core-d049573bc16596f9.core.5587a85061e7188a-cgu.0.rcgu.o)
 *fill*         0x0000000000139e06        0x2 
 .rodata..Lanon.a0506fc3c6b36e5783e71ab63da9841e.459
                0x0000000000139e08        0x8 ./gen/../tr_api_dispatch/target/armv7a-none-eabi/release/libitron.a(core-d049573bc16596f9.core.5587a85061e7188a-cgu.0.rcgu.o)
 .rodata..Lanon.a0506fc3c6b36e5783e71ab63da9841e.460
                0x0000000000139e10       0x26 ./gen/../tr_api_dispatch/target/armv7a-none-eabi/release/libitron.a(core-d049573bc16596f9.core.5587a85061e7188a-cgu.0.rcgu.o)
 *fill*         0x0000000000139e36        0x2 
 .rodata..Lanon.a0506fc3c6b36e5783e71ab63da9841e.461
                0x0000000000139e38        0x8 ./gen/../tr_api_dispatch/target/armv7a-none-eabi/release/libitron.a(core-d049573bc16596f9.core.5587a85061e7188a-cgu.0.rcgu.o)
 .rodata..Lanon.a0506fc3c6b36e5783e71ab63da9841e.462
                0x0000000000139e40       0x3a ./gen/../tr_api_dispatch/target/armv7a-none-eabi/release/libitron.a(core-d049573bc16596f9.core.5587a85061e7188a-cgu.0.rcgu.o)
 *fill*         0x0000000000139e7a        0x2 
 .rodata..Lanon.a0506fc3c6b36e5783e71ab63da9841e.463
                0x0000000000139e7c        0x8 ./gen/../tr_api_dispatch/target/armv7a-none-eabi/release/libitron.a(core-d049573bc16596f9.core.5587a85061e7188a-cgu.0.rcgu.o)
 .rodata..Lanon.a0506fc3c6b36e5783e71ab63da9841e.464
                0x0000000000139e84       0x22 ./gen/../tr_api_dispatch/target/armv7a-none-eabi/release/libitron.a(core-d049573bc16596f9.core.5587a85061e7188a-cgu.0.rcgu.o)
 *fill*         0x0000000000139ea6        0x2 
 .rodata..Lanon.a0506fc3c6b36e5783e71ab63da9841e.465
                0x0000000000139ea8        0x8 ./gen/../tr_api_dispatch/target/armv7a-none-eabi/release/libitron.a(core-d049573bc16596f9.core.5587a85061e7188a-cgu.0.rcgu.o)
 .rodata..Lanon.a0506fc3c6b36e5783e71ab63da9841e.466
                0x0000000000139eb0       0x23 ./gen/../tr_api_dispatch/target/armv7a-none-eabi/release/libitron.a(core-d049573bc16596f9.core.5587a85061e7188a-cgu.0.rcgu.o)
 *fill*         0x0000000000139ed3        0x1 
 .rodata..Lanon.a0506fc3c6b36e5783e71ab63da9841e.467
                0x0000000000139ed4        0x8 ./gen/../tr_api_dispatch/target/armv7a-none-eabi/release/libitron.a(core-d049573bc16596f9.core.5587a85061e7188a-cgu.0.rcgu.o)
 .rodata..Lanon.a0506fc3c6b36e5783e71ab63da9841e.468
                0x0000000000139edc       0x27 ./gen/../tr_api_dispatch/target/armv7a-none-eabi/release/libitron.a(core-d049573bc16596f9.core.5587a85061e7188a-cgu.0.rcgu.o)
 *fill*         0x0000000000139f03        0x1 
 .rodata..Lanon.a0506fc3c6b36e5783e71ab63da9841e.469
                0x0000000000139f04        0x8 ./gen/../tr_api_dispatch/target/armv7a-none-eabi/release/libitron.a(core-d049573bc16596f9.core.5587a85061e7188a-cgu.0.rcgu.o)
 .rodata..Lanon.a0506fc3c6b36e5783e71ab63da9841e.470
                0x0000000000139f0c       0x21 ./gen/../tr_api_dispatch/target/armv7a-none-eabi/release/libitron.a(core-d049573bc16596f9.core.5587a85061e7188a-cgu.0.rcgu.o)
 *fill*         0x0000000000139f2d        0x3 
 .rodata..Lanon.a0506fc3c6b36e5783e71ab63da9841e.471
                0x0000000000139f30        0x8 ./gen/../tr_api_dispatch/target/armv7a-none-eabi/release/libitron.a(core-d049573bc16596f9.core.5587a85061e7188a-cgu.0.rcgu.o)
 .rodata..Lanon.a0506fc3c6b36e5783e71ab63da9841e.472
                0x0000000000139f38       0x2c ./gen/../tr_api_dispatch/target/armv7a-none-eabi/release/libitron.a(core-d049573bc16596f9.core.5587a85061e7188a-cgu.0.rcgu.o)
 .rodata..Lanon.a0506fc3c6b36e5783e71ab63da9841e.473
                0x0000000000139f64        0x8 ./gen/../tr_api_dispatch/target/armv7a-none-eabi/release/libitron.a(core-d049573bc16596f9.core.5587a85061e7188a-cgu.0.rcgu.o)
 .rodata..Lanon.a0506fc3c6b36e5783e71ab63da9841e.474
                0x0000000000139f6c        0x1 ./gen/../tr_api_dispatch/target/armv7a-none-eabi/release/libitron.a(core-d049573bc16596f9.core.5587a85061e7188a-cgu.0.rcgu.o)
 .rodata..Lanon.a0506fc3c6b36e5783e71ab63da9841e.475
                0x0000000000139f6d       0x1c ./gen/../tr_api_dispatch/target/armv7a-none-eabi/release/libitron.a(core-d049573bc16596f9.core.5587a85061e7188a-cgu.0.rcgu.o)
 *fill*         0x0000000000139f89        0x3 
 .rodata..Lanon.a0506fc3c6b36e5783e71ab63da9841e.476
                0x0000000000139f8c       0x10 ./gen/../tr_api_dispatch/target/armv7a-none-eabi/release/libitron.a(core-d049573bc16596f9.core.5587a85061e7188a-cgu.0.rcgu.o)
 .rodata..Lanon.a0506fc3c6b36e5783e71ab63da9841e.477
                0x0000000000139f9c       0x10 ./gen/../tr_api_dispatch/target/armv7a-none-eabi/release/libitron.a(core-d049573bc16596f9.core.5587a85061e7188a-cgu.0.rcgu.o)
 .rodata..Lanon.a0506fc3c6b36e5783e71ab63da9841e.478
                0x0000000000139fac        0x1 ./gen/../tr_api_dispatch/target/armv7a-none-eabi/release/libitron.a(core-d049573bc16596f9.core.5587a85061e7188a-cgu.0.rcgu.o)
 *fill*         0x0000000000139fad        0x3 
 .rodata..Lanon.a0506fc3c6b36e5783e71ab63da9841e.479
                0x0000000000139fb0       0x10 ./gen/../tr_api_dispatch/target/armv7a-none-eabi/release/libitron.a(core-d049573bc16596f9.core.5587a85061e7188a-cgu.0.rcgu.o)
 .rodata..Lanon.a0506fc3c6b36e5783e71ab63da9841e.480
                0x0000000000139fc0        0x1 ./gen/../tr_api_dispatch/target/armv7a-none-eabi/release/libitron.a(core-d049573bc16596f9.core.5587a85061e7188a-cgu.0.rcgu.o)
 *fill*         0x0000000000139fc1        0x3 
 .rodata..Lanon.a0506fc3c6b36e5783e71ab63da9841e.481
                0x0000000000139fc4       0x10 ./gen/../tr_api_dispatch/target/armv7a-none-eabi/release/libitron.a(core-d049573bc16596f9.core.5587a85061e7188a-cgu.0.rcgu.o)
 .rodata..Lanon.a0506fc3c6b36e5783e71ab63da9841e.482
                0x0000000000139fd4       0x10 ./gen/../tr_api_dispatch/target/armv7a-none-eabi/release/libitron.a(core-d049573bc16596f9.core.5587a85061e7188a-cgu.0.rcgu.o)
 .rodata..Lanon.a0506fc3c6b36e5783e71ab63da9841e.483
                0x0000000000139fe4       0x10 ./gen/../tr_api_dispatch/target/armv7a-none-eabi/release/libitron.a(core-d049573bc16596f9.core.5587a85061e7188a-cgu.0.rcgu.o)
 .rodata..Lanon.a0506fc3c6b36e5783e71ab63da9841e.484
                0x0000000000139ff4       0x10 ./gen/../tr_api_dispatch/target/armv7a-none-eabi/release/libitron.a(core-d049573bc16596f9.core.5587a85061e7188a-cgu.0.rcgu.o)
 .rodata..Lanon.a0506fc3c6b36e5783e71ab63da9841e.485
                0x000000000013a004       0x10 ./gen/../tr_api_dispatch/target/armv7a-none-eabi/release/libitron.a(core-d049573bc16596f9.core.5587a85061e7188a-cgu.0.rcgu.o)
 .rodata..Lanon.a0506fc3c6b36e5783e71ab63da9841e.486
                0x000000000013a014        0x5 ./gen/../tr_api_dispatch/target/armv7a-none-eabi/release/libitron.a(core-d049573bc16596f9.core.5587a85061e7188a-cgu.0.rcgu.o)
 .rodata..Lanon.a0506fc3c6b36e5783e71ab63da9841e.487
                0x000000000013a019       0x12 ./gen/../tr_api_dispatch/target/armv7a-none-eabi/release/libitron.a(core-d049573bc16596f9.core.5587a85061e7188a-cgu.0.rcgu.o)
 .rodata..Lanon.a0506fc3c6b36e5783e71ab63da9841e.488
                0x000000000013a02b       0x22 ./gen/../tr_api_dispatch/target/armv7a-none-eabi/release/libitron.a(core-d049573bc16596f9.core.5587a85061e7188a-cgu.0.rcgu.o)
 *fill*         0x000000000013a04d        0x3 
 .rodata..Lanon.a0506fc3c6b36e5783e71ab63da9841e.489
                0x000000000013a050       0x10 ./gen/../tr_api_dispatch/target/armv7a-none-eabi/release/libitron.a(core-d049573bc16596f9.core.5587a85061e7188a-cgu.0.rcgu.o)
 .rodata..Lanon.a0506fc3c6b36e5783e71ab63da9841e.491
                0x000000000013a060       0x10 ./gen/../tr_api_dispatch/target/armv7a-none-eabi/release/libitron.a(core-d049573bc16596f9.core.5587a85061e7188a-cgu.0.rcgu.o)
 .rodata..Lanon.a0506fc3c6b36e5783e71ab63da9841e.492
                0x000000000013a070       0x16 ./gen/../tr_api_dispatch/target/armv7a-none-eabi/release/libitron.a(core-d049573bc16596f9.core.5587a85061e7188a-cgu.0.rcgu.o)
 .rodata..Lanon.a0506fc3c6b36e5783e71ab63da9841e.493
                0x000000000013a086        0xd ./gen/../tr_api_dispatch/target/armv7a-none-eabi/release/libitron.a(core-d049573bc16596f9.core.5587a85061e7188a-cgu.0.rcgu.o)
 *fill*         0x000000000013a093        0x1 
 .rodata..Lanon.a0506fc3c6b36e5783e71ab63da9841e.494
                0x000000000013a094       0x10 ./gen/../tr_api_dispatch/target/armv7a-none-eabi/release/libitron.a(core-d049573bc16596f9.core.5587a85061e7188a-cgu.0.rcgu.o)
 .rodata..Lanon.a0506fc3c6b36e5783e71ab63da9841e.495
                0x000000000013a0a4       0x26 ./gen/../tr_api_dispatch/target/armv7a-none-eabi/release/libitron.a(core-d049573bc16596f9.core.5587a85061e7188a-cgu.0.rcgu.o)
 .rodata..Lanon.a0506fc3c6b36e5783e71ab63da9841e.496
                0x000000000013a0ca       0x2b ./gen/../tr_api_dispatch/target/armv7a-none-eabi/release/libitron.a(core-d049573bc16596f9.core.5587a85061e7188a-cgu.0.rcgu.o)
 *fill*         0x000000000013a0f5        0x3 
 .rodata..Lanon.a0506fc3c6b36e5783e71ab63da9841e.497
                0x000000000013a0f8       0x18 ./gen/../tr_api_dispatch/target/armv7a-none-eabi/release/libitron.a(core-d049573bc16596f9.core.5587a85061e7188a-cgu.0.rcgu.o)
 .rodata._ZN4core7unicode12unicode_data10alphabetic17SHORT_OFFSET_RUNS17he6009c709dd16101E
                0x000000000013a110       0xd4 ./gen/../tr_api_dispatch/target/armv7a-none-eabi/release/libitron.a(core-d049573bc16596f9.core.5587a85061e7188a-cgu.0.rcgu.o)
 .rodata._ZN4core7unicode12unicode_data14case_ignorable17SHORT_OFFSET_RUNS17h4fbf63569f64a625E
                0x000000000013a1e4       0x94 ./gen/../tr_api_dispatch/target/armv7a-none-eabi/release/libitron.a(core-d049573bc16596f9.core.5587a85061e7188a-cgu.0.rcgu.o)
 .rodata._ZN4core7unicode12unicode_data5cased17SHORT_OFFSET_RUNS17h7a479c119684b2a6E
                0x000000000013a278       0x58 ./gen/../tr_api_dispatch/target/armv7a-none-eabi/release/libitron.a(core-d049573bc16596f9.core.5587a85061e7188a-cgu.0.rcgu.o)
 .rodata._ZN4core7unicode12unicode_data15grapheme_extend17SHORT_OFFSET_RUNS17hee57a88206e414ebE
                0x000000000013a2d0       0x88 ./gen/../tr_api_dispatch/target/armv7a-none-eabi/release/libitron.a(core-d049573bc16596f9.core.5587a85061e7188a-cgu.0.rcgu.o)
 .rodata._ZN4core7unicode12unicode_data9lowercase19BITSET_INDEX_CHUNKS17h4f138acca8fa2dc8E
                0x000000000013a358      0x140 ./gen/../tr_api_dispatch/target/armv7a-none-eabi/release/libitron.a(core-d049573bc16596f9.core.5587a85061e7188a-cgu.0.rcgu.o)
                0x000000000013a358                core::unicode::unicode_data::lowercase::BITSET_INDEX_CHUNKS
 .rodata._ZN4core7unicode12unicode_data9lowercase16BITSET_CANONICAL17h84c1f118f954263cE
                0x000000000013a498      0x1c0 ./gen/../tr_api_dispatch/target/armv7a-none-eabi/release/libitron.a(core-d049573bc16596f9.core.5587a85061e7188a-cgu.0.rcgu.o)
                0x000000000013a498                core::unicode::unicode_data::lowercase::BITSET_CANONICAL
 .rodata._ZN4core7unicode12unicode_data9lowercase14BITSET_MAPPING17h458e7a7802856e65E
                0x000000000013a658       0x2c ./gen/../tr_api_dispatch/target/armv7a-none-eabi/release/libitron.a(core-d049573bc16596f9.core.5587a85061e7188a-cgu.0.rcgu.o)
                0x000000000013a658                core::unicode::unicode_data::lowercase::BITSET_MAPPING
 .rodata._ZN4core7unicode12unicode_data1n17SHORT_OFFSET_RUNS17hbac430b5adf8ef6aE
                0x000000000013a684       0xa8 ./gen/../tr_api_dispatch/target/armv7a-none-eabi/release/libitron.a(core-d049573bc16596f9.core.5587a85061e7188a-cgu.0.rcgu.o)
 .rodata._ZN4core7unicode12unicode_data9uppercase19BITSET_INDEX_CHUNKS17h5ca318c69d422039E
                0x000000000013a72c      0x110 ./gen/../tr_api_dispatch/target/armv7a-none-eabi/release/libitron.a(core-d049573bc16596f9.core.5587a85061e7188a-cgu.0.rcgu.o)
                0x000000000013a72c                core::unicode::unicode_data::uppercase::BITSET_INDEX_CHUNKS
 *fill*         0x000000000013a83c        0x4 
 .rodata._ZN4core7unicode12unicode_data9uppercase16BITSET_CANONICAL17hb8eb186001405e7eE
                0x000000000013a840      0x160 ./gen/../tr_api_dispatch/target/armv7a-none-eabi/release/libitron.a(core-d049573bc16596f9.core.5587a85061e7188a-cgu.0.rcgu.o)
                0x000000000013a840                core::unicode::unicode_data::uppercase::BITSET_CANONICAL
 .rodata._ZN4core7unicode12unicode_data9uppercase14BITSET_MAPPING17h940f90362d1b786fE
                0x000000000013a9a0       0x32 ./gen/../tr_api_dispatch/target/armv7a-none-eabi/release/libitron.a(core-d049573bc16596f9.core.5587a85061e7188a-cgu.0.rcgu.o)
                0x000000000013a9a0                core::unicode::unicode_data::uppercase::BITSET_MAPPING
 *fill*         0x000000000013a9d2        0x2 
 .rodata..Lanon.a0506fc3c6b36e5783e71ab63da9841e.498
                0x000000000013a9d4       0x10 ./gen/../tr_api_dispatch/target/armv7a-none-eabi/release/libitron.a(core-d049573bc16596f9.core.5587a85061e7188a-cgu.0.rcgu.o)
 .rodata..Lanon.a0506fc3c6b36e5783e71ab63da9841e.499
                0x000000000013a9e4       0x10 ./gen/../tr_api_dispatch/target/armv7a-none-eabi/release/libitron.a(core-d049573bc16596f9.core.5587a85061e7188a-cgu.0.rcgu.o)
 .rodata..Lanon.a0506fc3c6b36e5783e71ab63da9841e.500
                0x000000000013a9f4     0x2cd0 ./gen/../tr_api_dispatch/target/armv7a-none-eabi/release/libitron.a(core-d049573bc16596f9.core.5587a85061e7188a-cgu.0.rcgu.o)
 .rodata..Lanon.a0506fc3c6b36e5783e71ab63da9841e.501
                0x000000000013d6c4     0x2fb0 ./gen/../tr_api_dispatch/target/armv7a-none-eabi/release/libitron.a(core-d049573bc16596f9.core.5587a85061e7188a-cgu.0.rcgu.o)
 .rodata..Lanon.a0506fc3c6b36e5783e71ab63da9841e.502
                0x0000000000140674      0x4c8 ./gen/../tr_api_dispatch/target/armv7a-none-eabi/release/libitron.a(core-d049573bc16596f9.core.5587a85061e7188a-cgu.0.rcgu.o)
 .rodata..Lanon.a0506fc3c6b36e5783e71ab63da9841e.503
                0x0000000000140b3c       0x14 ./gen/../tr_api_dispatch/target/armv7a-none-eabi/release/libitron.a(core-d049573bc16596f9.core.5587a85061e7188a-cgu.0.rcgu.o)
 .rodata..Lswitch.table._ZN70_$LT$core..num..error..ParseIntError$u20$as$u20$core..fmt..Display$GT$3fmt17hbaea7be47c23092bE
                0x0000000000140b50       0x14 ./gen/../tr_api_dispatch/target/armv7a-none-eabi/release/libitron.a(core-d049573bc16596f9.core.5587a85061e7188a-cgu.0.rcgu.o)
 .rodata..Lswitch.table._ZN70_$LT$core..num..error..ParseIntError$u20$as$u20$core..fmt..Display$GT$3fmt17hbaea7be47c23092bE.269
                0x0000000000140b64       0x14 ./gen/../tr_api_dispatch/target/armv7a-none-eabi/release/libitron.a(core-d049573bc16596f9.core.5587a85061e7188a-cgu.0.rcgu.o)
 .rodata..Lswitch.table._ZN72_$LT$core..net..parser..AddrParseError$u20$as$u20$core..fmt..Display$GT$3fmt17hd7f7df04664d2864E
                0x0000000000140b78       0x18 ./gen/../tr_api_dispatch/target/armv7a-none-eabi/release/libitron.a(core-d049573bc16596f9.core.5587a85061e7188a-cgu.0.rcgu.o)
 .rodata..Lswitch.table._ZN72_$LT$core..net..parser..AddrParseError$u20$as$u20$core..fmt..Display$GT$3fmt17hd7f7df04664d2864E.270
                0x0000000000140b90       0x18 ./gen/../tr_api_dispatch/target/armv7a-none-eabi/release/libitron.a(core-d049573bc16596f9.core.5587a85061e7188a-cgu.0.rcgu.o)
 .rodata..Lswitch.table._ZN4core9panicking19assert_failed_inner17h1f0479933a2bc628E
                0x0000000000140ba8        0xc ./gen/../tr_api_dispatch/target/armv7a-none-eabi/release/libitron.a(core-d049573bc16596f9.core.5587a85061e7188a-cgu.0.rcgu.o)
 .rodata..Lswitch.table._ZN4core9panicking19assert_failed_inner17h1f0479933a2bc628E.271
                0x0000000000140bb4        0xc ./gen/../tr_api_dispatch/target/armv7a-none-eabi/release/libitron.a(core-d049573bc16596f9.core.5587a85061e7188a-cgu.0.rcgu.o)
 .rodata.str1.4
                0x0000000000140bc0       0x7f ./libkernel.a(gic_kernel_impl.o)
 *fill*         0x0000000000140c3f        0x1 
 .rodata.str1.4
                0x0000000000140c40      0x301 ./libkernel.a(core_kernel_impl.o)
 *fill*         0x0000000000140f41        0x3 
 .rodata.str1.4
                0x0000000000140f44       0x3a ./libkernel.a(startup.o)
 *fill*         0x0000000000140f7e        0x2 
 .rodata.str1.4
                0x0000000000140f80       0x2f ./libkernel.a(task.o)
 *fill*         0x0000000000140faf        0x1 
 .rodata.str1.4
                0x0000000000140fb0       0x6d ./libkernel.a(wait.o)
                                         0x9f (size before relaxing)
 *fill*         0x000000000014101d        0x3 
 .rodata.str1.4
                0x0000000000141020       0x4e ./libkernel.a(time_event.o)
                                         0x76 (size before relaxing)
 .rodata.str1.4
                0x000000000014106e       0x30 ./libkernel.a(task_sync.o)
 .rodata.str1.4
                0x000000000014106e       0x2f ./libkernel.a(semaphore.o)
                0x00000000001410a0                . = ALIGN (0x4)
 *fill*         0x000000000014106e        0x2 
                0x0000000000141070                _ctor_list = .
 *(SORT_BY_NAME(.init_array.*))
 *(.init_array)
                0x0000000000141070        0x4 LONG 0x0
                0x0000000000141074                _dtor_list = .
 *(.fini_array)
 *(SORT_BY_NAME(.fini_array.*))
                0x0000000000141074        0x4 LONG 0x0
                0x0000000000141078                __end_rodata = .

.preinit_array  0x0000000000141078        0x0
                [!provide]                        PROVIDE (__preinit_array_start = .)
 *(.preinit_array)
                [!provide]                        PROVIDE (__preinit_array_end = .)

.init_array     0x0000000000141078        0x0
                [!provide]                        PROVIDE (__init_array_start = .)
 *(SORT_BY_NAME(.init_array.*))
 *(.init_array)
                [!provide]                        PROVIDE (__init_array_end = .)

.fini_array     0x0000000000141078        0x0
                [!provide]                        PROVIDE (__fini_array_start = .)
 *(SORT_BY_NAME(.fini_array.*))
 *(.fini_array)
                [!provide]                        PROVIDE (__fini_array_end = .)

.ARM.exidx      0x0000000000141078        0x8
                0x0000000000141078                __exidx_start = .
 *(.ARM.exidx* .gnu.linkonce.armexidx.*)
 .ARM.exidx.text._ZN68_$LT$itron..error..Error$LT$Kind$GT$$u20$as$u20$core..fmt..Debug$GT$3fmt17h7a6abd72f02fffd2E
                0x0000000000141078        0x8 ./gen/../tr_api_dispatch/target/armv7a-none-eabi/release/libitron.a(itron-6a63da1272844731.itron.fdadab565b6f4d55-cgu.0.rcgu.o)
 .ARM.exidx.text._RNvCsgYTF1aGAkck_7___rustc17rust_begin_unwind
                0x0000000000141080        0x0 ./gen/../tr_api_dispatch/target/armv7a-none-eabi/release/libitron.a(itron-6a63da1272844731.itron.fdadab565b6f4d55-cgu.0.rcgu.o)
                                          0x8 (size before relaxing)
 .ARM.exidx.text.tecs_rust_start_r_processor1_symmetric_task1_1
                0x0000000000141080        0x0 ./gen/../tr_api_dispatch/target/armv7a-none-eabi/release/libitron.a(itron-6a63da1272844731.itron.fdadab565b6f4d55-cgu.0.rcgu.o)
                                          0x8 (size before relaxing)
 .ARM.exidx.text.tecs_rust_start_r_processor_all_mig_taskmig
                0x0000000000141080        0x0 ./gen/../tr_api_dispatch/target/armv7a-none-eabi/release/libitron.a(itron-6a63da1272844731.itron.fdadab565b6f4d55-cgu.0.rcgu.o)
                                          0x8 (size before relaxing)
 .ARM.exidx.text.tecs_rust_start_r_processor2_symmetric_task2_1
                0x0000000000141080        0x0 ./gen/../tr_api_dispatch/target/armv7a-none-eabi/release/libitron.a(itron-6a63da1272844731.itron.fdadab565b6f4d55-cgu.0.rcgu.o)
                                          0x8 (size before relaxing)
 .ARM.exidx.text.tecs_rust_start_r_processor2_symmetric_task2_2
                0x0000000000141080        0x0 ./gen/../tr_api_dispatch/target/armv7a-none-eabi/release/libitron.a(itron-6a63da1272844731.itron.fdadab565b6f4d55-cgu.0.rcgu.o)
                                          0x8 (size before relaxing)
 .ARM.exidx.text._ZN4core3fmt3num50_$LT$impl$u20$core..fmt..Debug$u20$for$u20$i32$GT$3fmt17h7a0e08473eadbc5bE
                0x0000000000141080        0x0 ./gen/../tr_api_dispatch/target/armv7a-none-eabi/release/libitron.a(itron-fbcb73bf0b635dd5.itron.68e737fdf62a80e5-cgu.0.rcgu.o)
                                          0x8 (size before relaxing)
 .ARM.exidx.text._ZN75_$LT$core..num..nonzero..NonZero$LT$T$GT$$u20$as$u20$core..fmt..Display$GT$3fmt17h850f84802fa3eaddE
                0x0000000000141080        0x0 ./gen/../tr_api_dispatch/target/armv7a-none-eabi/release/libitron.a(itron-fbcb73bf0b635dd5.itron.68e737fdf62a80e5-cgu.0.rcgu.o)
                                          0x8 (size before relaxing)
 .ARM.exidx.text._ZN60_$LT$itron..error..ErrorCode$u20$as$u20$core..fmt..Debug$GT$3fmt17hf3b2cd5bb64ff3e9E
                0x0000000000141080        0x0 ./gen/../tr_api_dispatch/target/armv7a-none-eabi/release/libitron.a(itron-fbcb73bf0b635dd5.itron.68e737fdf62a80e5-cgu.0.rcgu.o)
                                          0x8 (size before relaxing)
 .ARM.exidx.text._ZN67_$LT$itron..dataqueue..DataqueueRef$u20$as$u20$core..fmt..Debug$GT$3fmt17h5b31219d7835aa6dE
                0x0000000000141080        0x0 ./gen/../tr_api_dispatch/target/armv7a-none-eabi/release/libitron.a(itron-fbcb73bf0b635dd5.itron.68e737fdf62a80e5-cgu.0.rcgu.o)
                                          0x8 (size before relaxing)
 .ARM.exidx.text._ZN69_$LT$itron..memorypool..MemoryPoolRef$u20$as$u20$core..fmt..Debug$GT$3fmt17h802347f6fdaf37b2E
                0x0000000000141080        0x0 ./gen/../tr_api_dispatch/target/armv7a-none-eabi/release/libitron.a(itron-fbcb73bf0b635dd5.itron.68e737fdf62a80e5-cgu.0.rcgu.o)
                                          0x8 (size before relaxing)
 .ARM.exidx.text._ZN59_$LT$itron..mutex..MutexRef$u20$as$u20$core..fmt..Debug$GT$3fmt17h6a8d309fd5365a8bE
                0x0000000000141080        0x0 ./gen/../tr_api_dispatch/target/armv7a-none-eabi/release/libitron.a(itron-fbcb73bf0b635dd5.itron.68e737fdf62a80e5-cgu.0.rcgu.o)
                                          0x8 (size before relaxing)
 .ARM.exidx.text._ZN64_$LT$itron..processor..Processor$u20$as$u20$core..fmt..Debug$GT$3fmt17hc75d9d03a1c196fbE
                0x0000000000141080        0x0 ./gen/../tr_api_dispatch/target/armv7a-none-eabi/release/libitron.a(itron-fbcb73bf0b635dd5.itron.68e737fdf62a80e5-cgu.0.rcgu.o)
                                          0x8 (size before relaxing)
 .ARM.exidx.text._ZN67_$LT$itron..semaphore..SemaphoreRef$u20$as$u20$core..fmt..Debug$GT$3fmt17haf2e3079afc34cfaE
                0x0000000000141080        0x0 ./gen/../tr_api_dispatch/target/armv7a-none-eabi/release/libitron.a(itron-fbcb73bf0b635dd5.itron.68e737fdf62a80e5-cgu.0.rcgu.o)
                                          0x8 (size before relaxing)
 .ARM.exidx.text._ZN57_$LT$itron..task..TaskRef$u20$as$u20$core..fmt..Debug$GT$3fmt17h29082a565a1f7a0fE
                0x0000000000141080        0x0 ./gen/../tr_api_dispatch/target/armv7a-none-eabi/release/libitron.a(itron-fbcb73bf0b635dd5.itron.68e737fdf62a80e5-cgu.0.rcgu.o)
                                          0x8 (size before relaxing)
 .ARM.exidx.text._ZN5itron4task7current17he5bb96fe6f36c460E
                0x0000000000141080        0x0 ./gen/../tr_api_dispatch/target/armv7a-none-eabi/release/libitron.a(itron-fbcb73bf0b635dd5.itron.68e737fdf62a80e5-cgu.0.rcgu.o)
                                          0x8 (size before relaxing)
 .ARM.exidx.text._ZN4core3num7dec2flt11decimal_seq10DecimalSeq4trim17h5efee5ea5ccf409eE
                0x0000000000141080        0x0 ./gen/../tr_api_dispatch/target/armv7a-none-eabi/release/libitron.a(core-d049573bc16596f9.core.5587a85061e7188a-cgu.0.rcgu.o)
                                          0x8 (size before relaxing)
 .ARM.exidx.text._ZN4core3num7dec2flt11decimal_seq10DecimalSeq5round17h25fcaa510171f10cE
                0x0000000000141080        0x0 ./gen/../tr_api_dispatch/target/armv7a-none-eabi/release/libitron.a(core-d049573bc16596f9.core.5587a85061e7188a-cgu.0.rcgu.o)
                                          0x8 (size before relaxing)
 .ARM.exidx.text._ZN4core3num7dec2flt11decimal_seq10DecimalSeq10left_shift17hc6cf7434fa18fb28E
                0x0000000000141080        0x0 ./gen/../tr_api_dispatch/target/armv7a-none-eabi/release/libitron.a(core-d049573bc16596f9.core.5587a85061e7188a-cgu.0.rcgu.o)
                                          0x8 (size before relaxing)
 .ARM.exidx.text._ZN4core3num7dec2flt11decimal_seq10DecimalSeq11right_shift17hb4403252d794ad85E
                0x0000000000141080        0x0 ./gen/../tr_api_dispatch/target/armv7a-none-eabi/release/libitron.a(core-d049573bc16596f9.core.5587a85061e7188a-cgu.0.rcgu.o)
                                          0x8 (size before relaxing)
 .ARM.exidx.text._ZN4core3num7dec2flt11decimal_seq17parse_decimal_seq17h720ae35c33f1ca0cE
                0x0000000000141080        0x0 ./gen/../tr_api_dispatch/target/armv7a-none-eabi/release/libitron.a(core-d049573bc16596f9.core.5587a85061e7188a-cgu.0.rcgu.o)
                                          0x8 (size before relaxing)
 .ARM.exidx.text._ZN59_$LT$f32$u20$as$u20$core..num..dec2flt..float..RawFloat$GT$15pow10_fast_path17h6e48b725f9e4ea17E
                0x0000000000141080        0x0 ./gen/../tr_api_dispatch/target/armv7a-none-eabi/release/libitron.a(core-d049573bc16596f9.core.5587a85061e7188a-cgu.0.rcgu.o)
                                          0x8 (size before relaxing)
 .ARM.exidx.text._ZN59_$LT$f64$u20$as$u20$core..num..dec2flt..float..RawFloat$GT$15pow10_fast_path17h11f46422e910817bE
                0x0000000000141080        0x0 ./gen/../tr_api_dispatch/target/armv7a-none-eabi/release/libitron.a(core-d049573bc16596f9.core.5587a85061e7188a-cgu.0.rcgu.o)
                                          0x8 (size before relaxing)
 .ARM.exidx.text._ZN4core3num7dec2flt6lemire13compute_float17h16a9ae03feeaa31dE
                0x0000000000141080        0x0 ./gen/../tr_api_dispatch/target/armv7a-none-eabi/release/libitron.a(core-d049573bc16596f9.core.5587a85061e7188a-cgu.0.rcgu.o)
                                          0x8 (size before relaxing)
 .ARM.exidx.text._ZN4core3num7dec2flt6lemire13compute_float17h6afe090d7f4e8ea6E
                0x0000000000141080        0x0 ./gen/../tr_api_dispatch/target/armv7a-none-eabi/release/libitron.a(core-d049573bc16596f9.core.5587a85061e7188a-cgu.0.rcgu.o)
                                          0x8 (size before relaxing)
 .ARM.exidx.text._ZN4core3num7dec2flt6lemire13compute_float17ha99c48ca86bcebfaE
                0x0000000000141080        0x0 ./gen/../tr_api_dispatch/target/armv7a-none-eabi/release/libitron.a(core-d049573bc16596f9.core.5587a85061e7188a-cgu.0.rcgu.o)
                                          0x8 (size before relaxing)
 .ARM.exidx.text._ZN4core3num7dec2flt6lemire22compute_product_approx17h46540bfe977aa735E
                0x0000000000141080        0x0 ./gen/../tr_api_dispatch/target/armv7a-none-eabi/release/libitron.a(core-d049573bc16596f9.core.5587a85061e7188a-cgu.0.rcgu.o)
                                          0x8 (size before relaxing)
 .ARM.exidx.text._ZN4core3num7dec2flt5parse12parse_number17hac599539be123f0aE
                0x0000000000141080        0x0 ./gen/../tr_api_dispatch/target/armv7a-none-eabi/release/libitron.a(core-d049573bc16596f9.core.5587a85061e7188a-cgu.0.rcgu.o)
                                          0x8 (size before relaxing)
 .ARM.exidx.text._ZN74_$LT$core..num..dec2flt..ParseFloatError$u20$as$u20$core..fmt..Display$GT$3fmt17he75ae9ab1989a457E
                0x0000000000141080        0x0 ./gen/../tr_api_dispatch/target/armv7a-none-eabi/release/libitron.a(core-d049573bc16596f9.core.5587a85061e7188a-cgu.0.rcgu.o)
                                          0x8 (size before relaxing)
 .ARM.exidx.text._ZN4core3num9diy_float2Fp3mul17h224020beff8dcf6eE
                0x0000000000141080        0x0 ./gen/../tr_api_dispatch/target/armv7a-none-eabi/release/libitron.a(core-d049573bc16596f9.core.5587a85061e7188a-cgu.0.rcgu.o)
                                          0x8 (size before relaxing)
 .ARM.exidx.text._ZN4core3num9diy_float2Fp9normalize17h769495316c3164f0E
                0x0000000000141080        0x0 ./gen/../tr_api_dispatch/target/armv7a-none-eabi/release/libitron.a(core-d049573bc16596f9.core.5587a85061e7188a-cgu.0.rcgu.o)
                                          0x8 (size before relaxing)
 .ARM.exidx.text._ZN4core3num9diy_float2Fp12normalize_to17h65a8e137fe2a9b34E
                0x0000000000141080        0x0 ./gen/../tr_api_dispatch/target/armv7a-none-eabi/release/libitron.a(core-d049573bc16596f9.core.5587a85061e7188a-cgu.0.rcgu.o)
                                          0x8 (size before relaxing)
 .ARM.exidx.text._ZN4core3num7flt2dec9estimator23estimate_scaling_factor17h5aed770e3586ed17E
                0x0000000000141080        0x0 ./gen/../tr_api_dispatch/target/armv7a-none-eabi/release/libitron.a(core-d049573bc16596f9.core.5587a85061e7188a-cgu.0.rcgu.o)
                                          0x8 (size before relaxing)
 .ARM.exidx.text._ZN4core3num7flt2dec8strategy6dragon9mul_pow1017h8de41a198f06ceffE
                0x0000000000141080        0x0 ./gen/../tr_api_dispatch/target/armv7a-none-eabi/release/libitron.a(core-d049573bc16596f9.core.5587a85061e7188a-cgu.0.rcgu.o)
                                          0x8 (size before relaxing)
 .ARM.exidx.text._ZN4core3num7flt2dec8strategy6dragon15format_shortest17hb5e0ae7b6971114eE
                0x0000000000141080        0x0 ./gen/../tr_api_dispatch/target/armv7a-none-eabi/release/libitron.a(core-d049573bc16596f9.core.5587a85061e7188a-cgu.0.rcgu.o)
                                          0x8 (size before relaxing)
 .ARM.exidx.text._ZN4core3num7flt2dec8strategy6dragon12format_exact17h413b0182ae77793eE
                0x0000000000141080        0x0 ./gen/../tr_api_dispatch/target/armv7a-none-eabi/release/libitron.a(core-d049573bc16596f9.core.5587a85061e7188a-cgu.0.rcgu.o)
                                          0x8 (size before relaxing)
 .ARM.exidx.text._ZN4core3num7flt2dec8strategy5grisu12cached_power17h40510fc142d30e5bE
                0x0000000000141080        0x0 ./gen/../tr_api_dispatch/target/armv7a-none-eabi/release/libitron.a(core-d049573bc16596f9.core.5587a85061e7188a-cgu.0.rcgu.o)
                                          0x8 (size before relaxing)
 .ARM.exidx.text._ZN4core3num7flt2dec8strategy5grisu19format_shortest_opt17ha7dc55675409a111E
                0x0000000000141080        0x0 ./gen/../tr_api_dispatch/target/armv7a-none-eabi/release/libitron.a(core-d049573bc16596f9.core.5587a85061e7188a-cgu.0.rcgu.o)
                                          0x8 (size before relaxing)
 .ARM.exidx.text._ZN4core3num7flt2dec8strategy5grisu15format_shortest17hcc7bcdc55f306e7cE
                0x0000000000141080        0x0 ./gen/../tr_api_dispatch/target/armv7a-none-eabi/release/libitron.a(core-d049573bc16596f9.core.5587a85061e7188a-cgu.0.rcgu.o)
                                          0x8 (size before relaxing)
 .ARM.exidx.text._ZN4core3num7flt2dec8strategy5grisu16format_exact_opt17h10c7733a2f424f87E
                0x0000000000141080        0x0 ./gen/../tr_api_dispatch/target/armv7a-none-eabi/release/libitron.a(core-d049573bc16596f9.core.5587a85061e7188a-cgu.0.rcgu.o)
                                          0x8 (size before relaxing)
 .ARM.exidx.text._ZN4core3num7flt2dec8strategy5grisu16format_exact_opt14possibly_round17h324fa6da31e0b7a0E
                0x0000000000141080        0x0 ./gen/../tr_api_dispatch/target/armv7a-none-eabi/release/libitron.a(core-d049573bc16596f9.core.5587a85061e7188a-cgu.0.rcgu.o)
                                          0x8 (size before relaxing)
 .ARM.exidx.text._ZN4core3num7flt2dec8strategy5grisu12format_exact17h78d277690b9100bfE
                0x0000000000141080        0x0 ./gen/../tr_api_dispatch/target/armv7a-none-eabi/release/libitron.a(core-d049573bc16596f9.core.5587a85061e7188a-cgu.0.rcgu.o)
                                          0x8 (size before relaxing)
 .ARM.exidx.text._ZN4core3num7flt2dec8round_up17hdfef968791b3b8f1E
                0x0000000000141080        0x0 ./gen/../tr_api_dispatch/target/armv7a-none-eabi/release/libitron.a(core-d049573bc16596f9.core.5587a85061e7188a-cgu.0.rcgu.o)
                                          0x8 (size before relaxing)
 .ARM.exidx.text._ZN4core3num7flt2dec17digits_to_dec_str17h4ef03e8f4c666413E
                0x0000000000141080        0x0 ./gen/../tr_api_dispatch/target/armv7a-none-eabi/release/libitron.a(core-d049573bc16596f9.core.5587a85061e7188a-cgu.0.rcgu.o)
                                          0x8 (size before relaxing)
 .ARM.exidx.text._ZN4core3num7flt2dec17digits_to_exp_str17hc40222548b9d8bc0E
                0x0000000000141080        0x0 ./gen/../tr_api_dispatch/target/armv7a-none-eabi/release/libitron.a(core-d049573bc16596f9.core.5587a85061e7188a-cgu.0.rcgu.o)
                                          0x8 (size before relaxing)
 .ARM.exidx.text._ZN4core3num3fmt4Part5write17h5157de02cd0761b1E
                0x0000000000141080        0x0 ./gen/../tr_api_dispatch/target/armv7a-none-eabi/release/libitron.a(core-d049573bc16596f9.core.5587a85061e7188a-cgu.0.rcgu.o)
                                          0x8 (size before relaxing)
 .ARM.exidx.text._ZN4core3num3fmt9Formatted3len17ha07e1e9353604e1bE
                0x0000000000141080        0x0 ./gen/../tr_api_dispatch/target/armv7a-none-eabi/release/libitron.a(core-d049573bc16596f9.core.5587a85061e7188a-cgu.0.rcgu.o)
                                          0x8 (size before relaxing)
 .ARM.exidx.text._ZN4core3num3fmt9Formatted5write17h99ed3f4f2997298bE
                0x0000000000141080        0x0 ./gen/../tr_api_dispatch/target/armv7a-none-eabi/release/libitron.a(core-d049573bc16596f9.core.5587a85061e7188a-cgu.0.rcgu.o)
                                          0x8 (size before relaxing)
 .ARM.exidx.text._ZN72_$LT$core..num..error..TryFromIntError$u20$as$u20$core..fmt..Display$GT$3fmt17hce3ba6a6f2a6094bE
                0x0000000000141080        0x0 ./gen/../tr_api_dispatch/target/armv7a-none-eabi/release/libitron.a(core-d049573bc16596f9.core.5587a85061e7188a-cgu.0.rcgu.o)
                                          0x8 (size before relaxing)
 .ARM.exidx.text._ZN70_$LT$core..num..error..ParseIntError$u20$as$u20$core..fmt..Display$GT$3fmt17hbaea7be47c23092bE
                0x0000000000141080        0x0 ./gen/../tr_api_dispatch/target/armv7a-none-eabi/release/libitron.a(core-d049573bc16596f9.core.5587a85061e7188a-cgu.0.rcgu.o)
                                          0x8 (size before relaxing)
 .ARM.exidx.text.unlikely._ZN4core3num9int_log1030panic_for_nonpositive_argument17h1277070ab48dc16bE
                0x0000000000141080        0x0 ./gen/../tr_api_dispatch/target/armv7a-none-eabi/release/libitron.a(core-d049573bc16596f9.core.5587a85061e7188a-cgu.0.rcgu.o)
                                          0x8 (size before relaxing)
 .ARM.exidx.text.unlikely._ZN4core3num8int_sqrt27panic_for_negative_argument17h646ece1cae3b97dbE
                0x0000000000141080        0x0 ./gen/../tr_api_dispatch/target/armv7a-none-eabi/release/libitron.a(core-d049573bc16596f9.core.5587a85061e7188a-cgu.0.rcgu.o)
                                          0x8 (size before relaxing)
 .ARM.exidx.text.unlikely._ZN4core3num14overflow_panic3add17hf194787efb41c60bE
                0x0000000000141080        0x0 ./gen/../tr_api_dispatch/target/armv7a-none-eabi/release/libitron.a(core-d049573bc16596f9.core.5587a85061e7188a-cgu.0.rcgu.o)
                                          0x8 (size before relaxing)
 .ARM.exidx.text.unlikely._ZN4core3num14overflow_panic3sub17he2e76c1521f0700fE
                0x0000000000141080        0x0 ./gen/../tr_api_dispatch/target/armv7a-none-eabi/release/libitron.a(core-d049573bc16596f9.core.5587a85061e7188a-cgu.0.rcgu.o)
                                          0x8 (size before relaxing)
 .ARM.exidx.text.unlikely._ZN4core3num14overflow_panic3mul17h60bfb5e03c5b71e3E
                0x0000000000141080        0x0 ./gen/../tr_api_dispatch/target/armv7a-none-eabi/release/libitron.a(core-d049573bc16596f9.core.5587a85061e7188a-cgu.0.rcgu.o)
                                          0x8 (size before relaxing)
 .ARM.exidx.text.unlikely._ZN4core3num14overflow_panic3div17h31ae6e9c5fc383d9E
                0x0000000000141080        0x0 ./gen/../tr_api_dispatch/target/armv7a-none-eabi/release/libitron.a(core-d049573bc16596f9.core.5587a85061e7188a-cgu.0.rcgu.o)
                                          0x8 (size before relaxing)
 .ARM.exidx.text.unlikely._ZN4core3num14overflow_panic3rem17h60333cfee06b13cdE
                0x0000000000141080        0x0 ./gen/../tr_api_dispatch/target/armv7a-none-eabi/release/libitron.a(core-d049573bc16596f9.core.5587a85061e7188a-cgu.0.rcgu.o)
                                          0x8 (size before relaxing)
 .ARM.exidx.text.unlikely._ZN4core3num14overflow_panic3neg17h94a197b7d7b20279E
                0x0000000000141080        0x0 ./gen/../tr_api_dispatch/target/armv7a-none-eabi/release/libitron.a(core-d049573bc16596f9.core.5587a85061e7188a-cgu.0.rcgu.o)
                                          0x8 (size before relaxing)
 .ARM.exidx.text.unlikely._ZN4core3num14overflow_panic3shr17h1944cb74e27c390cE
                0x0000000000141080        0x0 ./gen/../tr_api_dispatch/target/armv7a-none-eabi/release/libitron.a(core-d049573bc16596f9.core.5587a85061e7188a-cgu.0.rcgu.o)
                                          0x8 (size before relaxing)
 .ARM.exidx.text.unlikely._ZN4core3num14overflow_panic3shl17hc7ecc243b6763a66E
                0x0000000000141080        0x0 ./gen/../tr_api_dispatch/target/armv7a-none-eabi/release/libitron.a(core-d049573bc16596f9.core.5587a85061e7188a-cgu.0.rcgu.o)
                                          0x8 (size before relaxing)
 .ARM.exidx.text.unlikely._ZN4core3num22from_ascii_radix_panic17h345174f03d72ebe3E
                0x0000000000141080        0x0 ./gen/../tr_api_dispatch/target/armv7a-none-eabi/release/libitron.a(core-d049573bc16596f9.core.5587a85061e7188a-cgu.0.rcgu.o)
                                          0x8 (size before relaxing)
 .ARM.exidx.text._ZN76_$LT$core..mem..transmutability..Assume$u20$as$u20$core..ops..arith..Sub$GT$3sub17h21ed15b6645713d8E
                0x0000000000141080        0x0 ./gen/../tr_api_dispatch/target/armv7a-none-eabi/release/libitron.a(core-d049573bc16596f9.core.5587a85061e7188a-cgu.0.rcgu.o)
                                          0x8 (size before relaxing)
 .ARM.exidx.text._ZN68_$LT$core..ptr..alignment..Alignment$u20$as$u20$core..fmt..Debug$GT$3fmt17hd2f4df9dbd6e2f86E
                0x0000000000141080        0x0 ./gen/../tr_api_dispatch/target/armv7a-none-eabi/release/libitron.a(core-d049573bc16596f9.core.5587a85061e7188a-cgu.0.rcgu.o)
                                          0x8 (size before relaxing)
 .ARM.exidx.text._ZN69_$LT$core..ffi..c_str..CStr$u20$as$u20$core..clone..CloneToUninit$GT$15clone_to_uninit17h80a4ef3d92070d94E
                0x0000000000141080        0x0 ./gen/../tr_api_dispatch/target/armv7a-none-eabi/release/libitron.a(core-d049573bc16596f9.core.5587a85061e7188a-cgu.0.rcgu.o)
                                          0x8 (size before relaxing)
 .ARM.exidx.text._ZN57_$LT$core..error..Request$u20$as$u20$core..fmt..Debug$GT$3fmt17h5f561f753496d82cE
                0x0000000000141080        0x0 ./gen/../tr_api_dispatch/target/armv7a-none-eabi/release/libitron.a(core-d049573bc16596f9.core.5587a85061e7188a-cgu.0.rcgu.o)
                                          0x8 (size before relaxing)
 .ARM.exidx.text._ZN78_$LT$core..error..Source$u20$as$u20$core..iter..traits..iterator..Iterator$GT$4next17h4a1fc4a2554e7eceE
                0x0000000000141080        0x0 ./gen/../tr_api_dispatch/target/armv7a-none-eabi/release/libitron.a(core-d049573bc16596f9.core.5587a85061e7188a-cgu.0.rcgu.o)
                                          0x8 (size before relaxing)
 .ARM.exidx.text._ZN64_$LT$core..ops..range..RangeFull$u20$as$u20$core..fmt..Debug$GT$3fmt17h424403ffd1288619E
                0x0000000000141080        0x0 ./gen/../tr_api_dispatch/target/armv7a-none-eabi/release/libitron.a(core-d049573bc16596f9.core.5587a85061e7188a-cgu.0.rcgu.o)
                                          0x8 (size before relaxing)
 .ARM.exidx.text._ZN71_$LT$core..ops..range..Range$LT$Idx$GT$$u20$as$u20$core..fmt..Debug$GT$3fmt17ha953e6102122b0f8E
                0x0000000000141080        0x0 ./gen/../tr_api_dispatch/target/armv7a-none-eabi/release/libitron.a(core-d049573bc16596f9.core.5587a85061e7188a-cgu.0.rcgu.o)
                                          0x8 (size before relaxing)
 .ARM.exidx.text._ZN105_$LT$dyn$u20$core..any..Any$u2b$core..marker..Sync$u2b$core..marker..Send$u20$as$u20$core..fmt..Debug$GT$3fmt17habd8592b3ad60da5E
                0x0000000000141080        0x0 ./gen/../tr_api_dispatch/target/armv7a-none-eabi/release/libitron.a(core-d049573bc16596f9.core.5587a85061e7188a-cgu.0.rcgu.o)
                                          0x8 (size before relaxing)
 .ARM.exidx.text._ZN54_$LT$core..any..TypeId$u20$as$u20$core..fmt..Debug$GT$3fmt17h85ceed27d8f181fdE
                0x0000000000141080        0x0 ./gen/../tr_api_dispatch/target/armv7a-none-eabi/release/libitron.a(core-d049573bc16596f9.core.5587a85061e7188a-cgu.0.rcgu.o)
                                          0x8 (size before relaxing)
 .ARM.exidx.text._ZN73_$LT$core..ascii..ascii_char..AsciiChar$u20$as$u20$core..fmt..Display$GT$3fmt17h8431bf4e4f9d1f68E
                0x0000000000141080        0x0 ./gen/../tr_api_dispatch/target/armv7a-none-eabi/release/libitron.a(core-d049573bc16596f9.core.5587a85061e7188a-cgu.0.rcgu.o)
                                          0x8 (size before relaxing)
 .ARM.exidx.text._ZN71_$LT$core..ascii..ascii_char..AsciiChar$u20$as$u20$core..fmt..Debug$GT$3fmt17h177c64a4e196f32cE
                0x0000000000141080        0x0 ./gen/../tr_api_dispatch/target/armv7a-none-eabi/release/libitron.a(core-d049573bc16596f9.core.5587a85061e7188a-cgu.0.rcgu.o)
                                          0x8 (size before relaxing)
 .ARM.exidx.text._ZN4core5ascii14escape_default17h981d8e307eaaa916E
                0x0000000000141080        0x0 ./gen/../tr_api_dispatch/target/armv7a-none-eabi/release/libitron.a(core-d049573bc16596f9.core.5587a85061e7188a-cgu.0.rcgu.o)
                                          0x8 (size before relaxing)
 .ARM.exidx.text._ZN65_$LT$core..ascii..EscapeDefault$u20$as$u20$core..fmt..Display$GT$3fmt17he735515427ec3f2cE
                0x0000000000141080        0x0 ./gen/../tr_api_dispatch/target/armv7a-none-eabi/release/libitron.a(core-d049573bc16596f9.core.5587a85061e7188a-cgu.0.rcgu.o)
                                          0x8 (size before relaxing)
 .ARM.exidx.text._ZN63_$LT$core..ascii..EscapeDefault$u20$as$u20$core..fmt..Debug$GT$3fmt17h46f02f61de5321cbE
                0x0000000000141080        0x0 ./gen/../tr_api_dispatch/target/armv7a-none-eabi/release/libitron.a(core-d049573bc16596f9.core.5587a85061e7188a-cgu.0.rcgu.o)
                                          0x8 (size before relaxing)
 .ARM.exidx.text._ZN56_$LT$core..bstr..ByteStr$u20$as$u20$core..fmt..Debug$GT$3fmt17h8b572b2661a1de36E
                0x0000000000141080        0x0 ./gen/../tr_api_dispatch/target/armv7a-none-eabi/release/libitron.a(core-d049573bc16596f9.core.5587a85061e7188a-cgu.0.rcgu.o)
                                          0x8 (size before relaxing)
 .ARM.exidx.text._ZN58_$LT$core..bstr..ByteStr$u20$as$u20$core..fmt..Display$GT$3fmt17he4ae28f23ce65a58E
                0x0000000000141080        0x0 ./gen/../tr_api_dispatch/target/armv7a-none-eabi/release/libitron.a(core-d049573bc16596f9.core.5587a85061e7188a-cgu.0.rcgu.o)
                                          0x8 (size before relaxing)
 .ARM.exidx.text.unlikely._ZN4core4cell4lazy14panic_poisoned17h8eb5d443042c4736E
                0x0000000000141080        0x0 ./gen/../tr_api_dispatch/target/armv7a-none-eabi/release/libitron.a(core-d049573bc16596f9.core.5587a85061e7188a-cgu.0.rcgu.o)
                                          0x8 (size before relaxing)
 .ARM.exidx.text._ZN60_$LT$core..cell..BorrowError$u20$as$u20$core..fmt..Debug$GT$3fmt17h56da770da5e11014E
                0x0000000000141080        0x0 ./gen/../tr_api_dispatch/target/armv7a-none-eabi/release/libitron.a(core-d049573bc16596f9.core.5587a85061e7188a-cgu.0.rcgu.o)
                                          0x8 (size before relaxing)
 .ARM.exidx.text._ZN62_$LT$core..cell..BorrowError$u20$as$u20$core..fmt..Display$GT$3fmt17h649aaf4112417b69E
                0x0000000000141080        0x0 ./gen/../tr_api_dispatch/target/armv7a-none-eabi/release/libitron.a(core-d049573bc16596f9.core.5587a85061e7188a-cgu.0.rcgu.o)
                                          0x8 (size before relaxing)
 .ARM.exidx.text._ZN63_$LT$core..cell..BorrowMutError$u20$as$u20$core..fmt..Debug$GT$3fmt17h5dd54cc4ab093714E
                0x0000000000141080        0x0 ./gen/../tr_api_dispatch/target/armv7a-none-eabi/release/libitron.a(core-d049573bc16596f9.core.5587a85061e7188a-cgu.0.rcgu.o)
                                          0x8 (size before relaxing)
 .ARM.exidx.text._ZN65_$LT$core..cell..BorrowMutError$u20$as$u20$core..fmt..Display$GT$3fmt17h2f7647931a1ef38bE
                0x0000000000141080        0x0 ./gen/../tr_api_dispatch/target/armv7a-none-eabi/release/libitron.a(core-d049573bc16596f9.core.5587a85061e7188a-cgu.0.rcgu.o)
                                          0x8 (size before relaxing)
 .ARM.exidx.text.unlikely._ZN4core4cell22panic_already_borrowed17h058b49ead05ac00bE
                0x0000000000141080        0x0 ./gen/../tr_api_dispatch/target/armv7a-none-eabi/release/libitron.a(core-d049573bc16596f9.core.5587a85061e7188a-cgu.0.rcgu.o)
                                          0x8 (size before relaxing)
 .ARM.exidx.text.unlikely._ZN4core4cell30panic_already_mutably_borrowed17h9c448cf1bc13461aE
                0x0000000000141080        0x0 ./gen/../tr_api_dispatch/target/armv7a-none-eabi/release/libitron.a(core-d049573bc16596f9.core.5587a85061e7188a-cgu.0.rcgu.o)
                                          0x8 (size before relaxing)
 .ARM.exidx.text._ZN74_$LT$core..char..convert..ParseCharError$u20$as$u20$core..fmt..Display$GT$3fmt17hcaa7912ed162bf56E
                0x0000000000141080        0x0 ./gen/../tr_api_dispatch/target/armv7a-none-eabi/release/libitron.a(core-d049573bc16596f9.core.5587a85061e7188a-cgu.0.rcgu.o)
                                          0x8 (size before relaxing)
 .ARM.exidx.text._ZN76_$LT$core..char..convert..CharTryFromError$u20$as$u20$core..fmt..Display$GT$3fmt17h19f1ba4eab42fadcE
                0x0000000000141080        0x0 ./gen/../tr_api_dispatch/target/armv7a-none-eabi/release/libitron.a(core-d049573bc16596f9.core.5587a85061e7188a-cgu.0.rcgu.o)
                                          0x8 (size before relaxing)
 .ARM.exidx.text._ZN75_$LT$core..char..decode..DecodeUtf16Error$u20$as$u20$core..fmt..Display$GT$3fmt17hdcf3babdf2cfe76aE
                0x0000000000141080        0x0 ./gen/../tr_api_dispatch/target/armv7a-none-eabi/release/libitron.a(core-d049573bc16596f9.core.5587a85061e7188a-cgu.0.rcgu.o)
                                          0x8 (size before relaxing)
 .ARM.exidx.text._ZN4core4char7methods22_$LT$impl$u20$char$GT$16escape_debug_ext17hd46ad63d40b7f951E
                0x0000000000141080        0x0 ./gen/../tr_api_dispatch/target/armv7a-none-eabi/release/libitron.a(core-d049573bc16596f9.core.5587a85061e7188a-cgu.0.rcgu.o)
                                          0x8 (size before relaxing)
 .ARM.exidx.text._ZN64_$LT$core..char..EscapeDefault$u20$as$u20$core..fmt..Display$GT$3fmt17h38aec28b84124e92E
                0x0000000000141080        0x0 ./gen/../tr_api_dispatch/target/armv7a-none-eabi/release/libitron.a(core-d049573bc16596f9.core.5587a85061e7188a-cgu.0.rcgu.o)
                                          0x8 (size before relaxing)
 .ARM.exidx.text._ZN62_$LT$core..char..EscapeDebug$u20$as$u20$core..fmt..Display$GT$3fmt17hafc69afb2cba63d2E
                0x0000000000141080        0x0 ./gen/../tr_api_dispatch/target/armv7a-none-eabi/release/libitron.a(core-d049573bc16596f9.core.5587a85061e7188a-cgu.0.rcgu.o)
                                          0x8 (size before relaxing)
 .ARM.exidx.text._ZN86_$LT$core..char..CaseMappingIter$u20$as$u20$core..iter..traits..iterator..Iterator$GT$4next17h387613f301dd4fd8E
                0x0000000000141080        0x0 ./gen/../tr_api_dispatch/target/armv7a-none-eabi/release/libitron.a(core-d049573bc16596f9.core.5587a85061e7188a-cgu.0.rcgu.o)
                                          0x8 (size before relaxing)
 .ARM.exidx.text._ZN86_$LT$core..char..CaseMappingIter$u20$as$u20$core..iter..traits..iterator..Iterator$GT$5count17h9c99394d14e09439E
                0x0000000000141080        0x0 ./gen/../tr_api_dispatch/target/armv7a-none-eabi/release/libitron.a(core-d049573bc16596f9.core.5587a85061e7188a-cgu.0.rcgu.o)
                                          0x8 (size before relaxing)
 .ARM.exidx.text._ZN86_$LT$core..char..CaseMappingIter$u20$as$u20$core..iter..traits..iterator..Iterator$GT$4last17h4812d7f7192ee524E
                0x0000000000141080        0x0 ./gen/../tr_api_dispatch/target/armv7a-none-eabi/release/libitron.a(core-d049573bc16596f9.core.5587a85061e7188a-cgu.0.rcgu.o)
                                          0x8 (size before relaxing)
 .ARM.exidx.text._ZN86_$LT$core..char..CaseMappingIter$u20$as$u20$core..iter..traits..iterator..Iterator$GT$10advance_by17h0f8a06432075b566E
                0x0000000000141080        0x0 ./gen/../tr_api_dispatch/target/armv7a-none-eabi/release/libitron.a(core-d049573bc16596f9.core.5587a85061e7188a-cgu.0.rcgu.o)
                                          0x8 (size before relaxing)
 .ARM.exidx.text._ZN86_$LT$core..char..CaseMappingIter$u20$as$u20$core..iter..traits..iterator..Iterator$GT$24__iterator_get_unchecked17hee300516a572f4b8E
                0x0000000000141080        0x0 ./gen/../tr_api_dispatch/target/armv7a-none-eabi/release/libitron.a(core-d049573bc16596f9.core.5587a85061e7188a-cgu.0.rcgu.o)
                                          0x8 (size before relaxing)
 .ARM.exidx.text._ZN101_$LT$core..char..CaseMappingIter$u20$as$u20$core..iter..traits..double_ended..DoubleEndedIterator$GT$9next_back17h0013dfa0a23bb5c3E
                0x0000000000141080        0x0 ./gen/../tr_api_dispatch/target/armv7a-none-eabi/release/libitron.a(core-d049573bc16596f9.core.5587a85061e7188a-cgu.0.rcgu.o)
                                          0x8 (size before relaxing)
 .ARM.exidx.text._ZN101_$LT$core..char..CaseMappingIter$u20$as$u20$core..iter..traits..double_ended..DoubleEndedIterator$GT$15advance_back_by17h0e7ec4b92a9eb744E
                0x0000000000141080        0x0 ./gen/../tr_api_dispatch/target/armv7a-none-eabi/release/libitron.a(core-d049573bc16596f9.core.5587a85061e7188a-cgu.0.rcgu.o)
                                          0x8 (size before relaxing)
 .ARM.exidx.text._ZN67_$LT$core..char..TryFromCharError$u20$as$u20$core..fmt..Display$GT$3fmt17hbf1b0a686f8a1a69E
                0x0000000000141080        0x0 ./gen/../tr_api_dispatch/target/armv7a-none-eabi/release/libitron.a(core-d049573bc16596f9.core.5587a85061e7188a-cgu.0.rcgu.o)
                                          0x8 (size before relaxing)
 .ARM.exidx.text._ZN79_$LT$core..ffi..c_str..FromBytesUntilNulError$u20$as$u20$core..fmt..Display$GT$3fmt17h71f2c90ca2a80addE
                0x0000000000141080        0x0 ./gen/../tr_api_dispatch/target/armv7a-none-eabi/release/libitron.a(core-d049573bc16596f9.core.5587a85061e7188a-cgu.0.rcgu.o)
                                          0x8 (size before relaxing)
 .ARM.exidx.text._ZN59_$LT$core..ffi..c_str..CStr$u20$as$u20$core..fmt..Debug$GT$3fmt17h36ba4289086816d4E
                0x0000000000141080        0x0 ./gen/../tr_api_dispatch/target/armv7a-none-eabi/release/libitron.a(core-d049573bc16596f9.core.5587a85061e7188a-cgu.0.rcgu.o)
                                          0x8 (size before relaxing)
 .ARM.exidx.text._ZN78_$LT$core..ffi..c_str..FromBytesWithNulError$u20$as$u20$core..fmt..Display$GT$3fmt17hd6785df6bd44c25dE
                0x0000000000141080        0x0 ./gen/../tr_api_dispatch/target/armv7a-none-eabi/release/libitron.a(core-d049573bc16596f9.core.5587a85061e7188a-cgu.0.rcgu.o)
                                          0x8 (size before relaxing)
 .ARM.exidx.text._ZN4core3ffi5c_str4CStr20from_bytes_until_nul17h223b6a3545723cc2E
                0x0000000000141080        0x0 ./gen/../tr_api_dispatch/target/armv7a-none-eabi/release/libitron.a(core-d049573bc16596f9.core.5587a85061e7188a-cgu.0.rcgu.o)
                                          0x8 (size before relaxing)
 .ARM.exidx.text._ZN4core3ffi5c_str4CStr19from_bytes_with_nul17h924bc5b5323bf05eE
                0x0000000000141080        0x0 ./gen/../tr_api_dispatch/target/armv7a-none-eabi/release/libitron.a(core-d049573bc16596f9.core.5587a85061e7188a-cgu.0.rcgu.o)
                                          0x8 (size before relaxing)
 .ARM.exidx.text._ZN4core3ffi5c_str4CStr6to_str17hc1faa40fb638a30eE
                0x0000000000141080        0x0 ./gen/../tr_api_dispatch/target/armv7a-none-eabi/release/libitron.a(core-d049573bc16596f9.core.5587a85061e7188a-cgu.0.rcgu.o)
                                          0x8 (size before relaxing)
 .ARM.exidx.text._ZN67_$LT$core..ffi..va_list..VaListImpl$u20$as$u20$core..fmt..Debug$GT$3fmt17hd26f911d47b97956E
                0x0000000000141080        0x0 ./gen/../tr_api_dispatch/target/armv7a-none-eabi/release/libitron.a(core-d049573bc16596f9.core.5587a85061e7188a-cgu.0.rcgu.o)
                                          0x8 (size before relaxing)
 .ARM.exidx.text._ZN54_$LT$core..ffi..c_void$u20$as$u20$core..fmt..Debug$GT$3fmt17h3b27b77d454a7b00E
                0x0000000000141080        0x0 ./gen/../tr_api_dispatch/target/armv7a-none-eabi/release/libitron.a(core-d049573bc16596f9.core.5587a85061e7188a-cgu.0.rcgu.o)
                                          0x8 (size before relaxing)
 .ARM.exidx.text._ZN72_$LT$core..io..borrowed_buf..BorrowedBuf$u20$as$u20$core..fmt..Debug$GT$3fmt17h8c5373e369933a1eE
                0x0000000000141080        0x0 ./gen/../tr_api_dispatch/target/armv7a-none-eabi/release/libitron.a(core-d049573bc16596f9.core.5587a85061e7188a-cgu.0.rcgu.o)
                                          0x8 (size before relaxing)
 .ARM.exidx.text._ZN86_$LT$core..net..display_buffer..DisplayBuffer$LT$_$GT$$u20$as$u20$core..fmt..Write$GT$9write_str17h297baed95332eae7E
                0x0000000000141080        0x0 ./gen/../tr_api_dispatch/target/armv7a-none-eabi/release/libitron.a(core-d049573bc16596f9.core.5587a85061e7188a-cgu.0.rcgu.o)
                                          0x8 (size before relaxing)
 .ARM.exidx.text._ZN86_$LT$core..net..display_buffer..DisplayBuffer$LT$_$GT$$u20$as$u20$core..fmt..Write$GT$9write_str17h839f220912462241E
                0x0000000000141080        0x0 ./gen/../tr_api_dispatch/target/armv7a-none-eabi/release/libitron.a(core-d049573bc16596f9.core.5587a85061e7188a-cgu.0.rcgu.o)
                                          0x8 (size before relaxing)
 .ARM.exidx.text._ZN86_$LT$core..net..display_buffer..DisplayBuffer$LT$_$GT$$u20$as$u20$core..fmt..Write$GT$9write_str17h8badf8473d9a4002E
                0x0000000000141080        0x0 ./gen/../tr_api_dispatch/target/armv7a-none-eabi/release/libitron.a(core-d049573bc16596f9.core.5587a85061e7188a-cgu.0.rcgu.o)
                                          0x8 (size before relaxing)
 .ARM.exidx.text._ZN86_$LT$core..net..display_buffer..DisplayBuffer$LT$_$GT$$u20$as$u20$core..fmt..Write$GT$9write_str17hd35c8bb425293b8bE
                0x0000000000141080        0x0 ./gen/../tr_api_dispatch/target/armv7a-none-eabi/release/libitron.a(core-d049573bc16596f9.core.5587a85061e7188a-cgu.0.rcgu.o)
                                          0x8 (size before relaxing)
 .ARM.exidx.text._ZN65_$LT$core..net..ip_addr..IpAddr$u20$as$u20$core..fmt..Display$GT$3fmt17h3168c33a3915df90E
                0x0000000000141080        0x0 ./gen/../tr_api_dispatch/target/armv7a-none-eabi/release/libitron.a(core-d049573bc16596f9.core.5587a85061e7188a-cgu.0.rcgu.o)
                                          0x8 (size before relaxing)
 .ARM.exidx.text._ZN63_$LT$core..net..ip_addr..IpAddr$u20$as$u20$core..fmt..Debug$GT$3fmt17hfda05f36d5a749a6E
                0x0000000000141080        0x0 ./gen/../tr_api_dispatch/target/armv7a-none-eabi/release/libitron.a(core-d049573bc16596f9.core.5587a85061e7188a-cgu.0.rcgu.o)
                                          0x8 (size before relaxing)
 .ARM.exidx.text._ZN67_$LT$core..net..ip_addr..Ipv4Addr$u20$as$u20$core..fmt..Display$GT$3fmt17h8a7f4864e9af7f6bE
                0x0000000000141080        0x0 ./gen/../tr_api_dispatch/target/armv7a-none-eabi/release/libitron.a(core-d049573bc16596f9.core.5587a85061e7188a-cgu.0.rcgu.o)
                                          0x8 (size before relaxing)
 .ARM.exidx.text._ZN65_$LT$core..net..ip_addr..Ipv4Addr$u20$as$u20$core..fmt..Debug$GT$3fmt17h6a51679a1ff6e7e2E
                0x0000000000141080        0x0 ./gen/../tr_api_dispatch/target/armv7a-none-eabi/release/libitron.a(core-d049573bc16596f9.core.5587a85061e7188a-cgu.0.rcgu.o)
                                          0x8 (size before relaxing)
 .ARM.exidx.text._ZN67_$LT$core..net..ip_addr..Ipv6Addr$u20$as$u20$core..fmt..Display$GT$3fmt17ha09719cd9f4aecf6E
                0x0000000000141080        0x0 ./gen/../tr_api_dispatch/target/armv7a-none-eabi/release/libitron.a(core-d049573bc16596f9.core.5587a85061e7188a-cgu.0.rcgu.o)
                                          0x8 (size before relaxing)
 .ARM.exidx.text._ZN67_$LT$core..net..ip_addr..Ipv6Addr$u20$as$u20$core..fmt..Display$GT$3fmt12fmt_subslice17hba89c8432023046dE
                0x0000000000141080        0x0 ./gen/../tr_api_dispatch/target/armv7a-none-eabi/release/libitron.a(core-d049573bc16596f9.core.5587a85061e7188a-cgu.0.rcgu.o)
                                          0x8 (size before relaxing)
 .ARM.exidx.text._ZN65_$LT$core..net..ip_addr..Ipv6Addr$u20$as$u20$core..fmt..Debug$GT$3fmt17hd7b6c05483d437dbE
                0x0000000000141080        0x0 ./gen/../tr_api_dispatch/target/armv7a-none-eabi/release/libitron.a(core-d049573bc16596f9.core.5587a85061e7188a-cgu.0.rcgu.o)
                                          0x8 (size before relaxing)
 .ARM.exidx.text._ZN4core3net6parser6Parser11read_number28_$u7b$$u7b$closure$u7d$$u7d$17hcfdf77b7d41ca56bE
                0x0000000000141080        0x0 ./gen/../tr_api_dispatch/target/armv7a-none-eabi/release/libitron.a(core-d049573bc16596f9.core.5587a85061e7188a-cgu.0.rcgu.o)
                                          0x8 (size before relaxing)
 .ARM.exidx.text._ZN4core3net6parser6Parser14read_ipv4_addr17h3efba67ec1312042E
                0x0000000000141080        0x0 ./gen/../tr_api_dispatch/target/armv7a-none-eabi/release/libitron.a(core-d049573bc16596f9.core.5587a85061e7188a-cgu.0.rcgu.o)
                                          0x8 (size before relaxing)
 .ARM.exidx.text._ZN4core3net6parser6Parser14read_ipv6_addr17h54c8b5ef622aafb8E
                0x0000000000141080        0x0 ./gen/../tr_api_dispatch/target/armv7a-none-eabi/release/libitron.a(core-d049573bc16596f9.core.5587a85061e7188a-cgu.0.rcgu.o)
                                          0x8 (size before relaxing)
 .ARM.exidx.text._ZN4core3net6parser6Parser14read_ipv6_addr11read_groups17h16f736446e4eaddeE
                0x0000000000141080        0x0 ./gen/../tr_api_dispatch/target/armv7a-none-eabi/release/libitron.a(core-d049573bc16596f9.core.5587a85061e7188a-cgu.0.rcgu.o)
                                          0x8 (size before relaxing)
 .ARM.exidx.text._ZN4core3net6parser6Parser19read_socket_addr_v617hb4d45e4b5ba1a4d4E
                0x0000000000141080        0x0 ./gen/../tr_api_dispatch/target/armv7a-none-eabi/release/libitron.a(core-d049573bc16596f9.core.5587a85061e7188a-cgu.0.rcgu.o)
                                          0x8 (size before relaxing)
 .ARM.exidx.text._ZN4core3net6parser44_$LT$impl$u20$core..net..ip_addr..IpAddr$GT$11parse_ascii17hd7ed4f332f3caa79E
                0x0000000000141080        0x0 ./gen/../tr_api_dispatch/target/armv7a-none-eabi/release/libitron.a(core-d049573bc16596f9.core.5587a85061e7188a-cgu.0.rcgu.o)
                                          0x8 (size before relaxing)
 .ARM.exidx.text._ZN4core3net6parser83_$LT$impl$u20$core..str..traits..FromStr$u20$for$u20$core..net..ip_addr..IpAddr$GT$8from_str17h49e46cb50b46901eE
                0x0000000000141080        0x0 ./gen/../tr_api_dispatch/target/armv7a-none-eabi/release/libitron.a(core-d049573bc16596f9.core.5587a85061e7188a-cgu.0.rcgu.o)
                                          0x8 (size before relaxing)
 .ARM.exidx.text._ZN4core3net6parser46_$LT$impl$u20$core..net..ip_addr..Ipv4Addr$GT$11parse_ascii17h8028e1785cb7be5fE
                0x0000000000141080        0x0 ./gen/../tr_api_dispatch/target/armv7a-none-eabi/release/libitron.a(core-d049573bc16596f9.core.5587a85061e7188a-cgu.0.rcgu.o)
                                          0x8 (size before relaxing)
 .ARM.exidx.text._ZN4core3net6parser85_$LT$impl$u20$core..str..traits..FromStr$u20$for$u20$core..net..ip_addr..Ipv4Addr$GT$8from_str17hc3217d4e0e33b7d5E
                0x0000000000141080        0x0 ./gen/../tr_api_dispatch/target/armv7a-none-eabi/release/libitron.a(core-d049573bc16596f9.core.5587a85061e7188a-cgu.0.rcgu.o)
                                          0x8 (size before relaxing)
 .ARM.exidx.text._ZN4core3net6parser46_$LT$impl$u20$core..net..ip_addr..Ipv6Addr$GT$11parse_ascii17h767d275eb73823beE
                0x0000000000141080        0x0 ./gen/../tr_api_dispatch/target/armv7a-none-eabi/release/libitron.a(core-d049573bc16596f9.core.5587a85061e7188a-cgu.0.rcgu.o)
                                          0x8 (size before relaxing)
 .ARM.exidx.text._ZN4core3net6parser85_$LT$impl$u20$core..str..traits..FromStr$u20$for$u20$core..net..ip_addr..Ipv6Addr$GT$8from_str17h685b7483d3d506d7E
                0x0000000000141080        0x0 ./gen/../tr_api_dispatch/target/armv7a-none-eabi/release/libitron.a(core-d049573bc16596f9.core.5587a85061e7188a-cgu.0.rcgu.o)
                                          0x8 (size before relaxing)
 .ARM.exidx.text._ZN4core3net6parser54_$LT$impl$u20$core..net..socket_addr..SocketAddrV4$GT$11parse_ascii17hc07de5cf09e25fb1E
                0x0000000000141080        0x0 ./gen/../tr_api_dispatch/target/armv7a-none-eabi/release/libitron.a(core-d049573bc16596f9.core.5587a85061e7188a-cgu.0.rcgu.o)
                                          0x8 (size before relaxing)
 .ARM.exidx.text._ZN4core3net6parser93_$LT$impl$u20$core..str..traits..FromStr$u20$for$u20$core..net..socket_addr..SocketAddrV4$GT$8from_str17h5883a36bbe26488dE
                0x0000000000141080        0x0 ./gen/../tr_api_dispatch/target/armv7a-none-eabi/release/libitron.a(core-d049573bc16596f9.core.5587a85061e7188a-cgu.0.rcgu.o)
                                          0x8 (size before relaxing)
 .ARM.exidx.text._ZN4core3net6parser54_$LT$impl$u20$core..net..socket_addr..SocketAddrV6$GT$11parse_ascii17hbe6498756ef255a7E
                0x0000000000141080        0x0 ./gen/../tr_api_dispatch/target/armv7a-none-eabi/release/libitron.a(core-d049573bc16596f9.core.5587a85061e7188a-cgu.0.rcgu.o)
                                          0x8 (size before relaxing)
 .ARM.exidx.text._ZN4core3net6parser93_$LT$impl$u20$core..str..traits..FromStr$u20$for$u20$core..net..socket_addr..SocketAddrV6$GT$8from_str17hf8a18b6a5bf3759eE
                0x0000000000141080        0x0 ./gen/../tr_api_dispatch/target/armv7a-none-eabi/release/libitron.a(core-d049573bc16596f9.core.5587a85061e7188a-cgu.0.rcgu.o)
                                          0x8 (size before relaxing)
 .ARM.exidx.text._ZN4core3net6parser52_$LT$impl$u20$core..net..socket_addr..SocketAddr$GT$11parse_ascii17h32c0686e61a62a97E
                0x0000000000141080        0x0 ./gen/../tr_api_dispatch/target/armv7a-none-eabi/release/libitron.a(core-d049573bc16596f9.core.5587a85061e7188a-cgu.0.rcgu.o)
                                          0x8 (size before relaxing)
 .ARM.exidx.text._ZN4core3net6parser91_$LT$impl$u20$core..str..traits..FromStr$u20$for$u20$core..net..socket_addr..SocketAddr$GT$8from_str17he89fdbe831fc4256E
                0x0000000000141080        0x0 ./gen/../tr_api_dispatch/target/armv7a-none-eabi/release/libitron.a(core-d049573bc16596f9.core.5587a85061e7188a-cgu.0.rcgu.o)
                                          0x8 (size before relaxing)
 .ARM.exidx.text._ZN72_$LT$core..net..parser..AddrParseError$u20$as$u20$core..fmt..Display$GT$3fmt17hd7f7df04664d2864E
                0x0000000000141080        0x0 ./gen/../tr_api_dispatch/target/armv7a-none-eabi/release/libitron.a(core-d049573bc16596f9.core.5587a85061e7188a-cgu.0.rcgu.o)
                                          0x8 (size before relaxing)
 .ARM.exidx.text._ZN73_$LT$core..net..socket_addr..SocketAddr$u20$as$u20$core..fmt..Display$GT$3fmt17hd0e981e04411525aE
                0x0000000000141080        0x0 ./gen/../tr_api_dispatch/target/armv7a-none-eabi/release/libitron.a(core-d049573bc16596f9.core.5587a85061e7188a-cgu.0.rcgu.o)
                                          0x8 (size before relaxing)
 .ARM.exidx.text._ZN71_$LT$core..net..socket_addr..SocketAddr$u20$as$u20$core..fmt..Debug$GT$3fmt17hd95cf7ae4353c951E
                0x0000000000141080        0x0 ./gen/../tr_api_dispatch/target/armv7a-none-eabi/release/libitron.a(core-d049573bc16596f9.core.5587a85061e7188a-cgu.0.rcgu.o)
                                          0x8 (size before relaxing)
 .ARM.exidx.text._ZN75_$LT$core..net..socket_addr..SocketAddrV4$u20$as$u20$core..fmt..Display$GT$3fmt17hb358e369cb8dcc74E
                0x0000000000141080        0x0 ./gen/../tr_api_dispatch/target/armv7a-none-eabi/release/libitron.a(core-d049573bc16596f9.core.5587a85061e7188a-cgu.0.rcgu.o)
                                          0x8 (size before relaxing)
 .ARM.exidx.text._ZN73_$LT$core..net..socket_addr..SocketAddrV4$u20$as$u20$core..fmt..Debug$GT$3fmt17h47d2c03dbc6abbf5E
                0x0000000000141080        0x0 ./gen/../tr_api_dispatch/target/armv7a-none-eabi/release/libitron.a(core-d049573bc16596f9.core.5587a85061e7188a-cgu.0.rcgu.o)
                                          0x8 (size before relaxing)
 .ARM.exidx.text._ZN75_$LT$core..net..socket_addr..SocketAddrV6$u20$as$u20$core..fmt..Display$GT$3fmt17hb242d5ced67c2003E
                0x0000000000141080        0x0 ./gen/../tr_api_dispatch/target/armv7a-none-eabi/release/libitron.a(core-d049573bc16596f9.core.5587a85061e7188a-cgu.0.rcgu.o)
                                          0x8 (size before relaxing)
 .ARM.exidx.text._ZN73_$LT$core..net..socket_addr..SocketAddrV6$u20$as$u20$core..fmt..Debug$GT$3fmt17h008793ff64f0e572E
                0x0000000000141080        0x0 ./gen/../tr_api_dispatch/target/armv7a-none-eabi/release/libitron.a(core-d049573bc16596f9.core.5587a85061e7188a-cgu.0.rcgu.o)
                                          0x8 (size before relaxing)
 .ARM.exidx.text.unlikely._ZN4core6option13unwrap_failed17h39a76a4d9e444e97E
                0x0000000000141080        0x0 ./gen/../tr_api_dispatch/target/armv7a-none-eabi/release/libitron.a(core-d049573bc16596f9.core.5587a85061e7188a-cgu.0.rcgu.o)
                                          0x8 (size before relaxing)
 .ARM.exidx.text.unlikely._ZN4core6option13expect_failed17hf032828b69e8f9cdE
                0x0000000000141080        0x0 ./gen/../tr_api_dispatch/target/armv7a-none-eabi/release/libitron.a(core-d049573bc16596f9.core.5587a85061e7188a-cgu.0.rcgu.o)
                                          0x8 (size before relaxing)
 .ARM.exidx.text._ZN73_$LT$core..panic..panic_info..PanicInfo$u20$as$u20$core..fmt..Display$GT$3fmt17he8ae0930573845dbE
                0x0000000000141080        0x0 ./gen/../tr_api_dispatch/target/armv7a-none-eabi/release/libitron.a(core-d049573bc16596f9.core.5587a85061e7188a-cgu.0.rcgu.o)
                                          0x8 (size before relaxing)
 .ARM.exidx.text.unlikely._ZN4core9panicking9panic_fmt17h5145975cf535bc42E
                0x0000000000141080        0x0 ./gen/../tr_api_dispatch/target/armv7a-none-eabi/release/libitron.a(core-d049573bc16596f9.core.5587a85061e7188a-cgu.0.rcgu.o)
                                          0x8 (size before relaxing)
 .ARM.exidx.text.unlikely._ZN4core9panicking18panic_nounwind_fmt17h7e174a309b689b0fE
                0x0000000000141080        0x0 ./gen/../tr_api_dispatch/target/armv7a-none-eabi/release/libitron.a(core-d049573bc16596f9.core.5587a85061e7188a-cgu.0.rcgu.o)
                                          0x8 (size before relaxing)
 .ARM.exidx.text.unlikely._ZN4core9panicking5panic17h04eb6169f90051c3E
                0x0000000000141080        0x0 ./gen/../tr_api_dispatch/target/armv7a-none-eabi/release/libitron.a(core-d049573bc16596f9.core.5587a85061e7188a-cgu.0.rcgu.o)
                                          0x8 (size before relaxing)
 .ARM.exidx.text.unlikely._ZN4core9panicking14panic_nounwind17hb8efc6a66a7c1fb5E
                0x0000000000141080        0x0 ./gen/../tr_api_dispatch/target/armv7a-none-eabi/release/libitron.a(core-d049573bc16596f9.core.5587a85061e7188a-cgu.0.rcgu.o)
                                          0x8 (size before relaxing)
 .ARM.exidx.text.unlikely._ZN4core9panicking26panic_nounwind_nobacktrace17hcf6b6f7ce89f1dabE
                0x0000000000141080        0x0 ./gen/../tr_api_dispatch/target/armv7a-none-eabi/release/libitron.a(core-d049573bc16596f9.core.5587a85061e7188a-cgu.0.rcgu.o)
                                          0x8 (size before relaxing)
 .ARM.exidx.text.unlikely._ZN4core9panicking14panic_explicit17he7bebe483a3bfe34E
                0x0000000000141080        0x0 ./gen/../tr_api_dispatch/target/armv7a-none-eabi/release/libitron.a(core-d049573bc16596f9.core.5587a85061e7188a-cgu.0.rcgu.o)
                                          0x8 (size before relaxing)
 .ARM.exidx.text.unlikely._ZN4core9panicking18panic_bounds_check17he2f51b500041724aE
                0x0000000000141080        0x0 ./gen/../tr_api_dispatch/target/armv7a-none-eabi/release/libitron.a(core-d049573bc16596f9.core.5587a85061e7188a-cgu.0.rcgu.o)
                                          0x8 (size before relaxing)
 .ARM.exidx.text.unlikely._ZN4core9panicking36panic_misaligned_pointer_dereference17hca8f56f08697e9a1E
                0x0000000000141080        0x0 ./gen/../tr_api_dispatch/target/armv7a-none-eabi/release/libitron.a(core-d049573bc16596f9.core.5587a85061e7188a-cgu.0.rcgu.o)
                                          0x8 (size before relaxing)
 .ARM.exidx.text.unlikely._ZN4core9panicking30panic_null_pointer_dereference17hd07e38dada2babd1E
                0x0000000000141080        0x0 ./gen/../tr_api_dispatch/target/armv7a-none-eabi/release/libitron.a(core-d049573bc16596f9.core.5587a85061e7188a-cgu.0.rcgu.o)
                                          0x8 (size before relaxing)
 .ARM.exidx.text.unlikely._ZN4core9panicking19panic_cannot_unwind17h88003aad7d959a86E
                0x0000000000141080        0x0 ./gen/../tr_api_dispatch/target/armv7a-none-eabi/release/libitron.a(core-d049573bc16596f9.core.5587a85061e7188a-cgu.0.rcgu.o)
                                          0x8 (size before relaxing)
 .ARM.exidx.text.unlikely._ZN4core9panicking16panic_in_cleanup17he6ef00938a5a6327E
                0x0000000000141080        0x0 ./gen/../tr_api_dispatch/target/armv7a-none-eabi/release/libitron.a(core-d049573bc16596f9.core.5587a85061e7188a-cgu.0.rcgu.o)
                                          0x8 (size before relaxing)
 .ARM.exidx.text.unlikely._ZN4core9panicking15const_panic_fmt17h6a5d3cae6d10461cE
                0x0000000000141080        0x0 ./gen/../tr_api_dispatch/target/armv7a-none-eabi/release/libitron.a(core-d049573bc16596f9.core.5587a85061e7188a-cgu.0.rcgu.o)
                                          0x8 (size before relaxing)
 .ARM.exidx.text.unlikely._ZN4core9panicking13assert_failed17h2f1d8849fc674a9bE
                0x0000000000141080        0x0 ./gen/../tr_api_dispatch/target/armv7a-none-eabi/release/libitron.a(core-d049573bc16596f9.core.5587a85061e7188a-cgu.0.rcgu.o)
                                          0x8 (size before relaxing)
 .ARM.exidx.text.unlikely._ZN4core9panicking13assert_failed17h8a42116d81ae2397E
                0x0000000000141080        0x0 ./gen/../tr_api_dispatch/target/armv7a-none-eabi/release/libitron.a(core-d049573bc16596f9.core.5587a85061e7188a-cgu.0.rcgu.o)
                                          0x8 (size before relaxing)
 .ARM.exidx.text._ZN84_$LT$core..panicking..assert_matches_failed..Pattern$u20$as$u20$core..fmt..Debug$GT$3fmt17h3bf79b8a4bc8fc51E
                0x0000000000141080        0x0 ./gen/../tr_api_dispatch/target/armv7a-none-eabi/release/libitron.a(core-d049573bc16596f9.core.5587a85061e7188a-cgu.0.rcgu.o)
                                          0x8 (size before relaxing)
 .ARM.exidx.text.unlikely._ZN4core9panicking19assert_failed_inner17h1f0479933a2bc628E
                0x0000000000141080        0x0 ./gen/../tr_api_dispatch/target/armv7a-none-eabi/release/libitron.a(core-d049573bc16596f9.core.5587a85061e7188a-cgu.0.rcgu.o)
                                          0x8 (size before relaxing)
 .ARM.exidx.text._ZN48_$LT$char$u20$as$u20$core..pat..RangePattern$GT$7sub_one17hc1333cb071cfc1b6E
                0x0000000000141080        0x0 ./gen/../tr_api_dispatch/target/armv7a-none-eabi/release/libitron.a(core-d049573bc16596f9.core.5587a85061e7188a-cgu.0.rcgu.o)
                                          0x8 (size before relaxing)
 .ARM.exidx.text.unlikely._ZN4core6result13unwrap_failed17h238a41f9432ebe61E
                0x0000000000141080        0x0 ./gen/../tr_api_dispatch/target/armv7a-none-eabi/release/libitron.a(core-d049573bc16596f9.core.5587a85061e7188a-cgu.0.rcgu.o)
                                          0x8 (size before relaxing)
 .ARM.exidx.text._ZN67_$LT$core..sync..atomic..AtomicBool$u20$as$u20$core..fmt..Debug$GT$3fmt17h36e87f0defe65ad8E
                0x0000000000141080        0x0 ./gen/../tr_api_dispatch/target/armv7a-none-eabi/release/libitron.a(core-d049573bc16596f9.core.5587a85061e7188a-cgu.0.rcgu.o)
                                          0x8 (size before relaxing)
 .ARM.exidx.text._ZN4core3fmt8builders10PadAdapter4wrap17h8cec362b75ec2f49E
                0x0000000000141080        0x0 ./gen/../tr_api_dispatch/target/armv7a-none-eabi/release/libitron.a(core-d049573bc16596f9.core.5587a85061e7188a-cgu.0.rcgu.o)
                                          0x8 (size before relaxing)
 .ARM.exidx.text._ZN68_$LT$core..fmt..builders..PadAdapter$u20$as$u20$core..fmt..Write$GT$9write_str17hc81ad4e78c0c990cE
                0x0000000000141080        0x0 ./gen/../tr_api_dispatch/target/armv7a-none-eabi/release/libitron.a(core-d049573bc16596f9.core.5587a85061e7188a-cgu.0.rcgu.o)
                                          0x8 (size before relaxing)
 .ARM.exidx.text._ZN68_$LT$core..fmt..builders..PadAdapter$u20$as$u20$core..fmt..Write$GT$10write_char17h121f3a024053ccfbE
                0x0000000000141080        0x0 ./gen/../tr_api_dispatch/target/armv7a-none-eabi/release/libitron.a(core-d049573bc16596f9.core.5587a85061e7188a-cgu.0.rcgu.o)
                                          0x8 (size before relaxing)
 .ARM.exidx.text._ZN4core3fmt8builders11DebugStruct5field17h118827344b19fbe7E
                0x0000000000141080        0x0 ./gen/../tr_api_dispatch/target/armv7a-none-eabi/release/libitron.a(core-d049573bc16596f9.core.5587a85061e7188a-cgu.0.rcgu.o)
                                          0x8 (size before relaxing)
 .ARM.exidx.text._ZN4core3fmt8builders11DebugStruct21finish_non_exhaustive17ha59f74934d70120cE
                0x0000000000141080        0x0 ./gen/../tr_api_dispatch/target/armv7a-none-eabi/release/libitron.a(core-d049573bc16596f9.core.5587a85061e7188a-cgu.0.rcgu.o)
                                          0x8 (size before relaxing)
 .ARM.exidx.text._ZN4core3fmt8builders11DebugStruct6finish17h62dcffc385683e70E
                0x0000000000141080        0x0 ./gen/../tr_api_dispatch/target/armv7a-none-eabi/release/libitron.a(core-d049573bc16596f9.core.5587a85061e7188a-cgu.0.rcgu.o)
                                          0x8 (size before relaxing)
 .ARM.exidx.text._ZN4core3fmt8builders10DebugTuple5field17hd25f2ea26ee9220fE
                0x0000000000141080        0x0 ./gen/../tr_api_dispatch/target/armv7a-none-eabi/release/libitron.a(core-d049573bc16596f9.core.5587a85061e7188a-cgu.0.rcgu.o)
                                          0x8 (size before relaxing)
 .ARM.exidx.text._ZN4core3fmt8builders10DebugTuple21finish_non_exhaustive17hbea2c5cc6d18b83cE
                0x0000000000141080        0x0 ./gen/../tr_api_dispatch/target/armv7a-none-eabi/release/libitron.a(core-d049573bc16596f9.core.5587a85061e7188a-cgu.0.rcgu.o)
                                          0x8 (size before relaxing)
 .ARM.exidx.text._ZN4core3fmt8builders10DebugTuple6finish17h75fa298d273b9537E
                0x0000000000141080        0x0 ./gen/../tr_api_dispatch/target/armv7a-none-eabi/release/libitron.a(core-d049573bc16596f9.core.5587a85061e7188a-cgu.0.rcgu.o)
                                          0x8 (size before relaxing)
 .ARM.exidx.text._ZN4core3fmt8builders8DebugSet5entry17h6f9f49712cdf1c8aE
                0x0000000000141080        0x0 ./gen/../tr_api_dispatch/target/armv7a-none-eabi/release/libitron.a(core-d049573bc16596f9.core.5587a85061e7188a-cgu.0.rcgu.o)
                                          0x8 (size before relaxing)
 .ARM.exidx.text._ZN4core3fmt8builders8DebugSet21finish_non_exhaustive17h056b5628e91579d3E
                0x0000000000141080        0x0 ./gen/../tr_api_dispatch/target/armv7a-none-eabi/release/libitron.a(core-d049573bc16596f9.core.5587a85061e7188a-cgu.0.rcgu.o)
                                          0x8 (size before relaxing)
 .ARM.exidx.text._ZN4core3fmt8builders8DebugSet6finish17hb775269289642050E
                0x0000000000141080        0x0 ./gen/../tr_api_dispatch/target/armv7a-none-eabi/release/libitron.a(core-d049573bc16596f9.core.5587a85061e7188a-cgu.0.rcgu.o)
                                          0x8 (size before relaxing)
 .ARM.exidx.text._ZN4core3fmt8builders9DebugList21finish_non_exhaustive17h0964252c95243519E
                0x0000000000141080        0x0 ./gen/../tr_api_dispatch/target/armv7a-none-eabi/release/libitron.a(core-d049573bc16596f9.core.5587a85061e7188a-cgu.0.rcgu.o)
                                          0x8 (size before relaxing)
 .ARM.exidx.text._ZN4core3fmt8builders9DebugList6finish17h95901bb8c72ebeaaE
                0x0000000000141080        0x0 ./gen/../tr_api_dispatch/target/armv7a-none-eabi/release/libitron.a(core-d049573bc16596f9.core.5587a85061e7188a-cgu.0.rcgu.o)
                                          0x8 (size before relaxing)
 .ARM.exidx.text._ZN4core3fmt8builders8DebugMap5entry17hb5fe3985090a797eE
                0x0000000000141080        0x0 ./gen/../tr_api_dispatch/target/armv7a-none-eabi/release/libitron.a(core-d049573bc16596f9.core.5587a85061e7188a-cgu.0.rcgu.o)
                                          0x8 (size before relaxing)
 .ARM.exidx.text._ZN4core3fmt8builders8DebugMap3key17he972b5db7c272a06E
                0x0000000000141080        0x0 ./gen/../tr_api_dispatch/target/armv7a-none-eabi/release/libitron.a(core-d049573bc16596f9.core.5587a85061e7188a-cgu.0.rcgu.o)
                                          0x8 (size before relaxing)
 .ARM.exidx.text._ZN4core3fmt8builders8DebugMap5value17hc3fc83e3ff16426eE
                0x0000000000141080        0x0 ./gen/../tr_api_dispatch/target/armv7a-none-eabi/release/libitron.a(core-d049573bc16596f9.core.5587a85061e7188a-cgu.0.rcgu.o)
                                          0x8 (size before relaxing)
 .ARM.exidx.text._ZN4core3fmt8builders8DebugMap21finish_non_exhaustive17h1d063c8fc17c4fa1E
                0x0000000000141080        0x0 ./gen/../tr_api_dispatch/target/armv7a-none-eabi/release/libitron.a(core-d049573bc16596f9.core.5587a85061e7188a-cgu.0.rcgu.o)
                                          0x8 (size before relaxing)
 .ARM.exidx.text._ZN4core3fmt8builders8DebugMap6finish17h87c976a15d36c1beE
                0x0000000000141080        0x0 ./gen/../tr_api_dispatch/target/armv7a-none-eabi/release/libitron.a(core-d049573bc16596f9.core.5587a85061e7188a-cgu.0.rcgu.o)
                                          0x8 (size before relaxing)
 .ARM.exidx.text._ZN4core3fmt5float29float_to_decimal_common_exact17h7d85dbe2887defb2E
                0x0000000000141080        0x0 ./gen/../tr_api_dispatch/target/armv7a-none-eabi/release/libitron.a(core-d049573bc16596f9.core.5587a85061e7188a-cgu.0.rcgu.o)
                                          0x8 (size before relaxing)
 .ARM.exidx.text._ZN4core3fmt5float29float_to_decimal_common_exact17hb8ecc3a298064d1fE
                0x0000000000141080        0x0 ./gen/../tr_api_dispatch/target/armv7a-none-eabi/release/libitron.a(core-d049573bc16596f9.core.5587a85061e7188a-cgu.0.rcgu.o)
                                          0x8 (size before relaxing)
 .ARM.exidx.text._ZN4core3fmt5float29float_to_decimal_common_exact17hc4ee8b5197ebb838E
                0x0000000000141080        0x0 ./gen/../tr_api_dispatch/target/armv7a-none-eabi/release/libitron.a(core-d049573bc16596f9.core.5587a85061e7188a-cgu.0.rcgu.o)
                                          0x8 (size before relaxing)
 .ARM.exidx.text._ZN4core3fmt5float32float_to_decimal_common_shortest17h57f1a97492206944E
                0x0000000000141080        0x0 ./gen/../tr_api_dispatch/target/armv7a-none-eabi/release/libitron.a(core-d049573bc16596f9.core.5587a85061e7188a-cgu.0.rcgu.o)
                                          0x8 (size before relaxing)
 .ARM.exidx.text._ZN4core3fmt5float32float_to_decimal_common_shortest17hd1530ac16dbab458E
                0x0000000000141080        0x0 ./gen/../tr_api_dispatch/target/armv7a-none-eabi/release/libitron.a(core-d049573bc16596f9.core.5587a85061e7188a-cgu.0.rcgu.o)
                                          0x8 (size before relaxing)
 .ARM.exidx.text._ZN4core3fmt5float32float_to_decimal_common_shortest17hf774af481b6739e1E
                0x0000000000141080        0x0 ./gen/../tr_api_dispatch/target/armv7a-none-eabi/release/libitron.a(core-d049573bc16596f9.core.5587a85061e7188a-cgu.0.rcgu.o)
                                          0x8 (size before relaxing)
 .ARM.exidx.text._ZN4core3fmt5float33float_to_exponential_common_exact17h475946fbe25c96b4E
                0x0000000000141080        0x0 ./gen/../tr_api_dispatch/target/armv7a-none-eabi/release/libitron.a(core-d049573bc16596f9.core.5587a85061e7188a-cgu.0.rcgu.o)
                                          0x8 (size before relaxing)
 .ARM.exidx.text._ZN4core3fmt5float33float_to_exponential_common_exact17h58c854a839c522b9E
                0x0000000000141080        0x0 ./gen/../tr_api_dispatch/target/armv7a-none-eabi/release/libitron.a(core-d049573bc16596f9.core.5587a85061e7188a-cgu.0.rcgu.o)
                                          0x8 (size before relaxing)
 .ARM.exidx.text._ZN4core3fmt5float33float_to_exponential_common_exact17hf8c347a31f005498E
                0x0000000000141080        0x0 ./gen/../tr_api_dispatch/target/armv7a-none-eabi/release/libitron.a(core-d049573bc16596f9.core.5587a85061e7188a-cgu.0.rcgu.o)
                                          0x8 (size before relaxing)
 .ARM.exidx.text._ZN4core3fmt5float36float_to_exponential_common_shortest17h110c73098256b07dE
                0x0000000000141080        0x0 ./gen/../tr_api_dispatch/target/armv7a-none-eabi/release/libitron.a(core-d049573bc16596f9.core.5587a85061e7188a-cgu.0.rcgu.o)
                                          0x8 (size before relaxing)
 .ARM.exidx.text._ZN4core3fmt5float36float_to_exponential_common_shortest17hc2048c8ca710d24cE
                0x0000000000141080        0x0 ./gen/../tr_api_dispatch/target/armv7a-none-eabi/release/libitron.a(core-d049573bc16596f9.core.5587a85061e7188a-cgu.0.rcgu.o)
                                          0x8 (size before relaxing)
 .ARM.exidx.text._ZN4core3fmt5float36float_to_exponential_common_shortest17hded788cc3690643fE
                0x0000000000141080        0x0 ./gen/../tr_api_dispatch/target/armv7a-none-eabi/release/libitron.a(core-d049573bc16596f9.core.5587a85061e7188a-cgu.0.rcgu.o)
                                          0x8 (size before relaxing)
 .ARM.exidx.text._ZN4core3fmt3num14parse_u64_into17hdae6f27d721cd177E
                0x0000000000141080        0x0 ./gen/../tr_api_dispatch/target/armv7a-none-eabi/release/libitron.a(core-d049573bc16596f9.core.5587a85061e7188a-cgu.0.rcgu.o)
                                          0x8 (size before relaxing)
 .ARM.exidx.text._ZN4core3fmt3num53_$LT$impl$u20$core..fmt..Display$u20$for$u20$u128$GT$3fmt17he162d142fdfbe23dE
                0x0000000000141080        0x0 ./gen/../tr_api_dispatch/target/armv7a-none-eabi/release/libitron.a(core-d049573bc16596f9.core.5587a85061e7188a-cgu.0.rcgu.o)
                                          0x8 (size before relaxing)
 .ARM.exidx.text._ZN4core3fmt3num53_$LT$impl$u20$core..fmt..Display$u20$for$u20$i128$GT$3fmt17h41041c0cb7d944acE
                0x0000000000141080        0x0 ./gen/../tr_api_dispatch/target/armv7a-none-eabi/release/libitron.a(core-d049573bc16596f9.core.5587a85061e7188a-cgu.0.rcgu.o)
                                          0x8 (size before relaxing)
 .ARM.exidx.text._ZN4core3fmt3num8fmt_u12817h3ce49e52aad09f7aE
                0x0000000000141080        0x0 ./gen/../tr_api_dispatch/target/armv7a-none-eabi/release/libitron.a(core-d049573bc16596f9.core.5587a85061e7188a-cgu.0.rcgu.o)
                                          0x8 (size before relaxing)
 .ARM.exidx.text._ZN4core3fmt5Write10write_char17h0deb656a130510dcE
                0x0000000000141080        0x0 ./gen/../tr_api_dispatch/target/armv7a-none-eabi/release/libitron.a(core-d049573bc16596f9.core.5587a85061e7188a-cgu.0.rcgu.o)
                                          0x8 (size before relaxing)
 .ARM.exidx.text._ZN4core3fmt5Write10write_char17h121006013e2c64bdE
                0x0000000000141080        0x0 ./gen/../tr_api_dispatch/target/armv7a-none-eabi/release/libitron.a(core-d049573bc16596f9.core.5587a85061e7188a-cgu.0.rcgu.o)
                                          0x8 (size before relaxing)
 .ARM.exidx.text._ZN4core3fmt5Write10write_char17h20c6982f67c5a14cE
                0x0000000000141080        0x0 ./gen/../tr_api_dispatch/target/armv7a-none-eabi/release/libitron.a(core-d049573bc16596f9.core.5587a85061e7188a-cgu.0.rcgu.o)
                                          0x8 (size before relaxing)
 .ARM.exidx.text._ZN4core3fmt5Write10write_char17h884d76389de57237E
                0x0000000000141080        0x0 ./gen/../tr_api_dispatch/target/armv7a-none-eabi/release/libitron.a(core-d049573bc16596f9.core.5587a85061e7188a-cgu.0.rcgu.o)
                                          0x8 (size before relaxing)
 .ARM.exidx.text._ZN4core3fmt5Write9write_fmt17h07c1169efed3c695E
                0x0000000000141080        0x0 ./gen/../tr_api_dispatch/target/armv7a-none-eabi/release/libitron.a(core-d049573bc16596f9.core.5587a85061e7188a-cgu.0.rcgu.o)
                                          0x8 (size before relaxing)
 .ARM.exidx.text._ZN4core3fmt5Write9write_fmt17h32196b9e35a8bbc2E
                0x0000000000141080        0x0 ./gen/../tr_api_dispatch/target/armv7a-none-eabi/release/libitron.a(core-d049573bc16596f9.core.5587a85061e7188a-cgu.0.rcgu.o)
                                          0x8 (size before relaxing)
 .ARM.exidx.text._ZN4core3fmt5Write9write_fmt17h8420373094f7f4f3E
                0x0000000000141080        0x0 ./gen/../tr_api_dispatch/target/armv7a-none-eabi/release/libitron.a(core-d049573bc16596f9.core.5587a85061e7188a-cgu.0.rcgu.o)
                                          0x8 (size before relaxing)
 .ARM.exidx.text._ZN4core3fmt5Write9write_fmt17ha93132b80607745fE
                0x0000000000141080        0x0 ./gen/../tr_api_dispatch/target/armv7a-none-eabi/release/libitron.a(core-d049573bc16596f9.core.5587a85061e7188a-cgu.0.rcgu.o)
                                          0x8 (size before relaxing)
 .ARM.exidx.text._ZN4core3fmt5Write9write_fmt17he315d962ad1b87f3E
                0x0000000000141080        0x0 ./gen/../tr_api_dispatch/target/armv7a-none-eabi/release/libitron.a(core-d049573bc16596f9.core.5587a85061e7188a-cgu.0.rcgu.o)
                                          0x8 (size before relaxing)
 .ARM.exidx.text._ZN4core3fmt17FormattingOptions8get_fill17ha364eba16e39e9f9E
                0x0000000000141080        0x0 ./gen/../tr_api_dispatch/target/armv7a-none-eabi/release/libitron.a(core-d049573bc16596f9.core.5587a85061e7188a-cgu.0.rcgu.o)
                                          0x8 (size before relaxing)
 .ARM.exidx.text._ZN57_$LT$core..fmt..Arguments$u20$as$u20$core..fmt..Debug$GT$3fmt17hecd0089d3e424aecE
                0x0000000000141080        0x0 ./gen/../tr_api_dispatch/target/armv7a-none-eabi/release/libitron.a(core-d049573bc16596f9.core.5587a85061e7188a-cgu.0.rcgu.o)
                                          0x8 (size before relaxing)
 .ARM.exidx.text._ZN59_$LT$core..fmt..Arguments$u20$as$u20$core..fmt..Display$GT$3fmt17hcd13995007f793f4E
                0x0000000000141080        0x0 ./gen/../tr_api_dispatch/target/armv7a-none-eabi/release/libitron.a(core-d049573bc16596f9.core.5587a85061e7188a-cgu.0.rcgu.o)
                                          0x8 (size before relaxing)
 .ARM.exidx.text._ZN4core3fmt5write17hb714253c1b9e952cE
                0x0000000000141080        0x0 ./gen/../tr_api_dispatch/target/armv7a-none-eabi/release/libitron.a(core-d049573bc16596f9.core.5587a85061e7188a-cgu.0.rcgu.o)
                                          0x8 (size before relaxing)
 .ARM.exidx.text._ZN4core3fmt9Formatter12pad_integral17hec47f37da301c049E
                0x0000000000141080        0x0 ./gen/../tr_api_dispatch/target/armv7a-none-eabi/release/libitron.a(core-d049573bc16596f9.core.5587a85061e7188a-cgu.0.rcgu.o)
                                          0x8 (size before relaxing)
 .ARM.exidx.text._ZN4core3fmt9Formatter12pad_integral12write_prefix17hc4c0a7a0c94985adE
                0x0000000000141080        0x0 ./gen/../tr_api_dispatch/target/armv7a-none-eabi/release/libitron.a(core-d049573bc16596f9.core.5587a85061e7188a-cgu.0.rcgu.o)
                                          0x8 (size before relaxing)
 .ARM.exidx.text._ZN4core3fmt9Formatter3pad17h8e247c0c6f258b85E
                0x0000000000141080        0x0 ./gen/../tr_api_dispatch/target/armv7a-none-eabi/release/libitron.a(core-d049573bc16596f9.core.5587a85061e7188a-cgu.0.rcgu.o)
                                          0x8 (size before relaxing)
 .ARM.exidx.text._ZN4core3fmt9Formatter19pad_formatted_parts17ha476f236f4259153E
                0x0000000000141080        0x0 ./gen/../tr_api_dispatch/target/armv7a-none-eabi/release/libitron.a(core-d049573bc16596f9.core.5587a85061e7188a-cgu.0.rcgu.o)
                                          0x8 (size before relaxing)
 .ARM.exidx.text._ZN4core3fmt9Formatter21write_formatted_parts17h76662c6af77af83aE
                0x0000000000141080        0x0 ./gen/../tr_api_dispatch/target/armv7a-none-eabi/release/libitron.a(core-d049573bc16596f9.core.5587a85061e7188a-cgu.0.rcgu.o)
                                          0x8 (size before relaxing)
 .ARM.exidx.text._ZN4core3fmt9Formatter9write_str17hdfb7ca2c4bb7964eE
                0x0000000000141080        0x0 ./gen/../tr_api_dispatch/target/armv7a-none-eabi/release/libitron.a(core-d049573bc16596f9.core.5587a85061e7188a-cgu.0.rcgu.o)
                                          0x8 (size before relaxing)
 .ARM.exidx.text._ZN4core3fmt9Formatter4fill17hffaa17a0e6fadb77E
                0x0000000000141080        0x0 ./gen/../tr_api_dispatch/target/armv7a-none-eabi/release/libitron.a(core-d049573bc16596f9.core.5587a85061e7188a-cgu.0.rcgu.o)
                                          0x8 (size before relaxing)
 .ARM.exidx.text._ZN4core3fmt9Formatter12debug_struct17he204134461ecf684E
                0x0000000000141080        0x0 ./gen/../tr_api_dispatch/target/armv7a-none-eabi/release/libitron.a(core-d049573bc16596f9.core.5587a85061e7188a-cgu.0.rcgu.o)
                                          0x8 (size before relaxing)
 .ARM.exidx.text._ZN4core3fmt9Formatter26debug_struct_field1_finish17hfc5577f397af5417E
                0x0000000000141080        0x0 ./gen/../tr_api_dispatch/target/armv7a-none-eabi/release/libitron.a(core-d049573bc16596f9.core.5587a85061e7188a-cgu.0.rcgu.o)
                                          0x8 (size before relaxing)
 .ARM.exidx.text._ZN4core3fmt9Formatter26debug_struct_field2_finish17h250937b50b7d91dbE
                0x0000000000141080        0x0 ./gen/../tr_api_dispatch/target/armv7a-none-eabi/release/libitron.a(core-d049573bc16596f9.core.5587a85061e7188a-cgu.0.rcgu.o)
                                          0x8 (size before relaxing)
 .ARM.exidx.text._ZN4core3fmt9Formatter26debug_struct_field3_finish17h2e39e36ff7dea516E
                0x0000000000141080        0x0 ./gen/../tr_api_dispatch/target/armv7a-none-eabi/release/libitron.a(core-d049573bc16596f9.core.5587a85061e7188a-cgu.0.rcgu.o)
                                          0x8 (size before relaxing)
 .ARM.exidx.text._ZN4core3fmt9Formatter26debug_struct_field4_finish17hd85fc51ea53a6480E
                0x0000000000141080        0x0 ./gen/../tr_api_dispatch/target/armv7a-none-eabi/release/libitron.a(core-d049573bc16596f9.core.5587a85061e7188a-cgu.0.rcgu.o)
                                          0x8 (size before relaxing)
 .ARM.exidx.text._ZN4core3fmt9Formatter26debug_struct_field5_finish17haacbff9cf3eec5ccE
                0x0000000000141080        0x0 ./gen/../tr_api_dispatch/target/armv7a-none-eabi/release/libitron.a(core-d049573bc16596f9.core.5587a85061e7188a-cgu.0.rcgu.o)
                                          0x8 (size before relaxing)
 .ARM.exidx.text._ZN4core3fmt9Formatter26debug_struct_fields_finish17hbc4a9600e0d1f479E
                0x0000000000141080        0x0 ./gen/../tr_api_dispatch/target/armv7a-none-eabi/release/libitron.a(core-d049573bc16596f9.core.5587a85061e7188a-cgu.0.rcgu.o)
                                          0x8 (size before relaxing)
 .ARM.exidx.text._ZN4core3fmt9Formatter11debug_tuple17h940ad0dd22d147c8E
                0x0000000000141080        0x0 ./gen/../tr_api_dispatch/target/armv7a-none-eabi/release/libitron.a(core-d049573bc16596f9.core.5587a85061e7188a-cgu.0.rcgu.o)
                                          0x8 (size before relaxing)
 .ARM.exidx.text._ZN4core3fmt9Formatter25debug_tuple_field1_finish17h3462a89b33c73d6eE
                0x0000000000141080        0x0 ./gen/../tr_api_dispatch/target/armv7a-none-eabi/release/libitron.a(core-d049573bc16596f9.core.5587a85061e7188a-cgu.0.rcgu.o)
                                          0x8 (size before relaxing)
 .ARM.exidx.text._ZN4core3fmt9Formatter25debug_tuple_field2_finish17hc4dc9b596154de93E
                0x0000000000141080        0x0 ./gen/../tr_api_dispatch/target/armv7a-none-eabi/release/libitron.a(core-d049573bc16596f9.core.5587a85061e7188a-cgu.0.rcgu.o)
                                          0x8 (size before relaxing)
 .ARM.exidx.text._ZN4core3fmt9Formatter25debug_tuple_field3_finish17h164749d4d77ab572E
                0x0000000000141080        0x0 ./gen/../tr_api_dispatch/target/armv7a-none-eabi/release/libitron.a(core-d049573bc16596f9.core.5587a85061e7188a-cgu.0.rcgu.o)
                                          0x8 (size before relaxing)
 .ARM.exidx.text._ZN4core3fmt9Formatter25debug_tuple_field4_finish17h87085ebfbf56e53eE
                0x0000000000141080        0x0 ./gen/../tr_api_dispatch/target/armv7a-none-eabi/release/libitron.a(core-d049573bc16596f9.core.5587a85061e7188a-cgu.0.rcgu.o)
                                          0x8 (size before relaxing)
 .ARM.exidx.text._ZN4core3fmt9Formatter25debug_tuple_field5_finish17he4dec699aac9d2a9E
                0x0000000000141080        0x0 ./gen/../tr_api_dispatch/target/armv7a-none-eabi/release/libitron.a(core-d049573bc16596f9.core.5587a85061e7188a-cgu.0.rcgu.o)
                                          0x8 (size before relaxing)
 .ARM.exidx.text._ZN4core3fmt9Formatter25debug_tuple_fields_finish17hb3065dfeca0f69b2E
                0x0000000000141080        0x0 ./gen/../tr_api_dispatch/target/armv7a-none-eabi/release/libitron.a(core-d049573bc16596f9.core.5587a85061e7188a-cgu.0.rcgu.o)
                                          0x8 (size before relaxing)
 .ARM.exidx.text._ZN4core3fmt9Formatter10debug_list17h324a4227e38e4e1cE
                0x0000000000141080        0x0 ./gen/../tr_api_dispatch/target/armv7a-none-eabi/release/libitron.a(core-d049573bc16596f9.core.5587a85061e7188a-cgu.0.rcgu.o)
                                          0x8 (size before relaxing)
 .ARM.exidx.text._ZN4core3fmt9Formatter9debug_set17h8342974783863c44E
                0x0000000000141080        0x0 ./gen/../tr_api_dispatch/target/armv7a-none-eabi/release/libitron.a(core-d049573bc16596f9.core.5587a85061e7188a-cgu.0.rcgu.o)
                                          0x8 (size before relaxing)
 .ARM.exidx.text._ZN4core3fmt9Formatter9debug_map17hd46370b77cf960edE
                0x0000000000141080        0x0 ./gen/../tr_api_dispatch/target/armv7a-none-eabi/release/libitron.a(core-d049573bc16596f9.core.5587a85061e7188a-cgu.0.rcgu.o)
                                          0x8 (size before relaxing)
 .ARM.exidx.text._ZN57_$LT$core..fmt..Formatter$u20$as$u20$core..fmt..Write$GT$10write_char17ha022f916fb525171E
                0x0000000000141080        0x0 ./gen/../tr_api_dispatch/target/armv7a-none-eabi/release/libitron.a(core-d049573bc16596f9.core.5587a85061e7188a-cgu.0.rcgu.o)
                                          0x8 (size before relaxing)
 .ARM.exidx.text._ZN55_$LT$core..fmt..Error$u20$as$u20$core..fmt..Display$GT$3fmt17h603b7f267edd160dE
                0x0000000000141080        0x0 ./gen/../tr_api_dispatch/target/armv7a-none-eabi/release/libitron.a(core-d049573bc16596f9.core.5587a85061e7188a-cgu.0.rcgu.o)
                                          0x8 (size before relaxing)
 .ARM.exidx.text._ZN43_$LT$bool$u20$as$u20$core..fmt..Display$GT$3fmt17h37b2e11049775da3E
                0x0000000000141080        0x0 ./gen/../tr_api_dispatch/target/armv7a-none-eabi/release/libitron.a(core-d049573bc16596f9.core.5587a85061e7188a-cgu.0.rcgu.o)
                                          0x8 (size before relaxing)
 .ARM.exidx.text._ZN40_$LT$str$u20$as$u20$core..fmt..Debug$GT$3fmt17hbfa9400b4ed4d146E
                0x0000000000141080        0x0 ./gen/../tr_api_dispatch/target/armv7a-none-eabi/release/libitron.a(core-d049573bc16596f9.core.5587a85061e7188a-cgu.0.rcgu.o)
                                          0x8 (size before relaxing)
 .ARM.exidx.text._ZN42_$LT$str$u20$as$u20$core..fmt..Display$GT$3fmt17h1a2739d2b1badf3eE
                0x0000000000141080        0x0 ./gen/../tr_api_dispatch/target/armv7a-none-eabi/release/libitron.a(core-d049573bc16596f9.core.5587a85061e7188a-cgu.0.rcgu.o)
                                          0x8 (size before relaxing)
 .ARM.exidx.text._ZN41_$LT$char$u20$as$u20$core..fmt..Debug$GT$3fmt17hf8537c7d284af8e9E
                0x0000000000141080        0x0 ./gen/../tr_api_dispatch/target/armv7a-none-eabi/release/libitron.a(core-d049573bc16596f9.core.5587a85061e7188a-cgu.0.rcgu.o)
                                          0x8 (size before relaxing)
 .ARM.exidx.text._ZN43_$LT$char$u20$as$u20$core..fmt..Display$GT$3fmt17h759ac83f19cee971E
                0x0000000000141080        0x0 ./gen/../tr_api_dispatch/target/armv7a-none-eabi/release/libitron.a(core-d049573bc16596f9.core.5587a85061e7188a-cgu.0.rcgu.o)
                                          0x8 (size before relaxing)
 .ARM.exidx.text._ZN4core3fmt17pointer_fmt_inner17h83d31351164c23f2E
                0x0000000000141080        0x0 ./gen/../tr_api_dispatch/target/armv7a-none-eabi/release/libitron.a(core-d049573bc16596f9.core.5587a85061e7188a-cgu.0.rcgu.o)
                                          0x8 (size before relaxing)
 .ARM.exidx.text._ZN52_$LT$$BP$const$u20$T$u20$as$u20$core..fmt..Debug$GT$3fmt17h52f0d6dcd4868dc8E
                0x0000000000141080        0x0 ./gen/../tr_api_dispatch/target/armv7a-none-eabi/release/libitron.a(core-d049573bc16596f9.core.5587a85061e7188a-cgu.0.rcgu.o)
                                          0x8 (size before relaxing)
 .ARM.exidx.text._ZN4core5slice6memchr14memchr_aligned17hf608187b782eb764E
                0x0000000000141080        0x0 ./gen/../tr_api_dispatch/target/armv7a-none-eabi/release/libitron.a(core-d049573bc16596f9.core.5587a85061e7188a-cgu.0.rcgu.o)
                                          0x8 (size before relaxing)
 .ARM.exidx.text._ZN4core5slice6memchr7memrchr17h1b5e6bee0cdc7e3cE
                0x0000000000141080        0x0 ./gen/../tr_api_dispatch/target/armv7a-none-eabi/release/libitron.a(core-d049573bc16596f9.core.5587a85061e7188a-cgu.0.rcgu.o)
                                          0x8 (size before relaxing)
 .ARM.exidx.text._ZN4core5slice4sort6stable5drift11sqrt_approx17heb7d8e344c813c3bE
                0x0000000000141080        0x0 ./gen/../tr_api_dispatch/target/armv7a-none-eabi/release/libitron.a(core-d049573bc16596f9.core.5587a85061e7188a-cgu.0.rcgu.o)
                                          0x8 (size before relaxing)
 .ARM.exidx.text.unlikely._ZN4core5slice4sort6shared9smallsort22panic_on_ord_violation17h26f42ac12335c738E
                0x0000000000141080        0x0 ./gen/../tr_api_dispatch/target/armv7a-none-eabi/release/libitron.a(core-d049573bc16596f9.core.5587a85061e7188a-cgu.0.rcgu.o)
                                          0x8 (size before relaxing)
 .ARM.exidx.text._ZN105_$LT$core..slice..ascii..EscapeAscii$u20$as$u20$core..iter..traits..double_ended..DoubleEndedIterator$GT$9next_back17h58b0f7ecc71c56abE
                0x0000000000141080        0x0 ./gen/../tr_api_dispatch/target/armv7a-none-eabi/release/libitron.a(core-d049573bc16596f9.core.5587a85061e7188a-cgu.0.rcgu.o)
                                          0x8 (size before relaxing)
 .ARM.exidx.text._ZN70_$LT$core..slice..ascii..EscapeAscii$u20$as$u20$core..fmt..Display$GT$3fmt17h29e51c0221cfc6f4E
                0x0000000000141080        0x0 ./gen/../tr_api_dispatch/target/armv7a-none-eabi/release/libitron.a(core-d049573bc16596f9.core.5587a85061e7188a-cgu.0.rcgu.o)
                                          0x8 (size before relaxing)
 .ARM.exidx.text._ZN68_$LT$core..slice..ascii..EscapeAscii$u20$as$u20$core..fmt..Debug$GT$3fmt17hbb33b900076cece0E
                0x0000000000141080        0x0 ./gen/../tr_api_dispatch/target/armv7a-none-eabi/release/libitron.a(core-d049573bc16596f9.core.5587a85061e7188a-cgu.0.rcgu.o)
                                          0x8 (size before relaxing)
 .ARM.exidx.text.unlikely._ZN4core5slice5index26slice_start_index_len_fail17h38c824b450734dfcE
                0x0000000000141080        0x0 ./gen/../tr_api_dispatch/target/armv7a-none-eabi/release/libitron.a(core-d049573bc16596f9.core.5587a85061e7188a-cgu.0.rcgu.o)
                                          0x8 (size before relaxing)
 .ARM.exidx.text.unlikely._ZN4core5slice5index24slice_end_index_len_fail17hf4eb2611058c09afE
                0x0000000000141080        0x0 ./gen/../tr_api_dispatch/target/armv7a-none-eabi/release/libitron.a(core-d049573bc16596f9.core.5587a85061e7188a-cgu.0.rcgu.o)
                                          0x8 (size before relaxing)
 .ARM.exidx.text.unlikely._ZN4core5slice5index22slice_index_order_fail17hb31f14bd82bfcb5bE
                0x0000000000141080        0x0 ./gen/../tr_api_dispatch/target/armv7a-none-eabi/release/libitron.a(core-d049573bc16596f9.core.5587a85061e7188a-cgu.0.rcgu.o)
                                          0x8 (size before relaxing)
 .ARM.exidx.text.unlikely._ZN4core5slice5index31slice_start_index_overflow_fail17h682402ba819c482dE
                0x0000000000141080        0x0 ./gen/../tr_api_dispatch/target/armv7a-none-eabi/release/libitron.a(core-d049573bc16596f9.core.5587a85061e7188a-cgu.0.rcgu.o)
                                          0x8 (size before relaxing)
 .ARM.exidx.text.unlikely._ZN4core5slice5index29slice_end_index_overflow_fail17h6d8526257621818dE
                0x0000000000141080        0x0 ./gen/../tr_api_dispatch/target/armv7a-none-eabi/release/libitron.a(core-d049573bc16596f9.core.5587a85061e7188a-cgu.0.rcgu.o)
                                          0x8 (size before relaxing)
 .ARM.exidx.text._ZN4core5slice5index10into_range17h838d5809396762d6E
                0x0000000000141080        0x0 ./gen/../tr_api_dispatch/target/armv7a-none-eabi/release/libitron.a(core-d049573bc16596f9.core.5587a85061e7188a-cgu.0.rcgu.o)
                                          0x8 (size before relaxing)
 .ARM.exidx.text._ZN4core5slice5index16into_slice_range17h4e76af1b067ea36eE
                0x0000000000141080        0x0 ./gen/../tr_api_dispatch/target/armv7a-none-eabi/release/libitron.a(core-d049573bc16596f9.core.5587a85061e7188a-cgu.0.rcgu.o)
                                          0x8 (size before relaxing)
 .ARM.exidx.text.unlikely._ZN4core5slice29_$LT$impl$u20$$u5b$T$u5d$$GT$15copy_from_slice17len_mismatch_fail17hf3c6b69109ca94ceE
                0x0000000000141080        0x0 ./gen/../tr_api_dispatch/target/armv7a-none-eabi/release/libitron.a(core-d049573bc16596f9.core.5587a85061e7188a-cgu.0.rcgu.o)
                                          0x8 (size before relaxing)
 .ARM.exidx.text._ZN4core5slice29_$LT$impl$u20$$u5b$T$u5d$$GT$16align_to_offsets3gcd17h9ccf75cedf78b32bE
                0x0000000000141080        0x0 ./gen/../tr_api_dispatch/target/armv7a-none-eabi/release/libitron.a(core-d049573bc16596f9.core.5587a85061e7188a-cgu.0.rcgu.o)
                                          0x8 (size before relaxing)
 .ARM.exidx.text._ZN71_$LT$core..slice..GetDisjointMutError$u20$as$u20$core..fmt..Display$GT$3fmt17h67ba63dcac76d19cE
                0x0000000000141080        0x0 ./gen/../tr_api_dispatch/target/armv7a-none-eabi/release/libitron.a(core-d049573bc16596f9.core.5587a85061e7188a-cgu.0.rcgu.o)
                                          0x8 (size before relaxing)
 .ARM.exidx.text._ZN4core3str8converts9from_utf817h69ed1439eba52b92E
                0x0000000000141080        0x0 ./gen/../tr_api_dispatch/target/armv7a-none-eabi/release/libitron.a(core-d049573bc16596f9.core.5587a85061e7188a-cgu.0.rcgu.o)
                                          0x8 (size before relaxing)
 .ARM.exidx.text._ZN4core3str8converts13from_utf8_mut17h4e3a295159d63a91E
                0x0000000000141080        0x0 ./gen/../tr_api_dispatch/target/armv7a-none-eabi/release/libitron.a(core-d049573bc16596f9.core.5587a85061e7188a-cgu.0.rcgu.o)
                                          0x8 (size before relaxing)
 .ARM.exidx.text._ZN4core3str5count14do_count_chars17h9cffd9e3dec45553E
                0x0000000000141080        0x0 ./gen/../tr_api_dispatch/target/armv7a-none-eabi/release/libitron.a(core-d049573bc16596f9.core.5587a85061e7188a-cgu.0.rcgu.o)
                                          0x8 (size before relaxing)
 .ARM.exidx.text._ZN4core3str5count23char_count_general_case17h4d4c6ce16c4d1906E
                0x0000000000141080        0x0 ./gen/../tr_api_dispatch/target/armv7a-none-eabi/release/libitron.a(core-d049573bc16596f9.core.5587a85061e7188a-cgu.0.rcgu.o)
                                          0x8 (size before relaxing)
 .ARM.exidx.text._ZN66_$LT$core..str..error..Utf8Error$u20$as$u20$core..fmt..Display$GT$3fmt17h291d6cbe57b75336E
                0x0000000000141080        0x0 ./gen/../tr_api_dispatch/target/armv7a-none-eabi/release/libitron.a(core-d049573bc16596f9.core.5587a85061e7188a-cgu.0.rcgu.o)
                                          0x8 (size before relaxing)
 .ARM.exidx.text._ZN71_$LT$core..str..error..ParseBoolError$u20$as$u20$core..fmt..Display$GT$3fmt17h8ff3dff7cf95e9f3E
                0x0000000000141080        0x0 ./gen/../tr_api_dispatch/target/armv7a-none-eabi/release/libitron.a(core-d049573bc16596f9.core.5587a85061e7188a-cgu.0.rcgu.o)
                                          0x8 (size before relaxing)
 .ARM.exidx.text._ZN59_$LT$core..str..iter..Chars$u20$as$u20$core..fmt..Debug$GT$3fmt17hc296714f5aca8f63E
                0x0000000000141080        0x0 ./gen/../tr_api_dispatch/target/armv7a-none-eabi/release/libitron.a(core-d049573bc16596f9.core.5587a85061e7188a-cgu.0.rcgu.o)
                                          0x8 (size before relaxing)
 .ARM.exidx.text._ZN65_$LT$core..str..iter..EncodeUtf16$u20$as$u20$core..fmt..Debug$GT$3fmt17h470f6ac5da350b32E
                0x0000000000141080        0x0 ./gen/../tr_api_dispatch/target/armv7a-none-eabi/release/libitron.a(core-d049573bc16596f9.core.5587a85061e7188a-cgu.0.rcgu.o)
                                          0x8 (size before relaxing)
 .ARM.exidx.text.unlikely._ZN4core3str6traits23str_index_overflow_fail17h8bf11899d5e405f7E
                0x0000000000141080        0x0 ./gen/../tr_api_dispatch/target/armv7a-none-eabi/release/libitron.a(core-d049573bc16596f9.core.5587a85061e7188a-cgu.0.rcgu.o)
                                          0x8 (size before relaxing)
 .ARM.exidx.text._ZN4core3str7pattern11StrSearcher3new17h9540c37606476449E
                0x0000000000141080        0x0 ./gen/../tr_api_dispatch/target/armv7a-none-eabi/release/libitron.a(core-d049573bc16596f9.core.5587a85061e7188a-cgu.0.rcgu.o)
                                          0x8 (size before relaxing)
 .ARM.exidx.text._ZN60_$LT$core..str..lossy..Debug$u20$as$u20$core..fmt..Debug$GT$3fmt17h8e77771fab7a2f70E
                0x0000000000141080        0x0 ./gen/../tr_api_dispatch/target/armv7a-none-eabi/release/libitron.a(core-d049573bc16596f9.core.5587a85061e7188a-cgu.0.rcgu.o)
                                          0x8 (size before relaxing)
 .ARM.exidx.text._ZN87_$LT$core..str..lossy..Utf8Chunks$u20$as$u20$core..iter..traits..iterator..Iterator$GT$4next17he7d6cc4011e7786bE
                0x0000000000141080        0x0 ./gen/../tr_api_dispatch/target/armv7a-none-eabi/release/libitron.a(core-d049573bc16596f9.core.5587a85061e7188a-cgu.0.rcgu.o)
                                          0x8 (size before relaxing)
 .ARM.exidx.text._ZN65_$LT$core..str..lossy..Utf8Chunks$u20$as$u20$core..fmt..Debug$GT$3fmt17h9c45e8ae8211e985E
                0x0000000000141080        0x0 ./gen/../tr_api_dispatch/target/armv7a-none-eabi/release/libitron.a(core-d049573bc16596f9.core.5587a85061e7188a-cgu.0.rcgu.o)
                                          0x8 (size before relaxing)
 .ARM.exidx.text.unlikely._ZN4core3str16slice_error_fail17h4d59bc1e755bbe4fE
                0x0000000000141080        0x0 ./gen/../tr_api_dispatch/target/armv7a-none-eabi/release/libitron.a(core-d049573bc16596f9.core.5587a85061e7188a-cgu.0.rcgu.o)
                                          0x8 (size before relaxing)
 .ARM.exidx.text.unlikely._ZN4core3str19slice_error_fail_ct17hb73804428b3ba7caE
                0x0000000000141080        0x0 ./gen/../tr_api_dispatch/target/armv7a-none-eabi/release/libitron.a(core-d049573bc16596f9.core.5587a85061e7188a-cgu.0.rcgu.o)
                                          0x8 (size before relaxing)
 .ARM.exidx.text._ZN4core3str19slice_error_fail_rt17h7b2b73d8d28473e0E
                0x0000000000141080        0x0 ./gen/../tr_api_dispatch/target/armv7a-none-eabi/release/libitron.a(core-d049573bc16596f9.core.5587a85061e7188a-cgu.0.rcgu.o)
                                          0x8 (size before relaxing)
 .ARM.exidx.text._ZN4core3str21_$LT$impl$u20$str$GT$9from_utf817h9c50c6b49793a8caE
                0x0000000000141080        0x0 ./gen/../tr_api_dispatch/target/armv7a-none-eabi/release/libitron.a(core-d049573bc16596f9.core.5587a85061e7188a-cgu.0.rcgu.o)
                                          0x8 (size before relaxing)
 .ARM.exidx.text._ZN4core3str21_$LT$impl$u20$str$GT$13from_utf8_mut17hf789198352a0c0d6E
                0x0000000000141080        0x0 ./gen/../tr_api_dispatch/target/armv7a-none-eabi/release/libitron.a(core-d049573bc16596f9.core.5587a85061e7188a-cgu.0.rcgu.o)
                                          0x8 (size before relaxing)
 .ARM.exidx.text._ZN4core3str21_$LT$impl$u20$str$GT$18split_at_unchecked17h522070e8531a247cE
                0x0000000000141080        0x0 ./gen/../tr_api_dispatch/target/armv7a-none-eabi/release/libitron.a(core-d049573bc16596f9.core.5587a85061e7188a-cgu.0.rcgu.o)
                                          0x8 (size before relaxing)
 .ARM.exidx.text._ZN4core3str21_$LT$impl$u20$str$GT$22split_at_mut_unchecked17h188b8cf0a61e80b3E
                0x0000000000141080        0x0 ./gen/../tr_api_dispatch/target/armv7a-none-eabi/release/libitron.a(core-d049573bc16596f9.core.5587a85061e7188a-cgu.0.rcgu.o)
                                          0x8 (size before relaxing)
 .ARM.exidx.text._ZN4core3str21_$LT$impl$u20$str$GT$12escape_debug17h4c843b37cf90aab8E
                0x0000000000141080        0x0 ./gen/../tr_api_dispatch/target/armv7a-none-eabi/release/libitron.a(core-d049573bc16596f9.core.5587a85061e7188a-cgu.0.rcgu.o)
                                          0x8 (size before relaxing)
 .ARM.exidx.text._ZN4core3str21_$LT$impl$u20$str$GT$12substr_range17ha623b8a5a8d1bca1E
                0x0000000000141080        0x0 ./gen/../tr_api_dispatch/target/armv7a-none-eabi/release/libitron.a(core-d049573bc16596f9.core.5587a85061e7188a-cgu.0.rcgu.o)
                                          0x8 (size before relaxing)
 .ARM.exidx.text._ZN57_$LT$core..time..Duration$u20$as$u20$core..fmt..Debug$GT$3fmt17hcd9ec431bc2fce92E
                0x0000000000141080        0x0 ./gen/../tr_api_dispatch/target/armv7a-none-eabi/release/libitron.a(core-d049573bc16596f9.core.5587a85061e7188a-cgu.0.rcgu.o)
                                          0x8 (size before relaxing)
 .ARM.exidx.text._ZN57_$LT$core..time..Duration$u20$as$u20$core..fmt..Debug$GT$3fmt11fmt_decimal17h7fdaad1885d942cdE
                0x0000000000141080        0x0 ./gen/../tr_api_dispatch/target/armv7a-none-eabi/release/libitron.a(core-d049573bc16596f9.core.5587a85061e7188a-cgu.0.rcgu.o)
                                          0x8 (size before relaxing)
 .ARM.exidx.text._ZN57_$LT$core..time..Duration$u20$as$u20$core..fmt..Debug$GT$3fmt11fmt_decimal28_$u7b$$u7b$closure$u7d$$u7d$17hbee2c0b3604668e7E
                0x0000000000141080        0x0 ./gen/../tr_api_dispatch/target/armv7a-none-eabi/release/libitron.a(core-d049573bc16596f9.core.5587a85061e7188a-cgu.0.rcgu.o)
                                          0x8 (size before relaxing)
 .ARM.exidx.text._ZN72_$LT$core..time..TryFromFloatSecsError$u20$as$u20$core..fmt..Display$GT$3fmt17hbbacbc01f2a2ba20E
                0x0000000000141080        0x0 ./gen/../tr_api_dispatch/target/armv7a-none-eabi/release/libitron.a(core-d049573bc16596f9.core.5587a85061e7188a-cgu.0.rcgu.o)
                                          0x8 (size before relaxing)
 .ARM.exidx.text._ZN4core7unicode9printable5check17hc9e6c3ef98e586f8E
                0x0000000000141080        0x0 ./gen/../tr_api_dispatch/target/armv7a-none-eabi/release/libitron.a(core-d049573bc16596f9.core.5587a85061e7188a-cgu.0.rcgu.o)
                                          0x8 (size before relaxing)
 .ARM.exidx.text._ZN4core7unicode9printable12is_printable17he99174ef5bcc9597E
                0x0000000000141080        0x0 ./gen/../tr_api_dispatch/target/armv7a-none-eabi/release/libitron.a(core-d049573bc16596f9.core.5587a85061e7188a-cgu.0.rcgu.o)
                                          0x8 (size before relaxing)
 .ARM.exidx.text._ZN62_$LT$core..task..wake..Context$u20$as$u20$core..fmt..Debug$GT$3fmt17h2b9656f805ec1368E
                0x0000000000141080        0x0 ./gen/../tr_api_dispatch/target/armv7a-none-eabi/release/libitron.a(core-d049573bc16596f9.core.5587a85061e7188a-cgu.0.rcgu.o)
                                          0x8 (size before relaxing)
 .ARM.exidx.text._ZN60_$LT$core..task..wake..Waker$u20$as$u20$core..fmt..Debug$GT$3fmt17h961c0fb15e9f08e6E
                0x0000000000141080        0x0 ./gen/../tr_api_dispatch/target/armv7a-none-eabi/release/libitron.a(core-d049573bc16596f9.core.5587a85061e7188a-cgu.0.rcgu.o)
                                          0x8 (size before relaxing)
 .ARM.exidx.text._ZN65_$LT$core..task..wake..LocalWaker$u20$as$u20$core..fmt..Debug$GT$3fmt17h9f8823dc3c851087E
                0x0000000000141080        0x0 ./gen/../tr_api_dispatch/target/armv7a-none-eabi/release/libitron.a(core-d049573bc16596f9.core.5587a85061e7188a-cgu.0.rcgu.o)
                                          0x8 (size before relaxing)
 .ARM.exidx.text._ZN4core5alloc6layout6Layout19is_size_align_valid17hf9c352be39c461d0E
                0x0000000000141080        0x0 ./gen/../tr_api_dispatch/target/armv7a-none-eabi/release/libitron.a(core-d049573bc16596f9.core.5587a85061e7188a-cgu.0.rcgu.o)
                                          0x8 (size before relaxing)
 .ARM.exidx.text._ZN71_$LT$core..alloc..layout..LayoutError$u20$as$u20$core..fmt..Display$GT$3fmt17hdfc7ce4964ee7964E
                0x0000000000141080        0x0 ./gen/../tr_api_dispatch/target/armv7a-none-eabi/release/libitron.a(core-d049573bc16596f9.core.5587a85061e7188a-cgu.0.rcgu.o)
                                          0x8 (size before relaxing)
 .ARM.exidx.text._ZN62_$LT$core..alloc..AllocError$u20$as$u20$core..fmt..Display$GT$3fmt17h096a3621f7a659a9E
                0x0000000000141080        0x0 ./gen/../tr_api_dispatch/target/armv7a-none-eabi/release/libitron.a(core-d049573bc16596f9.core.5587a85061e7188a-cgu.0.rcgu.o)
                                          0x8 (size before relaxing)
 .ARM.exidx.text.unlikely._ZN4core3f3221_$LT$impl$u20$f32$GT$5clamp8do_panic7runtime17hd78a99da53448aa4E
                0x0000000000141080        0x0 ./gen/../tr_api_dispatch/target/armv7a-none-eabi/release/libitron.a(core-d049573bc16596f9.core.5587a85061e7188a-cgu.0.rcgu.o)
                                          0x8 (size before relaxing)
 .ARM.exidx.text.unlikely._ZN4core3f6421_$LT$impl$u20$f64$GT$5clamp8do_panic7runtime17h70e260bb90954182E
                0x0000000000141080        0x0 ./gen/../tr_api_dispatch/target/armv7a-none-eabi/release/libitron.a(core-d049573bc16596f9.core.5587a85061e7188a-cgu.0.rcgu.o)
                                          0x8 (size before relaxing)
 .ARM.exidx.text._ZN49_$LT$u8$u20$as$u20$core..num..bignum..FullOps$GT$12full_div_rem17h2cc384f2d3e77a4fE
                0x0000000000141080        0x0 ./gen/../tr_api_dispatch/target/armv7a-none-eabi/release/libitron.a(core-d049573bc16596f9.core.5587a85061e7188a-cgu.0.rcgu.o)
                                          0x8 (size before relaxing)
 .ARM.exidx.text._ZN50_$LT$u16$u20$as$u20$core..num..bignum..FullOps$GT$12full_div_rem17h895795127941bc5fE
                0x0000000000141080        0x0 ./gen/../tr_api_dispatch/target/armv7a-none-eabi/release/libitron.a(core-d049573bc16596f9.core.5587a85061e7188a-cgu.0.rcgu.o)
                                          0x8 (size before relaxing)
 .ARM.exidx.text._ZN50_$LT$u32$u20$as$u20$core..num..bignum..FullOps$GT$12full_div_rem17h28797f3a608675a0E
                0x0000000000141080        0x0 ./gen/../tr_api_dispatch/target/armv7a-none-eabi/release/libitron.a(core-d049573bc16596f9.core.5587a85061e7188a-cgu.0.rcgu.o)
                                          0x8 (size before relaxing)
 .ARM.exidx.text._ZN4core3num6bignum8Big32x408from_u6417hdb3b6b903cdc3a74E
                0x0000000000141080        0x0 ./gen/../tr_api_dispatch/target/armv7a-none-eabi/release/libitron.a(core-d049573bc16596f9.core.5587a85061e7188a-cgu.0.rcgu.o)
                                          0x8 (size before relaxing)
 .ARM.exidx.text._ZN4core3num6bignum8Big32x406digits17hc74a7300cf748785E
                0x0000000000141080        0x0 ./gen/../tr_api_dispatch/target/armv7a-none-eabi/release/libitron.a(core-d049573bc16596f9.core.5587a85061e7188a-cgu.0.rcgu.o)
                                          0x8 (size before relaxing)
 .ARM.exidx.text._ZN4core3num6bignum8Big32x407get_bit17hae59a386b0269424E
                0x0000000000141080        0x0 ./gen/../tr_api_dispatch/target/armv7a-none-eabi/release/libitron.a(core-d049573bc16596f9.core.5587a85061e7188a-cgu.0.rcgu.o)
                                          0x8 (size before relaxing)
 .ARM.exidx.text._ZN4core3num6bignum8Big32x407is_zero17h00d7531c94d29d9dE
                0x0000000000141080        0x0 ./gen/../tr_api_dispatch/target/armv7a-none-eabi/release/libitron.a(core-d049573bc16596f9.core.5587a85061e7188a-cgu.0.rcgu.o)
                                          0x8 (size before relaxing)
 .ARM.exidx.text._ZN4core3num6bignum8Big32x4010bit_length17h970dea92bc07a054E
                0x0000000000141080        0x0 ./gen/../tr_api_dispatch/target/armv7a-none-eabi/release/libitron.a(core-d049573bc16596f9.core.5587a85061e7188a-cgu.0.rcgu.o)
                                          0x8 (size before relaxing)
 .ARM.exidx.text._ZN4core3num6bignum8Big32x403add17hf98911729d873c67E
                0x0000000000141080        0x0 ./gen/../tr_api_dispatch/target/armv7a-none-eabi/release/libitron.a(core-d049573bc16596f9.core.5587a85061e7188a-cgu.0.rcgu.o)
                                          0x8 (size before relaxing)
 .ARM.exidx.text._ZN4core3num6bignum8Big32x409add_small17hae56cb6d24b5dd80E
                0x0000000000141080        0x0 ./gen/../tr_api_dispatch/target/armv7a-none-eabi/release/libitron.a(core-d049573bc16596f9.core.5587a85061e7188a-cgu.0.rcgu.o)
                                          0x8 (size before relaxing)
 .ARM.exidx.text._ZN4core3num6bignum8Big32x403sub17h8543d30192c621ccE
                0x0000000000141080        0x0 ./gen/../tr_api_dispatch/target/armv7a-none-eabi/release/libitron.a(core-d049573bc16596f9.core.5587a85061e7188a-cgu.0.rcgu.o)
                                          0x8 (size before relaxing)
 .ARM.exidx.text._ZN4core3num6bignum8Big32x409mul_small17h34ad2799e68baebeE
                0x0000000000141080        0x0 ./gen/../tr_api_dispatch/target/armv7a-none-eabi/release/libitron.a(core-d049573bc16596f9.core.5587a85061e7188a-cgu.0.rcgu.o)
                                          0x8 (size before relaxing)
 .ARM.exidx.text._ZN4core3num6bignum8Big32x408mul_pow217h15e29a86c60dd6baE
                0x0000000000141080        0x0 ./gen/../tr_api_dispatch/target/armv7a-none-eabi/release/libitron.a(core-d049573bc16596f9.core.5587a85061e7188a-cgu.0.rcgu.o)
                                          0x8 (size before relaxing)
 .ARM.exidx.text._ZN4core3num6bignum8Big32x408mul_pow517h4477c92c4a717ba9E
                0x0000000000141080        0x0 ./gen/../tr_api_dispatch/target/armv7a-none-eabi/release/libitron.a(core-d049573bc16596f9.core.5587a85061e7188a-cgu.0.rcgu.o)
                                          0x8 (size before relaxing)
 .ARM.exidx.text._ZN4core3num6bignum8Big32x4010mul_digits17hc6f1ffa637e3696eE
                0x0000000000141080        0x0 ./gen/../tr_api_dispatch/target/armv7a-none-eabi/release/libitron.a(core-d049573bc16596f9.core.5587a85061e7188a-cgu.0.rcgu.o)
                                          0x8 (size before relaxing)
 .ARM.exidx.text._ZN4core3num6bignum8Big32x4013div_rem_small17hddc1707b10a22fddE
                0x0000000000141080        0x0 ./gen/../tr_api_dispatch/target/armv7a-none-eabi/release/libitron.a(core-d049573bc16596f9.core.5587a85061e7188a-cgu.0.rcgu.o)
                                          0x8 (size before relaxing)
 .ARM.exidx.text._ZN4core3num6bignum8Big32x407div_rem17h0bf0c17f8e59470eE
                0x0000000000141080        0x0 ./gen/../tr_api_dispatch/target/armv7a-none-eabi/release/libitron.a(core-d049573bc16596f9.core.5587a85061e7188a-cgu.0.rcgu.o)
                                          0x8 (size before relaxing)
 .ARM.exidx.text._ZN68_$LT$core..num..bignum..Big32x40$u20$as$u20$core..cmp..PartialEq$GT$2eq17h2b3b2b69262323daE
                0x0000000000141080        0x0 ./gen/../tr_api_dispatch/target/armv7a-none-eabi/release/libitron.a(core-d049573bc16596f9.core.5587a85061e7188a-cgu.0.rcgu.o)
                                          0x8 (size before relaxing)
 .ARM.exidx.text._ZN69_$LT$core..num..bignum..Big32x40$u20$as$u20$core..cmp..PartialOrd$GT$11partial_cmp17hfaa047bbd7529c6dE
                0x0000000000141080        0x0 ./gen/../tr_api_dispatch/target/armv7a-none-eabi/release/libitron.a(core-d049573bc16596f9.core.5587a85061e7188a-cgu.0.rcgu.o)
                                          0x8 (size before relaxing)
 .ARM.exidx.text._ZN62_$LT$core..num..bignum..Big32x40$u20$as$u20$core..cmp..Ord$GT$3cmp17h3a927d79b9dd52acE
                0x0000000000141080        0x0 ./gen/../tr_api_dispatch/target/armv7a-none-eabi/release/libitron.a(core-d049573bc16596f9.core.5587a85061e7188a-cgu.0.rcgu.o)
                                          0x8 (size before relaxing)
 .ARM.exidx.text._ZN64_$LT$core..num..bignum..Big32x40$u20$as$u20$core..fmt..Debug$GT$3fmt17hc2049124d32db79eE
                0x0000000000141080        0x0 ./gen/../tr_api_dispatch/target/armv7a-none-eabi/release/libitron.a(core-d049573bc16596f9.core.5587a85061e7188a-cgu.0.rcgu.o)
                                          0x8 (size before relaxing)
 .ARM.exidx.text._ZN4core3num6bignum5tests6Big8x38from_u6417hd68b6d9a5152475dE
                0x0000000000141080        0x0 ./gen/../tr_api_dispatch/target/armv7a-none-eabi/release/libitron.a(core-d049573bc16596f9.core.5587a85061e7188a-cgu.0.rcgu.o)
                                          0x8 (size before relaxing)
 .ARM.exidx.text._ZN4core3num6bignum5tests6Big8x36digits17he3519563a60c1407E
                0x0000000000141080        0x0 ./gen/../tr_api_dispatch/target/armv7a-none-eabi/release/libitron.a(core-d049573bc16596f9.core.5587a85061e7188a-cgu.0.rcgu.o)
                                          0x8 (size before relaxing)
 .ARM.exidx.text._ZN4core3num6bignum5tests6Big8x37get_bit17h3c0e105d94bd5b13E
                0x0000000000141080        0x0 ./gen/../tr_api_dispatch/target/armv7a-none-eabi/release/libitron.a(core-d049573bc16596f9.core.5587a85061e7188a-cgu.0.rcgu.o)
                                          0x8 (size before relaxing)
 .ARM.exidx.text._ZN4core3num6bignum5tests6Big8x37is_zero17h32e72f5d7dbb5adbE
                0x0000000000141080        0x0 ./gen/../tr_api_dispatch/target/armv7a-none-eabi/release/libitron.a(core-d049573bc16596f9.core.5587a85061e7188a-cgu.0.rcgu.o)
                                          0x8 (size before relaxing)
 .ARM.exidx.text._ZN4core3num6bignum5tests6Big8x310bit_length17h83652b24f2592b66E
                0x0000000000141080        0x0 ./gen/../tr_api_dispatch/target/armv7a-none-eabi/release/libitron.a(core-d049573bc16596f9.core.5587a85061e7188a-cgu.0.rcgu.o)
                                          0x8 (size before relaxing)
 .ARM.exidx.text._ZN4core3num6bignum5tests6Big8x33add17h0ea9b7b009d144c0E
                0x0000000000141080        0x0 ./gen/../tr_api_dispatch/target/armv7a-none-eabi/release/libitron.a(core-d049573bc16596f9.core.5587a85061e7188a-cgu.0.rcgu.o)
                                          0x8 (size before relaxing)
 .ARM.exidx.text._ZN4core3num6bignum5tests6Big8x39add_small17hfb578bb3ef3121e5E
                0x0000000000141080        0x0 ./gen/../tr_api_dispatch/target/armv7a-none-eabi/release/libitron.a(core-d049573bc16596f9.core.5587a85061e7188a-cgu.0.rcgu.o)
                                          0x8 (size before relaxing)
 .ARM.exidx.text._ZN4core3num6bignum5tests6Big8x33sub17he7cc307db19dcf38E
                0x0000000000141080        0x0 ./gen/../tr_api_dispatch/target/armv7a-none-eabi/release/libitron.a(core-d049573bc16596f9.core.5587a85061e7188a-cgu.0.rcgu.o)
                                          0x8 (size before relaxing)
 .ARM.exidx.text._ZN4core3num6bignum5tests6Big8x39mul_small17h88500d5dffbe03a5E
                0x0000000000141080        0x0 ./gen/../tr_api_dispatch/target/armv7a-none-eabi/release/libitron.a(core-d049573bc16596f9.core.5587a85061e7188a-cgu.0.rcgu.o)
                                          0x8 (size before relaxing)
 .ARM.exidx.text._ZN4core3num6bignum5tests6Big8x38mul_pow217h7241f869c32bebc8E
                0x0000000000141080        0x0 ./gen/../tr_api_dispatch/target/armv7a-none-eabi/release/libitron.a(core-d049573bc16596f9.core.5587a85061e7188a-cgu.0.rcgu.o)
                                          0x8 (size before relaxing)
 .ARM.exidx.text._ZN4core3num6bignum5tests6Big8x38mul_pow517hbf8d1887a577d4b9E
                0x0000000000141080        0x0 ./gen/../tr_api_dispatch/target/armv7a-none-eabi/release/libitron.a(core-d049573bc16596f9.core.5587a85061e7188a-cgu.0.rcgu.o)
                                          0x8 (size before relaxing)
 .ARM.exidx.text._ZN4core3num6bignum5tests6Big8x310mul_digits17hc92e3128bf16df9bE
                0x0000000000141080        0x0 ./gen/../tr_api_dispatch/target/armv7a-none-eabi/release/libitron.a(core-d049573bc16596f9.core.5587a85061e7188a-cgu.0.rcgu.o)
                                          0x8 (size before relaxing)
 .ARM.exidx.text._ZN4core3num6bignum5tests6Big8x313div_rem_small17h3d76b4dc7e13bdf9E
                0x0000000000141080        0x0 ./gen/../tr_api_dispatch/target/armv7a-none-eabi/release/libitron.a(core-d049573bc16596f9.core.5587a85061e7188a-cgu.0.rcgu.o)
                                          0x8 (size before relaxing)
 .ARM.exidx.text._ZN4core3num6bignum5tests6Big8x37div_rem17hd07a45cafecfa95dE
                0x0000000000141080        0x0 ./gen/../tr_api_dispatch/target/armv7a-none-eabi/release/libitron.a(core-d049573bc16596f9.core.5587a85061e7188a-cgu.0.rcgu.o)
                                          0x8 (size before relaxing)
 .ARM.exidx.text._ZN73_$LT$core..num..bignum..tests..Big8x3$u20$as$u20$core..cmp..PartialEq$GT$2eq17h2a5bec94bf0063b9E
                0x0000000000141080        0x0 ./gen/../tr_api_dispatch/target/armv7a-none-eabi/release/libitron.a(core-d049573bc16596f9.core.5587a85061e7188a-cgu.0.rcgu.o)
                                          0x8 (size before relaxing)
 .ARM.exidx.text._ZN74_$LT$core..num..bignum..tests..Big8x3$u20$as$u20$core..cmp..PartialOrd$GT$11partial_cmp17h48d5846d2573a5e1E
                0x0000000000141080        0x0 ./gen/../tr_api_dispatch/target/armv7a-none-eabi/release/libitron.a(core-d049573bc16596f9.core.5587a85061e7188a-cgu.0.rcgu.o)
                                          0x8 (size before relaxing)
 .ARM.exidx.text._ZN67_$LT$core..num..bignum..tests..Big8x3$u20$as$u20$core..cmp..Ord$GT$3cmp17h8a7502baf7f3c9a5E
                0x0000000000141080        0x0 ./gen/../tr_api_dispatch/target/armv7a-none-eabi/release/libitron.a(core-d049573bc16596f9.core.5587a85061e7188a-cgu.0.rcgu.o)
                                          0x8 (size before relaxing)
 .ARM.exidx.text._ZN69_$LT$core..num..bignum..tests..Big8x3$u20$as$u20$core..fmt..Debug$GT$3fmt17hf9300f71b8428542E
                0x0000000000141080        0x0 ./gen/../tr_api_dispatch/target/armv7a-none-eabi/release/libitron.a(core-d049573bc16596f9.core.5587a85061e7188a-cgu.0.rcgu.o)
                                          0x8 (size before relaxing)
 .ARM.exidx.text._ZN4core3num7dec2flt60_$LT$impl$u20$core..str..traits..FromStr$u20$for$u20$f16$GT$8from_str17h0d34f16cb03d4084E
                0x0000000000141080        0x0 ./gen/../tr_api_dispatch/target/armv7a-none-eabi/release/libitron.a(core-d049573bc16596f9.core.5587a85061e7188a-cgu.0.rcgu.o)
                                          0x8 (size before relaxing)
 .ARM.exidx.text._ZN4core3num7dec2flt60_$LT$impl$u20$core..str..traits..FromStr$u20$for$u20$f32$GT$8from_str17haab41bb9ce3e1e69E
                0x0000000000141080        0x0 ./gen/../tr_api_dispatch/target/armv7a-none-eabi/release/libitron.a(core-d049573bc16596f9.core.5587a85061e7188a-cgu.0.rcgu.o)
                                          0x8 (size before relaxing)
 .ARM.exidx.text._ZN4core3num7dec2flt60_$LT$impl$u20$core..str..traits..FromStr$u20$for$u20$f64$GT$8from_str17h9934b968a57533b4E
                0x0000000000141080        0x0 ./gen/../tr_api_dispatch/target/armv7a-none-eabi/release/libitron.a(core-d049573bc16596f9.core.5587a85061e7188a-cgu.0.rcgu.o)
                                          0x8 (size before relaxing)
 .ARM.exidx.text._ZN73_$LT$core..num..nonzero..NonZero$LT$T$GT$$u20$as$u20$core..fmt..Debug$GT$3fmt17hfee7ea0a19225bacE
                0x0000000000141080        0x0 ./gen/../tr_api_dispatch/target/armv7a-none-eabi/release/libitron.a(core-d049573bc16596f9.core.5587a85061e7188a-cgu.0.rcgu.o)
                                          0x8 (size before relaxing)
 .ARM.exidx.text._ZN84_$LT$core..num..nonzero..NonZero$LT$u8$GT$$u20$as$u20$core..str..traits..FromStr$GT$8from_str17ha566d71859ee37bcE
                0x0000000000141080        0x0 ./gen/../tr_api_dispatch/target/armv7a-none-eabi/release/libitron.a(core-d049573bc16596f9.core.5587a85061e7188a-cgu.0.rcgu.o)
                                          0x8 (size before relaxing)
 .ARM.exidx.text._ZN85_$LT$core..num..nonzero..NonZero$LT$u16$GT$$u20$as$u20$core..str..traits..FromStr$GT$8from_str17h22aefbcb4cc26c68E
                0x0000000000141080        0x0 ./gen/../tr_api_dispatch/target/armv7a-none-eabi/release/libitron.a(core-d049573bc16596f9.core.5587a85061e7188a-cgu.0.rcgu.o)
                                          0x8 (size before relaxing)
 .ARM.exidx.text._ZN85_$LT$core..num..nonzero..NonZero$LT$u32$GT$$u20$as$u20$core..str..traits..FromStr$GT$8from_str17h957fe3dbd5a241bcE
                0x0000000000141080        0x0 ./gen/../tr_api_dispatch/target/armv7a-none-eabi/release/libitron.a(core-d049573bc16596f9.core.5587a85061e7188a-cgu.0.rcgu.o)
                                          0x8 (size before relaxing)
 .ARM.exidx.text._ZN85_$LT$core..num..nonzero..NonZero$LT$u64$GT$$u20$as$u20$core..str..traits..FromStr$GT$8from_str17hb05b038cb220d66cE
                0x0000000000141080        0x0 ./gen/../tr_api_dispatch/target/armv7a-none-eabi/release/libitron.a(core-d049573bc16596f9.core.5587a85061e7188a-cgu.0.rcgu.o)
                                          0x8 (size before relaxing)
 .ARM.exidx.text._ZN86_$LT$core..num..nonzero..NonZero$LT$u128$GT$$u20$as$u20$core..str..traits..FromStr$GT$8from_str17hce0b07860262ce09E
                0x0000000000141080        0x0 ./gen/../tr_api_dispatch/target/armv7a-none-eabi/release/libitron.a(core-d049573bc16596f9.core.5587a85061e7188a-cgu.0.rcgu.o)
                                          0x8 (size before relaxing)
 .ARM.exidx.text._ZN87_$LT$core..num..nonzero..NonZero$LT$usize$GT$$u20$as$u20$core..str..traits..FromStr$GT$8from_str17h1733288da9636848E
                0x0000000000141080        0x0 ./gen/../tr_api_dispatch/target/armv7a-none-eabi/release/libitron.a(core-d049573bc16596f9.core.5587a85061e7188a-cgu.0.rcgu.o)
                                          0x8 (size before relaxing)
 .ARM.exidx.text._ZN84_$LT$core..num..nonzero..NonZero$LT$i8$GT$$u20$as$u20$core..str..traits..FromStr$GT$8from_str17hebe21d8ddaff9330E
                0x0000000000141080        0x0 ./gen/../tr_api_dispatch/target/armv7a-none-eabi/release/libitron.a(core-d049573bc16596f9.core.5587a85061e7188a-cgu.0.rcgu.o)
                                          0x8 (size before relaxing)
 .ARM.exidx.text._ZN85_$LT$core..num..nonzero..NonZero$LT$i16$GT$$u20$as$u20$core..str..traits..FromStr$GT$8from_str17h5460cf01298f7943E
                0x0000000000141080        0x0 ./gen/../tr_api_dispatch/target/armv7a-none-eabi/release/libitron.a(core-d049573bc16596f9.core.5587a85061e7188a-cgu.0.rcgu.o)
                                          0x8 (size before relaxing)
 .ARM.exidx.text._ZN85_$LT$core..num..nonzero..NonZero$LT$i32$GT$$u20$as$u20$core..str..traits..FromStr$GT$8from_str17h82302f5d78c06a81E
                0x0000000000141080        0x0 ./gen/../tr_api_dispatch/target/armv7a-none-eabi/release/libitron.a(core-d049573bc16596f9.core.5587a85061e7188a-cgu.0.rcgu.o)
                                          0x8 (size before relaxing)
 .ARM.exidx.text._ZN85_$LT$core..num..nonzero..NonZero$LT$i64$GT$$u20$as$u20$core..str..traits..FromStr$GT$8from_str17hf63377f21a3fb6baE
                0x0000000000141080        0x0 ./gen/../tr_api_dispatch/target/armv7a-none-eabi/release/libitron.a(core-d049573bc16596f9.core.5587a85061e7188a-cgu.0.rcgu.o)
                                          0x8 (size before relaxing)
 .ARM.exidx.text._ZN86_$LT$core..num..nonzero..NonZero$LT$i128$GT$$u20$as$u20$core..str..traits..FromStr$GT$8from_str17h404bcfcc368805b5E
                0x0000000000141080        0x0 ./gen/../tr_api_dispatch/target/armv7a-none-eabi/release/libitron.a(core-d049573bc16596f9.core.5587a85061e7188a-cgu.0.rcgu.o)
                                          0x8 (size before relaxing)
 .ARM.exidx.text._ZN72_$LT$core..num..niche_types..Nanoseconds$u20$as$u20$core..fmt..Debug$GT$3fmt17h6df87c1b0e86c542E
                0x0000000000141080        0x0 ./gen/../tr_api_dispatch/target/armv7a-none-eabi/release/libitron.a(core-d049573bc16596f9.core.5587a85061e7188a-cgu.0.rcgu.o)
                                          0x8 (size before relaxing)
 .ARM.exidx.text._ZN75_$LT$core..num..niche_types..NonZeroU8Inner$u20$as$u20$core..fmt..Debug$GT$3fmt17h9934d86d94d3ba9dE
                0x0000000000141080        0x0 ./gen/../tr_api_dispatch/target/armv7a-none-eabi/release/libitron.a(core-d049573bc16596f9.core.5587a85061e7188a-cgu.0.rcgu.o)
                                          0x8 (size before relaxing)
 .ARM.exidx.text._ZN76_$LT$core..num..niche_types..NonZeroU16Inner$u20$as$u20$core..fmt..Debug$GT$3fmt17h1e0f277c7c9985fdE
                0x0000000000141080        0x0 ./gen/../tr_api_dispatch/target/armv7a-none-eabi/release/libitron.a(core-d049573bc16596f9.core.5587a85061e7188a-cgu.0.rcgu.o)
                                          0x8 (size before relaxing)
 .ARM.exidx.text._ZN76_$LT$core..num..niche_types..NonZeroU32Inner$u20$as$u20$core..fmt..Debug$GT$3fmt17h4208945a1918bf76E
                0x0000000000141080        0x0 ./gen/../tr_api_dispatch/target/armv7a-none-eabi/release/libitron.a(core-d049573bc16596f9.core.5587a85061e7188a-cgu.0.rcgu.o)
                                          0x8 (size before relaxing)
 .ARM.exidx.text._ZN76_$LT$core..num..niche_types..NonZeroU64Inner$u20$as$u20$core..fmt..Debug$GT$3fmt17hcec75d0956b73778E
                0x0000000000141080        0x0 ./gen/../tr_api_dispatch/target/armv7a-none-eabi/release/libitron.a(core-d049573bc16596f9.core.5587a85061e7188a-cgu.0.rcgu.o)
                                          0x8 (size before relaxing)
 .ARM.exidx.text._ZN77_$LT$core..num..niche_types..NonZeroU128Inner$u20$as$u20$core..fmt..Debug$GT$3fmt17h5bc8c49a87650843E
                0x0000000000141080        0x0 ./gen/../tr_api_dispatch/target/armv7a-none-eabi/release/libitron.a(core-d049573bc16596f9.core.5587a85061e7188a-cgu.0.rcgu.o)
                                          0x8 (size before relaxing)
 .ARM.exidx.text._ZN75_$LT$core..num..niche_types..NonZeroI8Inner$u20$as$u20$core..fmt..Debug$GT$3fmt17hc1ad68564dffd6e0E
                0x0000000000141080        0x0 ./gen/../tr_api_dispatch/target/armv7a-none-eabi/release/libitron.a(core-d049573bc16596f9.core.5587a85061e7188a-cgu.0.rcgu.o)
                                          0x8 (size before relaxing)
 .ARM.exidx.text._ZN76_$LT$core..num..niche_types..NonZeroI16Inner$u20$as$u20$core..fmt..Debug$GT$3fmt17h1bae456063d3b38aE
                0x0000000000141080        0x0 ./gen/../tr_api_dispatch/target/armv7a-none-eabi/release/libitron.a(core-d049573bc16596f9.core.5587a85061e7188a-cgu.0.rcgu.o)
                                          0x8 (size before relaxing)
 .ARM.exidx.text._ZN76_$LT$core..num..niche_types..NonZeroI32Inner$u20$as$u20$core..fmt..Debug$GT$3fmt17h22fbf48f72b85284E
                0x0000000000141080        0x0 ./gen/../tr_api_dispatch/target/armv7a-none-eabi/release/libitron.a(core-d049573bc16596f9.core.5587a85061e7188a-cgu.0.rcgu.o)
                                          0x8 (size before relaxing)
 .ARM.exidx.text._ZN76_$LT$core..num..niche_types..NonZeroI64Inner$u20$as$u20$core..fmt..Debug$GT$3fmt17h8bb2c468a465aac2E
                0x0000000000141080        0x0 ./gen/../tr_api_dispatch/target/armv7a-none-eabi/release/libitron.a(core-d049573bc16596f9.core.5587a85061e7188a-cgu.0.rcgu.o)
                                          0x8 (size before relaxing)
 .ARM.exidx.text._ZN77_$LT$core..num..niche_types..NonZeroI128Inner$u20$as$u20$core..fmt..Debug$GT$3fmt17h7658577fe72d6a93E
                0x0000000000141080        0x0 ./gen/../tr_api_dispatch/target/armv7a-none-eabi/release/libitron.a(core-d049573bc16596f9.core.5587a85061e7188a-cgu.0.rcgu.o)
                                          0x8 (size before relaxing)
 .ARM.exidx.text._ZN75_$LT$core..num..niche_types..UsizeNoHighBit$u20$as$u20$core..fmt..Debug$GT$3fmt17h77e5bca56126e0b7E
                0x0000000000141080        0x0 ./gen/../tr_api_dispatch/target/armv7a-none-eabi/release/libitron.a(core-d049573bc16596f9.core.5587a85061e7188a-cgu.0.rcgu.o)
                                          0x8 (size before relaxing)
 .ARM.exidx.text._ZN74_$LT$core..num..niche_types..U32NotAllOnes$u20$as$u20$core..fmt..Debug$GT$3fmt17hdae2b85bd7a76fa0E
                0x0000000000141080        0x0 ./gen/../tr_api_dispatch/target/armv7a-none-eabi/release/libitron.a(core-d049573bc16596f9.core.5587a85061e7188a-cgu.0.rcgu.o)
                                          0x8 (size before relaxing)
 .ARM.exidx.text._ZN74_$LT$core..num..niche_types..I32NotAllOnes$u20$as$u20$core..fmt..Debug$GT$3fmt17ha30c204f41712d0cE
                0x0000000000141080        0x0 ./gen/../tr_api_dispatch/target/armv7a-none-eabi/release/libitron.a(core-d049573bc16596f9.core.5587a85061e7188a-cgu.0.rcgu.o)
                                          0x8 (size before relaxing)
 .ARM.exidx.text._ZN74_$LT$core..num..niche_types..U64NotAllOnes$u20$as$u20$core..fmt..Debug$GT$3fmt17h9aae2314a6753889E
                0x0000000000141080        0x0 ./gen/../tr_api_dispatch/target/armv7a-none-eabi/release/libitron.a(core-d049573bc16596f9.core.5587a85061e7188a-cgu.0.rcgu.o)
                                          0x8 (size before relaxing)
 .ARM.exidx.text._ZN74_$LT$core..num..niche_types..I64NotAllOnes$u20$as$u20$core..fmt..Debug$GT$3fmt17hcd11c67aaecfa5cdE
                0x0000000000141080        0x0 ./gen/../tr_api_dispatch/target/armv7a-none-eabi/release/libitron.a(core-d049573bc16596f9.core.5587a85061e7188a-cgu.0.rcgu.o)
                                          0x8 (size before relaxing)
 .ARM.exidx.text.unlikely._ZN4core3num22from_ascii_radix_panic8do_panic7runtime17h20bf34c324abd015E
                0x0000000000141080        0x0 ./gen/../tr_api_dispatch/target/armv7a-none-eabi/release/libitron.a(core-d049573bc16596f9.core.5587a85061e7188a-cgu.0.rcgu.o)
                                          0x8 (size before relaxing)
 .ARM.exidx.text.unlikely._ZN4core10intrinsics3mir11PtrMetadata19panic_cold_explicit17h38f2b2d764b9fcc9E
                0x0000000000141080        0x0 ./gen/../tr_api_dispatch/target/armv7a-none-eabi/release/libitron.a(core-d049573bc16596f9.core.5587a85061e7188a-cgu.0.rcgu.o)
                                          0x8 (size before relaxing)
 .ARM.exidx.text._ZN85_$LT$core..marker..variance..PhantomCovariantLifetime$u20$as$u20$core..fmt..Debug$GT$3fmt17h092ab231f6840623E
                0x0000000000141080        0x0 ./gen/../tr_api_dispatch/target/armv7a-none-eabi/release/libitron.a(core-d049573bc16596f9.core.5587a85061e7188a-cgu.0.rcgu.o)
                                          0x8 (size before relaxing)
 .ARM.exidx.text._ZN89_$LT$core..marker..variance..PhantomContravariantLifetime$u20$as$u20$core..fmt..Debug$GT$3fmt17hc36f606a10431dddE
                0x0000000000141080        0x0 ./gen/../tr_api_dispatch/target/armv7a-none-eabi/release/libitron.a(core-d049573bc16596f9.core.5587a85061e7188a-cgu.0.rcgu.o)
                                          0x8 (size before relaxing)
 .ARM.exidx.text._ZN85_$LT$core..marker..variance..PhantomInvariantLifetime$u20$as$u20$core..fmt..Debug$GT$3fmt17h310726426d633410E
                0x0000000000141080        0x0 ./gen/../tr_api_dispatch/target/armv7a-none-eabi/release/libitron.a(core-d049573bc16596f9.core.5587a85061e7188a-cgu.0.rcgu.o)
                                          0x8 (size before relaxing)
 .ARM.exidx.text.unlikely._ZN4core4char7methods15encode_utf8_raw8do_panic7runtime17h8d77bbd109129b2bE
                0x0000000000141080        0x0 ./gen/../tr_api_dispatch/target/armv7a-none-eabi/release/libitron.a(core-d049573bc16596f9.core.5587a85061e7188a-cgu.0.rcgu.o)
                                          0x8 (size before relaxing)
 .ARM.exidx.text.unlikely._ZN4core4char7methods16encode_utf16_raw8do_panic7runtime17h780c16f034ec0cfdE
                0x0000000000141080        0x0 ./gen/../tr_api_dispatch/target/armv7a-none-eabi/release/libitron.a(core-d049573bc16596f9.core.5587a85061e7188a-cgu.0.rcgu.o)
                                          0x8 (size before relaxing)
 .ARM.exidx.text._ZN82_$LT$core..char..ToLowercase$u20$as$u20$core..iter..traits..iterator..Iterator$GT$4next17hb1b5d710b70686acE
                0x0000000000141080        0x0 ./gen/../tr_api_dispatch/target/armv7a-none-eabi/release/libitron.a(core-d049573bc16596f9.core.5587a85061e7188a-cgu.0.rcgu.o)
                                          0x8 (size before relaxing)
 .ARM.exidx.text._ZN82_$LT$core..char..ToLowercase$u20$as$u20$core..iter..traits..iterator..Iterator$GT$5count17h491b5e4cf6ec5bd0E
                0x0000000000141080        0x0 ./gen/../tr_api_dispatch/target/armv7a-none-eabi/release/libitron.a(core-d049573bc16596f9.core.5587a85061e7188a-cgu.0.rcgu.o)
                                          0x8 (size before relaxing)
 .ARM.exidx.text._ZN82_$LT$core..char..ToLowercase$u20$as$u20$core..iter..traits..iterator..Iterator$GT$4last17h2be1d7bd83ecbf83E
                0x0000000000141080        0x0 ./gen/../tr_api_dispatch/target/armv7a-none-eabi/release/libitron.a(core-d049573bc16596f9.core.5587a85061e7188a-cgu.0.rcgu.o)
                                          0x8 (size before relaxing)
 .ARM.exidx.text._ZN82_$LT$core..char..ToLowercase$u20$as$u20$core..iter..traits..iterator..Iterator$GT$10advance_by17h472a89f7f4a2644dE
                0x0000000000141080        0x0 ./gen/../tr_api_dispatch/target/armv7a-none-eabi/release/libitron.a(core-d049573bc16596f9.core.5587a85061e7188a-cgu.0.rcgu.o)
                                          0x8 (size before relaxing)
 .ARM.exidx.text._ZN82_$LT$core..char..ToLowercase$u20$as$u20$core..iter..traits..iterator..Iterator$GT$24__iterator_get_unchecked17h3837a4656c9589c7E
                0x0000000000141080        0x0 ./gen/../tr_api_dispatch/target/armv7a-none-eabi/release/libitron.a(core-d049573bc16596f9.core.5587a85061e7188a-cgu.0.rcgu.o)
                                          0x8 (size before relaxing)
 .ARM.exidx.text._ZN97_$LT$core..char..ToLowercase$u20$as$u20$core..iter..traits..double_ended..DoubleEndedIterator$GT$9next_back17h3de266f316e266adE
                0x0000000000141080        0x0 ./gen/../tr_api_dispatch/target/armv7a-none-eabi/release/libitron.a(core-d049573bc16596f9.core.5587a85061e7188a-cgu.0.rcgu.o)
                                          0x8 (size before relaxing)
 .ARM.exidx.text._ZN97_$LT$core..char..ToLowercase$u20$as$u20$core..iter..traits..double_ended..DoubleEndedIterator$GT$15advance_back_by17h5316befd367a240aE
                0x0000000000141080        0x0 ./gen/../tr_api_dispatch/target/armv7a-none-eabi/release/libitron.a(core-d049573bc16596f9.core.5587a85061e7188a-cgu.0.rcgu.o)
                                          0x8 (size before relaxing)
 .ARM.exidx.text._ZN62_$LT$core..char..ToLowercase$u20$as$u20$core..fmt..Display$GT$3fmt17hba63d2a00808b5c9E
                0x0000000000141080        0x0 ./gen/../tr_api_dispatch/target/armv7a-none-eabi/release/libitron.a(core-d049573bc16596f9.core.5587a85061e7188a-cgu.0.rcgu.o)
                                          0x8 (size before relaxing)
 .ARM.exidx.text._ZN77_$LT$core..net..ip_addr..Ipv4Addr$u20$as$u20$core..ops..bit..BitAndAssign$GT$13bitand_assign17h4b36b47131fa5cc4E
                0x0000000000141080        0x0 ./gen/../tr_api_dispatch/target/armv7a-none-eabi/release/libitron.a(core-d049573bc16596f9.core.5587a85061e7188a-cgu.0.rcgu.o)
                                          0x8 (size before relaxing)
 .ARM.exidx.text._ZN117_$LT$core..net..ip_addr..Ipv4Addr$u20$as$u20$core..ops..bit..BitAndAssign$LT$$RF$core..net..ip_addr..Ipv4Addr$GT$$GT$13bitand_assign17h0229d9be4c328c70E
                0x0000000000141080        0x0 ./gen/../tr_api_dispatch/target/armv7a-none-eabi/release/libitron.a(core-d049573bc16596f9.core.5587a85061e7188a-cgu.0.rcgu.o)
                                          0x8 (size before relaxing)
 .ARM.exidx.text._ZN76_$LT$core..net..ip_addr..Ipv4Addr$u20$as$u20$core..ops..bit..BitOrAssign$GT$12bitor_assign17h5dbcc27e1bc263c6E
                0x0000000000141080        0x0 ./gen/../tr_api_dispatch/target/armv7a-none-eabi/release/libitron.a(core-d049573bc16596f9.core.5587a85061e7188a-cgu.0.rcgu.o)
                                          0x8 (size before relaxing)
 .ARM.exidx.text._ZN116_$LT$core..net..ip_addr..Ipv4Addr$u20$as$u20$core..ops..bit..BitOrAssign$LT$$RF$core..net..ip_addr..Ipv4Addr$GT$$GT$12bitor_assign17h44764761fe65c596E
                0x0000000000141080        0x0 ./gen/../tr_api_dispatch/target/armv7a-none-eabi/release/libitron.a(core-d049573bc16596f9.core.5587a85061e7188a-cgu.0.rcgu.o)
                                          0x8 (size before relaxing)
 .ARM.exidx.text._ZN77_$LT$core..net..ip_addr..Ipv6Addr$u20$as$u20$core..ops..bit..BitAndAssign$GT$13bitand_assign17hdf1001071943e21cE
                0x0000000000141080        0x0 ./gen/../tr_api_dispatch/target/armv7a-none-eabi/release/libitron.a(core-d049573bc16596f9.core.5587a85061e7188a-cgu.0.rcgu.o)
                                          0x8 (size before relaxing)
 .ARM.exidx.text._ZN117_$LT$core..net..ip_addr..Ipv6Addr$u20$as$u20$core..ops..bit..BitAndAssign$LT$$RF$core..net..ip_addr..Ipv6Addr$GT$$GT$13bitand_assign17hecc377bff21d2c6fE
                0x0000000000141080        0x0 ./gen/../tr_api_dispatch/target/armv7a-none-eabi/release/libitron.a(core-d049573bc16596f9.core.5587a85061e7188a-cgu.0.rcgu.o)
                                          0x8 (size before relaxing)
 .ARM.exidx.text._ZN76_$LT$core..net..ip_addr..Ipv6Addr$u20$as$u20$core..ops..bit..BitOrAssign$GT$12bitor_assign17h8802b9526f9e1ec3E
                0x0000000000141080        0x0 ./gen/../tr_api_dispatch/target/armv7a-none-eabi/release/libitron.a(core-d049573bc16596f9.core.5587a85061e7188a-cgu.0.rcgu.o)
                                          0x8 (size before relaxing)
 .ARM.exidx.text._ZN116_$LT$core..net..ip_addr..Ipv6Addr$u20$as$u20$core..ops..bit..BitOrAssign$LT$$RF$core..net..ip_addr..Ipv6Addr$GT$$GT$12bitor_assign17h15c5b2f4ea6a9f87E
                0x0000000000141080        0x0 ./gen/../tr_api_dispatch/target/armv7a-none-eabi/release/libitron.a(core-d049573bc16596f9.core.5587a85061e7188a-cgu.0.rcgu.o)
                                          0x8 (size before relaxing)
 .ARM.exidx.text.unlikely._ZN4core9panicking11panic_const24panic_const_add_overflow17h518b917df10cd0eaE
                0x0000000000141080        0x0 ./gen/../tr_api_dispatch/target/armv7a-none-eabi/release/libitron.a(core-d049573bc16596f9.core.5587a85061e7188a-cgu.0.rcgu.o)
                                          0x8 (size before relaxing)
 .ARM.exidx.text.unlikely._ZN4core9panicking11panic_const24panic_const_sub_overflow17h60c8487e53d0d3c1E
                0x0000000000141080        0x0 ./gen/../tr_api_dispatch/target/armv7a-none-eabi/release/libitron.a(core-d049573bc16596f9.core.5587a85061e7188a-cgu.0.rcgu.o)
                                          0x8 (size before relaxing)
 .ARM.exidx.text.unlikely._ZN4core9panicking11panic_const24panic_const_mul_overflow17h1a47d5361b03bf6eE
                0x0000000000141080        0x0 ./gen/../tr_api_dispatch/target/armv7a-none-eabi/release/libitron.a(core-d049573bc16596f9.core.5587a85061e7188a-cgu.0.rcgu.o)
                                          0x8 (size before relaxing)
 .ARM.exidx.text.unlikely._ZN4core9panicking11panic_const24panic_const_div_overflow17heddbfb5e687a03bcE
                0x0000000000141080        0x0 ./gen/../tr_api_dispatch/target/armv7a-none-eabi/release/libitron.a(core-d049573bc16596f9.core.5587a85061e7188a-cgu.0.rcgu.o)
                                          0x8 (size before relaxing)
 .ARM.exidx.text.unlikely._ZN4core9panicking11panic_const24panic_const_rem_overflow17h3335d23af842c741E
                0x0000000000141080        0x0 ./gen/../tr_api_dispatch/target/armv7a-none-eabi/release/libitron.a(core-d049573bc16596f9.core.5587a85061e7188a-cgu.0.rcgu.o)
                                          0x8 (size before relaxing)
 .ARM.exidx.text.unlikely._ZN4core9panicking11panic_const24panic_const_neg_overflow17hd6798e66c62ddff6E
                0x0000000000141080        0x0 ./gen/../tr_api_dispatch/target/armv7a-none-eabi/release/libitron.a(core-d049573bc16596f9.core.5587a85061e7188a-cgu.0.rcgu.o)
                                          0x8 (size before relaxing)
 .ARM.exidx.text.unlikely._ZN4core9panicking11panic_const24panic_const_shr_overflow17hc596d1ddf3d71019E
                0x0000000000141080        0x0 ./gen/../tr_api_dispatch/target/armv7a-none-eabi/release/libitron.a(core-d049573bc16596f9.core.5587a85061e7188a-cgu.0.rcgu.o)
                                          0x8 (size before relaxing)
 .ARM.exidx.text.unlikely._ZN4core9panicking11panic_const24panic_const_shl_overflow17hab60c2de69792ef8E
                0x0000000000141080        0x0 ./gen/../tr_api_dispatch/target/armv7a-none-eabi/release/libitron.a(core-d049573bc16596f9.core.5587a85061e7188a-cgu.0.rcgu.o)
                                          0x8 (size before relaxing)
 .ARM.exidx.text.unlikely._ZN4core9panicking11panic_const23panic_const_div_by_zero17h841ebc415392a309E
                0x0000000000141080        0x0 ./gen/../tr_api_dispatch/target/armv7a-none-eabi/release/libitron.a(core-d049573bc16596f9.core.5587a85061e7188a-cgu.0.rcgu.o)
                                          0x8 (size before relaxing)
 .ARM.exidx.text.unlikely._ZN4core9panicking11panic_const23panic_const_rem_by_zero17h84c76eadc69bd9a6E
                0x0000000000141080        0x0 ./gen/../tr_api_dispatch/target/armv7a-none-eabi/release/libitron.a(core-d049573bc16596f9.core.5587a85061e7188a-cgu.0.rcgu.o)
                                          0x8 (size before relaxing)
 .ARM.exidx.text.unlikely._ZN4core9panicking11panic_const29panic_const_coroutine_resumed17hc1fec1f49fb82aacE
                0x0000000000141080        0x0 ./gen/../tr_api_dispatch/target/armv7a-none-eabi/release/libitron.a(core-d049573bc16596f9.core.5587a85061e7188a-cgu.0.rcgu.o)
                                          0x8 (size before relaxing)
 .ARM.exidx.text.unlikely._ZN4core9panicking11panic_const28panic_const_async_fn_resumed17h4c52fb4e1fc04b7eE
                0x0000000000141080        0x0 ./gen/../tr_api_dispatch/target/armv7a-none-eabi/release/libitron.a(core-d049573bc16596f9.core.5587a85061e7188a-cgu.0.rcgu.o)
                                          0x8 (size before relaxing)
 .ARM.exidx.text.unlikely._ZN4core9panicking11panic_const32panic_const_async_gen_fn_resumed17hf6dc0ef665815d93E
                0x0000000000141080        0x0 ./gen/../tr_api_dispatch/target/armv7a-none-eabi/release/libitron.a(core-d049573bc16596f9.core.5587a85061e7188a-cgu.0.rcgu.o)
                                          0x8 (size before relaxing)
 .ARM.exidx.text.unlikely._ZN4core9panicking11panic_const23panic_const_gen_fn_none17h9943346b0c293476E
                0x0000000000141080        0x0 ./gen/../tr_api_dispatch/target/armv7a-none-eabi/release/libitron.a(core-d049573bc16596f9.core.5587a85061e7188a-cgu.0.rcgu.o)
                                          0x8 (size before relaxing)
 .ARM.exidx.text.unlikely._ZN4core9panicking11panic_const35panic_const_coroutine_resumed_panic17ha931fedc2d097cbcE
                0x0000000000141080        0x0 ./gen/../tr_api_dispatch/target/armv7a-none-eabi/release/libitron.a(core-d049573bc16596f9.core.5587a85061e7188a-cgu.0.rcgu.o)
                                          0x8 (size before relaxing)
 .ARM.exidx.text.unlikely._ZN4core9panicking11panic_const34panic_const_async_fn_resumed_panic17he3287dd12fe7b10fE
                0x0000000000141080        0x0 ./gen/../tr_api_dispatch/target/armv7a-none-eabi/release/libitron.a(core-d049573bc16596f9.core.5587a85061e7188a-cgu.0.rcgu.o)
                                          0x8 (size before relaxing)
 .ARM.exidx.text.unlikely._ZN4core9panicking11panic_const38panic_const_async_gen_fn_resumed_panic17hd2dc1333c03262feE
                0x0000000000141080        0x0 ./gen/../tr_api_dispatch/target/armv7a-none-eabi/release/libitron.a(core-d049573bc16596f9.core.5587a85061e7188a-cgu.0.rcgu.o)
                                          0x8 (size before relaxing)
 .ARM.exidx.text.unlikely._ZN4core9panicking11panic_const29panic_const_gen_fn_none_panic17h5c1c229e3a40efecE
                0x0000000000141080        0x0 ./gen/../tr_api_dispatch/target/armv7a-none-eabi/release/libitron.a(core-d049573bc16596f9.core.5587a85061e7188a-cgu.0.rcgu.o)
                                          0x8 (size before relaxing)
 .ARM.exidx.text.unlikely._ZN4core9panicking11panic_const34panic_const_coroutine_resumed_drop17h80f9fb05c90896faE
                0x0000000000141080        0x0 ./gen/../tr_api_dispatch/target/armv7a-none-eabi/release/libitron.a(core-d049573bc16596f9.core.5587a85061e7188a-cgu.0.rcgu.o)
                                          0x8 (size before relaxing)
 .ARM.exidx.text.unlikely._ZN4core9panicking11panic_const33panic_const_async_fn_resumed_drop17h372a153677563730E
                0x0000000000141080        0x0 ./gen/../tr_api_dispatch/target/armv7a-none-eabi/release/libitron.a(core-d049573bc16596f9.core.5587a85061e7188a-cgu.0.rcgu.o)
                                          0x8 (size before relaxing)
 .ARM.exidx.text.unlikely._ZN4core9panicking11panic_const37panic_const_async_gen_fn_resumed_drop17hf44454f4c0322d5eE
                0x0000000000141080        0x0 ./gen/../tr_api_dispatch/target/armv7a-none-eabi/release/libitron.a(core-d049573bc16596f9.core.5587a85061e7188a-cgu.0.rcgu.o)
                                          0x8 (size before relaxing)
 .ARM.exidx.text.unlikely._ZN4core9panicking11panic_const28panic_const_gen_fn_none_drop17h79a2beef01222142E
                0x0000000000141080        0x0 ./gen/../tr_api_dispatch/target/armv7a-none-eabi/release/libitron.a(core-d049573bc16596f9.core.5587a85061e7188a-cgu.0.rcgu.o)
                                          0x8 (size before relaxing)
 .ARM.exidx.text._ZN46_$LT$i8$u20$as$u20$core..pat..RangePattern$GT$7sub_one17h9c88d58a08cd9976E
                0x0000000000141080        0x0 ./gen/../tr_api_dispatch/target/armv7a-none-eabi/release/libitron.a(core-d049573bc16596f9.core.5587a85061e7188a-cgu.0.rcgu.o)
                                          0x8 (size before relaxing)
 .ARM.exidx.text._ZN47_$LT$i16$u20$as$u20$core..pat..RangePattern$GT$7sub_one17h0bea40a7c0a1898dE
                0x0000000000141080        0x0 ./gen/../tr_api_dispatch/target/armv7a-none-eabi/release/libitron.a(core-d049573bc16596f9.core.5587a85061e7188a-cgu.0.rcgu.o)
                                          0x8 (size before relaxing)
 .ARM.exidx.text._ZN47_$LT$i32$u20$as$u20$core..pat..RangePattern$GT$7sub_one17hee0294d19fcfed5eE
                0x0000000000141080        0x0 ./gen/../tr_api_dispatch/target/armv7a-none-eabi/release/libitron.a(core-d049573bc16596f9.core.5587a85061e7188a-cgu.0.rcgu.o)
                                          0x8 (size before relaxing)
 .ARM.exidx.text._ZN47_$LT$i64$u20$as$u20$core..pat..RangePattern$GT$7sub_one17h7a71a5a054a38f79E
                0x0000000000141080        0x0 ./gen/../tr_api_dispatch/target/armv7a-none-eabi/release/libitron.a(core-d049573bc16596f9.core.5587a85061e7188a-cgu.0.rcgu.o)
                                          0x8 (size before relaxing)
 .ARM.exidx.text._ZN48_$LT$i128$u20$as$u20$core..pat..RangePattern$GT$7sub_one17hacd854531e93c0c5E
                0x0000000000141080        0x0 ./gen/../tr_api_dispatch/target/armv7a-none-eabi/release/libitron.a(core-d049573bc16596f9.core.5587a85061e7188a-cgu.0.rcgu.o)
                                          0x8 (size before relaxing)
 .ARM.exidx.text._ZN46_$LT$u8$u20$as$u20$core..pat..RangePattern$GT$7sub_one17h15e864f0213c9b05E
                0x0000000000141080        0x0 ./gen/../tr_api_dispatch/target/armv7a-none-eabi/release/libitron.a(core-d049573bc16596f9.core.5587a85061e7188a-cgu.0.rcgu.o)
                                          0x8 (size before relaxing)
 .ARM.exidx.text._ZN47_$LT$u16$u20$as$u20$core..pat..RangePattern$GT$7sub_one17h4335f9c9d4df86f6E
                0x0000000000141080        0x0 ./gen/../tr_api_dispatch/target/armv7a-none-eabi/release/libitron.a(core-d049573bc16596f9.core.5587a85061e7188a-cgu.0.rcgu.o)
                                          0x8 (size before relaxing)
 .ARM.exidx.text._ZN47_$LT$u32$u20$as$u20$core..pat..RangePattern$GT$7sub_one17h3378d20c1f54e79cE
                0x0000000000141080        0x0 ./gen/../tr_api_dispatch/target/armv7a-none-eabi/release/libitron.a(core-d049573bc16596f9.core.5587a85061e7188a-cgu.0.rcgu.o)
                                          0x8 (size before relaxing)
 .ARM.exidx.text._ZN47_$LT$u64$u20$as$u20$core..pat..RangePattern$GT$7sub_one17h6e6e0a2318d9e1f3E
                0x0000000000141080        0x0 ./gen/../tr_api_dispatch/target/armv7a-none-eabi/release/libitron.a(core-d049573bc16596f9.core.5587a85061e7188a-cgu.0.rcgu.o)
                                          0x8 (size before relaxing)
 .ARM.exidx.text._ZN48_$LT$u128$u20$as$u20$core..pat..RangePattern$GT$7sub_one17h49e0f9c674b47932E
                0x0000000000141080        0x0 ./gen/../tr_api_dispatch/target/armv7a-none-eabi/release/libitron.a(core-d049573bc16596f9.core.5587a85061e7188a-cgu.0.rcgu.o)
                                          0x8 (size before relaxing)
 .ARM.exidx.text._ZN65_$LT$core..sync..atomic..AtomicI8$u20$as$u20$core..fmt..Debug$GT$3fmt17h98530b86a99569a1E
                0x0000000000141080        0x0 ./gen/../tr_api_dispatch/target/armv7a-none-eabi/release/libitron.a(core-d049573bc16596f9.core.5587a85061e7188a-cgu.0.rcgu.o)
                                          0x8 (size before relaxing)
 .ARM.exidx.text._ZN65_$LT$core..sync..atomic..AtomicU8$u20$as$u20$core..fmt..Debug$GT$3fmt17h78ea702c9c6bc9f6E
                0x0000000000141080        0x0 ./gen/../tr_api_dispatch/target/armv7a-none-eabi/release/libitron.a(core-d049573bc16596f9.core.5587a85061e7188a-cgu.0.rcgu.o)
                                          0x8 (size before relaxing)
 .ARM.exidx.text._ZN66_$LT$core..sync..atomic..AtomicI16$u20$as$u20$core..fmt..Debug$GT$3fmt17h5390cba2b0e4e3dcE
                0x0000000000141080        0x0 ./gen/../tr_api_dispatch/target/armv7a-none-eabi/release/libitron.a(core-d049573bc16596f9.core.5587a85061e7188a-cgu.0.rcgu.o)
                                          0x8 (size before relaxing)
 .ARM.exidx.text._ZN66_$LT$core..sync..atomic..AtomicU16$u20$as$u20$core..fmt..Debug$GT$3fmt17h2705d1d8027c0f42E
                0x0000000000141080        0x0 ./gen/../tr_api_dispatch/target/armv7a-none-eabi/release/libitron.a(core-d049573bc16596f9.core.5587a85061e7188a-cgu.0.rcgu.o)
                                          0x8 (size before relaxing)
 .ARM.exidx.text._ZN66_$LT$core..sync..atomic..AtomicI32$u20$as$u20$core..fmt..Debug$GT$3fmt17h00f7ed8238e72b79E
                0x0000000000141080        0x0 ./gen/../tr_api_dispatch/target/armv7a-none-eabi/release/libitron.a(core-d049573bc16596f9.core.5587a85061e7188a-cgu.0.rcgu.o)
                                          0x8 (size before relaxing)
 .ARM.exidx.text._ZN66_$LT$core..sync..atomic..AtomicU32$u20$as$u20$core..fmt..Debug$GT$3fmt17hf9fe3a6abac6a243E
                0x0000000000141080        0x0 ./gen/../tr_api_dispatch/target/armv7a-none-eabi/release/libitron.a(core-d049573bc16596f9.core.5587a85061e7188a-cgu.0.rcgu.o)
                                          0x8 (size before relaxing)
 .ARM.exidx.text._ZN66_$LT$core..sync..atomic..AtomicI64$u20$as$u20$core..fmt..Debug$GT$3fmt17h553003e062ab2aeaE
                0x0000000000141080        0x0 ./gen/../tr_api_dispatch/target/armv7a-none-eabi/release/libitron.a(core-d049573bc16596f9.core.5587a85061e7188a-cgu.0.rcgu.o)
                                          0x8 (size before relaxing)
 .ARM.exidx.text._ZN66_$LT$core..sync..atomic..AtomicU64$u20$as$u20$core..fmt..Debug$GT$3fmt17h4837e1a6089e1848E
                0x0000000000141080        0x0 ./gen/../tr_api_dispatch/target/armv7a-none-eabi/release/libitron.a(core-d049573bc16596f9.core.5587a85061e7188a-cgu.0.rcgu.o)
                                          0x8 (size before relaxing)
 .ARM.exidx.text._ZN55_$LT$f32$u20$as$u20$core..fmt..float..GeneralFormat$GT$44already_rounded_value_should_use_exponential17hb22121c88fcaa0beE
                0x0000000000141080        0x0 ./gen/../tr_api_dispatch/target/armv7a-none-eabi/release/libitron.a(core-d049573bc16596f9.core.5587a85061e7188a-cgu.0.rcgu.o)
                                          0x8 (size before relaxing)
 .ARM.exidx.text._ZN55_$LT$f64$u20$as$u20$core..fmt..float..GeneralFormat$GT$44already_rounded_value_should_use_exponential17h8b724b9904cc9c26E
                0x0000000000141080        0x0 ./gen/../tr_api_dispatch/target/armv7a-none-eabi/release/libitron.a(core-d049573bc16596f9.core.5587a85061e7188a-cgu.0.rcgu.o)
                                          0x8 (size before relaxing)
 .ARM.exidx.text._ZN4core3fmt5float50_$LT$impl$u20$core..fmt..Debug$u20$for$u20$f32$GT$3fmt17h36f6f70bc5e41684E
                0x0000000000141080        0x0 ./gen/../tr_api_dispatch/target/armv7a-none-eabi/release/libitron.a(core-d049573bc16596f9.core.5587a85061e7188a-cgu.0.rcgu.o)
                                          0x8 (size before relaxing)
 .ARM.exidx.text._ZN4core3fmt5float52_$LT$impl$u20$core..fmt..Display$u20$for$u20$f32$GT$3fmt17h80810e25a018a288E
                0x0000000000141080        0x0 ./gen/../tr_api_dispatch/target/armv7a-none-eabi/release/libitron.a(core-d049573bc16596f9.core.5587a85061e7188a-cgu.0.rcgu.o)
                                          0x8 (size before relaxing)
 .ARM.exidx.text._ZN4core3fmt5float53_$LT$impl$u20$core..fmt..LowerExp$u20$for$u20$f32$GT$3fmt17h820dff1b1d643fd6E
                0x0000000000141080        0x0 ./gen/../tr_api_dispatch/target/armv7a-none-eabi/release/libitron.a(core-d049573bc16596f9.core.5587a85061e7188a-cgu.0.rcgu.o)
                                          0x8 (size before relaxing)
 .ARM.exidx.text._ZN4core3fmt5float53_$LT$impl$u20$core..fmt..UpperExp$u20$for$u20$f32$GT$3fmt17hdf25f1d7057efea1E
                0x0000000000141080        0x0 ./gen/../tr_api_dispatch/target/armv7a-none-eabi/release/libitron.a(core-d049573bc16596f9.core.5587a85061e7188a-cgu.0.rcgu.o)
                                          0x8 (size before relaxing)
 .ARM.exidx.text._ZN4core3fmt5float50_$LT$impl$u20$core..fmt..Debug$u20$for$u20$f64$GT$3fmt17h12b316315661d7a7E
                0x0000000000141080        0x0 ./gen/../tr_api_dispatch/target/armv7a-none-eabi/release/libitron.a(core-d049573bc16596f9.core.5587a85061e7188a-cgu.0.rcgu.o)
                                          0x8 (size before relaxing)
 .ARM.exidx.text._ZN4core3fmt5float52_$LT$impl$u20$core..fmt..Display$u20$for$u20$f64$GT$3fmt17h1658c390055e8683E
                0x0000000000141080        0x0 ./gen/../tr_api_dispatch/target/armv7a-none-eabi/release/libitron.a(core-d049573bc16596f9.core.5587a85061e7188a-cgu.0.rcgu.o)
                                          0x8 (size before relaxing)
 .ARM.exidx.text._ZN4core3fmt5float53_$LT$impl$u20$core..fmt..LowerExp$u20$for$u20$f64$GT$3fmt17hab161d28c266dbf1E
                0x0000000000141080        0x0 ./gen/../tr_api_dispatch/target/armv7a-none-eabi/release/libitron.a(core-d049573bc16596f9.core.5587a85061e7188a-cgu.0.rcgu.o)
                                          0x8 (size before relaxing)
 .ARM.exidx.text._ZN4core3fmt5float53_$LT$impl$u20$core..fmt..UpperExp$u20$for$u20$f64$GT$3fmt17hfdc423d0ad75608dE
                0x0000000000141080        0x0 ./gen/../tr_api_dispatch/target/armv7a-none-eabi/release/libitron.a(core-d049573bc16596f9.core.5587a85061e7188a-cgu.0.rcgu.o)
                                          0x8 (size before relaxing)
 .ARM.exidx.text._ZN4core3fmt5float50_$LT$impl$u20$core..fmt..Debug$u20$for$u20$f16$GT$3fmt17h0275f4e20d5ac985E
                0x0000000000141080        0x0 ./gen/../tr_api_dispatch/target/armv7a-none-eabi/release/libitron.a(core-d049573bc16596f9.core.5587a85061e7188a-cgu.0.rcgu.o)
                                          0x8 (size before relaxing)
 .ARM.exidx.text._ZN4core3fmt5float52_$LT$impl$u20$core..fmt..Display$u20$for$u20$f16$GT$3fmt17h44d06f4ee009c844E
                0x0000000000141080        0x0 ./gen/../tr_api_dispatch/target/armv7a-none-eabi/release/libitron.a(core-d049573bc16596f9.core.5587a85061e7188a-cgu.0.rcgu.o)
                                          0x8 (size before relaxing)
 .ARM.exidx.text._ZN4core3fmt5float53_$LT$impl$u20$core..fmt..LowerExp$u20$for$u20$f16$GT$3fmt17h5cc0551d1f587a8bE
                0x0000000000141080        0x0 ./gen/../tr_api_dispatch/target/armv7a-none-eabi/release/libitron.a(core-d049573bc16596f9.core.5587a85061e7188a-cgu.0.rcgu.o)
                                          0x8 (size before relaxing)
 .ARM.exidx.text._ZN4core3fmt5float53_$LT$impl$u20$core..fmt..UpperExp$u20$for$u20$f16$GT$3fmt17h2a0ba872876a6cb1E
                0x0000000000141080        0x0 ./gen/../tr_api_dispatch/target/armv7a-none-eabi/release/libitron.a(core-d049573bc16596f9.core.5587a85061e7188a-cgu.0.rcgu.o)
                                          0x8 (size before relaxing)
 .ARM.exidx.text._ZN71_$LT$core..fmt..num..Binary$u20$as$u20$core..fmt..num..GenericRadix$GT$5digit17he4b6c679024b6753E
                0x0000000000141080        0x0 ./gen/../tr_api_dispatch/target/armv7a-none-eabi/release/libitron.a(core-d049573bc16596f9.core.5587a85061e7188a-cgu.0.rcgu.o)
                                          0x8 (size before relaxing)
 .ARM.exidx.text._ZN70_$LT$core..fmt..num..Octal$u20$as$u20$core..fmt..num..GenericRadix$GT$5digit17h6d524b5314e7839aE
                0x0000000000141080        0x0 ./gen/../tr_api_dispatch/target/armv7a-none-eabi/release/libitron.a(core-d049573bc16596f9.core.5587a85061e7188a-cgu.0.rcgu.o)
                                          0x8 (size before relaxing)
 .ARM.exidx.text._ZN73_$LT$core..fmt..num..LowerHex$u20$as$u20$core..fmt..num..GenericRadix$GT$5digit17h67093c0abfd72a34E
                0x0000000000141080        0x0 ./gen/../tr_api_dispatch/target/armv7a-none-eabi/release/libitron.a(core-d049573bc16596f9.core.5587a85061e7188a-cgu.0.rcgu.o)
                                          0x8 (size before relaxing)
 .ARM.exidx.text._ZN73_$LT$core..fmt..num..UpperHex$u20$as$u20$core..fmt..num..GenericRadix$GT$5digit17h2ebf7f3cf75c8942E
                0x0000000000141080        0x0 ./gen/../tr_api_dispatch/target/armv7a-none-eabi/release/libitron.a(core-d049573bc16596f9.core.5587a85061e7188a-cgu.0.rcgu.o)
                                          0x8 (size before relaxing)
 .ARM.exidx.text._ZN4core3fmt3num50_$LT$impl$u20$core..fmt..Binary$u20$for$u20$i8$GT$3fmt17hfb8e99514944e386E
                0x0000000000141080        0x0 ./gen/../tr_api_dispatch/target/armv7a-none-eabi/release/libitron.a(core-d049573bc16596f9.core.5587a85061e7188a-cgu.0.rcgu.o)
                                          0x8 (size before relaxing)
 .ARM.exidx.text._ZN4core3fmt3num49_$LT$impl$u20$core..fmt..Octal$u20$for$u20$i8$GT$3fmt17h16740b96b647866aE
                0x0000000000141080        0x0 ./gen/../tr_api_dispatch/target/armv7a-none-eabi/release/libitron.a(core-d049573bc16596f9.core.5587a85061e7188a-cgu.0.rcgu.o)
                                          0x8 (size before relaxing)
 .ARM.exidx.text._ZN4core3fmt3num52_$LT$impl$u20$core..fmt..LowerHex$u20$for$u20$i8$GT$3fmt17ha38e82f4b36477dfE
                0x0000000000141080        0x0 ./gen/../tr_api_dispatch/target/armv7a-none-eabi/release/libitron.a(core-d049573bc16596f9.core.5587a85061e7188a-cgu.0.rcgu.o)
                                          0x8 (size before relaxing)
 .ARM.exidx.text._ZN4core3fmt3num52_$LT$impl$u20$core..fmt..UpperHex$u20$for$u20$i8$GT$3fmt17hdbc78e6d81b9fc73E
                0x0000000000141080        0x0 ./gen/../tr_api_dispatch/target/armv7a-none-eabi/release/libitron.a(core-d049573bc16596f9.core.5587a85061e7188a-cgu.0.rcgu.o)
                                          0x8 (size before relaxing)
 .ARM.exidx.text._ZN4core3fmt3num51_$LT$impl$u20$core..fmt..Binary$u20$for$u20$i16$GT$3fmt17hd9dba8c56e1924baE
                0x0000000000141080        0x0 ./gen/../tr_api_dispatch/target/armv7a-none-eabi/release/libitron.a(core-d049573bc16596f9.core.5587a85061e7188a-cgu.0.rcgu.o)
                                          0x8 (size before relaxing)
 .ARM.exidx.text._ZN4core3fmt3num50_$LT$impl$u20$core..fmt..Octal$u20$for$u20$i16$GT$3fmt17h673945bd6fb3acfeE
                0x0000000000141080        0x0 ./gen/../tr_api_dispatch/target/armv7a-none-eabi/release/libitron.a(core-d049573bc16596f9.core.5587a85061e7188a-cgu.0.rcgu.o)
                                          0x8 (size before relaxing)
 .ARM.exidx.text._ZN4core3fmt3num53_$LT$impl$u20$core..fmt..LowerHex$u20$for$u20$i16$GT$3fmt17hd32e4fcbce79670aE
                0x0000000000141080        0x0 ./gen/../tr_api_dispatch/target/armv7a-none-eabi/release/libitron.a(core-d049573bc16596f9.core.5587a85061e7188a-cgu.0.rcgu.o)
                                          0x8 (size before relaxing)
 .ARM.exidx.text._ZN4core3fmt3num53_$LT$impl$u20$core..fmt..UpperHex$u20$for$u20$i16$GT$3fmt17hc507e3445ac18ebeE
                0x0000000000141080        0x0 ./gen/../tr_api_dispatch/target/armv7a-none-eabi/release/libitron.a(core-d049573bc16596f9.core.5587a85061e7188a-cgu.0.rcgu.o)
                                          0x8 (size before relaxing)
 .ARM.exidx.text._ZN4core3fmt3num51_$LT$impl$u20$core..fmt..Binary$u20$for$u20$i32$GT$3fmt17hd6aa21fb91002751E
                0x0000000000141080        0x0 ./gen/../tr_api_dispatch/target/armv7a-none-eabi/release/libitron.a(core-d049573bc16596f9.core.5587a85061e7188a-cgu.0.rcgu.o)
                                          0x8 (size before relaxing)
 .ARM.exidx.text._ZN4core3fmt3num50_$LT$impl$u20$core..fmt..Octal$u20$for$u20$i32$GT$3fmt17hdfdd079f8dc60dc7E
                0x0000000000141080        0x0 ./gen/../tr_api_dispatch/target/armv7a-none-eabi/release/libitron.a(core-d049573bc16596f9.core.5587a85061e7188a-cgu.0.rcgu.o)
                                          0x8 (size before relaxing)
 .ARM.exidx.text._ZN4core3fmt3num53_$LT$impl$u20$core..fmt..LowerHex$u20$for$u20$i32$GT$3fmt17h1bfe37b07cf28800E
                0x0000000000141080        0x0 ./gen/../tr_api_dispatch/target/armv7a-none-eabi/release/libitron.a(core-d049573bc16596f9.core.5587a85061e7188a-cgu.0.rcgu.o)
                                          0x8 (size before relaxing)
 .ARM.exidx.text._ZN4core3fmt3num53_$LT$impl$u20$core..fmt..UpperHex$u20$for$u20$i32$GT$3fmt17hf4441f29103186f0E
                0x0000000000141080        0x0 ./gen/../tr_api_dispatch/target/armv7a-none-eabi/release/libitron.a(core-d049573bc16596f9.core.5587a85061e7188a-cgu.0.rcgu.o)
                                          0x8 (size before relaxing)
 .ARM.exidx.text._ZN4core3fmt3num51_$LT$impl$u20$core..fmt..Binary$u20$for$u20$i64$GT$3fmt17h2344af75f6c15b7fE
                0x0000000000141080        0x0 ./gen/../tr_api_dispatch/target/armv7a-none-eabi/release/libitron.a(core-d049573bc16596f9.core.5587a85061e7188a-cgu.0.rcgu.o)
                                          0x8 (size before relaxing)
 .ARM.exidx.text._ZN4core3fmt3num50_$LT$impl$u20$core..fmt..Octal$u20$for$u20$i64$GT$3fmt17hc6f5294ea5289e43E
                0x0000000000141080        0x0 ./gen/../tr_api_dispatch/target/armv7a-none-eabi/release/libitron.a(core-d049573bc16596f9.core.5587a85061e7188a-cgu.0.rcgu.o)
                                          0x8 (size before relaxing)
 .ARM.exidx.text._ZN4core3fmt3num53_$LT$impl$u20$core..fmt..LowerHex$u20$for$u20$i64$GT$3fmt17hac7e501d59390ecfE
                0x0000000000141080        0x0 ./gen/../tr_api_dispatch/target/armv7a-none-eabi/release/libitron.a(core-d049573bc16596f9.core.5587a85061e7188a-cgu.0.rcgu.o)
                                          0x8 (size before relaxing)
 .ARM.exidx.text._ZN4core3fmt3num53_$LT$impl$u20$core..fmt..UpperHex$u20$for$u20$i64$GT$3fmt17h51257ca6c0f8239cE
                0x0000000000141080        0x0 ./gen/../tr_api_dispatch/target/armv7a-none-eabi/release/libitron.a(core-d049573bc16596f9.core.5587a85061e7188a-cgu.0.rcgu.o)
                                          0x8 (size before relaxing)
 .ARM.exidx.text._ZN4core3fmt3num52_$LT$impl$u20$core..fmt..Binary$u20$for$u20$i128$GT$3fmt17h7be091d3317e0d6cE
                0x0000000000141080        0x0 ./gen/../tr_api_dispatch/target/armv7a-none-eabi/release/libitron.a(core-d049573bc16596f9.core.5587a85061e7188a-cgu.0.rcgu.o)
                                          0x8 (size before relaxing)
 .ARM.exidx.text._ZN4core3fmt3num51_$LT$impl$u20$core..fmt..Octal$u20$for$u20$i128$GT$3fmt17h5fb2ef3ead5b0ea5E
                0x0000000000141080        0x0 ./gen/../tr_api_dispatch/target/armv7a-none-eabi/release/libitron.a(core-d049573bc16596f9.core.5587a85061e7188a-cgu.0.rcgu.o)
                                          0x8 (size before relaxing)
 .ARM.exidx.text._ZN4core3fmt3num54_$LT$impl$u20$core..fmt..LowerHex$u20$for$u20$i128$GT$3fmt17h4f123a38d1270953E
                0x0000000000141080        0x0 ./gen/../tr_api_dispatch/target/armv7a-none-eabi/release/libitron.a(core-d049573bc16596f9.core.5587a85061e7188a-cgu.0.rcgu.o)
                                          0x8 (size before relaxing)
 .ARM.exidx.text._ZN4core3fmt3num54_$LT$impl$u20$core..fmt..UpperHex$u20$for$u20$i128$GT$3fmt17ha49e3851795cfdefE
                0x0000000000141080        0x0 ./gen/../tr_api_dispatch/target/armv7a-none-eabi/release/libitron.a(core-d049573bc16596f9.core.5587a85061e7188a-cgu.0.rcgu.o)
                                          0x8 (size before relaxing)
 .ARM.exidx.text._ZN4core3fmt3num49_$LT$impl$u20$core..fmt..Debug$u20$for$u20$i8$GT$3fmt17h34acdd6c4c2b4cccE
                0x0000000000141080        0x0 ./gen/../tr_api_dispatch/target/armv7a-none-eabi/release/libitron.a(core-d049573bc16596f9.core.5587a85061e7188a-cgu.0.rcgu.o)
                                          0x8 (size before relaxing)
 .ARM.exidx.text._ZN4core3fmt3num49_$LT$impl$u20$core..fmt..Debug$u20$for$u20$u8$GT$3fmt17h8d8c411144315c72E
                0x0000000000141080        0x0 ./gen/../tr_api_dispatch/target/armv7a-none-eabi/release/libitron.a(core-d049573bc16596f9.core.5587a85061e7188a-cgu.0.rcgu.o)
                                          0x8 (size before relaxing)
 .ARM.exidx.text._ZN4core3fmt3num50_$LT$impl$u20$core..fmt..Debug$u20$for$u20$u32$GT$3fmt17h71bef540c929d311E
                0x0000000000141080        0x0 ./gen/../tr_api_dispatch/target/armv7a-none-eabi/release/libitron.a(core-d049573bc16596f9.core.5587a85061e7188a-cgu.0.rcgu.o)
                                          0x8 (size before relaxing)
 .ARM.exidx.text._ZN4core3fmt3num3imp51_$LT$impl$u20$core..fmt..Display$u20$for$u20$u8$GT$3fmt17hbcfcd188bf01c23fE
                0x0000000000141080        0x0 ./gen/../tr_api_dispatch/target/armv7a-none-eabi/release/libitron.a(core-d049573bc16596f9.core.5587a85061e7188a-cgu.0.rcgu.o)
                                          0x8 (size before relaxing)
 .ARM.exidx.text._ZN4core3fmt3num3imp51_$LT$impl$u20$core..fmt..Display$u20$for$u20$i8$GT$3fmt17hff22c034098846a1E
                0x0000000000141080        0x0 ./gen/../tr_api_dispatch/target/armv7a-none-eabi/release/libitron.a(core-d049573bc16596f9.core.5587a85061e7188a-cgu.0.rcgu.o)
                                          0x8 (size before relaxing)
 .ARM.exidx.text._ZN4core3fmt3num3imp20_$LT$impl$u20$u8$GT$4_fmt17hb5a7663e8a0544e3E
                0x0000000000141080        0x0 ./gen/../tr_api_dispatch/target/armv7a-none-eabi/release/libitron.a(core-d049573bc16596f9.core.5587a85061e7188a-cgu.0.rcgu.o)
                                          0x8 (size before relaxing)
 .ARM.exidx.text._ZN4core3fmt3num3imp52_$LT$impl$u20$core..fmt..Display$u20$for$u20$u16$GT$3fmt17hb807d5b07197dd3cE
                0x0000000000141080        0x0 ./gen/../tr_api_dispatch/target/armv7a-none-eabi/release/libitron.a(core-d049573bc16596f9.core.5587a85061e7188a-cgu.0.rcgu.o)
                                          0x8 (size before relaxing)
 .ARM.exidx.text._ZN4core3fmt3num3imp52_$LT$impl$u20$core..fmt..Display$u20$for$u20$i16$GT$3fmt17hd6d0d2db5935d675E
                0x0000000000141080        0x0 ./gen/../tr_api_dispatch/target/armv7a-none-eabi/release/libitron.a(core-d049573bc16596f9.core.5587a85061e7188a-cgu.0.rcgu.o)
                                          0x8 (size before relaxing)
 .ARM.exidx.text._ZN4core3fmt3num3imp21_$LT$impl$u20$u16$GT$4_fmt17h2eab8ac218d2ab0cE
                0x0000000000141080        0x0 ./gen/../tr_api_dispatch/target/armv7a-none-eabi/release/libitron.a(core-d049573bc16596f9.core.5587a85061e7188a-cgu.0.rcgu.o)
                                          0x8 (size before relaxing)
 .ARM.exidx.text._ZN4core3fmt3num3imp52_$LT$impl$u20$core..fmt..Display$u20$for$u20$u32$GT$3fmt17hfed0ce75b320fdfeE
                0x0000000000141080        0x0 ./gen/../tr_api_dispatch/target/armv7a-none-eabi/release/libitron.a(core-d049573bc16596f9.core.5587a85061e7188a-cgu.0.rcgu.o)
                                          0x8 (size before relaxing)
 .ARM.exidx.text._ZN4core3fmt3num3imp52_$LT$impl$u20$core..fmt..Display$u20$for$u20$i32$GT$3fmt17h6694708af44e6410E
                0x0000000000141080        0x0 ./gen/../tr_api_dispatch/target/armv7a-none-eabi/release/libitron.a(core-d049573bc16596f9.core.5587a85061e7188a-cgu.0.rcgu.o)
                                          0x8 (size before relaxing)
 .ARM.exidx.text._ZN4core3fmt3num3imp21_$LT$impl$u20$u32$GT$4_fmt17he3f4180fb8f739b6E
                0x0000000000141080        0x0 ./gen/../tr_api_dispatch/target/armv7a-none-eabi/release/libitron.a(core-d049573bc16596f9.core.5587a85061e7188a-cgu.0.rcgu.o)
                                          0x8 (size before relaxing)
 .ARM.exidx.text._ZN4core3fmt3num3imp52_$LT$impl$u20$core..fmt..Display$u20$for$u20$u64$GT$3fmt17hca688f18ea3812f0E
                0x0000000000141080        0x0 ./gen/../tr_api_dispatch/target/armv7a-none-eabi/release/libitron.a(core-d049573bc16596f9.core.5587a85061e7188a-cgu.0.rcgu.o)
                                          0x8 (size before relaxing)
 .ARM.exidx.text._ZN4core3fmt3num3imp52_$LT$impl$u20$core..fmt..Display$u20$for$u20$i64$GT$3fmt17h746d5f02f990caf3E
                0x0000000000141080        0x0 ./gen/../tr_api_dispatch/target/armv7a-none-eabi/release/libitron.a(core-d049573bc16596f9.core.5587a85061e7188a-cgu.0.rcgu.o)
                                          0x8 (size before relaxing)
 .ARM.exidx.text._ZN4core3fmt3num3imp21_$LT$impl$u20$u64$GT$4_fmt17h5cad236623dacc7fE
                0x0000000000141080        0x0 ./gen/../tr_api_dispatch/target/armv7a-none-eabi/release/libitron.a(core-d049573bc16596f9.core.5587a85061e7188a-cgu.0.rcgu.o)
                                          0x8 (size before relaxing)
 .ARM.exidx.text._ZN4core3fmt3num3imp7exp_u3217he01470f61c0319e7E
                0x0000000000141080        0x0 ./gen/../tr_api_dispatch/target/armv7a-none-eabi/release/libitron.a(core-d049573bc16596f9.core.5587a85061e7188a-cgu.0.rcgu.o)
                                          0x8 (size before relaxing)
 .ARM.exidx.text._ZN4core3fmt3num3imp52_$LT$impl$u20$core..fmt..LowerExp$u20$for$u20$i8$GT$3fmt17hc0edf995b11d88a4E
                0x0000000000141080        0x0 ./gen/../tr_api_dispatch/target/armv7a-none-eabi/release/libitron.a(core-d049573bc16596f9.core.5587a85061e7188a-cgu.0.rcgu.o)
                                          0x8 (size before relaxing)
 .ARM.exidx.text._ZN4core3fmt3num3imp52_$LT$impl$u20$core..fmt..LowerExp$u20$for$u20$u8$GT$3fmt17h9f71b4e1975c97b3E
                0x0000000000141080        0x0 ./gen/../tr_api_dispatch/target/armv7a-none-eabi/release/libitron.a(core-d049573bc16596f9.core.5587a85061e7188a-cgu.0.rcgu.o)
                                          0x8 (size before relaxing)
 .ARM.exidx.text._ZN4core3fmt3num3imp53_$LT$impl$u20$core..fmt..LowerExp$u20$for$u20$i16$GT$3fmt17h2ec4792f26758582E
                0x0000000000141080        0x0 ./gen/../tr_api_dispatch/target/armv7a-none-eabi/release/libitron.a(core-d049573bc16596f9.core.5587a85061e7188a-cgu.0.rcgu.o)
                                          0x8 (size before relaxing)
 .ARM.exidx.text._ZN4core3fmt3num3imp53_$LT$impl$u20$core..fmt..LowerExp$u20$for$u20$u16$GT$3fmt17he1630ced7897f954E
                0x0000000000141080        0x0 ./gen/../tr_api_dispatch/target/armv7a-none-eabi/release/libitron.a(core-d049573bc16596f9.core.5587a85061e7188a-cgu.0.rcgu.o)
                                          0x8 (size before relaxing)
 .ARM.exidx.text._ZN4core3fmt3num3imp53_$LT$impl$u20$core..fmt..LowerExp$u20$for$u20$i32$GT$3fmt17hc830ff5284d762bdE
                0x0000000000141080        0x0 ./gen/../tr_api_dispatch/target/armv7a-none-eabi/release/libitron.a(core-d049573bc16596f9.core.5587a85061e7188a-cgu.0.rcgu.o)
                                          0x8 (size before relaxing)
 .ARM.exidx.text._ZN4core3fmt3num3imp53_$LT$impl$u20$core..fmt..LowerExp$u20$for$u20$u32$GT$3fmt17he84cd695e6f75fd8E
                0x0000000000141080        0x0 ./gen/../tr_api_dispatch/target/armv7a-none-eabi/release/libitron.a(core-d049573bc16596f9.core.5587a85061e7188a-cgu.0.rcgu.o)
                                          0x8 (size before relaxing)
 .ARM.exidx.text._ZN4core3fmt3num3imp52_$LT$impl$u20$core..fmt..UpperExp$u20$for$u20$i8$GT$3fmt17h3cc98f3a87f4ea66E
                0x0000000000141080        0x0 ./gen/../tr_api_dispatch/target/armv7a-none-eabi/release/libitron.a(core-d049573bc16596f9.core.5587a85061e7188a-cgu.0.rcgu.o)
                                          0x8 (size before relaxing)
 .ARM.exidx.text._ZN4core3fmt3num3imp52_$LT$impl$u20$core..fmt..UpperExp$u20$for$u20$u8$GT$3fmt17h04e779386a1b925eE
                0x0000000000141080        0x0 ./gen/../tr_api_dispatch/target/armv7a-none-eabi/release/libitron.a(core-d049573bc16596f9.core.5587a85061e7188a-cgu.0.rcgu.o)
                                          0x8 (size before relaxing)
 .ARM.exidx.text._ZN4core3fmt3num3imp53_$LT$impl$u20$core..fmt..UpperExp$u20$for$u20$i16$GT$3fmt17ha0dd815a12b4d383E
                0x0000000000141080        0x0 ./gen/../tr_api_dispatch/target/armv7a-none-eabi/release/libitron.a(core-d049573bc16596f9.core.5587a85061e7188a-cgu.0.rcgu.o)
                                          0x8 (size before relaxing)
 .ARM.exidx.text._ZN4core3fmt3num3imp53_$LT$impl$u20$core..fmt..UpperExp$u20$for$u20$u16$GT$3fmt17h07d48ce0e1e749dcE
                0x0000000000141080        0x0 ./gen/../tr_api_dispatch/target/armv7a-none-eabi/release/libitron.a(core-d049573bc16596f9.core.5587a85061e7188a-cgu.0.rcgu.o)
                                          0x8 (size before relaxing)
 .ARM.exidx.text._ZN4core3fmt3num3imp53_$LT$impl$u20$core..fmt..UpperExp$u20$for$u20$i32$GT$3fmt17hf0350addfa1667d3E
                0x0000000000141080        0x0 ./gen/../tr_api_dispatch/target/armv7a-none-eabi/release/libitron.a(core-d049573bc16596f9.core.5587a85061e7188a-cgu.0.rcgu.o)
                                          0x8 (size before relaxing)
 .ARM.exidx.text._ZN4core3fmt3num3imp53_$LT$impl$u20$core..fmt..UpperExp$u20$for$u20$u32$GT$3fmt17he78d3191f07bcd68E
                0x0000000000141080        0x0 ./gen/../tr_api_dispatch/target/armv7a-none-eabi/release/libitron.a(core-d049573bc16596f9.core.5587a85061e7188a-cgu.0.rcgu.o)
                                          0x8 (size before relaxing)
 .ARM.exidx.text._ZN4core3fmt3num3imp7exp_u6417h10bcc1a2e249db0dE
                0x0000000000141080        0x0 ./gen/../tr_api_dispatch/target/armv7a-none-eabi/release/libitron.a(core-d049573bc16596f9.core.5587a85061e7188a-cgu.0.rcgu.o)
                                          0x8 (size before relaxing)
 .ARM.exidx.text._ZN4core3fmt3num3imp53_$LT$impl$u20$core..fmt..LowerExp$u20$for$u20$i64$GT$3fmt17hcf4752f526debdaeE
                0x0000000000141080        0x0 ./gen/../tr_api_dispatch/target/armv7a-none-eabi/release/libitron.a(core-d049573bc16596f9.core.5587a85061e7188a-cgu.0.rcgu.o)
                                          0x8 (size before relaxing)
 .ARM.exidx.text._ZN4core3fmt3num3imp53_$LT$impl$u20$core..fmt..LowerExp$u20$for$u20$u64$GT$3fmt17h1137bee068b4f16aE
                0x0000000000141080        0x0 ./gen/../tr_api_dispatch/target/armv7a-none-eabi/release/libitron.a(core-d049573bc16596f9.core.5587a85061e7188a-cgu.0.rcgu.o)
                                          0x8 (size before relaxing)
 .ARM.exidx.text._ZN4core3fmt3num3imp53_$LT$impl$u20$core..fmt..UpperExp$u20$for$u20$i64$GT$3fmt17hb868ad8f77e533adE
                0x0000000000141080        0x0 ./gen/../tr_api_dispatch/target/armv7a-none-eabi/release/libitron.a(core-d049573bc16596f9.core.5587a85061e7188a-cgu.0.rcgu.o)
                                          0x8 (size before relaxing)
 .ARM.exidx.text._ZN4core3fmt3num3imp53_$LT$impl$u20$core..fmt..UpperExp$u20$for$u20$u64$GT$3fmt17h63c965249d38ffaaE
                0x0000000000141080        0x0 ./gen/../tr_api_dispatch/target/armv7a-none-eabi/release/libitron.a(core-d049573bc16596f9.core.5587a85061e7188a-cgu.0.rcgu.o)
                                          0x8 (size before relaxing)
 .ARM.exidx.text._ZN4core3fmt3num8exp_u12817hebe915adc93a3f65E
                0x0000000000141080        0x0 ./gen/../tr_api_dispatch/target/armv7a-none-eabi/release/libitron.a(core-d049573bc16596f9.core.5587a85061e7188a-cgu.0.rcgu.o)
                                          0x8 (size before relaxing)
 .ARM.exidx.text._ZN4core3fmt3num54_$LT$impl$u20$core..fmt..LowerExp$u20$for$u20$i128$GT$3fmt17h5da6959838468447E
                0x0000000000141080        0x0 ./gen/../tr_api_dispatch/target/armv7a-none-eabi/release/libitron.a(core-d049573bc16596f9.core.5587a85061e7188a-cgu.0.rcgu.o)
                                          0x8 (size before relaxing)
 .ARM.exidx.text._ZN4core3fmt3num54_$LT$impl$u20$core..fmt..LowerExp$u20$for$u20$u128$GT$3fmt17h376c18320fa0ab27E
                0x0000000000141080        0x0 ./gen/../tr_api_dispatch/target/armv7a-none-eabi/release/libitron.a(core-d049573bc16596f9.core.5587a85061e7188a-cgu.0.rcgu.o)
                                          0x8 (size before relaxing)
 .ARM.exidx.text._ZN4core3fmt3num54_$LT$impl$u20$core..fmt..UpperExp$u20$for$u20$i128$GT$3fmt17h4fa0aa44e9ac138bE
                0x0000000000141080        0x0 ./gen/../tr_api_dispatch/target/armv7a-none-eabi/release/libitron.a(core-d049573bc16596f9.core.5587a85061e7188a-cgu.0.rcgu.o)
                                          0x8 (size before relaxing)
 .ARM.exidx.text._ZN4core3fmt3num54_$LT$impl$u20$core..fmt..UpperExp$u20$for$u20$u128$GT$3fmt17h8104a47a73970792E
                0x0000000000141080        0x0 ./gen/../tr_api_dispatch/target/armv7a-none-eabi/release/libitron.a(core-d049573bc16596f9.core.5587a85061e7188a-cgu.0.rcgu.o)
                                          0x8 (size before relaxing)
 .ARM.exidx.text._ZN53_$LT$core..fmt..Error$u20$as$u20$core..fmt..Debug$GT$3fmt17h1fc33b0efc6d4457E
                0x0000000000141080        0x0 ./gen/../tr_api_dispatch/target/armv7a-none-eabi/release/libitron.a(core-d049573bc16596f9.core.5587a85061e7188a-cgu.0.rcgu.o)
                                          0x8 (size before relaxing)
 .ARM.exidx.text._ZN42_$LT$$RF$T$u20$as$u20$core..fmt..Debug$GT$3fmt17h24b88fa73242f32eE
                0x0000000000141080        0x0 ./gen/../tr_api_dispatch/target/armv7a-none-eabi/release/libitron.a(core-d049573bc16596f9.core.5587a85061e7188a-cgu.0.rcgu.o)
                                          0x8 (size before relaxing)
 .ARM.exidx.text._ZN42_$LT$$RF$T$u20$as$u20$core..fmt..Debug$GT$3fmt17h2b8606028715b277E
                0x0000000000141080        0x0 ./gen/../tr_api_dispatch/target/armv7a-none-eabi/release/libitron.a(core-d049573bc16596f9.core.5587a85061e7188a-cgu.0.rcgu.o)
                                          0x8 (size before relaxing)
 .ARM.exidx.text._ZN42_$LT$$RF$T$u20$as$u20$core..fmt..Debug$GT$3fmt17h2c94c47449fce077E
                0x0000000000141080        0x0 ./gen/../tr_api_dispatch/target/armv7a-none-eabi/release/libitron.a(core-d049573bc16596f9.core.5587a85061e7188a-cgu.0.rcgu.o)
                                          0x8 (size before relaxing)
 .ARM.exidx.text._ZN42_$LT$$RF$T$u20$as$u20$core..fmt..Debug$GT$3fmt17hf161bf64d7c0ef1eE
                0x0000000000141080        0x0 ./gen/../tr_api_dispatch/target/armv7a-none-eabi/release/libitron.a(core-d049573bc16596f9.core.5587a85061e7188a-cgu.0.rcgu.o)
                                          0x8 (size before relaxing)
 .ARM.exidx.text._ZN44_$LT$$RF$T$u20$as$u20$core..fmt..Display$GT$3fmt17h61386bb67a2fbd60E
                0x0000000000141080        0x0 ./gen/../tr_api_dispatch/target/armv7a-none-eabi/release/libitron.a(core-d049573bc16596f9.core.5587a85061e7188a-cgu.0.rcgu.o)
                                          0x8 (size before relaxing)
 .ARM.exidx.text._ZN44_$LT$$RF$T$u20$as$u20$core..fmt..Display$GT$3fmt17h8f0befc82ddda638E
                0x0000000000141080        0x0 ./gen/../tr_api_dispatch/target/armv7a-none-eabi/release/libitron.a(core-d049573bc16596f9.core.5587a85061e7188a-cgu.0.rcgu.o)
                                          0x8 (size before relaxing)
 .ARM.exidx.text._ZN44_$LT$$RF$T$u20$as$u20$core..fmt..Display$GT$3fmt17hfac9eb6f9e514871E
                0x0000000000141080        0x0 ./gen/../tr_api_dispatch/target/armv7a-none-eabi/release/libitron.a(core-d049573bc16596f9.core.5587a85061e7188a-cgu.0.rcgu.o)
                                          0x8 (size before relaxing)
 .ARM.exidx.text._ZN44_$LT$$RF$T$u20$as$u20$core..fmt..Display$GT$3fmt17hfcf05cee7c9056f6E
                0x0000000000141080        0x0 ./gen/../tr_api_dispatch/target/armv7a-none-eabi/release/libitron.a(core-d049573bc16596f9.core.5587a85061e7188a-cgu.0.rcgu.o)
                                          0x8 (size before relaxing)
 .ARM.exidx.text._ZN45_$LT$$RF$T$u20$as$u20$core..fmt..LowerHex$GT$3fmt17ha26303ddcb46393bE
                0x0000000000141080        0x0 ./gen/../tr_api_dispatch/target/armv7a-none-eabi/release/libitron.a(core-d049573bc16596f9.core.5587a85061e7188a-cgu.0.rcgu.o)
                                          0x8 (size before relaxing)
 .ARM.exidx.text.unlikely._ZN4core5slice5index26slice_start_index_len_fail8do_panic7runtime17h6b9a2d72cc528d7dE
                0x0000000000141080        0x0 ./gen/../tr_api_dispatch/target/armv7a-none-eabi/release/libitron.a(core-d049573bc16596f9.core.5587a85061e7188a-cgu.0.rcgu.o)
                                          0x8 (size before relaxing)
 .ARM.exidx.text.unlikely._ZN4core5slice5index24slice_end_index_len_fail8do_panic7runtime17h389d609c37b06f43E
                0x0000000000141080        0x0 ./gen/../tr_api_dispatch/target/armv7a-none-eabi/release/libitron.a(core-d049573bc16596f9.core.5587a85061e7188a-cgu.0.rcgu.o)
                                          0x8 (size before relaxing)
 .ARM.exidx.text.unlikely._ZN4core5slice5index22slice_index_order_fail8do_panic7runtime17hba4d89077763ab27E
                0x0000000000141080        0x0 ./gen/../tr_api_dispatch/target/armv7a-none-eabi/release/libitron.a(core-d049573bc16596f9.core.5587a85061e7188a-cgu.0.rcgu.o)
                                          0x8 (size before relaxing)
 .ARM.exidx.text.unlikely._ZN4core5slice29_$LT$impl$u20$$u5b$T$u5d$$GT$15copy_from_slice17len_mismatch_fail8do_panic7runtime17ha2cc200a2ee383aeE
                0x0000000000141080        0x0 ./gen/../tr_api_dispatch/target/armv7a-none-eabi/release/libitron.a(core-d049573bc16596f9.core.5587a85061e7188a-cgu.0.rcgu.o)
                                          0x8 (size before relaxing)
 .ARM.exidx.text._ZN67_$LT$core..str..iter..EscapeDebug$u20$as$u20$core..fmt..Display$GT$3fmt17h2e2431f416ffb01dE
                0x0000000000141080        0x0 ./gen/../tr_api_dispatch/target/armv7a-none-eabi/release/libitron.a(core-d049573bc16596f9.core.5587a85061e7188a-cgu.0.rcgu.o)
                                          0x8 (size before relaxing)
 .ARM.exidx.text._ZN69_$LT$core..str..iter..EscapeDefault$u20$as$u20$core..fmt..Display$GT$3fmt17ha94bdd14781dc3d5E
                0x0000000000141080        0x0 ./gen/../tr_api_dispatch/target/armv7a-none-eabi/release/libitron.a(core-d049573bc16596f9.core.5587a85061e7188a-cgu.0.rcgu.o)
                                          0x8 (size before relaxing)
 .ARM.exidx.text._ZN69_$LT$core..str..iter..EscapeUnicode$u20$as$u20$core..fmt..Display$GT$3fmt17h5c27075c7f7ee5aeE
                0x0000000000141080        0x0 ./gen/../tr_api_dispatch/target/armv7a-none-eabi/release/libitron.a(core-d049573bc16596f9.core.5587a85061e7188a-cgu.0.rcgu.o)
                                          0x8 (size before relaxing)
 .ARM.exidx.text._ZN4core7unicode12unicode_data10alphabetic6lookup17h0425ea10b4aa7bf8E
                0x0000000000141080        0x0 ./gen/../tr_api_dispatch/target/armv7a-none-eabi/release/libitron.a(core-d049573bc16596f9.core.5587a85061e7188a-cgu.0.rcgu.o)
                                          0x8 (size before relaxing)
 .ARM.exidx.text._ZN4core7unicode12unicode_data14case_ignorable6lookup17ha88a31073cb4ea00E
                0x0000000000141080        0x0 ./gen/../tr_api_dispatch/target/armv7a-none-eabi/release/libitron.a(core-d049573bc16596f9.core.5587a85061e7188a-cgu.0.rcgu.o)
                                          0x8 (size before relaxing)
 .ARM.exidx.text._ZN4core7unicode12unicode_data5cased6lookup17h855070ae3579273aE
                0x0000000000141080        0x0 ./gen/../tr_api_dispatch/target/armv7a-none-eabi/release/libitron.a(core-d049573bc16596f9.core.5587a85061e7188a-cgu.0.rcgu.o)
                                          0x8 (size before relaxing)
 .ARM.exidx.text._ZN4core7unicode12unicode_data2cc6lookup17hbd92340422846ed5E
                0x0000000000141080        0x0 ./gen/../tr_api_dispatch/target/armv7a-none-eabi/release/libitron.a(core-d049573bc16596f9.core.5587a85061e7188a-cgu.0.rcgu.o)
                                          0x8 (size before relaxing)
 .ARM.exidx.text._ZN4core7unicode12unicode_data15grapheme_extend11lookup_slow17ha0f2bcc528f4b24fE
                0x0000000000141080        0x0 ./gen/../tr_api_dispatch/target/armv7a-none-eabi/release/libitron.a(core-d049573bc16596f9.core.5587a85061e7188a-cgu.0.rcgu.o)
                                          0x8 (size before relaxing)
 .ARM.exidx.text._ZN4core7unicode12unicode_data9lowercase6lookup17h25b6cb6d69b065d2E
                0x0000000000141080        0x0 ./gen/../tr_api_dispatch/target/armv7a-none-eabi/release/libitron.a(core-d049573bc16596f9.core.5587a85061e7188a-cgu.0.rcgu.o)
                                          0x8 (size before relaxing)
 .ARM.exidx.text._ZN4core7unicode12unicode_data1n6lookup17hab35f8f69f966811E
                0x0000000000141080        0x0 ./gen/../tr_api_dispatch/target/armv7a-none-eabi/release/libitron.a(core-d049573bc16596f9.core.5587a85061e7188a-cgu.0.rcgu.o)
                                          0x8 (size before relaxing)
 .ARM.exidx.text._ZN4core7unicode12unicode_data9uppercase6lookup17h93e2abe42af36001E
                0x0000000000141080        0x0 ./gen/../tr_api_dispatch/target/armv7a-none-eabi/release/libitron.a(core-d049573bc16596f9.core.5587a85061e7188a-cgu.0.rcgu.o)
                                          0x8 (size before relaxing)
 .ARM.exidx.text._ZN4core7unicode12unicode_data11conversions8to_lower17h8b23e01b2072e971E
                0x0000000000141080        0x0 ./gen/../tr_api_dispatch/target/armv7a-none-eabi/release/libitron.a(core-d049573bc16596f9.core.5587a85061e7188a-cgu.0.rcgu.o)
                                          0x8 (size before relaxing)
 .ARM.exidx.text._ZN4core7unicode12unicode_data11conversions8to_upper17hb90ef9b0b7a7f5d4E
                0x0000000000141080        0x0 ./gen/../tr_api_dispatch/target/armv7a-none-eabi/release/libitron.a(core-d049573bc16596f9.core.5587a85061e7188a-cgu.0.rcgu.o)
                                          0x8 (size before relaxing)
 .ARM.exidx.text.__aeabi_memset
                0x0000000000141080        0x0 ./gen/../tr_api_dispatch/target/armv7a-none-eabi/release/libitron.a(compiler_builtins-70f608aea3cde50d.compiler_builtins.5a681add74c93a61-cgu.162.rcgu.o)
                                          0x8 (size before relaxing)
 .ARM.exidx.text.__aeabi_memcpy4
                0x0000000000141080        0x0 ./gen/../tr_api_dispatch/target/armv7a-none-eabi/release/libitron.a(compiler_builtins-70f608aea3cde50d.compiler_builtins.5a681add74c93a61-cgu.174.rcgu.o)
                                          0x8 (size before relaxing)
 .ARM.exidx.text.__aeabi_dmul
                0x0000000000141080        0x0 ./gen/../tr_api_dispatch/target/armv7a-none-eabi/release/libitron.a(compiler_builtins-70f608aea3cde50d.compiler_builtins.5a681add74c93a61-cgu.178.rcgu.o)
                                          0x8 (size before relaxing)
 .ARM.exidx.text.__aeabi_fcmplt
                0x0000000000141080        0x0 ./gen/../tr_api_dispatch/target/armv7a-none-eabi/release/libitron.a(compiler_builtins-70f608aea3cde50d.compiler_builtins.5a681add74c93a61-cgu.180.rcgu.o)
                                          0x8 (size before relaxing)
 .ARM.exidx.text.__aeabi_memclr4
                0x0000000000141080        0x0 ./gen/../tr_api_dispatch/target/armv7a-none-eabi/release/libitron.a(compiler_builtins-70f608aea3cde50d.compiler_builtins.5a681add74c93a61-cgu.201.rcgu.o)
                                          0x8 (size before relaxing)
 .ARM.exidx.text.__aeabi_fcmpge
                0x0000000000141080        0x0 ./gen/../tr_api_dispatch/target/armv7a-none-eabi/release/libitron.a(compiler_builtins-70f608aea3cde50d.compiler_builtins.5a681add74c93a61-cgu.206.rcgu.o)
                                          0x8 (size before relaxing)
 .ARM.exidx.text.__aeabi_f2h
                0x0000000000141080        0x0 ./gen/../tr_api_dispatch/target/armv7a-none-eabi/release/libitron.a(compiler_builtins-70f608aea3cde50d.compiler_builtins.5a681add74c93a61-cgu.210.rcgu.o)
                                          0x8 (size before relaxing)
 .ARM.exidx.text.__aeabi_memcpy
                0x0000000000141080        0x0 ./gen/../tr_api_dispatch/target/armv7a-none-eabi/release/libitron.a(compiler_builtins-70f608aea3cde50d.compiler_builtins.5a681add74c93a61-cgu.223.rcgu.o)
                                          0x8 (size before relaxing)
 .ARM.exidx.text.__aeabi_memcpy8
                0x0000000000141080        0x0 ./gen/../tr_api_dispatch/target/armv7a-none-eabi/release/libitron.a(compiler_builtins-70f608aea3cde50d.compiler_builtins.5a681add74c93a61-cgu.253.rcgu.o)
                                          0x8 (size before relaxing)
 .ARM.exidx.text.__aeabi_dcmplt
                0x0000000000141080        0x0 ./gen/../tr_api_dispatch/target/armv7a-none-eabi/release/libitron.a(compiler_builtins-70f608aea3cde50d.compiler_builtins.5a681add74c93a61-cgu.261.rcgu.o)
                                          0x8 (size before relaxing)
 .ARM.exidx.text.__aeabi_ddiv
                0x0000000000141080        0x0 ./gen/../tr_api_dispatch/target/armv7a-none-eabi/release/libitron.a(compiler_builtins-70f608aea3cde50d.compiler_builtins.5a681add74c93a61-cgu.263.rcgu.o)
                                          0x8 (size before relaxing)
 .ARM.exidx.text.__aeabi_ul2d
                0x0000000000141080        0x0 ./gen/../tr_api_dispatch/target/armv7a-none-eabi/release/libitron.a(compiler_builtins-70f608aea3cde50d.compiler_builtins.5a681add74c93a61-cgu.270.rcgu.o)
                                          0x8 (size before relaxing)
 .ARM.exidx.text.__aeabi_fcmpeq
                0x0000000000141080        0x0 ./gen/../tr_api_dispatch/target/armv7a-none-eabi/release/libitron.a(compiler_builtins-70f608aea3cde50d.compiler_builtins.5a681add74c93a61-cgu.283.rcgu.o)
                                          0x8 (size before relaxing)
 .ARM.exidx.text.__aeabi_dcmpeq
                0x0000000000141080        0x0 ./gen/../tr_api_dispatch/target/armv7a-none-eabi/release/libitron.a(compiler_builtins-70f608aea3cde50d.compiler_builtins.5a681add74c93a61-cgu.287.rcgu.o)
                                          0x8 (size before relaxing)
 .ARM.exidx.text.__aeabi_h2f
                0x0000000000141080        0x0 ./gen/../tr_api_dispatch/target/armv7a-none-eabi/release/libitron.a(compiler_builtins-70f608aea3cde50d.compiler_builtins.5a681add74c93a61-cgu.300.rcgu.o)
                                          0x8 (size before relaxing)
 .ARM.exidx.text.memcmp
                0x0000000000141080        0x0 ./gen/../tr_api_dispatch/target/armv7a-none-eabi/release/libitron.a(compiler_builtins-70f608aea3cde50d.compiler_builtins.5a681add74c93a61-cgu.310.rcgu.o)
                                          0x8 (size before relaxing)
 .ARM.exidx.text.__aeabi_fdiv
                0x0000000000141080        0x0 ./gen/../tr_api_dispatch/target/armv7a-none-eabi/release/libitron.a(compiler_builtins-70f608aea3cde50d.compiler_builtins.5a681add74c93a61-cgu.355.rcgu.o)
                                          0x8 (size before relaxing)
 .ARM.exidx.text.__aeabi_dcmpge
                0x0000000000141080        0x0 ./gen/../tr_api_dispatch/target/armv7a-none-eabi/release/libitron.a(compiler_builtins-70f608aea3cde50d.compiler_builtins.5a681add74c93a61-cgu.361.rcgu.o)
                                          0x8 (size before relaxing)
 .ARM.exidx.text.__aeabi_ul2f
                0x0000000000141080        0x0 ./gen/../tr_api_dispatch/target/armv7a-none-eabi/release/libitron.a(compiler_builtins-70f608aea3cde50d.compiler_builtins.5a681add74c93a61-cgu.365.rcgu.o)
                                          0x8 (size before relaxing)
 .ARM.exidx.text.__aeabi_memclr8
                0x0000000000141080        0x0 ./gen/../tr_api_dispatch/target/armv7a-none-eabi/release/libitron.a(compiler_builtins-70f608aea3cde50d.compiler_builtins.5a681add74c93a61-cgu.375.rcgu.o)
                                          0x8 (size before relaxing)
 .ARM.exidx.text.__aeabi_fmul
                0x0000000000141080        0x0 ./gen/../tr_api_dispatch/target/armv7a-none-eabi/release/libitron.a(compiler_builtins-70f608aea3cde50d.compiler_builtins.5a681add74c93a61-cgu.393.rcgu.o)
                                          0x8 (size before relaxing)
 .ARM.exidx.text.__aeabi_memclr
                0x0000000000141080        0x0 ./gen/../tr_api_dispatch/target/armv7a-none-eabi/release/libitron.a(compiler_builtins-70f608aea3cde50d.compiler_builtins.5a681add74c93a61-cgu.395.rcgu.o)
                                          0x8 (size before relaxing)
 .ARM.exidx.text._ZN17compiler_builtins5float3div3div17he78d0620a7b75566E
                0x0000000000141080        0x0 ./gen/../tr_api_dispatch/target/armv7a-none-eabi/release/libitron.a(compiler_builtins-70f608aea3cde50d.compiler_builtins.5a681add74c93a61-cgu.000.rcgu.o)
                                          0x8 (size before relaxing)
 .ARM.exidx.text._ZN17compiler_builtins5float3div8__divsf317h2b1d2160bcddc788E
                0x0000000000141080        0x0 ./gen/../tr_api_dispatch/target/armv7a-none-eabi/release/libitron.a(compiler_builtins-70f608aea3cde50d.compiler_builtins.5a681add74c93a61-cgu.000.rcgu.o)
                                          0x8 (size before relaxing)
 .ARM.exidx.text._ZN17compiler_builtins5float3div8__divdf317hce8b9ad476be59d6E
                0x0000000000141080        0x0 ./gen/../tr_api_dispatch/target/armv7a-none-eabi/release/libitron.a(compiler_builtins-70f608aea3cde50d.compiler_builtins.5a681add74c93a61-cgu.000.rcgu.o)
                                          0x8 (size before relaxing)
 .ARM.exidx.text._ZN17compiler_builtins5float3mul3mul17hf2a17768751d3093E
                0x0000000000141080        0x0 ./gen/../tr_api_dispatch/target/armv7a-none-eabi/release/libitron.a(compiler_builtins-70f608aea3cde50d.compiler_builtins.5a681add74c93a61-cgu.004.rcgu.o)
                                          0x8 (size before relaxing)
 .ARM.exidx.text._ZN17compiler_builtins5float3mul8__mulsf317h25278f3241c059d4E
                0x0000000000141080        0x0 ./gen/../tr_api_dispatch/target/armv7a-none-eabi/release/libitron.a(compiler_builtins-70f608aea3cde50d.compiler_builtins.5a681add74c93a61-cgu.004.rcgu.o)
                                          0x8 (size before relaxing)
 .ARM.exidx.text._ZN17compiler_builtins5float3mul8__muldf317hccb81ca3c0286231E
                0x0000000000141080        0x0 ./gen/../tr_api_dispatch/target/armv7a-none-eabi/release/libitron.a(compiler_builtins-70f608aea3cde50d.compiler_builtins.5a681add74c93a61-cgu.004.rcgu.o)
                                          0x8 (size before relaxing)
 .ARM.exidx.text._ZN17compiler_builtins3mem6memcpy17h2e27bf7b653d77b8E
                0x0000000000141080        0x0 ./gen/../tr_api_dispatch/target/armv7a-none-eabi/release/libitron.a(compiler_builtins-70f608aea3cde50d.compiler_builtins.5a681add74c93a61-cgu.009.rcgu.o)
                                          0x8 (size before relaxing)
 .ARM.exidx.text._ZN17compiler_builtins3mem7memmove17h5a3e1228d8082146E
                0x0000000000141080        0x0 ./gen/../tr_api_dispatch/target/armv7a-none-eabi/release/libitron.a(compiler_builtins-70f608aea3cde50d.compiler_builtins.5a681add74c93a61-cgu.009.rcgu.o)
                                          0x8 (size before relaxing)
 .ARM.exidx.text._ZN17compiler_builtins3mem6memset17h37b1769849978255E
                0x0000000000141080        0x0 ./gen/../tr_api_dispatch/target/armv7a-none-eabi/release/libitron.a(compiler_builtins-70f608aea3cde50d.compiler_builtins.5a681add74c93a61-cgu.009.rcgu.o)
                                          0x8 (size before relaxing)
 .ARM.exidx.text._ZN17compiler_builtins3mem4bcmp17h6438afe9a882ff74E
                0x0000000000141080        0x0 ./gen/../tr_api_dispatch/target/armv7a-none-eabi/release/libitron.a(compiler_builtins-70f608aea3cde50d.compiler_builtins.5a681add74c93a61-cgu.009.rcgu.o)
                                          0x8 (size before relaxing)
 .ARM.exidx.text._ZN17compiler_builtins3mem6strlen17hdb1c52627ea21c52E
                0x0000000000141080        0x0 ./gen/../tr_api_dispatch/target/armv7a-none-eabi/release/libitron.a(compiler_builtins-70f608aea3cde50d.compiler_builtins.5a681add74c93a61-cgu.009.rcgu.o)
                                          0x8 (size before relaxing)
 .ARM.exidx.text._ZN84_$LT$compiler_builtins..int..big..u256$u20$as$u20$core..ops..bit..Shr$LT$u32$GT$$GT$3shr17h700137e2b572ae43E
                0x0000000000141080        0x0 ./gen/../tr_api_dispatch/target/armv7a-none-eabi/release/libitron.a(compiler_builtins-70f608aea3cde50d.compiler_builtins.5a681add74c93a61-cgu.019.rcgu.o)
                                          0x8 (size before relaxing)
 .ARM.exidx.text._ZN17compiler_builtins3int3big71_$LT$impl$u20$compiler_builtins..int..traits..HInt$u20$for$u20$u128$GT$14zero_widen_mul17h2a6f60738a72942fE
                0x0000000000141080        0x0 ./gen/../tr_api_dispatch/target/armv7a-none-eabi/release/libitron.a(compiler_builtins-70f608aea3cde50d.compiler_builtins.5a681add74c93a61-cgu.019.rcgu.o)
                                          0x8 (size before relaxing)
 .ARM.exidx.text._ZN17compiler_builtins3int3big71_$LT$impl$u20$compiler_builtins..int..traits..HInt$u20$for$u20$i128$GT$14zero_widen_mul17h757cd97f511fe0d1E
                0x0000000000141080        0x0 ./gen/../tr_api_dispatch/target/armv7a-none-eabi/release/libitron.a(compiler_builtins-70f608aea3cde50d.compiler_builtins.5a681add74c93a61-cgu.019.rcgu.o)
                                          0x8 (size before relaxing)
 .ARM.exidx.text.unlikely._ZN17compiler_builtins3int3big71_$LT$impl$u20$compiler_builtins..int..traits..HInt$u20$for$u20$i128$GT$9widen_mul17hbe745c677a8cf624E
                0x0000000000141080        0x0 ./gen/../tr_api_dispatch/target/armv7a-none-eabi/release/libitron.a(compiler_builtins-70f608aea3cde50d.compiler_builtins.5a681add74c93a61-cgu.019.rcgu.o)
                                          0x8 (size before relaxing)
 .ARM.exidx.text.unlikely._ZN17compiler_builtins3int3big71_$LT$impl$u20$compiler_builtins..int..traits..HInt$u20$for$u20$i128$GT$8widen_hi17hd02f55ec31f3daf8E
                0x0000000000141080        0x0 ./gen/../tr_api_dispatch/target/armv7a-none-eabi/release/libitron.a(compiler_builtins-70f608aea3cde50d.compiler_builtins.5a681add74c93a61-cgu.019.rcgu.o)
                                          0x8 (size before relaxing)
 .ARM.exidx.text._ZN90_$LT$compiler_builtins..int..big..i256$u20$as$u20$compiler_builtins..int..traits..DInt$GT$2lo17h7b22363a25d41783E
                0x0000000000141080        0x0 ./gen/../tr_api_dispatch/target/armv7a-none-eabi/release/libitron.a(compiler_builtins-70f608aea3cde50d.compiler_builtins.5a681add74c93a61-cgu.019.rcgu.o)
                                          0x8 (size before relaxing)
 .ARM.exidx.text._ZN90_$LT$compiler_builtins..int..big..i256$u20$as$u20$compiler_builtins..int..traits..DInt$GT$2hi17h3540cc33fb75817bE
                0x0000000000141080        0x0 ./gen/../tr_api_dispatch/target/armv7a-none-eabi/release/libitron.a(compiler_builtins-70f608aea3cde50d.compiler_builtins.5a681add74c93a61-cgu.019.rcgu.o)
                                          0x8 (size before relaxing)
 .ARM.exidx.text._ZN17compiler_builtins3int6traits4DInt5lo_hi17ha308a58add6cc6a0E
                0x0000000000141080        0x0 ./gen/../tr_api_dispatch/target/armv7a-none-eabi/release/libitron.a(compiler_builtins-70f608aea3cde50d.compiler_builtins.5a681add74c93a61-cgu.019.rcgu.o)
                                          0x8 (size before relaxing)
 .ARM.exidx.text.unlikely._ZN84_$LT$compiler_builtins..int..big..i256$u20$as$u20$core..ops..bit..Shl$LT$u32$GT$$GT$3shl17h7aea36307c5c7502E
                0x0000000000141080        0x0 ./gen/../tr_api_dispatch/target/armv7a-none-eabi/release/libitron.a(compiler_builtins-70f608aea3cde50d.compiler_builtins.5a681add74c93a61-cgu.019.rcgu.o)
                                          0x8 (size before relaxing)
 .ARM.exidx.text.__udivmoddi4
                0x0000000000141080        0x0 ./gen/../tr_api_dispatch/target/armv7a-none-eabi/release/libitron.a(compiler_builtins-70f608aea3cde50d.compiler_builtins.5a681add74c93a61-cgu.347.rcgu.o)
                                          0x8 (size before relaxing)
 .ARM.exidx.text._ZN17compiler_builtins3int19specialized_div_rem12u128_div_rem17h745fc7146425b8c6E
                0x0000000000141080        0x0 ./gen/../tr_api_dispatch/target/armv7a-none-eabi/release/libitron.a(compiler_builtins-70f608aea3cde50d.compiler_builtins.5a681add74c93a61-cgu.010.rcgu.o)
                                          0x8 (size before relaxing)
 .ARM.exidx.text._ZN17compiler_builtins3int19specialized_div_rem11u64_div_rem17h1dcded8ad6a6aa41E
                0x0000000000141080        0x0 ./gen/../tr_api_dispatch/target/armv7a-none-eabi/release/libitron.a(compiler_builtins-70f608aea3cde50d.compiler_builtins.5a681add74c93a61-cgu.010.rcgu.o)
                                          0x8 (size before relaxing)
                0x0000000000141080                __exidx_end = .

.rel.dyn        0x0000000000141080        0x0
 .rel.iplt      0x0000000000141080        0x0 objs/start.o

.data           0x0000000000141080       0x40
                0x0000000000141080                __start_data = .
 *(.data)
 .data          0x0000000000141080        0x0 objs/start.o
 .data          0x0000000000141080        0x0 objs/log_output.o
 .data          0x0000000000141080        0x0 objs/vasyslog.o
 .data          0x0000000000141080        0x0 objs/t_perror.o
 .data          0x0000000000141080        0x0 objs/strerror.o
 .data          0x0000000000141080        0x0 objs/tTask_rProcessor1Migratable_tecsgen.o
 .data          0x0000000000141080        0x0 objs/tSemaphore_rProcessor1Migratable_tecsgen.o
 .data          0x0000000000141080        0x0 objs/tInterruptRequest_rProcessor1Migratable_tecsgen.o
 .data          0x0000000000141080        0x0 objs/tISR_rProcessor1Migratable_tecsgen.o
 .data          0x0000000000141080        0x0 objs/tInitializeRoutine_rProcessor1Migratable_tecsgen.o
 .data          0x0000000000141080        0x0 objs/tTerminateRoutine_rProcessor1Migratable_tecsgen.o
 .data          0x0000000000141080        0x0 objs/tSerialPortMain_rProcessor1Migratable_tecsgen.o
 .data          0x0000000000141080        0x0 objs/tSerialAdapter_rProcessor1Migratable_tecsgen.o
 .data          0x0000000000141080        0x0 objs/tSysLog_rProcessor1Migratable_tecsgen.o
 .data          0x0000000000141080        0x0 objs/tSysLogAdapter_rProcessor1Migratable_tecsgen.o
 .data          0x0000000000141080        0x0 objs/tLogTaskMain_rProcessor1Migratable_tecsgen.o
 .data          0x0000000000141080        0x0 objs/tBannerMain_rProcessor1Migratable_tecsgen.o
 .data          0x0000000000141080        0x0 objs/tPutLogZyboZ7_rProcessor1Migratable_tecsgen.o
 .data          0x0000000000141080        0x0 objs/tXUartPs_rProcessor1Migratable_tecsgen.o
 .data          0x0000000000141080        0x0 objs/tSIOPortZyboZ7Main_rProcessor1Migratable_tecsgen.o
 .data          0x0000000000141080        0x0 objs/tTask.o
 .data          0x0000000000141080        0x0 objs/tInterruptRequest.o
 .data          0x0000000000141080        0x0 objs/tISR.o
 .data          0x0000000000141080        0x0 objs/tInitializeRoutine.o
 .data          0x0000000000141080        0x0 objs/tTerminateRoutine.o
 .data          0x0000000000141080        0x0 objs/tSerialPortMain.o
 .data          0x0000000000141080        0x0 objs/tSerialAdapter.o
 .data          0x0000000000141080        0x0 objs/tSysLog.o
 .data          0x0000000000141080        0x0 objs/tSysLogAdapter.o
 .data          0x0000000000141080        0x0 objs/tLogTaskMain.o
 .data          0x0000000000141080        0x0 objs/tBannerMain.o
 .data          0x0000000000141080        0x0 objs/tPutLogZyboZ7.o
 .data          0x0000000000141080        0x0 objs/tXUartPs.o
 .data          0x0000000000141080        0x0 objs/init_tecs.o
 .data          0x0000000000141080        0x0 objs/kernel_cfg.o
 .data          0x0000000000141080        0x0 ./gen/../tr_api_dispatch/target/armv7a-none-eabi/release/libitron.a(63f8a0b8a638da8c-udivmodsi4.o)
 .data          0x0000000000141080        0x0 ./gen/../tr_api_dispatch/target/armv7a-none-eabi/release/libitron.a(63f8a0b8a638da8c-udivsi3.o)
 .data          0x0000000000141080        0x0 ./gen/../tr_api_dispatch/target/armv7a-none-eabi/release/libitron.a(63f8a0b8a638da8c-aeabi_div0.o)
 .data          0x0000000000141080       0x40 ./libkernel.a(target_kernel_impl.o)
                0x0000000000141080                arm_memory_area
 .data          0x00000000001410c0        0x0 ./libkernel.a(chip_kernel_impl.o)
 .data          0x00000000001410c0        0x0 ./libkernel.a(mpcore_kernel_impl.o)
 .data          0x00000000001410c0        0x0 ./libkernel.a(gic_kernel_impl.o)
 .data          0x00000000001410c0        0x0 ./libkernel.a(pl310.o)
 .data          0x00000000001410c0        0x0 ./libkernel.a(mpcore_timer.o)
 .data          0x00000000001410c0        0x0 ./libkernel.a(core_kernel_impl.o)
 .data          0x00000000001410c0        0x0 ./libkernel.a(arm.o)
 .data          0x00000000001410c0        0x0 ./libkernel.a(startup.o)
 .data          0x00000000001410c0        0x0 ./libkernel.a(task.o)
 .data          0x00000000001410c0        0x0 ./libkernel.a(taskhook.o)
 .data          0x00000000001410c0        0x0 ./libkernel.a(wait.o)
 .data          0x00000000001410c0        0x0 ./libkernel.a(time_event.o)
 .data          0x00000000001410c0        0x0 ./libkernel.a(task_manage.o)
 .data          0x00000000001410c0        0x0 ./libkernel.a(task_refer.o)
 .data          0x00000000001410c0        0x0 ./libkernel.a(task_sync.o)
 .data          0x00000000001410c0        0x0 ./libkernel.a(semaphore.o)
 .data          0x00000000001410c0        0x0 ./libkernel.a(spin_lock.o)
 .data          0x00000000001410c0        0x0 ./libkernel.a(sys_manage.o)
 .data          0x00000000001410c0        0x0 ./libkernel.a(interrupt.o)
 .data          0x00000000001410c0        0x0 ./libkernel.a(core_support.o)
 .data          0x00000000001410c0        0x0 ./libkernel.a(task_term.o)
 .data          0x00000000001410c0        0x0 ./libkernel.a(gic_support.o)
 .data          0x00000000001410c0        0x0 /usr/lib/gcc/arm-none-eabi/10.3.1/../../../arm-none-eabi/lib/thumb/v7-a/nofp/libc.a(lib_a-memset.o)
 *(.data.*)
                0x00000000001410c0                __end_data = .
                0x0000000000141080                __start_idata = LOADADDR (.data)

.igot.plt       0x00000000001410c0        0x0
 .igot.plt      0x00000000001410c0        0x0 objs/start.o
                0x00000000001410c0                . = ALIGN (0x4)
                0x00000000001410c0                _edata = .
                [!provide]                        PROVIDE (edata = .)

.bss            0x00000000001410c0     0xe498
                0x00000000001410c0                __start_bss = .
 *(.bss)
 .bss           0x00000000001410c0        0x0 objs/start.o
 .bss           0x00000000001410c0        0x0 objs/log_output.o
 .bss           0x00000000001410c0        0x0 objs/vasyslog.o
 .bss           0x00000000001410c0        0x0 objs/t_perror.o
 .bss           0x00000000001410c0        0x0 objs/strerror.o
 .bss           0x00000000001410c0        0x0 objs/tTask_rProcessor1Migratable_tecsgen.o
 .bss           0x00000000001410c0        0x0 objs/tSemaphore_rProcessor1Migratable_tecsgen.o
 .bss           0x00000000001410c0        0x0 objs/tInterruptRequest_rProcessor1Migratable_tecsgen.o
 .bss           0x00000000001410c0        0x0 objs/tISR_rProcessor1Migratable_tecsgen.o
 .bss           0x00000000001410c0        0x0 objs/tInitializeRoutine_rProcessor1Migratable_tecsgen.o
 .bss           0x00000000001410c0        0x0 objs/tTerminateRoutine_rProcessor1Migratable_tecsgen.o
 .bss           0x00000000001410c0      0x234 objs/tSerialPortMain_rProcessor1Migratable_tecsgen.o
                0x00000000001410c0                tSerialPortMain_CB_tab
                0x00000000001410f4                tSerialPortMain_SerialPort1_SerialPortMain_CB_sendBuffer_INIT
                0x00000000001411f4                tSerialPortMain_SerialPort1_SerialPortMain_CB_receiveBuffer_INIT
 .bss           0x00000000001412f4        0x0 objs/tSerialAdapter_rProcessor1Migratable_tecsgen.o
 .bss           0x00000000001412f4      0x49c objs/tSysLog_rProcessor1Migratable_tecsgen.o
                0x00000000001412f4                tSysLog_SINGLE_CELL_CB
                0x0000000000141310                tSysLog_SINGLE_CELL_CB_logBuffer_INIT
 .bss           0x0000000000141790        0x0 objs/tSysLogAdapter_rProcessor1Migratable_tecsgen.o
 .bss           0x0000000000141790        0x0 objs/tLogTaskMain_rProcessor1Migratable_tecsgen.o
 .bss           0x0000000000141790        0x0 objs/tBannerMain_rProcessor1Migratable_tecsgen.o
 .bss           0x0000000000141790        0x0 objs/tPutLogZyboZ7_rProcessor1Migratable_tecsgen.o
 .bss           0x0000000000141790        0x8 objs/tXUartPs_rProcessor1Migratable_tecsgen.o
                0x0000000000141790                tXUartPs_CB_tab
 .bss           0x0000000000141798        0x0 objs/tSIOPortZyboZ7Main_rProcessor1Migratable_tecsgen.o
 .bss           0x0000000000141798        0x0 objs/tTask.o
 .bss           0x0000000000141798        0x0 objs/tInterruptRequest.o
 .bss           0x0000000000141798        0x0 objs/tISR.o
 .bss           0x0000000000141798        0x0 objs/tInitializeRoutine.o
 .bss           0x0000000000141798        0x0 objs/tTerminateRoutine.o
 .bss           0x0000000000141798        0x0 objs/tSerialPortMain.o
 .bss           0x0000000000141798        0x0 objs/tSerialAdapter.o
 .bss           0x0000000000141798        0x0 objs/tSysLog.o
 .bss           0x0000000000141798        0x0 objs/tSysLogAdapter.o
 .bss           0x0000000000141798        0x0 objs/tLogTaskMain.o
 .bss           0x0000000000141798        0x0 objs/tBannerMain.o
 .bss           0x0000000000141798        0x0 objs/tPutLogZyboZ7.o
 .bss           0x0000000000141798        0x0 objs/tXUartPs.o
 .bss           0x0000000000141798        0x0 objs/init_tecs.o
 .bss           0x0000000000141798       0x18 objs/kernel_cfg.o
                0x0000000000141798                _kernel_tevtcb_prc2
                0x00000000001417a0                _kernel_tevtcb_prc1
                0x00000000001417a8                _kernel_kerflg_table
 .bss           0x00000000001417b0        0x0 ./gen/../tr_api_dispatch/target/armv7a-none-eabi/release/libitron.a(63f8a0b8a638da8c-udivmodsi4.o)
 .bss           0x00000000001417b0        0x0 ./gen/../tr_api_dispatch/target/armv7a-none-eabi/release/libitron.a(63f8a0b8a638da8c-udivsi3.o)
 .bss           0x00000000001417b0        0x0 ./gen/../tr_api_dispatch/target/armv7a-none-eabi/release/libitron.a(63f8a0b8a638da8c-aeabi_div0.o)
 .bss           0x00000000001417b0        0x0 ./libkernel.a(target_kernel_impl.o)
 .bss           0x00000000001417b0        0x0 ./libkernel.a(chip_kernel_impl.o)
 .bss           0x00000000001417b0        0x0 ./libkernel.a(mpcore_kernel_impl.o)
 .bss           0x00000000001417b0        0x0 ./libkernel.a(gic_kernel_impl.o)
 .bss           0x00000000001417b0        0x0 ./libkernel.a(pl310.o)
 .bss           0x00000000001417b0        0x0 ./libkernel.a(mpcore_timer.o)
 *fill*         0x00000000001417b0     0x2850 
 .bss           0x0000000000144000     0x4010 ./libkernel.a(core_kernel_impl.o)
                0x0000000000148000                _kernel_giant_lock
                0x0000000000148004                TOPPERS_sil_spn_var
                0x0000000000148008                _kernel_start_sync
 .bss           0x0000000000148010        0x0 ./libkernel.a(arm.o)
 .bss           0x0000000000148010        0xc ./libkernel.a(startup.o)
 .bss           0x000000000014801c        0x0 ./libkernel.a(task.o)
 .bss           0x000000000014801c        0xc ./libkernel.a(taskhook.o)
                0x000000000014801c                _kernel_mtxhook_release_all
                0x0000000000148020                _kernel_mtxhook_scan_ceilmtx
                0x0000000000148024                _kernel_mtxhook_check_ceilpri
 .bss           0x0000000000148028        0x0 ./libkernel.a(wait.o)
 .bss           0x0000000000148028       0x1c ./libkernel.a(time_event.o)
                0x0000000000148028                _kernel_current_evttim
                0x000000000014802c                _kernel_boundary_evttim
                0x0000000000148030                _kernel_monotonic_evttim
                0x0000000000148038                _kernel_systim_offset
                0x0000000000148040                _kernel_current_hrtcnt
 .bss           0x0000000000148044        0x0 ./libkernel.a(task_manage.o)
 .bss           0x0000000000148044        0x0 ./libkernel.a(task_refer.o)
 .bss           0x0000000000148044        0x0 ./libkernel.a(task_sync.o)
 .bss           0x0000000000148044        0x0 ./libkernel.a(semaphore.o)
 .bss           0x0000000000148044        0x0 ./libkernel.a(spin_lock.o)
 .bss           0x0000000000148044        0x0 ./libkernel.a(sys_manage.o)
 .bss           0x0000000000148044        0x0 ./libkernel.a(interrupt.o)
 .bss           0x0000000000148044        0x0 ./libkernel.a(core_support.o)
 .bss           0x0000000000148044        0x0 ./libkernel.a(task_term.o)
 .bss           0x0000000000148044        0x0 ./libkernel.a(gic_support.o)
 .bss           0x0000000000148044        0x0 /usr/lib/gcc/arm-none-eabi/10.3.1/../../../arm-none-eabi/lib/thumb/v7-a/nofp/libc.a(lib_a-memset.o)
 *(.bss.*)
 .bss..L_MergedGlobals
                0x0000000000148044        0x8 ./gen/../tr_api_dispatch/target/armv7a-none-eabi/release/libitron.a(itron-6a63da1272844731.itron.fdadab565b6f4d55-cgu.0.rcgu.o)
 *(.kernel_data_*)
 .kernel_data_CLS_ALL_PRC1
                0x000000000014804c      0x174 objs/kernel_cfg.o
 .kernel_data_CLS_ALL_PRC2
                0x00000000001481c0       0xcc objs/kernel_cfg.o
 .kernel_data_CLS_PRC1
                0x000000000014828c       0x44 objs/kernel_cfg.o
 .kernel_data_CLS_PRC2
                0x00000000001482d0       0x88 objs/kernel_cfg.o
 *(.stack*)
 .stack_CLS_ALL_PRC1
                0x0000000000148358     0x3900 objs/kernel_cfg.o
 .stack_CLS_ALL_PRC2
                0x000000000014bc58     0x2100 objs/kernel_cfg.o
 .stack_CLS_PRC1
                0x000000000014dd58      0x800 objs/kernel_cfg.o
 .stack_CLS_PRC2
                0x000000000014e558     0x1000 objs/kernel_cfg.o
 *(COMMON)
                0x000000000014f558                __end_bss = .
                0x000000000014f558                . = ALIGN (0x4)
                0x000000000014f558                _end = .
                0x000000000014f558                _heap = .
                [!provide]                        PROVIDE (end = .)

.comment        0x0000000000000000       0x67
 *(.comment)
 .comment       0x0000000000000000       0x33 objs/log_output.o
                                         0x34 (size before relaxing)
 .comment       0x0000000000000033       0x34 objs/vasyslog.o
 .comment       0x0000000000000033       0x34 objs/t_perror.o
 .comment       0x0000000000000033       0x34 objs/strerror.o
 .comment       0x0000000000000033       0x34 objs/tTask_rProcessor1Migratable_tecsgen.o
 .comment       0x0000000000000033       0x34 objs/tSemaphore_rProcessor1Migratable_tecsgen.o
 .comment       0x0000000000000033       0x34 objs/tInterruptRequest_rProcessor1Migratable_tecsgen.o
 .comment       0x0000000000000033       0x34 objs/tISR_rProcessor1Migratable_tecsgen.o
 .comment       0x0000000000000033       0x34 objs/tInitializeRoutine_rProcessor1Migratable_tecsgen.o
 .comment       0x0000000000000033       0x34 objs/tTerminateRoutine_rProcessor1Migratable_tecsgen.o
 .comment       0x0000000000000033       0x34 objs/tSerialPortMain_rProcessor1Migratable_tecsgen.o
 .comment       0x0000000000000033       0x34 objs/tSerialAdapter_rProcessor1Migratable_tecsgen.o
 .comment       0x0000000000000033       0x34 objs/tSysLog_rProcessor1Migratable_tecsgen.o
 .comment       0x0000000000000033       0x34 objs/tSysLogAdapter_rProcessor1Migratable_tecsgen.o
 .comment       0x0000000000000033       0x34 objs/tLogTaskMain_rProcessor1Migratable_tecsgen.o
 .comment       0x0000000000000033       0x34 objs/tBannerMain_rProcessor1Migratable_tecsgen.o
 .comment       0x0000000000000033       0x34 objs/tPutLogZyboZ7_rProcessor1Migratable_tecsgen.o
 .comment       0x0000000000000033       0x34 objs/tXUartPs_rProcessor1Migratable_tecsgen.o
 .comment       0x0000000000000033       0x34 objs/tSIOPortZyboZ7Main_rProcessor1Migratable_tecsgen.o
 .comment       0x0000000000000033       0x34 objs/tTask.o
 .comment       0x0000000000000033       0x34 objs/tInterruptRequest.o
 .comment       0x0000000000000033       0x34 objs/tISR.o
 .comment       0x0000000000000033       0x34 objs/tInitializeRoutine.o
 .comment       0x0000000000000033       0x34 objs/tTerminateRoutine.o
 .comment       0x0000000000000033       0x34 objs/tSerialPortMain.o
 .comment       0x0000000000000033       0x34 objs/tSerialAdapter.o
 .comment       0x0000000000000033       0x34 objs/tSysLog.o
 .comment       0x0000000000000033       0x34 objs/tSysLogAdapter.o
 .comment       0x0000000000000033       0x34 objs/tLogTaskMain.o
 .comment       0x0000000000000033       0x34 objs/tBannerMain.o
 .comment       0x0000000000000033       0x34 objs/tPutLogZyboZ7.o
 .comment       0x0000000000000033       0x34 objs/tXUartPs.o
 .comment       0x0000000000000033       0x34 objs/init_tecs.o
 .comment       0x0000000000000033       0x34 objs/kernel_cfg.o
 .comment       0x0000000000000033       0x34 ./gen/../tr_api_dispatch/target/armv7a-none-eabi/release/libitron.a(itron-6a63da1272844731.itron.fdadab565b6f4d55-cgu.0.rcgu.o)
                                         0x35 (size before relaxing)
 .comment       0x0000000000000067       0x35 ./gen/../tr_api_dispatch/target/armv7a-none-eabi/release/libitron.a(itron-fbcb73bf0b635dd5.itron.68e737fdf62a80e5-cgu.0.rcgu.o)
 .comment       0x0000000000000067       0x35 ./gen/../tr_api_dispatch/target/armv7a-none-eabi/release/libitron.a(core-d049573bc16596f9.core.5587a85061e7188a-cgu.0.rcgu.o)
 .comment       0x0000000000000067       0x35 ./gen/../tr_api_dispatch/target/armv7a-none-eabi/release/libitron.a(compiler_builtins-70f608aea3cde50d.compiler_builtins.5a681add74c93a61-cgu.162.rcgu.o)
 .comment       0x0000000000000067       0x35 ./gen/../tr_api_dispatch/target/armv7a-none-eabi/release/libitron.a(compiler_builtins-70f608aea3cde50d.compiler_builtins.5a681add74c93a61-cgu.174.rcgu.o)
 .comment       0x0000000000000067       0x35 ./gen/../tr_api_dispatch/target/armv7a-none-eabi/release/libitron.a(compiler_builtins-70f608aea3cde50d.compiler_builtins.5a681add74c93a61-cgu.178.rcgu.o)
 .comment       0x0000000000000067       0x35 ./gen/../tr_api_dispatch/target/armv7a-none-eabi/release/libitron.a(compiler_builtins-70f608aea3cde50d.compiler_builtins.5a681add74c93a61-cgu.180.rcgu.o)
 .comment       0x0000000000000067       0x35 ./gen/../tr_api_dispatch/target/armv7a-none-eabi/release/libitron.a(compiler_builtins-70f608aea3cde50d.compiler_builtins.5a681add74c93a61-cgu.201.rcgu.o)
 .comment       0x0000000000000067       0x35 ./gen/../tr_api_dispatch/target/armv7a-none-eabi/release/libitron.a(compiler_builtins-70f608aea3cde50d.compiler_builtins.5a681add74c93a61-cgu.206.rcgu.o)
 .comment       0x0000000000000067       0x35 ./gen/../tr_api_dispatch/target/armv7a-none-eabi/release/libitron.a(compiler_builtins-70f608aea3cde50d.compiler_builtins.5a681add74c93a61-cgu.210.rcgu.o)
 .comment       0x0000000000000067       0x35 ./gen/../tr_api_dispatch/target/armv7a-none-eabi/release/libitron.a(compiler_builtins-70f608aea3cde50d.compiler_builtins.5a681add74c93a61-cgu.223.rcgu.o)
 .comment       0x0000000000000067       0x35 ./gen/../tr_api_dispatch/target/armv7a-none-eabi/release/libitron.a(compiler_builtins-70f608aea3cde50d.compiler_builtins.5a681add74c93a61-cgu.253.rcgu.o)
 .comment       0x0000000000000067       0x35 ./gen/../tr_api_dispatch/target/armv7a-none-eabi/release/libitron.a(compiler_builtins-70f608aea3cde50d.compiler_builtins.5a681add74c93a61-cgu.261.rcgu.o)
 .comment       0x0000000000000067       0x35 ./gen/../tr_api_dispatch/target/armv7a-none-eabi/release/libitron.a(compiler_builtins-70f608aea3cde50d.compiler_builtins.5a681add74c93a61-cgu.263.rcgu.o)
 .comment       0x0000000000000067       0x35 ./gen/../tr_api_dispatch/target/armv7a-none-eabi/release/libitron.a(compiler_builtins-70f608aea3cde50d.compiler_builtins.5a681add74c93a61-cgu.270.rcgu.o)
 .comment       0x0000000000000067       0x35 ./gen/../tr_api_dispatch/target/armv7a-none-eabi/release/libitron.a(compiler_builtins-70f608aea3cde50d.compiler_builtins.5a681add74c93a61-cgu.283.rcgu.o)
 .comment       0x0000000000000067       0x35 ./gen/../tr_api_dispatch/target/armv7a-none-eabi/release/libitron.a(compiler_builtins-70f608aea3cde50d.compiler_builtins.5a681add74c93a61-cgu.287.rcgu.o)
 .comment       0x0000000000000067       0x35 ./gen/../tr_api_dispatch/target/armv7a-none-eabi/release/libitron.a(compiler_builtins-70f608aea3cde50d.compiler_builtins.5a681add74c93a61-cgu.300.rcgu.o)
 .comment       0x0000000000000067       0x35 ./gen/../tr_api_dispatch/target/armv7a-none-eabi/release/libitron.a(compiler_builtins-70f608aea3cde50d.compiler_builtins.5a681add74c93a61-cgu.310.rcgu.o)
 .comment       0x0000000000000067       0x35 ./gen/../tr_api_dispatch/target/armv7a-none-eabi/release/libitron.a(compiler_builtins-70f608aea3cde50d.compiler_builtins.5a681add74c93a61-cgu.355.rcgu.o)
 .comment       0x0000000000000067       0x35 ./gen/../tr_api_dispatch/target/armv7a-none-eabi/release/libitron.a(compiler_builtins-70f608aea3cde50d.compiler_builtins.5a681add74c93a61-cgu.361.rcgu.o)
 .comment       0x0000000000000067       0x35 ./gen/../tr_api_dispatch/target/armv7a-none-eabi/release/libitron.a(compiler_builtins-70f608aea3cde50d.compiler_builtins.5a681add74c93a61-cgu.365.rcgu.o)
 .comment       0x0000000000000067       0x35 ./gen/../tr_api_dispatch/target/armv7a-none-eabi/release/libitron.a(compiler_builtins-70f608aea3cde50d.compiler_builtins.5a681add74c93a61-cgu.375.rcgu.o)
 .comment       0x0000000000000067       0x35 ./gen/../tr_api_dispatch/target/armv7a-none-eabi/release/libitron.a(compiler_builtins-70f608aea3cde50d.compiler_builtins.5a681add74c93a61-cgu.393.rcgu.o)
 .comment       0x0000000000000067       0x35 ./gen/../tr_api_dispatch/target/armv7a-none-eabi/release/libitron.a(compiler_builtins-70f608aea3cde50d.compiler_builtins.5a681add74c93a61-cgu.395.rcgu.o)
 .comment       0x0000000000000067       0x35 ./gen/../tr_api_dispatch/target/armv7a-none-eabi/release/libitron.a(compiler_builtins-70f608aea3cde50d.compiler_builtins.5a681add74c93a61-cgu.410.rcgu.o)
 .comment       0x0000000000000067       0x35 ./gen/../tr_api_dispatch/target/armv7a-none-eabi/release/libitron.a(compiler_builtins-70f608aea3cde50d.compiler_builtins.5a681add74c93a61-cgu.411.rcgu.o)
 .comment       0x0000000000000067       0x35 ./gen/../tr_api_dispatch/target/armv7a-none-eabi/release/libitron.a(compiler_builtins-70f608aea3cde50d.compiler_builtins.5a681add74c93a61-cgu.000.rcgu.o)
 .comment       0x0000000000000067       0x35 ./gen/../tr_api_dispatch/target/armv7a-none-eabi/release/libitron.a(compiler_builtins-70f608aea3cde50d.compiler_builtins.5a681add74c93a61-cgu.004.rcgu.o)
 .comment       0x0000000000000067       0x35 ./gen/../tr_api_dispatch/target/armv7a-none-eabi/release/libitron.a(compiler_builtins-70f608aea3cde50d.compiler_builtins.5a681add74c93a61-cgu.009.rcgu.o)
 .comment       0x0000000000000067       0x35 ./gen/../tr_api_dispatch/target/armv7a-none-eabi/release/libitron.a(compiler_builtins-70f608aea3cde50d.compiler_builtins.5a681add74c93a61-cgu.019.rcgu.o)
 .comment       0x0000000000000067       0x35 ./gen/../tr_api_dispatch/target/armv7a-none-eabi/release/libitron.a(compiler_builtins-70f608aea3cde50d.compiler_builtins.5a681add74c93a61-cgu.347.rcgu.o)
 .comment       0x0000000000000067       0x34 ./gen/../tr_api_dispatch/target/armv7a-none-eabi/release/libitron.a(63f8a0b8a638da8c-aeabi_div0.o)
 .comment       0x0000000000000067       0x35 ./gen/../tr_api_dispatch/target/armv7a-none-eabi/release/libitron.a(compiler_builtins-70f608aea3cde50d.compiler_builtins.5a681add74c93a61-cgu.010.rcgu.o)
 .comment       0x0000000000000067       0x34 ./libkernel.a(target_kernel_impl.o)
 .comment       0x0000000000000067       0x34 ./libkernel.a(chip_kernel_impl.o)
 .comment       0x0000000000000067       0x34 ./libkernel.a(mpcore_kernel_impl.o)
 .comment       0x0000000000000067       0x34 ./libkernel.a(gic_kernel_impl.o)
 .comment       0x0000000000000067       0x34 ./libkernel.a(pl310.o)
 .comment       0x0000000000000067       0x34 ./libkernel.a(mpcore_timer.o)
 .comment       0x0000000000000067       0x34 ./libkernel.a(core_kernel_impl.o)
 .comment       0x0000000000000067       0x34 ./libkernel.a(arm.o)
 .comment       0x0000000000000067       0x34 ./libkernel.a(startup.o)
 .comment       0x0000000000000067       0x34 ./libkernel.a(task.o)
 .comment       0x0000000000000067       0x34 ./libkernel.a(taskhook.o)
 .comment       0x0000000000000067       0x34 ./libkernel.a(wait.o)
 .comment       0x0000000000000067       0x34 ./libkernel.a(time_event.o)
 .comment       0x0000000000000067       0x34 ./libkernel.a(task_manage.o)
 .comment       0x0000000000000067       0x34 ./libkernel.a(task_refer.o)
 .comment       0x0000000000000067       0x34 ./libkernel.a(task_sync.o)
 .comment       0x0000000000000067       0x34 ./libkernel.a(semaphore.o)
 .comment       0x0000000000000067       0x34 ./libkernel.a(spin_lock.o)
 .comment       0x0000000000000067       0x34 ./libkernel.a(sys_manage.o)
 .comment       0x0000000000000067       0x34 ./libkernel.a(interrupt.o)
 .comment       0x0000000000000067       0x34 ./libkernel.a(task_term.o)
 .comment       0x0000000000000067       0x34 /usr/lib/gcc/arm-none-eabi/10.3.1/../../../arm-none-eabi/lib/thumb/v7-a/nofp/libc.a(lib_a-memset.o)
                0x0000000001000000                _heap_size = 0x1000000
                0x000000000114f558                _heap_limit = (_heap + _heap_size)

.ARM.attributes
                0x0000000000000000       0x35
 .ARM.attributes
                0x0000000000000000       0x21 objs/start.o
 .ARM.attributes
                0x0000000000000021       0x33 objs/log_output.o
 .ARM.attributes
                0x0000000000000054       0x33 objs/vasyslog.o
 .ARM.attributes
                0x0000000000000087       0x33 objs/t_perror.o
 .ARM.attributes
                0x00000000000000ba       0x33 objs/strerror.o
 .ARM.attributes
                0x00000000000000ed       0x33 objs/tTask_rProcessor1Migratable_tecsgen.o
 .ARM.attributes
                0x0000000000000120       0x33 objs/tSemaphore_rProcessor1Migratable_tecsgen.o
 .ARM.attributes
                0x0000000000000153       0x33 objs/tInterruptRequest_rProcessor1Migratable_tecsgen.o
 .ARM.attributes
                0x0000000000000186       0x33 objs/tISR_rProcessor1Migratable_tecsgen.o
 .ARM.attributes
                0x00000000000001b9       0x33 objs/tInitializeRoutine_rProcessor1Migratable_tecsgen.o
 .ARM.attributes
                0x00000000000001ec       0x33 objs/tTerminateRoutine_rProcessor1Migratable_tecsgen.o
 .ARM.attributes
                0x000000000000021f       0x33 objs/tSerialPortMain_rProcessor1Migratable_tecsgen.o
 .ARM.attributes
                0x0000000000000252       0x33 objs/tSerialAdapter_rProcessor1Migratable_tecsgen.o
 .ARM.attributes
                0x0000000000000285       0x33 objs/tSysLog_rProcessor1Migratable_tecsgen.o
 .ARM.attributes
                0x00000000000002b8       0x33 objs/tSysLogAdapter_rProcessor1Migratable_tecsgen.o
 .ARM.attributes
                0x00000000000002eb       0x33 objs/tLogTaskMain_rProcessor1Migratable_tecsgen.o
 .ARM.attributes
                0x000000000000031e       0x33 objs/tBannerMain_rProcessor1Migratable_tecsgen.o
 .ARM.attributes
                0x0000000000000351       0x33 objs/tPutLogZyboZ7_rProcessor1Migratable_tecsgen.o
 .ARM.attributes
                0x0000000000000384       0x33 objs/tXUartPs_rProcessor1Migratable_tecsgen.o
 .ARM.attributes
                0x00000000000003b7       0x33 objs/tSIOPortZyboZ7Main_rProcessor1Migratable_tecsgen.o
 .ARM.attributes
                0x00000000000003ea       0x33 objs/tTask.o
 .ARM.attributes
                0x000000000000041d       0x39 objs/tInterruptRequest.o
 .ARM.attributes
                0x0000000000000456       0x33 objs/tISR.o
 .ARM.attributes
                0x0000000000000489       0x33 objs/tInitializeRoutine.o
 .ARM.attributes
                0x00000000000004bc       0x33 objs/tTerminateRoutine.o
 .ARM.attributes
                0x00000000000004ef       0x33 objs/tSerialPortMain.o
 .ARM.attributes
                0x0000000000000522       0x33 objs/tSerialAdapter.o
 .ARM.attributes
                0x0000000000000555       0x33 objs/tSysLog.o
 .ARM.attributes
                0x0000000000000588       0x33 objs/tSysLogAdapter.o
 .ARM.attributes
                0x00000000000005bb       0x33 objs/tLogTaskMain.o
 .ARM.attributes
                0x00000000000005ee       0x33 objs/tBannerMain.o
 .ARM.attributes
                0x0000000000000621       0x33 objs/tPutLogZyboZ7.o
 .ARM.attributes
                0x0000000000000654       0x33 objs/tXUartPs.o
 .ARM.attributes
                0x0000000000000687       0x33 objs/init_tecs.o
 .ARM.attributes
                0x00000000000006ba       0x33 objs/kernel_cfg.o
 .ARM.attributes
                0x00000000000006ed       0x34 ./gen/../tr_api_dispatch/target/armv7a-none-eabi/release/libitron.a(itron-6a63da1272844731.itron.fdadab565b6f4d55-cgu.0.rcgu.o)
 .ARM.attributes
                0x0000000000000721       0x34 ./gen/../tr_api_dispatch/target/armv7a-none-eabi/release/libitron.a(itron-fbcb73bf0b635dd5.itron.68e737fdf62a80e5-cgu.0.rcgu.o)
 .ARM.attributes
                0x0000000000000755       0x32 ./gen/../tr_api_dispatch/target/armv7a-none-eabi/release/libitron.a(core-d049573bc16596f9.core.5587a85061e7188a-cgu.0.rcgu.o)
 .ARM.attributes
                0x0000000000000787       0x34 ./gen/../tr_api_dispatch/target/armv7a-none-eabi/release/libitron.a(compiler_builtins-70f608aea3cde50d.compiler_builtins.5a681add74c93a61-cgu.162.rcgu.o)
 .ARM.attributes
                0x00000000000007bb       0x34 ./gen/../tr_api_dispatch/target/armv7a-none-eabi/release/libitron.a(compiler_builtins-70f608aea3cde50d.compiler_builtins.5a681add74c93a61-cgu.174.rcgu.o)
 .ARM.attributes
                0x00000000000007ef       0x34 ./gen/../tr_api_dispatch/target/armv7a-none-eabi/release/libitron.a(compiler_builtins-70f608aea3cde50d.compiler_builtins.5a681add74c93a61-cgu.178.rcgu.o)
 .ARM.attributes
                0x0000000000000823       0x34 ./gen/../tr_api_dispatch/target/armv7a-none-eabi/release/libitron.a(compiler_builtins-70f608aea3cde50d.compiler_builtins.5a681add74c93a61-cgu.180.rcgu.o)
 .ARM.attributes
                0x0000000000000857       0x34 ./gen/../tr_api_dispatch/target/armv7a-none-eabi/release/libitron.a(compiler_builtins-70f608aea3cde50d.compiler_builtins.5a681add74c93a61-cgu.201.rcgu.o)
 .ARM.attributes
                0x000000000000088b       0x34 ./gen/../tr_api_dispatch/target/armv7a-none-eabi/release/libitron.a(compiler_builtins-70f608aea3cde50d.compiler_builtins.5a681add74c93a61-cgu.206.rcgu.o)
 .ARM.attributes
                0x00000000000008bf       0x34 ./gen/../tr_api_dispatch/target/armv7a-none-eabi/release/libitron.a(compiler_builtins-70f608aea3cde50d.compiler_builtins.5a681add74c93a61-cgu.210.rcgu.o)
 .ARM.attributes
                0x00000000000008f3       0x34 ./gen/../tr_api_dispatch/target/armv7a-none-eabi/release/libitron.a(compiler_builtins-70f608aea3cde50d.compiler_builtins.5a681add74c93a61-cgu.223.rcgu.o)
 .ARM.attributes
                0x0000000000000927       0x34 ./gen/../tr_api_dispatch/target/armv7a-none-eabi/release/libitron.a(compiler_builtins-70f608aea3cde50d.compiler_builtins.5a681add74c93a61-cgu.253.rcgu.o)
 .ARM.attributes
                0x000000000000095b       0x34 ./gen/../tr_api_dispatch/target/armv7a-none-eabi/release/libitron.a(compiler_builtins-70f608aea3cde50d.compiler_builtins.5a681add74c93a61-cgu.261.rcgu.o)
 .ARM.attributes
                0x000000000000098f       0x34 ./gen/../tr_api_dispatch/target/armv7a-none-eabi/release/libitron.a(compiler_builtins-70f608aea3cde50d.compiler_builtins.5a681add74c93a61-cgu.263.rcgu.o)
 .ARM.attributes
                0x00000000000009c3       0x34 ./gen/../tr_api_dispatch/target/armv7a-none-eabi/release/libitron.a(compiler_builtins-70f608aea3cde50d.compiler_builtins.5a681add74c93a61-cgu.270.rcgu.o)
 .ARM.attributes
                0x00000000000009f7       0x34 ./gen/../tr_api_dispatch/target/armv7a-none-eabi/release/libitron.a(compiler_builtins-70f608aea3cde50d.compiler_builtins.5a681add74c93a61-cgu.283.rcgu.o)
 .ARM.attributes
                0x0000000000000a2b       0x34 ./gen/../tr_api_dispatch/target/armv7a-none-eabi/release/libitron.a(compiler_builtins-70f608aea3cde50d.compiler_builtins.5a681add74c93a61-cgu.287.rcgu.o)
 .ARM.attributes
                0x0000000000000a5f       0x34 ./gen/../tr_api_dispatch/target/armv7a-none-eabi/release/libitron.a(compiler_builtins-70f608aea3cde50d.compiler_builtins.5a681add74c93a61-cgu.300.rcgu.o)
 .ARM.attributes
                0x0000000000000a93       0x34 ./gen/../tr_api_dispatch/target/armv7a-none-eabi/release/libitron.a(compiler_builtins-70f608aea3cde50d.compiler_builtins.5a681add74c93a61-cgu.310.rcgu.o)
 .ARM.attributes
                0x0000000000000ac7       0x34 ./gen/../tr_api_dispatch/target/armv7a-none-eabi/release/libitron.a(compiler_builtins-70f608aea3cde50d.compiler_builtins.5a681add74c93a61-cgu.355.rcgu.o)
 .ARM.attributes
                0x0000000000000afb       0x34 ./gen/../tr_api_dispatch/target/armv7a-none-eabi/release/libitron.a(compiler_builtins-70f608aea3cde50d.compiler_builtins.5a681add74c93a61-cgu.361.rcgu.o)
 .ARM.attributes
                0x0000000000000b2f       0x34 ./gen/../tr_api_dispatch/target/armv7a-none-eabi/release/libitron.a(compiler_builtins-70f608aea3cde50d.compiler_builtins.5a681add74c93a61-cgu.365.rcgu.o)
 .ARM.attributes
                0x0000000000000b63       0x34 ./gen/../tr_api_dispatch/target/armv7a-none-eabi/release/libitron.a(compiler_builtins-70f608aea3cde50d.compiler_builtins.5a681add74c93a61-cgu.375.rcgu.o)
 .ARM.attributes
                0x0000000000000b97       0x34 ./gen/../tr_api_dispatch/target/armv7a-none-eabi/release/libitron.a(compiler_builtins-70f608aea3cde50d.compiler_builtins.5a681add74c93a61-cgu.393.rcgu.o)
 .ARM.attributes
                0x0000000000000bcb       0x34 ./gen/../tr_api_dispatch/target/armv7a-none-eabi/release/libitron.a(compiler_builtins-70f608aea3cde50d.compiler_builtins.5a681add74c93a61-cgu.395.rcgu.o)
 .ARM.attributes
                0x0000000000000bff       0x32 ./gen/../tr_api_dispatch/target/armv7a-none-eabi/release/libitron.a(compiler_builtins-70f608aea3cde50d.compiler_builtins.5a681add74c93a61-cgu.410.rcgu.o)
 .ARM.attributes
                0x0000000000000c31       0x32 ./gen/../tr_api_dispatch/target/armv7a-none-eabi/release/libitron.a(compiler_builtins-70f608aea3cde50d.compiler_builtins.5a681add74c93a61-cgu.411.rcgu.o)
 .ARM.attributes
                0x0000000000000c63       0x1d ./gen/../tr_api_dispatch/target/armv7a-none-eabi/release/libitron.a(63f8a0b8a638da8c-udivmodsi4.o)
 .ARM.attributes
                0x0000000000000c80       0x1d ./gen/../tr_api_dispatch/target/armv7a-none-eabi/release/libitron.a(63f8a0b8a638da8c-udivsi3.o)
 .ARM.attributes
                0x0000000000000c9d       0x34 ./gen/../tr_api_dispatch/target/armv7a-none-eabi/release/libitron.a(compiler_builtins-70f608aea3cde50d.compiler_builtins.5a681add74c93a61-cgu.000.rcgu.o)
 .ARM.attributes
                0x0000000000000cd1       0x34 ./gen/../tr_api_dispatch/target/armv7a-none-eabi/release/libitron.a(compiler_builtins-70f608aea3cde50d.compiler_builtins.5a681add74c93a61-cgu.004.rcgu.o)
 .ARM.attributes
                0x0000000000000d05       0x34 ./gen/../tr_api_dispatch/target/armv7a-none-eabi/release/libitron.a(compiler_builtins-70f608aea3cde50d.compiler_builtins.5a681add74c93a61-cgu.009.rcgu.o)
 .ARM.attributes
                0x0000000000000d39       0x34 ./gen/../tr_api_dispatch/target/armv7a-none-eabi/release/libitron.a(compiler_builtins-70f608aea3cde50d.compiler_builtins.5a681add74c93a61-cgu.019.rcgu.o)
 .ARM.attributes
                0x0000000000000d6d       0x34 ./gen/../tr_api_dispatch/target/armv7a-none-eabi/release/libitron.a(compiler_builtins-70f608aea3cde50d.compiler_builtins.5a681add74c93a61-cgu.347.rcgu.o)
 .ARM.attributes
                0x0000000000000da1       0x2f ./gen/../tr_api_dispatch/target/armv7a-none-eabi/release/libitron.a(63f8a0b8a638da8c-aeabi_div0.o)
 .ARM.attributes
                0x0000000000000dd0       0x34 ./gen/../tr_api_dispatch/target/armv7a-none-eabi/release/libitron.a(compiler_builtins-70f608aea3cde50d.compiler_builtins.5a681add74c93a61-cgu.010.rcgu.o)
 .ARM.attributes
                0x0000000000000e04       0x33 ./libkernel.a(target_kernel_impl.o)
 .ARM.attributes
                0x0000000000000e37       0x33 ./libkernel.a(chip_kernel_impl.o)
 .ARM.attributes
                0x0000000000000e6a       0x33 ./libkernel.a(mpcore_kernel_impl.o)
 .ARM.attributes
                0x0000000000000e9d       0x33 ./libkernel.a(gic_kernel_impl.o)
 .ARM.attributes
                0x0000000000000ed0       0x33 ./libkernel.a(pl310.o)
 .ARM.attributes
                0x0000000000000f03       0x33 ./libkernel.a(mpcore_timer.o)
 .ARM.attributes
                0x0000000000000f36       0x33 ./libkernel.a(core_kernel_impl.o)
 .ARM.attributes
                0x0000000000000f69       0x33 ./libkernel.a(arm.o)
 .ARM.attributes
                0x0000000000000f9c       0x33 ./libkernel.a(startup.o)
 .ARM.attributes
                0x0000000000000fcf       0x33 ./libkernel.a(task.o)
 .ARM.attributes
                0x0000000000001002       0x39 ./libkernel.a(taskhook.o)
 .ARM.attributes
                0x000000000000103b       0x33 ./libkernel.a(wait.o)
 .ARM.attributes
                0x000000000000106e       0x33 ./libkernel.a(time_event.o)
 .ARM.attributes
                0x00000000000010a1       0x33 ./libkernel.a(task_manage.o)
 .ARM.attributes
                0x00000000000010d4       0x33 ./libkernel.a(task_refer.o)
 .ARM.attributes
                0x0000000000001107       0x33 ./libkernel.a(task_sync.o)
 .ARM.attributes
                0x000000000000113a       0x33 ./libkernel.a(semaphore.o)
 .ARM.attributes
                0x000000000000116d       0x33 ./libkernel.a(spin_lock.o)
 .ARM.attributes
                0x00000000000011a0       0x33 ./libkernel.a(sys_manage.o)
 .ARM.attributes
                0x00000000000011d3       0x33 ./libkernel.a(interrupt.o)
 .ARM.attributes
                0x0000000000001206       0x21 ./libkernel.a(core_support.o)
 .ARM.attributes
                0x0000000000001227       0x33 ./libkernel.a(task_term.o)
 .ARM.attributes
                0x000000000000125a       0x21 ./libkernel.a(gic_support.o)
 .ARM.attributes
                0x000000000000127b       0x2f /usr/lib/gcc/arm-none-eabi/10.3.1/../../../arm-none-eabi/lib/thumb/v7-a/nofp/libc.a(lib_a-memset.o)

.note.GNU-stack
                0x0000000000000000        0x0
 .note.GNU-stack
                0x0000000000000000        0x0 ./gen/../tr_api_dispatch/target/armv7a-none-eabi/release/libitron.a(itron-6a63da1272844731.itron.fdadab565b6f4d55-cgu.0.rcgu.o)
 .note.GNU-stack
                0x0000000000000000        0x0 ./gen/../tr_api_dispatch/target/armv7a-none-eabi/release/libitron.a(itron-fbcb73bf0b635dd5.itron.68e737fdf62a80e5-cgu.0.rcgu.o)
 .note.GNU-stack
                0x0000000000000000        0x0 ./gen/../tr_api_dispatch/target/armv7a-none-eabi/release/libitron.a(core-d049573bc16596f9.core.5587a85061e7188a-cgu.0.rcgu.o)
 .note.GNU-stack
                0x0000000000000000        0x0 ./gen/../tr_api_dispatch/target/armv7a-none-eabi/release/libitron.a(compiler_builtins-70f608aea3cde50d.compiler_builtins.5a681add74c93a61-cgu.162.rcgu.o)
 .note.GNU-stack
                0x0000000000000000        0x0 ./gen/../tr_api_dispatch/target/armv7a-none-eabi/release/libitron.a(compiler_builtins-70f608aea3cde50d.compiler_builtins.5a681add74c93a61-cgu.174.rcgu.o)
 .note.GNU-stack
                0x0000000000000000        0x0 ./gen/../tr_api_dispatch/target/armv7a-none-eabi/release/libitron.a(compiler_builtins-70f608aea3cde50d.compiler_builtins.5a681add74c93a61-cgu.178.rcgu.o)
 .note.GNU-stack
                0x0000000000000000        0x0 ./gen/../tr_api_dispatch/target/armv7a-none-eabi/release/libitron.a(compiler_builtins-70f608aea3cde50d.compiler_builtins.5a681add74c93a61-cgu.180.rcgu.o)
 .note.GNU-stack
                0x0000000000000000        0x0 ./gen/../tr_api_dispatch/target/armv7a-none-eabi/release/libitron.a(compiler_builtins-70f608aea3cde50d.compiler_builtins.5a681add74c93a61-cgu.201.rcgu.o)
 .note.GNU-stack
                0x0000000000000000        0x0 ./gen/../tr_api_dispatch/target/armv7a-none-eabi/release/libitron.a(compiler_builtins-70f608aea3cde50d.compiler_builtins.5a681add74c93a61-cgu.206.rcgu.o)
 .note.GNU-stack
                0x0000000000000000        0x0 ./gen/../tr_api_dispatch/target/armv7a-none-eabi/release/libitron.a(compiler_builtins-70f608aea3cde50d.compiler_builtins.5a681add74c93a61-cgu.210.rcgu.o)
 .note.GNU-stack
                0x0000000000000000        0x0 ./gen/../tr_api_dispatch/target/armv7a-none-eabi/release/libitron.a(compiler_builtins-70f608aea3cde50d.compiler_builtins.5a681add74c93a61-cgu.223.rcgu.o)
 .note.GNU-stack
                0x0000000000000000        0x0 ./gen/../tr_api_dispatch/target/armv7a-none-eabi/release/libitron.a(compiler_builtins-70f608aea3cde50d.compiler_builtins.5a681add74c93a61-cgu.253.rcgu.o)
 .note.GNU-stack
                0x0000000000000000        0x0 ./gen/../tr_api_dispatch/target/armv7a-none-eabi/release/libitron.a(compiler_builtins-70f608aea3cde50d.compiler_builtins.5a681add74c93a61-cgu.261.rcgu.o)
 .note.GNU-stack
                0x0000000000000000        0x0 ./gen/../tr_api_dispatch/target/armv7a-none-eabi/release/libitron.a(compiler_builtins-70f608aea3cde50d.compiler_builtins.5a681add74c93a61-cgu.263.rcgu.o)
 .note.GNU-stack
                0x0000000000000000        0x0 ./gen/../tr_api_dispatch/target/armv7a-none-eabi/release/libitron.a(compiler_builtins-70f608aea3cde50d.compiler_builtins.5a681add74c93a61-cgu.270.rcgu.o)
 .note.GNU-stack
                0x0000000000000000        0x0 ./gen/../tr_api_dispatch/target/armv7a-none-eabi/release/libitron.a(compiler_builtins-70f608aea3cde50d.compiler_builtins.5a681add74c93a61-cgu.283.rcgu.o)
 .note.GNU-stack
                0x0000000000000000        0x0 ./gen/../tr_api_dispatch/target/armv7a-none-eabi/release/libitron.a(compiler_builtins-70f608aea3cde50d.compiler_builtins.5a681add74c93a61-cgu.287.rcgu.o)
 .note.GNU-stack
                0x0000000000000000        0x0 ./gen/../tr_api_dispatch/target/armv7a-none-eabi/release/libitron.a(compiler_builtins-70f608aea3cde50d.compiler_builtins.5a681add74c93a61-cgu.300.rcgu.o)
 .note.GNU-stack
                0x0000000000000000        0x0 ./gen/../tr_api_dispatch/target/armv7a-none-eabi/release/libitron.a(compiler_builtins-70f608aea3cde50d.compiler_builtins.5a681add74c93a61-cgu.310.rcgu.o)
 .note.GNU-stack
                0x0000000000000000        0x0 ./gen/../tr_api_dispatch/target/armv7a-none-eabi/release/libitron.a(compiler_builtins-70f608aea3cde50d.compiler_builtins.5a681add74c93a61-cgu.355.rcgu.o)
 .note.GNU-stack
                0x0000000000000000        0x0 ./gen/../tr_api_dispatch/target/armv7a-none-eabi/release/libitron.a(compiler_builtins-70f608aea3cde50d.compiler_builtins.5a681add74c93a61-cgu.361.rcgu.o)
 .note.GNU-stack
                0x0000000000000000        0x0 ./gen/../tr_api_dispatch/target/armv7a-none-eabi/release/libitron.a(compiler_builtins-70f608aea3cde50d.compiler_builtins.5a681add74c93a61-cgu.365.rcgu.o)
 .note.GNU-stack
                0x0000000000000000        0x0 ./gen/../tr_api_dispatch/target/armv7a-none-eabi/release/libitron.a(compiler_builtins-70f608aea3cde50d.compiler_builtins.5a681add74c93a61-cgu.375.rcgu.o)
 .note.GNU-stack
                0x0000000000000000        0x0 ./gen/../tr_api_dispatch/target/armv7a-none-eabi/release/libitron.a(compiler_builtins-70f608aea3cde50d.compiler_builtins.5a681add74c93a61-cgu.393.rcgu.o)
 .note.GNU-stack
                0x0000000000000000        0x0 ./gen/../tr_api_dispatch/target/armv7a-none-eabi/release/libitron.a(compiler_builtins-70f608aea3cde50d.compiler_builtins.5a681add74c93a61-cgu.395.rcgu.o)
 .note.GNU-stack
                0x0000000000000000        0x0 ./gen/../tr_api_dispatch/target/armv7a-none-eabi/release/libitron.a(compiler_builtins-70f608aea3cde50d.compiler_builtins.5a681add74c93a61-cgu.410.rcgu.o)
 .note.GNU-stack
                0x0000000000000000        0x0 ./gen/../tr_api_dispatch/target/armv7a-none-eabi/release/libitron.a(compiler_builtins-70f608aea3cde50d.compiler_builtins.5a681add74c93a61-cgu.411.rcgu.o)
 .note.GNU-stack
                0x0000000000000000        0x0 ./gen/../tr_api_dispatch/target/armv7a-none-eabi/release/libitron.a(compiler_builtins-70f608aea3cde50d.compiler_builtins.5a681add74c93a61-cgu.000.rcgu.o)
 .note.GNU-stack
                0x0000000000000000        0x0 ./gen/../tr_api_dispatch/target/armv7a-none-eabi/release/libitron.a(compiler_builtins-70f608aea3cde50d.compiler_builtins.5a681add74c93a61-cgu.004.rcgu.o)
 .note.GNU-stack
                0x0000000000000000        0x0 ./gen/../tr_api_dispatch/target/armv7a-none-eabi/release/libitron.a(compiler_builtins-70f608aea3cde50d.compiler_builtins.5a681add74c93a61-cgu.009.rcgu.o)
 .note.GNU-stack
                0x0000000000000000        0x0 ./gen/../tr_api_dispatch/target/armv7a-none-eabi/release/libitron.a(compiler_builtins-70f608aea3cde50d.compiler_builtins.5a681add74c93a61-cgu.019.rcgu.o)
 .note.GNU-stack
                0x0000000000000000        0x0 ./gen/../tr_api_dispatch/target/armv7a-none-eabi/release/libitron.a(compiler_builtins-70f608aea3cde50d.compiler_builtins.5a681add74c93a61-cgu.347.rcgu.o)
 .note.GNU-stack
                0x0000000000000000        0x0 ./gen/../tr_api_dispatch/target/armv7a-none-eabi/release/libitron.a(compiler_builtins-70f608aea3cde50d.compiler_builtins.5a681add74c93a61-cgu.010.rcgu.o)

.debug
 *(.debug)

.line
 *(.line)

.debug_srcinfo
 *(.debug_srcinfo)

.debug_sfnames
 *(.debug_sfnames)

.debug_aranges  0x0000000000000000     0x1bf0
 *(.debug_aranges)
 .debug_aranges
                0x0000000000000000       0x20 objs/start.o
 .debug_aranges
                0x0000000000000020       0x20 objs/log_output.o
 .debug_aranges
                0x0000000000000040       0x20 objs/vasyslog.o
 .debug_aranges
                0x0000000000000060       0x20 objs/t_perror.o
 .debug_aranges
                0x0000000000000080       0x20 objs/strerror.o
 .debug_aranges
                0x00000000000000a0       0x20 objs/tTask_rProcessor1Migratable_tecsgen.o
 .debug_aranges
                0x00000000000000c0       0x20 objs/tSemaphore_rProcessor1Migratable_tecsgen.o
 .debug_aranges
                0x00000000000000e0       0x20 objs/tInterruptRequest_rProcessor1Migratable_tecsgen.o
 .debug_aranges
                0x0000000000000100       0x20 objs/tISR_rProcessor1Migratable_tecsgen.o
 .debug_aranges
                0x0000000000000120       0x20 objs/tInitializeRoutine_rProcessor1Migratable_tecsgen.o
 .debug_aranges
                0x0000000000000140       0x20 objs/tTerminateRoutine_rProcessor1Migratable_tecsgen.o
 .debug_aranges
                0x0000000000000160       0x20 objs/tSerialPortMain_rProcessor1Migratable_tecsgen.o
 .debug_aranges
                0x0000000000000180       0x20 objs/tSerialAdapter_rProcessor1Migratable_tecsgen.o
 .debug_aranges
                0x00000000000001a0       0x20 objs/tSysLog_rProcessor1Migratable_tecsgen.o
 .debug_aranges
                0x00000000000001c0       0x20 objs/tSysLogAdapter_rProcessor1Migratable_tecsgen.o
 .debug_aranges
                0x00000000000001e0       0x20 objs/tLogTaskMain_rProcessor1Migratable_tecsgen.o
 .debug_aranges
                0x0000000000000200       0x20 objs/tBannerMain_rProcessor1Migratable_tecsgen.o
 .debug_aranges
                0x0000000000000220       0x20 objs/tPutLogZyboZ7_rProcessor1Migratable_tecsgen.o
 .debug_aranges
                0x0000000000000240       0x20 objs/tXUartPs_rProcessor1Migratable_tecsgen.o
 .debug_aranges
                0x0000000000000260       0x20 objs/tSIOPortZyboZ7Main_rProcessor1Migratable_tecsgen.o
 .debug_aranges
                0x0000000000000280       0x20 objs/tTask.o
 .debug_aranges
                0x00000000000002a0       0x20 objs/tISR.o
 .debug_aranges
                0x00000000000002c0       0x20 objs/tInitializeRoutine.o
 .debug_aranges
                0x00000000000002e0       0x20 objs/tTerminateRoutine.o
 .debug_aranges
                0x0000000000000300       0x20 objs/tSerialPortMain.o
 .debug_aranges
                0x0000000000000320       0x20 objs/tSerialAdapter.o
 .debug_aranges
                0x0000000000000340       0x20 objs/tSysLog.o
 .debug_aranges
                0x0000000000000360       0x20 objs/tSysLogAdapter.o
 .debug_aranges
                0x0000000000000380       0x20 objs/tLogTaskMain.o
 .debug_aranges
                0x00000000000003a0       0x20 objs/tBannerMain.o
 .debug_aranges
                0x00000000000003c0       0x20 objs/tPutLogZyboZ7.o
 .debug_aranges
                0x00000000000003e0       0x20 objs/tXUartPs.o
 .debug_aranges
                0x0000000000000400       0x20 objs/init_tecs.o
 .debug_aranges
                0x0000000000000420       0x20 objs/kernel_cfg.o
 .debug_aranges
                0x0000000000000440     0x1048 ./gen/../tr_api_dispatch/target/armv7a-none-eabi/release/libitron.a(core-d049573bc16596f9.core.5587a85061e7188a-cgu.0.rcgu.o)
 .debug_aranges
                0x0000000000001488       0x20 ./gen/../tr_api_dispatch/target/armv7a-none-eabi/release/libitron.a(compiler_builtins-70f608aea3cde50d.compiler_builtins.5a681add74c93a61-cgu.162.rcgu.o)
 .debug_aranges
                0x00000000000014a8       0x20 ./gen/../tr_api_dispatch/target/armv7a-none-eabi/release/libitron.a(compiler_builtins-70f608aea3cde50d.compiler_builtins.5a681add74c93a61-cgu.174.rcgu.o)
 .debug_aranges
                0x00000000000014c8       0x20 ./gen/../tr_api_dispatch/target/armv7a-none-eabi/release/libitron.a(compiler_builtins-70f608aea3cde50d.compiler_builtins.5a681add74c93a61-cgu.178.rcgu.o)
 .debug_aranges
                0x00000000000014e8       0x20 ./gen/../tr_api_dispatch/target/armv7a-none-eabi/release/libitron.a(compiler_builtins-70f608aea3cde50d.compiler_builtins.5a681add74c93a61-cgu.180.rcgu.o)
 .debug_aranges
                0x0000000000001508       0x20 ./gen/../tr_api_dispatch/target/armv7a-none-eabi/release/libitron.a(compiler_builtins-70f608aea3cde50d.compiler_builtins.5a681add74c93a61-cgu.201.rcgu.o)
 .debug_aranges
                0x0000000000001528       0x20 ./gen/../tr_api_dispatch/target/armv7a-none-eabi/release/libitron.a(compiler_builtins-70f608aea3cde50d.compiler_builtins.5a681add74c93a61-cgu.206.rcgu.o)
 .debug_aranges
                0x0000000000001548       0x20 ./gen/../tr_api_dispatch/target/armv7a-none-eabi/release/libitron.a(compiler_builtins-70f608aea3cde50d.compiler_builtins.5a681add74c93a61-cgu.210.rcgu.o)
 .debug_aranges
                0x0000000000001568       0x20 ./gen/../tr_api_dispatch/target/armv7a-none-eabi/release/libitron.a(compiler_builtins-70f608aea3cde50d.compiler_builtins.5a681add74c93a61-cgu.223.rcgu.o)
 .debug_aranges
                0x0000000000001588       0x20 ./gen/../tr_api_dispatch/target/armv7a-none-eabi/release/libitron.a(compiler_builtins-70f608aea3cde50d.compiler_builtins.5a681add74c93a61-cgu.253.rcgu.o)
 .debug_aranges
                0x00000000000015a8       0x20 ./gen/../tr_api_dispatch/target/armv7a-none-eabi/release/libitron.a(compiler_builtins-70f608aea3cde50d.compiler_builtins.5a681add74c93a61-cgu.261.rcgu.o)
 .debug_aranges
                0x00000000000015c8       0x20 ./gen/../tr_api_dispatch/target/armv7a-none-eabi/release/libitron.a(compiler_builtins-70f608aea3cde50d.compiler_builtins.5a681add74c93a61-cgu.263.rcgu.o)
 .debug_aranges
                0x00000000000015e8       0x20 ./gen/../tr_api_dispatch/target/armv7a-none-eabi/release/libitron.a(compiler_builtins-70f608aea3cde50d.compiler_builtins.5a681add74c93a61-cgu.270.rcgu.o)
 .debug_aranges
                0x0000000000001608       0x20 ./gen/../tr_api_dispatch/target/armv7a-none-eabi/release/libitron.a(compiler_builtins-70f608aea3cde50d.compiler_builtins.5a681add74c93a61-cgu.283.rcgu.o)
 .debug_aranges
                0x0000000000001628       0x20 ./gen/../tr_api_dispatch/target/armv7a-none-eabi/release/libitron.a(compiler_builtins-70f608aea3cde50d.compiler_builtins.5a681add74c93a61-cgu.287.rcgu.o)
 .debug_aranges
                0x0000000000001648       0x20 ./gen/../tr_api_dispatch/target/armv7a-none-eabi/release/libitron.a(compiler_builtins-70f608aea3cde50d.compiler_builtins.5a681add74c93a61-cgu.300.rcgu.o)
 .debug_aranges
                0x0000000000001668       0x20 ./gen/../tr_api_dispatch/target/armv7a-none-eabi/release/libitron.a(compiler_builtins-70f608aea3cde50d.compiler_builtins.5a681add74c93a61-cgu.310.rcgu.o)
 .debug_aranges
                0x0000000000001688       0x20 ./gen/../tr_api_dispatch/target/armv7a-none-eabi/release/libitron.a(compiler_builtins-70f608aea3cde50d.compiler_builtins.5a681add74c93a61-cgu.355.rcgu.o)
 .debug_aranges
                0x00000000000016a8       0x20 ./gen/../tr_api_dispatch/target/armv7a-none-eabi/release/libitron.a(compiler_builtins-70f608aea3cde50d.compiler_builtins.5a681add74c93a61-cgu.361.rcgu.o)
 .debug_aranges
                0x00000000000016c8       0x20 ./gen/../tr_api_dispatch/target/armv7a-none-eabi/release/libitron.a(compiler_builtins-70f608aea3cde50d.compiler_builtins.5a681add74c93a61-cgu.365.rcgu.o)
 .debug_aranges
                0x00000000000016e8       0x20 ./gen/../tr_api_dispatch/target/armv7a-none-eabi/release/libitron.a(compiler_builtins-70f608aea3cde50d.compiler_builtins.5a681add74c93a61-cgu.375.rcgu.o)
 .debug_aranges
                0x0000000000001708       0x20 ./gen/../tr_api_dispatch/target/armv7a-none-eabi/release/libitron.a(compiler_builtins-70f608aea3cde50d.compiler_builtins.5a681add74c93a61-cgu.393.rcgu.o)
 .debug_aranges
                0x0000000000001728       0x20 ./gen/../tr_api_dispatch/target/armv7a-none-eabi/release/libitron.a(compiler_builtins-70f608aea3cde50d.compiler_builtins.5a681add74c93a61-cgu.395.rcgu.o)
 .debug_aranges
                0x0000000000001748       0x20 ./gen/../tr_api_dispatch/target/armv7a-none-eabi/release/libitron.a(63f8a0b8a638da8c-udivmodsi4.o)
 .debug_aranges
                0x0000000000001768       0x20 ./gen/../tr_api_dispatch/target/armv7a-none-eabi/release/libitron.a(63f8a0b8a638da8c-udivsi3.o)
 .debug_aranges
                0x0000000000001788       0x30 ./gen/../tr_api_dispatch/target/armv7a-none-eabi/release/libitron.a(compiler_builtins-70f608aea3cde50d.compiler_builtins.5a681add74c93a61-cgu.000.rcgu.o)
 .debug_aranges
                0x00000000000017b8       0x30 ./gen/../tr_api_dispatch/target/armv7a-none-eabi/release/libitron.a(compiler_builtins-70f608aea3cde50d.compiler_builtins.5a681add74c93a61-cgu.004.rcgu.o)
 .debug_aranges
                0x00000000000017e8       0x40 ./gen/../tr_api_dispatch/target/armv7a-none-eabi/release/libitron.a(compiler_builtins-70f608aea3cde50d.compiler_builtins.5a681add74c93a61-cgu.009.rcgu.o)
 .debug_aranges
                0x0000000000001828       0x60 ./gen/../tr_api_dispatch/target/armv7a-none-eabi/release/libitron.a(compiler_builtins-70f608aea3cde50d.compiler_builtins.5a681add74c93a61-cgu.019.rcgu.o)
 .debug_aranges
                0x0000000000001888       0x20 ./gen/../tr_api_dispatch/target/armv7a-none-eabi/release/libitron.a(compiler_builtins-70f608aea3cde50d.compiler_builtins.5a681add74c93a61-cgu.347.rcgu.o)
 .debug_aranges
                0x00000000000018a8       0x28 ./gen/../tr_api_dispatch/target/armv7a-none-eabi/release/libitron.a(63f8a0b8a638da8c-aeabi_div0.o)
 .debug_aranges
                0x00000000000018d0       0x28 ./gen/../tr_api_dispatch/target/armv7a-none-eabi/release/libitron.a(compiler_builtins-70f608aea3cde50d.compiler_builtins.5a681add74c93a61-cgu.010.rcgu.o)
 .debug_aranges
                0x00000000000018f8       0x20 ./libkernel.a(target_kernel_impl.o)
 .debug_aranges
                0x0000000000001918       0x20 ./libkernel.a(chip_kernel_impl.o)
 .debug_aranges
                0x0000000000001938       0x20 ./libkernel.a(mpcore_kernel_impl.o)
 .debug_aranges
                0x0000000000001958       0x20 ./libkernel.a(gic_kernel_impl.o)
 .debug_aranges
                0x0000000000001978       0x20 ./libkernel.a(pl310.o)
 .debug_aranges
                0x0000000000001998       0x20 ./libkernel.a(mpcore_timer.o)
 .debug_aranges
                0x00000000000019b8       0x20 ./libkernel.a(core_kernel_impl.o)
 .debug_aranges
                0x00000000000019d8       0x20 ./libkernel.a(arm.o)
 .debug_aranges
                0x00000000000019f8       0x20 ./libkernel.a(startup.o)
 .debug_aranges
                0x0000000000001a18       0x20 ./libkernel.a(task.o)
 .debug_aranges
                0x0000000000001a38       0x18 ./libkernel.a(taskhook.o)
 .debug_aranges
                0x0000000000001a50       0x20 ./libkernel.a(wait.o)
 .debug_aranges
                0x0000000000001a70       0x20 ./libkernel.a(time_event.o)
 .debug_aranges
                0x0000000000001a90       0x20 ./libkernel.a(task_manage.o)
 .debug_aranges
                0x0000000000001ab0       0x20 ./libkernel.a(task_refer.o)
 .debug_aranges
                0x0000000000001ad0       0x20 ./libkernel.a(task_sync.o)
 .debug_aranges
                0x0000000000001af0       0x20 ./libkernel.a(semaphore.o)
 .debug_aranges
                0x0000000000001b10       0x20 ./libkernel.a(spin_lock.o)
 .debug_aranges
                0x0000000000001b30       0x20 ./libkernel.a(sys_manage.o)
 .debug_aranges
                0x0000000000001b50       0x20 ./libkernel.a(interrupt.o)
 .debug_aranges
                0x0000000000001b70       0x20 ./libkernel.a(core_support.o)
 .debug_aranges
                0x0000000000001b90       0x20 ./libkernel.a(task_term.o)
 .debug_aranges
                0x0000000000001bb0       0x20 ./libkernel.a(gic_support.o)
 .debug_aranges
                0x0000000000001bd0       0x20 /usr/lib/gcc/arm-none-eabi/10.3.1/../../../arm-none-eabi/lib/thumb/v7-a/nofp/libc.a(lib_a-memset.o)

.debug_pubnames
 *(.debug_pubnames)

.debug_info     0x0000000000000000    0x4f29f
 *(.debug_info)
 .debug_info    0x0000000000000000       0x26 objs/start.o
 .debug_info    0x0000000000000026      0x52c objs/log_output.o
 .debug_info    0x0000000000000552      0x1ee objs/vasyslog.o
 .debug_info    0x0000000000000740      0x1ff objs/t_perror.o
 .debug_info    0x000000000000093f       0xe5 objs/strerror.o
 .debug_info    0x0000000000000a24      0x140 objs/tTask_rProcessor1Migratable_tecsgen.o
 .debug_info    0x0000000000000b64      0x139 objs/tSemaphore_rProcessor1Migratable_tecsgen.o
 .debug_info    0x0000000000000c9d      0x13b objs/tInterruptRequest_rProcessor1Migratable_tecsgen.o
 .debug_info    0x0000000000000dd8      0x140 objs/tISR_rProcessor1Migratable_tecsgen.o
 .debug_info    0x0000000000000f18       0xe3 objs/tInitializeRoutine_rProcessor1Migratable_tecsgen.o
 .debug_info    0x0000000000000ffb      0x193 objs/tTerminateRoutine_rProcessor1Migratable_tecsgen.o
 .debug_info    0x000000000000118e      0x73c objs/tSerialPortMain_rProcessor1Migratable_tecsgen.o
 .debug_info    0x00000000000018ca      0x2b6 objs/tSerialAdapter_rProcessor1Migratable_tecsgen.o
 .debug_info    0x0000000000001b80      0x265 objs/tSysLog_rProcessor1Migratable_tecsgen.o
 .debug_info    0x0000000000001de5       0x9a objs/tSysLogAdapter_rProcessor1Migratable_tecsgen.o
 .debug_info    0x0000000000001e7f      0x212 objs/tLogTaskMain_rProcessor1Migratable_tecsgen.o
 .debug_info    0x0000000000002091       0xf3 objs/tBannerMain_rProcessor1Migratable_tecsgen.o
 .debug_info    0x0000000000002184       0x9a objs/tPutLogZyboZ7_rProcessor1Migratable_tecsgen.o
 .debug_info    0x000000000000221e      0x30e objs/tXUartPs_rProcessor1Migratable_tecsgen.o
 .debug_info    0x000000000000252c       0xe3 objs/tSIOPortZyboZ7Main_rProcessor1Migratable_tecsgen.o
 .debug_info    0x000000000000260f      0x142 objs/tTask.o
 .debug_info    0x0000000000002751      0x216 objs/tISR.o
 .debug_info    0x0000000000002967      0x10e objs/tInitializeRoutine.o
 .debug_info    0x0000000000002a75      0x168 objs/tTerminateRoutine.o
 .debug_info    0x0000000000002bdd     0x17ed objs/tSerialPortMain.o
 .debug_info    0x00000000000043ca      0x485 objs/tSerialAdapter.o
 .debug_info    0x000000000000484f      0xbb6 objs/tSysLog.o
 .debug_info    0x0000000000005405      0x33b objs/tSysLogAdapter.o
 .debug_info    0x0000000000005740      0x7d8 objs/tLogTaskMain.o
 .debug_info    0x0000000000005f18      0x2ef objs/tBannerMain.o
 .debug_info    0x0000000000006207      0x40f objs/tPutLogZyboZ7.o
 .debug_info    0x0000000000006616      0xe7b objs/tXUartPs.o
 .debug_info    0x0000000000007491      0x1d3 objs/init_tecs.o
 .debug_info    0x0000000000007664     0x1f06 objs/kernel_cfg.o
 .debug_info    0x000000000000956a    0x1f3e5 ./gen/../tr_api_dispatch/target/armv7a-none-eabi/release/libitron.a(core-d049573bc16596f9.core.5587a85061e7188a-cgu.0.rcgu.o)
 .debug_info    0x000000000002894f      0x26d ./gen/../tr_api_dispatch/target/armv7a-none-eabi/release/libitron.a(compiler_builtins-70f608aea3cde50d.compiler_builtins.5a681add74c93a61-cgu.162.rcgu.o)
 .debug_info    0x0000000000028bbc       0xb3 ./gen/../tr_api_dispatch/target/armv7a-none-eabi/release/libitron.a(compiler_builtins-70f608aea3cde50d.compiler_builtins.5a681add74c93a61-cgu.174.rcgu.o)
 .debug_info    0x0000000000028c6f       0x51 ./gen/../tr_api_dispatch/target/armv7a-none-eabi/release/libitron.a(compiler_builtins-70f608aea3cde50d.compiler_builtins.5a681add74c93a61-cgu.178.rcgu.o)
 .debug_info    0x0000000000028cc0      0x173 ./gen/../tr_api_dispatch/target/armv7a-none-eabi/release/libitron.a(compiler_builtins-70f608aea3cde50d.compiler_builtins.5a681add74c93a61-cgu.180.rcgu.o)
 .debug_info    0x0000000000028e33      0x1a4 ./gen/../tr_api_dispatch/target/armv7a-none-eabi/release/libitron.a(compiler_builtins-70f608aea3cde50d.compiler_builtins.5a681add74c93a61-cgu.201.rcgu.o)
 .debug_info    0x0000000000028fd7      0x196 ./gen/../tr_api_dispatch/target/armv7a-none-eabi/release/libitron.a(compiler_builtins-70f608aea3cde50d.compiler_builtins.5a681add74c93a61-cgu.206.rcgu.o)
 .debug_info    0x000000000002916d      0x340 ./gen/../tr_api_dispatch/target/armv7a-none-eabi/release/libitron.a(compiler_builtins-70f608aea3cde50d.compiler_builtins.5a681add74c93a61-cgu.210.rcgu.o)
 .debug_info    0x00000000000294ad       0x95 ./gen/../tr_api_dispatch/target/armv7a-none-eabi/release/libitron.a(compiler_builtins-70f608aea3cde50d.compiler_builtins.5a681add74c93a61-cgu.223.rcgu.o)
 .debug_info    0x0000000000029542       0xd1 ./gen/../tr_api_dispatch/target/armv7a-none-eabi/release/libitron.a(compiler_builtins-70f608aea3cde50d.compiler_builtins.5a681add74c93a61-cgu.253.rcgu.o)
 .debug_info    0x0000000000029613      0x1a2 ./gen/../tr_api_dispatch/target/armv7a-none-eabi/release/libitron.a(compiler_builtins-70f608aea3cde50d.compiler_builtins.5a681add74c93a61-cgu.261.rcgu.o)
 .debug_info    0x00000000000297b5       0x51 ./gen/../tr_api_dispatch/target/armv7a-none-eabi/release/libitron.a(compiler_builtins-70f608aea3cde50d.compiler_builtins.5a681add74c93a61-cgu.263.rcgu.o)
 .debug_info    0x0000000000029806      0x244 ./gen/../tr_api_dispatch/target/armv7a-none-eabi/release/libitron.a(compiler_builtins-70f608aea3cde50d.compiler_builtins.5a681add74c93a61-cgu.270.rcgu.o)
 .debug_info    0x0000000000029a4a      0x157 ./gen/../tr_api_dispatch/target/armv7a-none-eabi/release/libitron.a(compiler_builtins-70f608aea3cde50d.compiler_builtins.5a681add74c93a61-cgu.283.rcgu.o)
 .debug_info    0x0000000000029ba1      0x186 ./gen/../tr_api_dispatch/target/armv7a-none-eabi/release/libitron.a(compiler_builtins-70f608aea3cde50d.compiler_builtins.5a681add74c93a61-cgu.287.rcgu.o)
 .debug_info    0x0000000000029d27      0x316 ./gen/../tr_api_dispatch/target/armv7a-none-eabi/release/libitron.a(compiler_builtins-70f608aea3cde50d.compiler_builtins.5a681add74c93a61-cgu.300.rcgu.o)
 .debug_info    0x000000000002a03d       0xb1 ./gen/../tr_api_dispatch/target/armv7a-none-eabi/release/libitron.a(compiler_builtins-70f608aea3cde50d.compiler_builtins.5a681add74c93a61-cgu.310.rcgu.o)
 .debug_info    0x000000000002a0ee       0x51 ./gen/../tr_api_dispatch/target/armv7a-none-eabi/release/libitron.a(compiler_builtins-70f608aea3cde50d.compiler_builtins.5a681add74c93a61-cgu.355.rcgu.o)
 .debug_info    0x000000000002a13f      0x1dc ./gen/../tr_api_dispatch/target/armv7a-none-eabi/release/libitron.a(compiler_builtins-70f608aea3cde50d.compiler_builtins.5a681add74c93a61-cgu.361.rcgu.o)
 .debug_info    0x000000000002a31b      0x242 ./gen/../tr_api_dispatch/target/armv7a-none-eabi/release/libitron.a(compiler_builtins-70f608aea3cde50d.compiler_builtins.5a681add74c93a61-cgu.365.rcgu.o)
 .debug_info    0x000000000002a55d      0x1a4 ./gen/../tr_api_dispatch/target/armv7a-none-eabi/release/libitron.a(compiler_builtins-70f608aea3cde50d.compiler_builtins.5a681add74c93a61-cgu.375.rcgu.o)
 .debug_info    0x000000000002a701       0x51 ./gen/../tr_api_dispatch/target/armv7a-none-eabi/release/libitron.a(compiler_builtins-70f608aea3cde50d.compiler_builtins.5a681add74c93a61-cgu.393.rcgu.o)
 .debug_info    0x000000000002a752      0x287 ./gen/../tr_api_dispatch/target/armv7a-none-eabi/release/libitron.a(compiler_builtins-70f608aea3cde50d.compiler_builtins.5a681add74c93a61-cgu.395.rcgu.o)
 .debug_info    0x000000000002a9d9       0x26 ./gen/../tr_api_dispatch/target/armv7a-none-eabi/release/libitron.a(63f8a0b8a638da8c-udivmodsi4.o)
 .debug_info    0x000000000002a9ff       0x26 ./gen/../tr_api_dispatch/target/armv7a-none-eabi/release/libitron.a(63f8a0b8a638da8c-udivsi3.o)
 .debug_info    0x000000000002aa25     0x1700 ./gen/../tr_api_dispatch/target/armv7a-none-eabi/release/libitron.a(compiler_builtins-70f608aea3cde50d.compiler_builtins.5a681add74c93a61-cgu.000.rcgu.o)
 .debug_info    0x000000000002c125      0xf8f ./gen/../tr_api_dispatch/target/armv7a-none-eabi/release/libitron.a(compiler_builtins-70f608aea3cde50d.compiler_builtins.5a681add74c93a61-cgu.004.rcgu.o)
 .debug_info    0x000000000002d0b4      0xbd0 ./gen/../tr_api_dispatch/target/armv7a-none-eabi/release/libitron.a(compiler_builtins-70f608aea3cde50d.compiler_builtins.5a681add74c93a61-cgu.009.rcgu.o)
 .debug_info    0x000000000002dc84      0x364 ./gen/../tr_api_dispatch/target/armv7a-none-eabi/release/libitron.a(compiler_builtins-70f608aea3cde50d.compiler_builtins.5a681add74c93a61-cgu.019.rcgu.o)
 .debug_info    0x000000000002dfe8       0xa1 ./gen/../tr_api_dispatch/target/armv7a-none-eabi/release/libitron.a(compiler_builtins-70f608aea3cde50d.compiler_builtins.5a681add74c93a61-cgu.347.rcgu.o)
 .debug_info    0x000000000002e089       0xe2 ./gen/../tr_api_dispatch/target/armv7a-none-eabi/release/libitron.a(63f8a0b8a638da8c-aeabi_div0.o)
 .debug_info    0x000000000002e16b      0x495 ./gen/../tr_api_dispatch/target/armv7a-none-eabi/release/libitron.a(compiler_builtins-70f608aea3cde50d.compiler_builtins.5a681add74c93a61-cgu.010.rcgu.o)
 .debug_info    0x000000000002e600      0x60a ./libkernel.a(target_kernel_impl.o)
 .debug_info    0x000000000002ec0a      0x445 ./libkernel.a(chip_kernel_impl.o)
 .debug_info    0x000000000002f04f      0x77c ./libkernel.a(mpcore_kernel_impl.o)
 .debug_info    0x000000000002f7cb     0x115f ./libkernel.a(gic_kernel_impl.o)
 .debug_info    0x000000000003092a      0xa1a ./libkernel.a(pl310.o)
 .debug_info    0x0000000000031344      0x463 ./libkernel.a(mpcore_timer.o)
 .debug_info    0x00000000000317a7     0x1684 ./libkernel.a(core_kernel_impl.o)
 .debug_info    0x0000000000032e2b      0x4e2 ./libkernel.a(arm.o)
 .debug_info    0x000000000003330d     0x11e9 ./libkernel.a(startup.o)
 .debug_info    0x00000000000344f6     0x268b ./libkernel.a(task.o)
 .debug_info    0x0000000000036b81      0x87d ./libkernel.a(taskhook.o)
 .debug_info    0x00000000000373fe     0x1bd2 ./libkernel.a(wait.o)
 .debug_info    0x0000000000038fd0     0x286c ./libkernel.a(time_event.o)
 .debug_info    0x000000000003b83c     0x316d ./libkernel.a(task_manage.o)
 .debug_info    0x000000000003e9a9     0x1429 ./libkernel.a(task_refer.o)
 .debug_info    0x000000000003fdd2     0x31c3 ./libkernel.a(task_sync.o)
 .debug_info    0x0000000000042f95     0x2913 ./libkernel.a(semaphore.o)
 .debug_info    0x00000000000458a8     0x161f ./libkernel.a(spin_lock.o)
 .debug_info    0x0000000000046ec7     0x3c19 ./libkernel.a(sys_manage.o)
 .debug_info    0x000000000004aae0     0x2247 ./libkernel.a(interrupt.o)
 .debug_info    0x000000000004cd27       0x26 ./libkernel.a(core_support.o)
 .debug_info    0x000000000004cd4d     0x23f5 ./libkernel.a(task_term.o)
 .debug_info    0x000000000004f142       0x26 ./libkernel.a(gic_support.o)
 .debug_info    0x000000000004f168      0x137 /usr/lib/gcc/arm-none-eabi/10.3.1/../../../arm-none-eabi/lib/thumb/v7-a/nofp/libc.a(lib_a-memset.o)

.debug_abbrev   0x0000000000000000     0x8bad
 *(.debug_abbrev)
 .debug_abbrev  0x0000000000000000       0x14 objs/start.o
 .debug_abbrev  0x0000000000000014      0x1da objs/log_output.o
 .debug_abbrev  0x00000000000001ee      0x116 objs/vasyslog.o
 .debug_abbrev  0x0000000000000304      0x106 objs/t_perror.o
 .debug_abbrev  0x000000000000040a       0x8a objs/strerror.o
 .debug_abbrev  0x0000000000000494       0xed objs/tTask_rProcessor1Migratable_tecsgen.o
 .debug_abbrev  0x0000000000000581       0xed objs/tSemaphore_rProcessor1Migratable_tecsgen.o
 .debug_abbrev  0x000000000000066e       0xde objs/tInterruptRequest_rProcessor1Migratable_tecsgen.o
 .debug_abbrev  0x000000000000074c       0xed objs/tISR_rProcessor1Migratable_tecsgen.o
 .debug_abbrev  0x0000000000000839       0x9e objs/tInitializeRoutine_rProcessor1Migratable_tecsgen.o
 .debug_abbrev  0x00000000000008d7       0xff objs/tTerminateRoutine_rProcessor1Migratable_tecsgen.o
 .debug_abbrev  0x00000000000009d6      0x1db objs/tSerialPortMain_rProcessor1Migratable_tecsgen.o
 .debug_abbrev  0x0000000000000bb1      0x10b objs/tSerialAdapter_rProcessor1Migratable_tecsgen.o
 .debug_abbrev  0x0000000000000cbc       0xe8 objs/tSysLog_rProcessor1Migratable_tecsgen.o
 .debug_abbrev  0x0000000000000da4       0x42 objs/tSysLogAdapter_rProcessor1Migratable_tecsgen.o
 .debug_abbrev  0x0000000000000de6      0x137 objs/tLogTaskMain_rProcessor1Migratable_tecsgen.o
 .debug_abbrev  0x0000000000000f1d       0xa5 objs/tBannerMain_rProcessor1Migratable_tecsgen.o
 .debug_abbrev  0x0000000000000fc2       0x42 objs/tPutLogZyboZ7_rProcessor1Migratable_tecsgen.o
 .debug_abbrev  0x0000000000001004      0x18b objs/tXUartPs_rProcessor1Migratable_tecsgen.o
 .debug_abbrev  0x000000000000118f       0x9e objs/tSIOPortZyboZ7Main_rProcessor1Migratable_tecsgen.o
 .debug_abbrev  0x000000000000122d       0xdf objs/tTask.o
 .debug_abbrev  0x000000000000130c      0x111 objs/tISR.o
 .debug_abbrev  0x000000000000141d       0xc6 objs/tInitializeRoutine.o
 .debug_abbrev  0x00000000000014e3       0xcd objs/tTerminateRoutine.o
 .debug_abbrev  0x00000000000015b0      0x3dd objs/tSerialPortMain.o
 .debug_abbrev  0x000000000000198d      0x156 objs/tSerialAdapter.o
 .debug_abbrev  0x0000000000001ae3      0x273 objs/tSysLog.o
 .debug_abbrev  0x0000000000001d56      0x108 objs/tSysLogAdapter.o
 .debug_abbrev  0x0000000000001e5e      0x288 objs/tLogTaskMain.o
 .debug_abbrev  0x00000000000020e6      0x183 objs/tBannerMain.o
 .debug_abbrev  0x0000000000002269      0x1d0 objs/tPutLogZyboZ7.o
 .debug_abbrev  0x0000000000002439      0x2fa objs/tXUartPs.o
 .debug_abbrev  0x0000000000002733       0x72 objs/init_tecs.o
 .debug_abbrev  0x00000000000027a5      0x2c6 objs/kernel_cfg.o
 .debug_abbrev  0x0000000000002a6b      0x2fb ./gen/../tr_api_dispatch/target/armv7a-none-eabi/release/libitron.a(core-d049573bc16596f9.core.5587a85061e7188a-cgu.0.rcgu.o)
 .debug_abbrev  0x0000000000002d66       0xc5 ./gen/../tr_api_dispatch/target/armv7a-none-eabi/release/libitron.a(compiler_builtins-70f608aea3cde50d.compiler_builtins.5a681add74c93a61-cgu.162.rcgu.o)
 .debug_abbrev  0x0000000000002e2b       0x70 ./gen/../tr_api_dispatch/target/armv7a-none-eabi/release/libitron.a(compiler_builtins-70f608aea3cde50d.compiler_builtins.5a681add74c93a61-cgu.174.rcgu.o)
 .debug_abbrev  0x0000000000002e9b       0x2e ./gen/../tr_api_dispatch/target/armv7a-none-eabi/release/libitron.a(compiler_builtins-70f608aea3cde50d.compiler_builtins.5a681add74c93a61-cgu.178.rcgu.o)
 .debug_abbrev  0x0000000000002ec9       0x9b ./gen/../tr_api_dispatch/target/armv7a-none-eabi/release/libitron.a(compiler_builtins-70f608aea3cde50d.compiler_builtins.5a681add74c93a61-cgu.180.rcgu.o)
 .debug_abbrev  0x0000000000002f64       0xa3 ./gen/../tr_api_dispatch/target/armv7a-none-eabi/release/libitron.a(compiler_builtins-70f608aea3cde50d.compiler_builtins.5a681add74c93a61-cgu.201.rcgu.o)
 .debug_abbrev  0x0000000000003007       0x9b ./gen/../tr_api_dispatch/target/armv7a-none-eabi/release/libitron.a(compiler_builtins-70f608aea3cde50d.compiler_builtins.5a681add74c93a61-cgu.206.rcgu.o)
 .debug_abbrev  0x00000000000030a2       0xaa ./gen/../tr_api_dispatch/target/armv7a-none-eabi/release/libitron.a(compiler_builtins-70f608aea3cde50d.compiler_builtins.5a681add74c93a61-cgu.210.rcgu.o)
 .debug_abbrev  0x000000000000314c       0x5f ./gen/../tr_api_dispatch/target/armv7a-none-eabi/release/libitron.a(compiler_builtins-70f608aea3cde50d.compiler_builtins.5a681add74c93a61-cgu.223.rcgu.o)
 .debug_abbrev  0x00000000000031ab       0x81 ./gen/../tr_api_dispatch/target/armv7a-none-eabi/release/libitron.a(compiler_builtins-70f608aea3cde50d.compiler_builtins.5a681add74c93a61-cgu.253.rcgu.o)
 .debug_abbrev  0x000000000000322c       0x9f ./gen/../tr_api_dispatch/target/armv7a-none-eabi/release/libitron.a(compiler_builtins-70f608aea3cde50d.compiler_builtins.5a681add74c93a61-cgu.261.rcgu.o)
 .debug_abbrev  0x00000000000032cb       0x2e ./gen/../tr_api_dispatch/target/armv7a-none-eabi/release/libitron.a(compiler_builtins-70f608aea3cde50d.compiler_builtins.5a681add74c93a61-cgu.263.rcgu.o)
 .debug_abbrev  0x00000000000032f9       0xaf ./gen/../tr_api_dispatch/target/armv7a-none-eabi/release/libitron.a(compiler_builtins-70f608aea3cde50d.compiler_builtins.5a681add74c93a61-cgu.270.rcgu.o)
 .debug_abbrev  0x00000000000033a8       0x9b ./gen/../tr_api_dispatch/target/armv7a-none-eabi/release/libitron.a(compiler_builtins-70f608aea3cde50d.compiler_builtins.5a681add74c93a61-cgu.283.rcgu.o)
 .debug_abbrev  0x0000000000003443       0x9f ./gen/../tr_api_dispatch/target/armv7a-none-eabi/release/libitron.a(compiler_builtins-70f608aea3cde50d.compiler_builtins.5a681add74c93a61-cgu.287.rcgu.o)
 .debug_abbrev  0x00000000000034e2       0xcc ./gen/../tr_api_dispatch/target/armv7a-none-eabi/release/libitron.a(compiler_builtins-70f608aea3cde50d.compiler_builtins.5a681add74c93a61-cgu.300.rcgu.o)
 .debug_abbrev  0x00000000000035ae       0x7b ./gen/../tr_api_dispatch/target/armv7a-none-eabi/release/libitron.a(compiler_builtins-70f608aea3cde50d.compiler_builtins.5a681add74c93a61-cgu.310.rcgu.o)
 .debug_abbrev  0x0000000000003629       0x2e ./gen/../tr_api_dispatch/target/armv7a-none-eabi/release/libitron.a(compiler_builtins-70f608aea3cde50d.compiler_builtins.5a681add74c93a61-cgu.355.rcgu.o)
 .debug_abbrev  0x0000000000003657       0x9b ./gen/../tr_api_dispatch/target/armv7a-none-eabi/release/libitron.a(compiler_builtins-70f608aea3cde50d.compiler_builtins.5a681add74c93a61-cgu.361.rcgu.o)
 .debug_abbrev  0x00000000000036f2       0xe0 ./gen/../tr_api_dispatch/target/armv7a-none-eabi/release/libitron.a(compiler_builtins-70f608aea3cde50d.compiler_builtins.5a681add74c93a61-cgu.365.rcgu.o)
 .debug_abbrev  0x00000000000037d2       0xa3 ./gen/../tr_api_dispatch/target/armv7a-none-eabi/release/libitron.a(compiler_builtins-70f608aea3cde50d.compiler_builtins.5a681add74c93a61-cgu.375.rcgu.o)
 .debug_abbrev  0x0000000000003875       0x2e ./gen/../tr_api_dispatch/target/armv7a-none-eabi/release/libitron.a(compiler_builtins-70f608aea3cde50d.compiler_builtins.5a681add74c93a61-cgu.393.rcgu.o)
 .debug_abbrev  0x00000000000038a3       0xc5 ./gen/../tr_api_dispatch/target/armv7a-none-eabi/release/libitron.a(compiler_builtins-70f608aea3cde50d.compiler_builtins.5a681add74c93a61-cgu.395.rcgu.o)
 .debug_abbrev  0x0000000000003968       0x14 ./gen/../tr_api_dispatch/target/armv7a-none-eabi/release/libitron.a(63f8a0b8a638da8c-udivmodsi4.o)
 .debug_abbrev  0x000000000000397c       0x14 ./gen/../tr_api_dispatch/target/armv7a-none-eabi/release/libitron.a(63f8a0b8a638da8c-udivsi3.o)
 .debug_abbrev  0x0000000000003990      0x19d ./gen/../tr_api_dispatch/target/armv7a-none-eabi/release/libitron.a(compiler_builtins-70f608aea3cde50d.compiler_builtins.5a681add74c93a61-cgu.000.rcgu.o)
 .debug_abbrev  0x0000000000003b2d      0x18e ./gen/../tr_api_dispatch/target/armv7a-none-eabi/release/libitron.a(compiler_builtins-70f608aea3cde50d.compiler_builtins.5a681add74c93a61-cgu.004.rcgu.o)
 .debug_abbrev  0x0000000000003cbb      0x142 ./gen/../tr_api_dispatch/target/armv7a-none-eabi/release/libitron.a(compiler_builtins-70f608aea3cde50d.compiler_builtins.5a681add74c93a61-cgu.009.rcgu.o)
 .debug_abbrev  0x0000000000003dfd      0x13b ./gen/../tr_api_dispatch/target/armv7a-none-eabi/release/libitron.a(compiler_builtins-70f608aea3cde50d.compiler_builtins.5a681add74c93a61-cgu.019.rcgu.o)
 .debug_abbrev  0x0000000000003f38       0x5f ./gen/../tr_api_dispatch/target/armv7a-none-eabi/release/libitron.a(compiler_builtins-70f608aea3cde50d.compiler_builtins.5a681add74c93a61-cgu.347.rcgu.o)
 .debug_abbrev  0x0000000000003f97       0x75 ./gen/../tr_api_dispatch/target/armv7a-none-eabi/release/libitron.a(63f8a0b8a638da8c-aeabi_div0.o)
 .debug_abbrev  0x000000000000400c       0xc1 ./gen/../tr_api_dispatch/target/armv7a-none-eabi/release/libitron.a(compiler_builtins-70f608aea3cde50d.compiler_builtins.5a681add74c93a61-cgu.010.rcgu.o)
 .debug_abbrev  0x00000000000040cd      0x2a0 ./libkernel.a(target_kernel_impl.o)
 .debug_abbrev  0x000000000000436d      0x168 ./libkernel.a(chip_kernel_impl.o)
 .debug_abbrev  0x00000000000044d5      0x279 ./libkernel.a(mpcore_kernel_impl.o)
 .debug_abbrev  0x000000000000474e      0x317 ./libkernel.a(gic_kernel_impl.o)
 .debug_abbrev  0x0000000000004a65      0x1b2 ./libkernel.a(pl310.o)
 .debug_abbrev  0x0000000000004c17      0x182 ./libkernel.a(mpcore_timer.o)
 .debug_abbrev  0x0000000000004d99      0x4c5 ./libkernel.a(core_kernel_impl.o)
 .debug_abbrev  0x000000000000525e      0x148 ./libkernel.a(arm.o)
 .debug_abbrev  0x00000000000053a6      0x4bd ./libkernel.a(startup.o)
 .debug_abbrev  0x0000000000005863      0x4fe ./libkernel.a(task.o)
 .debug_abbrev  0x0000000000005d61      0x17b ./libkernel.a(taskhook.o)
 .debug_abbrev  0x0000000000005edc      0x3c0 ./libkernel.a(wait.o)
 .debug_abbrev  0x000000000000629c      0x58f ./libkernel.a(time_event.o)
 .debug_abbrev  0x000000000000682b      0x45a ./libkernel.a(task_manage.o)
 .debug_abbrev  0x0000000000006c85      0x382 ./libkernel.a(task_refer.o)
 .debug_abbrev  0x0000000000007007      0x438 ./libkernel.a(task_sync.o)
 .debug_abbrev  0x000000000000743f      0x47b ./libkernel.a(semaphore.o)
 .debug_abbrev  0x00000000000078ba      0x454 ./libkernel.a(spin_lock.o)
 .debug_abbrev  0x0000000000007d0e      0x4d3 ./libkernel.a(sys_manage.o)
 .debug_abbrev  0x00000000000081e1      0x456 ./libkernel.a(interrupt.o)
 .debug_abbrev  0x0000000000008637       0x14 ./libkernel.a(core_support.o)
 .debug_abbrev  0x000000000000864b      0x49a ./libkernel.a(task_term.o)
 .debug_abbrev  0x0000000000008ae5       0x14 ./libkernel.a(gic_support.o)
 .debug_abbrev  0x0000000000008af9       0xb4 /usr/lib/gcc/arm-none-eabi/10.3.1/../../../arm-none-eabi/lib/thumb/v7-a/nofp/libc.a(lib_a-memset.o)

.debug_line     0x0000000000000000    0x32368
 *(.debug_line)
 .debug_line    0x0000000000000000       0xa2 objs/start.o
 .debug_line    0x00000000000000a2      0x385 objs/log_output.o
 .debug_line    0x0000000000000427      0x1d6 objs/vasyslog.o
 .debug_line    0x00000000000005fd       0xf1 objs/t_perror.o
 .debug_line    0x00000000000006ee       0xa1 objs/strerror.o
 .debug_line    0x000000000000078f       0x93 objs/tTask_rProcessor1Migratable_tecsgen.o
 .debug_line    0x0000000000000822       0x9d objs/tSemaphore_rProcessor1Migratable_tecsgen.o
 .debug_line    0x00000000000008bf       0xb7 objs/tInterruptRequest_rProcessor1Migratable_tecsgen.o
 .debug_line    0x0000000000000976       0x91 objs/tISR_rProcessor1Migratable_tecsgen.o
 .debug_line    0x0000000000000a07       0x94 objs/tInitializeRoutine_rProcessor1Migratable_tecsgen.o
 .debug_line    0x0000000000000a9b       0xac objs/tTerminateRoutine_rProcessor1Migratable_tecsgen.o
 .debug_line    0x0000000000000b47      0x153 objs/tSerialPortMain_rProcessor1Migratable_tecsgen.o
 .debug_line    0x0000000000000c9a       0xcb objs/tSerialAdapter_rProcessor1Migratable_tecsgen.o
 .debug_line    0x0000000000000d65       0xe2 objs/tSysLog_rProcessor1Migratable_tecsgen.o
 .debug_line    0x0000000000000e47       0x67 objs/tSysLogAdapter_rProcessor1Migratable_tecsgen.o
 .debug_line    0x0000000000000eae       0xfa objs/tLogTaskMain_rProcessor1Migratable_tecsgen.o
 .debug_line    0x0000000000000fa8       0x7d objs/tBannerMain_rProcessor1Migratable_tecsgen.o
 .debug_line    0x0000000000001025       0x66 objs/tPutLogZyboZ7_rProcessor1Migratable_tecsgen.o
 .debug_line    0x000000000000108b       0xfe objs/tXUartPs_rProcessor1Migratable_tecsgen.o
 .debug_line    0x0000000000001189       0x94 objs/tSIOPortZyboZ7Main_rProcessor1Migratable_tecsgen.o
 .debug_line    0x000000000000121d       0xce objs/tTask.o
 .debug_line    0x00000000000012eb        0x0 objs/tInterruptRequest.o
 .debug_line    0x00000000000012eb       0xca objs/tISR.o
 .debug_line    0x00000000000013b5       0xce objs/tInitializeRoutine.o
 .debug_line    0x0000000000001483       0xcf objs/tTerminateRoutine.o
 .debug_line    0x0000000000001552      0xd4e objs/tSerialPortMain.o
 .debug_line    0x00000000000022a0      0x23e objs/tSerialAdapter.o
 .debug_line    0x00000000000024de      0x5ed objs/tSysLog.o
 .debug_line    0x0000000000002acb      0x123 objs/tSysLogAdapter.o
 .debug_line    0x0000000000002bee      0x354 objs/tLogTaskMain.o
 .debug_line    0x0000000000002f42      0x145 objs/tBannerMain.o
 .debug_line    0x0000000000003087      0x23e objs/tPutLogZyboZ7.o
 .debug_line    0x00000000000032c5      0x656 objs/tXUartPs.o
 .debug_line    0x000000000000391b       0x86 objs/init_tecs.o
 .debug_line    0x00000000000039a1      0x283 objs/kernel_cfg.o
 .debug_line    0x0000000000003c24    0x18a11 ./gen/../tr_api_dispatch/target/armv7a-none-eabi/release/libitron.a(core-d049573bc16596f9.core.5587a85061e7188a-cgu.0.rcgu.o)
 .debug_line    0x000000000001c635      0x36a ./gen/../tr_api_dispatch/target/armv7a-none-eabi/release/libitron.a(compiler_builtins-70f608aea3cde50d.compiler_builtins.5a681add74c93a61-cgu.162.rcgu.o)
 .debug_line    0x000000000001c99f       0x97 ./gen/../tr_api_dispatch/target/armv7a-none-eabi/release/libitron.a(compiler_builtins-70f608aea3cde50d.compiler_builtins.5a681add74c93a61-cgu.174.rcgu.o)
 .debug_line    0x000000000001ca36       0x44 ./gen/../tr_api_dispatch/target/armv7a-none-eabi/release/libitron.a(compiler_builtins-70f608aea3cde50d.compiler_builtins.5a681add74c93a61-cgu.178.rcgu.o)
 .debug_line    0x000000000001ca7a      0x22e ./gen/../tr_api_dispatch/target/armv7a-none-eabi/release/libitron.a(compiler_builtins-70f608aea3cde50d.compiler_builtins.5a681add74c93a61-cgu.180.rcgu.o)
 .debug_line    0x000000000001cca8      0x1cf ./gen/../tr_api_dispatch/target/armv7a-none-eabi/release/libitron.a(compiler_builtins-70f608aea3cde50d.compiler_builtins.5a681add74c93a61-cgu.201.rcgu.o)
 .debug_line    0x000000000001ce77      0x249 ./gen/../tr_api_dispatch/target/armv7a-none-eabi/release/libitron.a(compiler_builtins-70f608aea3cde50d.compiler_builtins.5a681add74c93a61-cgu.206.rcgu.o)
 .debug_line    0x000000000001d0c0      0x420 ./gen/../tr_api_dispatch/target/armv7a-none-eabi/release/libitron.a(compiler_builtins-70f608aea3cde50d.compiler_builtins.5a681add74c93a61-cgu.210.rcgu.o)
 .debug_line    0x000000000001d4e0       0x82 ./gen/../tr_api_dispatch/target/armv7a-none-eabi/release/libitron.a(compiler_builtins-70f608aea3cde50d.compiler_builtins.5a681add74c93a61-cgu.223.rcgu.o)
 .debug_line    0x000000000001d562       0x97 ./gen/../tr_api_dispatch/target/armv7a-none-eabi/release/libitron.a(compiler_builtins-70f608aea3cde50d.compiler_builtins.5a681add74c93a61-cgu.253.rcgu.o)
 .debug_line    0x000000000001d5f9      0x21d ./gen/../tr_api_dispatch/target/armv7a-none-eabi/release/libitron.a(compiler_builtins-70f608aea3cde50d.compiler_builtins.5a681add74c93a61-cgu.261.rcgu.o)
 .debug_line    0x000000000001d816       0x44 ./gen/../tr_api_dispatch/target/armv7a-none-eabi/release/libitron.a(compiler_builtins-70f608aea3cde50d.compiler_builtins.5a681add74c93a61-cgu.263.rcgu.o)
 .debug_line    0x000000000001d85a      0x269 ./gen/../tr_api_dispatch/target/armv7a-none-eabi/release/libitron.a(compiler_builtins-70f608aea3cde50d.compiler_builtins.5a681add74c93a61-cgu.270.rcgu.o)
 .debug_line    0x000000000001dac3      0x216 ./gen/../tr_api_dispatch/target/armv7a-none-eabi/release/libitron.a(compiler_builtins-70f608aea3cde50d.compiler_builtins.5a681add74c93a61-cgu.283.rcgu.o)
 .debug_line    0x000000000001dcd9      0x213 ./gen/../tr_api_dispatch/target/armv7a-none-eabi/release/libitron.a(compiler_builtins-70f608aea3cde50d.compiler_builtins.5a681add74c93a61-cgu.287.rcgu.o)
 .debug_line    0x000000000001deec      0x416 ./gen/../tr_api_dispatch/target/armv7a-none-eabi/release/libitron.a(compiler_builtins-70f608aea3cde50d.compiler_builtins.5a681add74c93a61-cgu.300.rcgu.o)
 .debug_line    0x000000000001e302       0xd9 ./gen/../tr_api_dispatch/target/armv7a-none-eabi/release/libitron.a(compiler_builtins-70f608aea3cde50d.compiler_builtins.5a681add74c93a61-cgu.310.rcgu.o)
 .debug_line    0x000000000001e3db       0x44 ./gen/../tr_api_dispatch/target/armv7a-none-eabi/release/libitron.a(compiler_builtins-70f608aea3cde50d.compiler_builtins.5a681add74c93a61-cgu.355.rcgu.o)
 .debug_line    0x000000000001e41f      0x249 ./gen/../tr_api_dispatch/target/armv7a-none-eabi/release/libitron.a(compiler_builtins-70f608aea3cde50d.compiler_builtins.5a681add74c93a61-cgu.361.rcgu.o)
 .debug_line    0x000000000001e668      0x27b ./gen/../tr_api_dispatch/target/armv7a-none-eabi/release/libitron.a(compiler_builtins-70f608aea3cde50d.compiler_builtins.5a681add74c93a61-cgu.365.rcgu.o)
 .debug_line    0x000000000001e8e3      0x1cf ./gen/../tr_api_dispatch/target/armv7a-none-eabi/release/libitron.a(compiler_builtins-70f608aea3cde50d.compiler_builtins.5a681add74c93a61-cgu.375.rcgu.o)
 .debug_line    0x000000000001eab2       0x44 ./gen/../tr_api_dispatch/target/armv7a-none-eabi/release/libitron.a(compiler_builtins-70f608aea3cde50d.compiler_builtins.5a681add74c93a61-cgu.393.rcgu.o)
 .debug_line    0x000000000001eaf6      0x370 ./gen/../tr_api_dispatch/target/armv7a-none-eabi/release/libitron.a(compiler_builtins-70f608aea3cde50d.compiler_builtins.5a681add74c93a61-cgu.395.rcgu.o)
 .debug_line    0x000000000001ee66       0xaf ./gen/../tr_api_dispatch/target/armv7a-none-eabi/release/libitron.a(63f8a0b8a638da8c-udivmodsi4.o)
 .debug_line    0x000000000001ef15       0xab ./gen/../tr_api_dispatch/target/armv7a-none-eabi/release/libitron.a(63f8a0b8a638da8c-udivsi3.o)
 .debug_line    0x000000000001efc0      0xf93 ./gen/../tr_api_dispatch/target/armv7a-none-eabi/release/libitron.a(compiler_builtins-70f608aea3cde50d.compiler_builtins.5a681add74c93a61-cgu.000.rcgu.o)
 .debug_line    0x000000000001ff53      0xc1b ./gen/../tr_api_dispatch/target/armv7a-none-eabi/release/libitron.a(compiler_builtins-70f608aea3cde50d.compiler_builtins.5a681add74c93a61-cgu.004.rcgu.o)
 .debug_line    0x0000000000020b6e      0x7e3 ./gen/../tr_api_dispatch/target/armv7a-none-eabi/release/libitron.a(compiler_builtins-70f608aea3cde50d.compiler_builtins.5a681add74c93a61-cgu.009.rcgu.o)
 .debug_line    0x0000000000021351      0x599 ./gen/../tr_api_dispatch/target/armv7a-none-eabi/release/libitron.a(compiler_builtins-70f608aea3cde50d.compiler_builtins.5a681add74c93a61-cgu.019.rcgu.o)
 .debug_line    0x00000000000218ea       0xad ./gen/../tr_api_dispatch/target/armv7a-none-eabi/release/libitron.a(compiler_builtins-70f608aea3cde50d.compiler_builtins.5a681add74c93a61-cgu.347.rcgu.o)
 .debug_line    0x0000000000021997       0x70 ./gen/../tr_api_dispatch/target/armv7a-none-eabi/release/libitron.a(63f8a0b8a638da8c-aeabi_div0.o)
 .debug_line    0x0000000000021a07      0x54f ./gen/../tr_api_dispatch/target/armv7a-none-eabi/release/libitron.a(compiler_builtins-70f608aea3cde50d.compiler_builtins.5a681add74c93a61-cgu.010.rcgu.o)
 .debug_line    0x0000000000021f56      0x255 ./libkernel.a(target_kernel_impl.o)
 .debug_line    0x00000000000221ab      0x168 ./libkernel.a(chip_kernel_impl.o)
 .debug_line    0x0000000000022313      0x29d ./libkernel.a(mpcore_kernel_impl.o)
 .debug_line    0x00000000000225b0      0x8e2 ./libkernel.a(gic_kernel_impl.o)
 .debug_line    0x0000000000022e92      0x54b ./libkernel.a(pl310.o)
 .debug_line    0x00000000000233dd      0x24f ./libkernel.a(mpcore_timer.o)
 .debug_line    0x000000000002362c      0x7e9 ./libkernel.a(core_kernel_impl.o)
 .debug_line    0x0000000000023e15      0x3bd ./libkernel.a(arm.o)
 .debug_line    0x00000000000241d2      0x7fe ./libkernel.a(startup.o)
 .debug_line    0x00000000000249d0     0x1212 ./libkernel.a(task.o)
 .debug_line    0x0000000000025be2      0x11c ./libkernel.a(taskhook.o)
 .debug_line    0x0000000000025cfe      0xd32 ./libkernel.a(wait.o)
 .debug_line    0x0000000000026a30     0x14f3 ./libkernel.a(time_event.o)
 .debug_line    0x0000000000027f23     0x1bf5 ./libkernel.a(task_manage.o)
 .debug_line    0x0000000000029b18      0x5e5 ./libkernel.a(task_refer.o)
 .debug_line    0x000000000002a0fd     0x1ceb ./libkernel.a(task_sync.o)
 .debug_line    0x000000000002bde8     0x1722 ./libkernel.a(semaphore.o)
 .debug_line    0x000000000002d50a      0x9ec ./libkernel.a(spin_lock.o)
 .debug_line    0x000000000002def6     0x1f88 ./libkernel.a(sys_manage.o)
 .debug_line    0x000000000002fe7e      0xf89 ./libkernel.a(interrupt.o)
 .debug_line    0x0000000000030e07      0x1a7 ./libkernel.a(core_support.o)
 .debug_line    0x0000000000030fae     0x1171 ./libkernel.a(task_term.o)
 .debug_line    0x000000000003211f       0x88 ./libkernel.a(gic_support.o)
 .debug_line    0x00000000000321a7      0x1c1 /usr/lib/gcc/arm-none-eabi/10.3.1/../../../arm-none-eabi/lib/thumb/v7-a/nofp/libc.a(lib_a-memset.o)

.debug_frame    0x0000000000000000     0x63e8
 *(.debug_frame)
 .debug_frame   0x0000000000000000       0xac objs/log_output.o
 .debug_frame   0x00000000000000ac       0x2c objs/vasyslog.o
 .debug_frame   0x00000000000000d8       0x30 objs/t_perror.o
 .debug_frame   0x0000000000000108       0x20 objs/strerror.o
 .debug_frame   0x0000000000000128       0x20 objs/tTask_rProcessor1Migratable_tecsgen.o
 .debug_frame   0x0000000000000148       0x20 objs/tSemaphore_rProcessor1Migratable_tecsgen.o
 .debug_frame   0x0000000000000168       0x20 objs/tInterruptRequest_rProcessor1Migratable_tecsgen.o
 .debug_frame   0x0000000000000188       0x20 objs/tISR_rProcessor1Migratable_tecsgen.o
 .debug_frame   0x00000000000001a8       0x20 objs/tInitializeRoutine_rProcessor1Migratable_tecsgen.o
 .debug_frame   0x00000000000001c8       0x20 objs/tTerminateRoutine_rProcessor1Migratable_tecsgen.o
 .debug_frame   0x00000000000001e8       0x80 objs/tSerialPortMain_rProcessor1Migratable_tecsgen.o
 .debug_frame   0x0000000000000268       0x20 objs/tSerialAdapter_rProcessor1Migratable_tecsgen.o
 .debug_frame   0x0000000000000288       0x20 objs/tSysLog_rProcessor1Migratable_tecsgen.o
 .debug_frame   0x00000000000002a8       0x20 objs/tSysLogAdapter_rProcessor1Migratable_tecsgen.o
 .debug_frame   0x00000000000002c8       0x30 objs/tLogTaskMain_rProcessor1Migratable_tecsgen.o
 .debug_frame   0x00000000000002f8       0x20 objs/tBannerMain_rProcessor1Migratable_tecsgen.o
 .debug_frame   0x0000000000000318       0x20 objs/tPutLogZyboZ7_rProcessor1Migratable_tecsgen.o
 .debug_frame   0x0000000000000338       0x30 objs/tXUartPs_rProcessor1Migratable_tecsgen.o
 .debug_frame   0x0000000000000368       0x20 objs/tSIOPortZyboZ7Main_rProcessor1Migratable_tecsgen.o
 .debug_frame   0x0000000000000388       0x20 objs/tTask.o
 .debug_frame   0x00000000000003a8       0x20 objs/tISR.o
 .debug_frame   0x00000000000003c8       0x20 objs/tInitializeRoutine.o
 .debug_frame   0x00000000000003e8       0x20 objs/tTerminateRoutine.o
 .debug_frame   0x0000000000000408      0x150 objs/tSerialPortMain.o
 .debug_frame   0x0000000000000558       0xf0 objs/tSerialAdapter.o
 .debug_frame   0x0000000000000648       0xa4 objs/tSysLog.o
 .debug_frame   0x00000000000006ec       0x60 objs/tSysLogAdapter.o
 .debug_frame   0x000000000000074c       0xa8 objs/tLogTaskMain.o
 .debug_frame   0x00000000000007f4       0x2c objs/tBannerMain.o
 .debug_frame   0x0000000000000820       0x48 objs/tPutLogZyboZ7.o
 .debug_frame   0x0000000000000868       0xa0 objs/tXUartPs.o
 .debug_frame   0x0000000000000908       0x2c objs/init_tecs.o
 .debug_frame   0x0000000000000934       0x3c objs/kernel_cfg.o
 .debug_frame   0x0000000000000970     0x42a8 ./gen/../tr_api_dispatch/target/armv7a-none-eabi/release/libitron.a(core-d049573bc16596f9.core.5587a85061e7188a-cgu.0.rcgu.o)
 .debug_frame   0x0000000000004c18       0x30 ./gen/../tr_api_dispatch/target/armv7a-none-eabi/release/libitron.a(compiler_builtins-70f608aea3cde50d.compiler_builtins.5a681add74c93a61-cgu.162.rcgu.o)
 .debug_frame   0x0000000000004c48       0x30 ./gen/../tr_api_dispatch/target/armv7a-none-eabi/release/libitron.a(compiler_builtins-70f608aea3cde50d.compiler_builtins.5a681add74c93a61-cgu.174.rcgu.o)
 .debug_frame   0x0000000000004c78       0x30 ./gen/../tr_api_dispatch/target/armv7a-none-eabi/release/libitron.a(compiler_builtins-70f608aea3cde50d.compiler_builtins.5a681add74c93a61-cgu.178.rcgu.o)
 .debug_frame   0x0000000000004ca8       0x30 ./gen/../tr_api_dispatch/target/armv7a-none-eabi/release/libitron.a(compiler_builtins-70f608aea3cde50d.compiler_builtins.5a681add74c93a61-cgu.180.rcgu.o)
 .debug_frame   0x0000000000004cd8       0x30 ./gen/../tr_api_dispatch/target/armv7a-none-eabi/release/libitron.a(compiler_builtins-70f608aea3cde50d.compiler_builtins.5a681add74c93a61-cgu.201.rcgu.o)
 .debug_frame   0x0000000000004d08       0x30 ./gen/../tr_api_dispatch/target/armv7a-none-eabi/release/libitron.a(compiler_builtins-70f608aea3cde50d.compiler_builtins.5a681add74c93a61-cgu.206.rcgu.o)
 .debug_frame   0x0000000000004d38       0x30 ./gen/../tr_api_dispatch/target/armv7a-none-eabi/release/libitron.a(compiler_builtins-70f608aea3cde50d.compiler_builtins.5a681add74c93a61-cgu.210.rcgu.o)
 .debug_frame   0x0000000000004d68       0x30 ./gen/../tr_api_dispatch/target/armv7a-none-eabi/release/libitron.a(compiler_builtins-70f608aea3cde50d.compiler_builtins.5a681add74c93a61-cgu.223.rcgu.o)
 .debug_frame   0x0000000000004d98       0x30 ./gen/../tr_api_dispatch/target/armv7a-none-eabi/release/libitron.a(compiler_builtins-70f608aea3cde50d.compiler_builtins.5a681add74c93a61-cgu.253.rcgu.o)
 .debug_frame   0x0000000000004dc8       0x38 ./gen/../tr_api_dispatch/target/armv7a-none-eabi/release/libitron.a(compiler_builtins-70f608aea3cde50d.compiler_builtins.5a681add74c93a61-cgu.261.rcgu.o)
 .debug_frame   0x0000000000004e00       0x30 ./gen/../tr_api_dispatch/target/armv7a-none-eabi/release/libitron.a(compiler_builtins-70f608aea3cde50d.compiler_builtins.5a681add74c93a61-cgu.263.rcgu.o)
 .debug_frame   0x0000000000004e30       0x30 ./gen/../tr_api_dispatch/target/armv7a-none-eabi/release/libitron.a(compiler_builtins-70f608aea3cde50d.compiler_builtins.5a681add74c93a61-cgu.270.rcgu.o)
 .debug_frame   0x0000000000004e60       0x30 ./gen/../tr_api_dispatch/target/armv7a-none-eabi/release/libitron.a(compiler_builtins-70f608aea3cde50d.compiler_builtins.5a681add74c93a61-cgu.283.rcgu.o)
 .debug_frame   0x0000000000004e90       0x38 ./gen/../tr_api_dispatch/target/armv7a-none-eabi/release/libitron.a(compiler_builtins-70f608aea3cde50d.compiler_builtins.5a681add74c93a61-cgu.287.rcgu.o)
 .debug_frame   0x0000000000004ec8       0x30 ./gen/../tr_api_dispatch/target/armv7a-none-eabi/release/libitron.a(compiler_builtins-70f608aea3cde50d.compiler_builtins.5a681add74c93a61-cgu.300.rcgu.o)
 .debug_frame   0x0000000000004ef8       0x30 ./gen/../tr_api_dispatch/target/armv7a-none-eabi/release/libitron.a(compiler_builtins-70f608aea3cde50d.compiler_builtins.5a681add74c93a61-cgu.310.rcgu.o)
 .debug_frame   0x0000000000004f28       0x30 ./gen/../tr_api_dispatch/target/armv7a-none-eabi/release/libitron.a(compiler_builtins-70f608aea3cde50d.compiler_builtins.5a681add74c93a61-cgu.355.rcgu.o)
 .debug_frame   0x0000000000004f58       0x38 ./gen/../tr_api_dispatch/target/armv7a-none-eabi/release/libitron.a(compiler_builtins-70f608aea3cde50d.compiler_builtins.5a681add74c93a61-cgu.361.rcgu.o)
 .debug_frame   0x0000000000004f90       0x34 ./gen/../tr_api_dispatch/target/armv7a-none-eabi/release/libitron.a(compiler_builtins-70f608aea3cde50d.compiler_builtins.5a681add74c93a61-cgu.365.rcgu.o)
 .debug_frame   0x0000000000004fc4       0x30 ./gen/../tr_api_dispatch/target/armv7a-none-eabi/release/libitron.a(compiler_builtins-70f608aea3cde50d.compiler_builtins.5a681add74c93a61-cgu.375.rcgu.o)
 .debug_frame   0x0000000000004ff4       0x30 ./gen/../tr_api_dispatch/target/armv7a-none-eabi/release/libitron.a(compiler_builtins-70f608aea3cde50d.compiler_builtins.5a681add74c93a61-cgu.393.rcgu.o)
 .debug_frame   0x0000000000005024       0x30 ./gen/../tr_api_dispatch/target/armv7a-none-eabi/release/libitron.a(compiler_builtins-70f608aea3cde50d.compiler_builtins.5a681add74c93a61-cgu.395.rcgu.o)
 .debug_frame   0x0000000000005054       0x90 ./gen/../tr_api_dispatch/target/armv7a-none-eabi/release/libitron.a(compiler_builtins-70f608aea3cde50d.compiler_builtins.5a681add74c93a61-cgu.000.rcgu.o)
 .debug_frame   0x00000000000050e4       0x90 ./gen/../tr_api_dispatch/target/armv7a-none-eabi/release/libitron.a(compiler_builtins-70f608aea3cde50d.compiler_builtins.5a681add74c93a61-cgu.004.rcgu.o)
 .debug_frame   0x0000000000005174       0xc4 ./gen/../tr_api_dispatch/target/armv7a-none-eabi/release/libitron.a(compiler_builtins-70f608aea3cde50d.compiler_builtins.5a681add74c93a61-cgu.009.rcgu.o)
 .debug_frame   0x0000000000005238      0x138 ./gen/../tr_api_dispatch/target/armv7a-none-eabi/release/libitron.a(compiler_builtins-70f608aea3cde50d.compiler_builtins.5a681add74c93a61-cgu.019.rcgu.o)
 .debug_frame   0x0000000000005370       0x34 ./gen/../tr_api_dispatch/target/armv7a-none-eabi/release/libitron.a(compiler_builtins-70f608aea3cde50d.compiler_builtins.5a681add74c93a61-cgu.347.rcgu.o)
 .debug_frame   0x00000000000053a4       0x30 ./gen/../tr_api_dispatch/target/armv7a-none-eabi/release/libitron.a(63f8a0b8a638da8c-aeabi_div0.o)
 .debug_frame   0x00000000000053d4       0x6c ./gen/../tr_api_dispatch/target/armv7a-none-eabi/release/libitron.a(compiler_builtins-70f608aea3cde50d.compiler_builtins.5a681add74c93a61-cgu.010.rcgu.o)
 .debug_frame   0x0000000000005440       0x78 ./libkernel.a(target_kernel_impl.o)
 .debug_frame   0x00000000000054b8       0x3c ./libkernel.a(chip_kernel_impl.o)
 .debug_frame   0x00000000000054f4       0x5c ./libkernel.a(mpcore_kernel_impl.o)
 .debug_frame   0x0000000000005550       0x80 ./libkernel.a(gic_kernel_impl.o)
 .debug_frame   0x00000000000055d0       0x50 ./libkernel.a(pl310.o)
 .debug_frame   0x0000000000005620       0x40 ./libkernel.a(mpcore_timer.o)
 .debug_frame   0x0000000000005660       0xfc ./libkernel.a(core_kernel_impl.o)
 .debug_frame   0x000000000000575c       0xa0 ./libkernel.a(arm.o)
 .debug_frame   0x00000000000057fc       0xd4 ./libkernel.a(startup.o)
 .debug_frame   0x00000000000058d0      0x15c ./libkernel.a(task.o)
 .debug_frame   0x0000000000005a2c      0x12c ./libkernel.a(wait.o)
 .debug_frame   0x0000000000005b58      0x1b0 ./libkernel.a(time_event.o)
 .debug_frame   0x0000000000005d08       0xfc ./libkernel.a(task_manage.o)
 .debug_frame   0x0000000000005e04       0x30 ./libkernel.a(task_refer.o)
 .debug_frame   0x0000000000005e34      0x138 ./libkernel.a(task_sync.o)
 .debug_frame   0x0000000000005f6c       0xfc ./libkernel.a(semaphore.o)
 .debug_frame   0x0000000000006068       0x7c ./libkernel.a(spin_lock.o)
 .debug_frame   0x00000000000060e4      0x184 ./libkernel.a(sys_manage.o)
 .debug_frame   0x0000000000006268       0x9c ./libkernel.a(interrupt.o)
 .debug_frame   0x0000000000006304       0xb8 ./libkernel.a(task_term.o)
 .debug_frame   0x00000000000063bc       0x2c /usr/lib/gcc/arm-none-eabi/10.3.1/../../../arm-none-eabi/lib/thumb/v7-a/nofp/libc.a(lib_a-memset.o)

.debug_str      0x0000000000000000    0x43d3e
 *(.debug_str)
 .debug_str     0x0000000000000000       0x5b objs/start.o
 .debug_str     0x000000000000005b      0x1c7 objs/log_output.o
                                        0x26f (size before relaxing)
 .debug_str     0x0000000000000222       0x47 objs/vasyslog.o
                                        0x1f7 (size before relaxing)
 .debug_str     0x0000000000000269       0x46 objs/t_perror.o
                                        0x1f5 (size before relaxing)
 .debug_str     0x00000000000002af       0x16 objs/strerror.o
                                        0x18f (size before relaxing)
 .debug_str     0x00000000000002c5       0xd9 objs/tTask_rProcessor1Migratable_tecsgen.o
                                        0x1bc (size before relaxing)
 .debug_str     0x000000000000039e       0x72 objs/tSemaphore_rProcessor1Migratable_tecsgen.o
                                        0x1d0 (size before relaxing)
 .debug_str     0x0000000000000410       0xa4 objs/tInterruptRequest_rProcessor1Migratable_tecsgen.o
                                        0x20a (size before relaxing)
 .debug_str     0x00000000000004b4       0x5a objs/tISR_rProcessor1Migratable_tecsgen.o
                                        0x1b7 (size before relaxing)
 .debug_str     0x000000000000050e       0x7a objs/tInitializeRoutine_rProcessor1Migratable_tecsgen.o
                                        0x1dd (size before relaxing)
 .debug_str     0x0000000000000588      0x153 objs/tTerminateRoutine_rProcessor1Migratable_tecsgen.o
                                        0x2b2 (size before relaxing)
 .debug_str     0x00000000000006db      0x4fc objs/tSerialPortMain_rProcessor1Migratable_tecsgen.o
                                        0x693 (size before relaxing)
 .debug_str     0x0000000000000bd7       0xc8 objs/tSerialAdapter_rProcessor1Migratable_tecsgen.o
                                        0x301 (size before relaxing)
 .debug_str     0x0000000000000c9f      0x104 objs/tSysLog_rProcessor1Migratable_tecsgen.o
                                        0x2be (size before relaxing)
 .debug_str     0x0000000000000da3       0x52 objs/tSysLogAdapter_rProcessor1Migratable_tecsgen.o
                                        0x19a (size before relaxing)
 .debug_str     0x0000000000000df5      0x144 objs/tLogTaskMain_rProcessor1Migratable_tecsgen.o
                                        0x31a (size before relaxing)
 .debug_str     0x0000000000000f39       0x99 objs/tBannerMain_rProcessor1Migratable_tecsgen.o
                                        0x1f2 (size before relaxing)
 .debug_str     0x0000000000000fd2       0x50 objs/tPutLogZyboZ7_rProcessor1Migratable_tecsgen.o
                                        0x198 (size before relaxing)
 .debug_str     0x0000000000001022      0x138 objs/tXUartPs_rProcessor1Migratable_tecsgen.o
                                        0x32f (size before relaxing)
 .debug_str     0x000000000000115a       0x74 objs/tSIOPortZyboZ7Main_rProcessor1Migratable_tecsgen.o
                                        0x1dd (size before relaxing)
 .debug_str     0x00000000000011ce       0x55 objs/tTask.o
                                        0x1cc (size before relaxing)
 .debug_str     0x0000000000001223       0x23 objs/tInterruptRequest.o
                                         0xc9 (size before relaxing)
 .debug_str     0x0000000000001246       0x3e objs/tISR.o
                                        0x25a (size before relaxing)
 .debug_str     0x0000000000001284       0x60 objs/tInitializeRoutine.o
                                        0x1f6 (size before relaxing)
 .debug_str     0x00000000000012e4       0x51 objs/tTerminateRoutine.o
                                        0x227 (size before relaxing)
 .debug_str     0x0000000000001335      0x404 objs/tSerialPortMain.o
                                        0x944 (size before relaxing)
 .debug_str     0x0000000000001739       0x7c objs/tSerialAdapter.o
                                        0x2d0 (size before relaxing)
 .debug_str     0x00000000000017b5      0x1bf objs/tSysLog.o
                                        0x47a (size before relaxing)
 .debug_str     0x0000000000001974       0x66 objs/tSysLogAdapter.o
                                        0x2b8 (size before relaxing)
 .debug_str     0x00000000000019da       0x71 objs/tLogTaskMain.o
                                        0x5b8 (size before relaxing)
 .debug_str     0x0000000000001a4b       0x43 objs/tBannerMain.o
                                        0x280 (size before relaxing)
 .debug_str     0x0000000000001a8e       0x3f objs/tPutLogZyboZ7.o
                                        0x3c8 (size before relaxing)
 .debug_str     0x0000000000001acd      0x11e objs/tXUartPs.o
                                        0x5e9 (size before relaxing)
 .debug_str     0x0000000000001beb       0x2b objs/init_tecs.o
                                        0x306 (size before relaxing)
 .debug_str     0x0000000000001c16     0x119c objs/kernel_cfg.o
                                       0x151c (size before relaxing)
 .debug_str     0x0000000000002db2    0x393b4 ./gen/../tr_api_dispatch/target/armv7a-none-eabi/release/libitron.a(core-d049573bc16596f9.core.5587a85061e7188a-cgu.0.rcgu.o)
                                      0x39839 (size before relaxing)
 .debug_str     0x000000000003c166      0x43c ./gen/../tr_api_dispatch/target/armv7a-none-eabi/release/libitron.a(compiler_builtins-70f608aea3cde50d.compiler_builtins.5a681add74c93a61-cgu.162.rcgu.o)
                                        0x51d (size before relaxing)
 .debug_str     0x000000000003c5a2       0xfb ./gen/../tr_api_dispatch/target/armv7a-none-eabi/release/libitron.a(compiler_builtins-70f608aea3cde50d.compiler_builtins.5a681add74c93a61-cgu.174.rcgu.o)
                                        0x1d4 (size before relaxing)
 .debug_str     0x000000000003c69d       0x6a ./gen/../tr_api_dispatch/target/armv7a-none-eabi/release/libitron.a(compiler_builtins-70f608aea3cde50d.compiler_builtins.5a681add74c93a61-cgu.178.rcgu.o)
                                         0xec (size before relaxing)
 .debug_str     0x000000000003c707      0x2fc ./gen/../tr_api_dispatch/target/armv7a-none-eabi/release/libitron.a(compiler_builtins-70f608aea3cde50d.compiler_builtins.5a681add74c93a61-cgu.180.rcgu.o)
                                        0x3b9 (size before relaxing)
 .debug_str     0x000000000003ca03       0xfd ./gen/../tr_api_dispatch/target/armv7a-none-eabi/release/libitron.a(compiler_builtins-70f608aea3cde50d.compiler_builtins.5a681add74c93a61-cgu.201.rcgu.o)
                                        0x463 (size before relaxing)
 .debug_str     0x000000000003cb00      0x143 ./gen/../tr_api_dispatch/target/armv7a-none-eabi/release/libitron.a(compiler_builtins-70f608aea3cde50d.compiler_builtins.5a681add74c93a61-cgu.206.rcgu.o)
                                        0x416 (size before relaxing)
 .debug_str     0x000000000003cc43      0x506 ./gen/../tr_api_dispatch/target/armv7a-none-eabi/release/libitron.a(compiler_builtins-70f608aea3cde50d.compiler_builtins.5a681add74c93a61-cgu.210.rcgu.o)
                                        0x6c8 (size before relaxing)
 .debug_str     0x000000000003d149       0x5d ./gen/../tr_api_dispatch/target/armv7a-none-eabi/release/libitron.a(compiler_builtins-70f608aea3cde50d.compiler_builtins.5a681add74c93a61-cgu.223.rcgu.o)
                                        0x184 (size before relaxing)
 .debug_str     0x000000000003d1a6       0xad ./gen/../tr_api_dispatch/target/armv7a-none-eabi/release/libitron.a(compiler_builtins-70f608aea3cde50d.compiler_builtins.5a681add74c93a61-cgu.253.rcgu.o)
                                        0x224 (size before relaxing)
 .debug_str     0x000000000003d253      0x2ba ./gen/../tr_api_dispatch/target/armv7a-none-eabi/release/libitron.a(compiler_builtins-70f608aea3cde50d.compiler_builtins.5a681add74c93a61-cgu.261.rcgu.o)
                                        0x426 (size before relaxing)
 .debug_str     0x000000000003d50d       0x6a ./gen/../tr_api_dispatch/target/armv7a-none-eabi/release/libitron.a(compiler_builtins-70f608aea3cde50d.compiler_builtins.5a681add74c93a61-cgu.263.rcgu.o)
                                         0xec (size before relaxing)
 .debug_str     0x000000000003d577      0x3cb ./gen/../tr_api_dispatch/target/armv7a-none-eabi/release/libitron.a(compiler_builtins-70f608aea3cde50d.compiler_builtins.5a681add74c93a61-cgu.270.rcgu.o)
                                        0x5a9 (size before relaxing)
 .debug_str     0x000000000003d942      0x158 ./gen/../tr_api_dispatch/target/armv7a-none-eabi/release/libitron.a(compiler_builtins-70f608aea3cde50d.compiler_builtins.5a681add74c93a61-cgu.283.rcgu.o)
                                        0x356 (size before relaxing)
 .debug_str     0x000000000003da9a      0x158 ./gen/../tr_api_dispatch/target/armv7a-none-eabi/release/libitron.a(compiler_builtins-70f608aea3cde50d.compiler_builtins.5a681add74c93a61-cgu.287.rcgu.o)
                                        0x3c6 (size before relaxing)
 .debug_str     0x000000000003dbf2      0x62a ./gen/../tr_api_dispatch/target/armv7a-none-eabi/release/libitron.a(compiler_builtins-70f608aea3cde50d.compiler_builtins.5a681add74c93a61-cgu.300.rcgu.o)
                                        0x803 (size before relaxing)
 .debug_str     0x000000000003e21c       0xec ./gen/../tr_api_dispatch/target/armv7a-none-eabi/release/libitron.a(compiler_builtins-70f608aea3cde50d.compiler_builtins.5a681add74c93a61-cgu.310.rcgu.o)
                                        0x1cb (size before relaxing)
 .debug_str     0x000000000003e308       0x6a ./gen/../tr_api_dispatch/target/armv7a-none-eabi/release/libitron.a(compiler_builtins-70f608aea3cde50d.compiler_builtins.5a681add74c93a61-cgu.355.rcgu.o)
                                         0xec (size before relaxing)
 .debug_str     0x000000000003e372       0xf6 ./gen/../tr_api_dispatch/target/armv7a-none-eabi/release/libitron.a(compiler_builtins-70f608aea3cde50d.compiler_builtins.5a681add74c93a61-cgu.361.rcgu.o)
                                        0x4f2 (size before relaxing)
 .debug_str     0x000000000003e468      0x2ed ./gen/../tr_api_dispatch/target/armv7a-none-eabi/release/libitron.a(compiler_builtins-70f608aea3cde50d.compiler_builtins.5a681add74c93a61-cgu.365.rcgu.o)
                                        0x59a (size before relaxing)
 .debug_str     0x000000000003e755       0xad ./gen/../tr_api_dispatch/target/armv7a-none-eabi/release/libitron.a(compiler_builtins-70f608aea3cde50d.compiler_builtins.5a681add74c93a61-cgu.375.rcgu.o)
                                        0x463 (size before relaxing)
 .debug_str     0x000000000003e802       0x6a ./gen/../tr_api_dispatch/target/armv7a-none-eabi/release/libitron.a(compiler_builtins-70f608aea3cde50d.compiler_builtins.5a681add74c93a61-cgu.393.rcgu.o)
                                         0xec (size before relaxing)
 .debug_str     0x000000000003e86c       0xab ./gen/../tr_api_dispatch/target/armv7a-none-eabi/release/libitron.a(compiler_builtins-70f608aea3cde50d.compiler_builtins.5a681add74c93a61-cgu.395.rcgu.o)
                                        0x56b (size before relaxing)
 .debug_str     0x000000000003e917       0x94 ./gen/../tr_api_dispatch/target/armv7a-none-eabi/release/libitron.a(63f8a0b8a638da8c-udivmodsi4.o)
                                         0xa0 (size before relaxing)
 .debug_str     0x000000000003e9ab       0x42 ./gen/../tr_api_dispatch/target/armv7a-none-eabi/release/libitron.a(63f8a0b8a638da8c-udivsi3.o)
                                         0x9d (size before relaxing)
 .debug_str     0x000000000003e9ed     0x1e98 ./gen/../tr_api_dispatch/target/armv7a-none-eabi/release/libitron.a(compiler_builtins-70f608aea3cde50d.compiler_builtins.5a681add74c93a61-cgu.000.rcgu.o)
                                       0x28f2 (size before relaxing)
 .debug_str     0x0000000000040885      0x58e ./gen/../tr_api_dispatch/target/armv7a-none-eabi/release/libitron.a(compiler_builtins-70f608aea3cde50d.compiler_builtins.5a681add74c93a61-cgu.004.rcgu.o)
                                       0x1c8f (size before relaxing)
 .debug_str     0x0000000000040e13      0xae5 ./gen/../tr_api_dispatch/target/armv7a-none-eabi/release/libitron.a(compiler_builtins-70f608aea3cde50d.compiler_builtins.5a681add74c93a61-cgu.009.rcgu.o)
                                        0xf9f (size before relaxing)
 .debug_str     0x00000000000418f8      0x6b6 ./gen/../tr_api_dispatch/target/armv7a-none-eabi/release/libitron.a(compiler_builtins-70f608aea3cde50d.compiler_builtins.5a681add74c93a61-cgu.019.rcgu.o)
                                        0xad4 (size before relaxing)
 .debug_str     0x0000000000041fae      0x10e ./gen/../tr_api_dispatch/target/armv7a-none-eabi/release/libitron.a(compiler_builtins-70f608aea3cde50d.compiler_builtins.5a681add74c93a61-cgu.347.rcgu.o)
                                        0x18a (size before relaxing)
 .debug_str     0x00000000000420bc      0x132 ./gen/../tr_api_dispatch/target/armv7a-none-eabi/release/libitron.a(63f8a0b8a638da8c-aeabi_div0.o)
                                        0x212 (size before relaxing)
 .debug_str     0x00000000000421ee      0x40d ./gen/../tr_api_dispatch/target/armv7a-none-eabi/release/libitron.a(compiler_builtins-70f608aea3cde50d.compiler_builtins.5a681add74c93a61-cgu.010.rcgu.o)
                                        0x5f0 (size before relaxing)
 .debug_str     0x00000000000425fb      0x1a2 ./libkernel.a(target_kernel_impl.o)
                                        0x53d (size before relaxing)
 .debug_str     0x000000000004279d       0x8d ./libkernel.a(chip_kernel_impl.o)
                                        0x421 (size before relaxing)
 .debug_str     0x000000000004282a      0x168 ./libkernel.a(mpcore_kernel_impl.o)
                                        0x562 (size before relaxing)
 .debug_str     0x0000000000042992       0xe9 ./libkernel.a(gic_kernel_impl.o)
                                        0x5f3 (size before relaxing)
 .debug_str     0x0000000000042a7b       0xc6 ./libkernel.a(pl310.o)
                                        0x267 (size before relaxing)
 .debug_str     0x0000000000042b41       0x9e ./libkernel.a(mpcore_timer.o)
                                        0x229 (size before relaxing)
 .debug_str     0x0000000000042bdf      0x17b ./libkernel.a(core_kernel_impl.o)
                                        0x9e2 (size before relaxing)
 .debug_str     0x0000000000042d5a       0xfd ./libkernel.a(arm.o)
                                        0x2cc (size before relaxing)
 .debug_str     0x0000000000042e57      0x191 ./libkernel.a(startup.o)
                                        0x8c8 (size before relaxing)
 .debug_str     0x0000000000042fe8      0x334 ./libkernel.a(task.o)
                                        0xb70 (size before relaxing)
 .debug_str     0x000000000004331c       0x50 ./libkernel.a(taskhook.o)
                                        0x702 (size before relaxing)
 .debug_str     0x000000000004336c      0x16f ./libkernel.a(wait.o)
                                        0x9ed (size before relaxing)
 .debug_str     0x00000000000434db      0x273 ./libkernel.a(time_event.o)
                                        0xc61 (size before relaxing)
 .debug_str     0x000000000004374e       0xff ./libkernel.a(task_manage.o)
                                        0xa69 (size before relaxing)
 .debug_str     0x000000000004384d       0x69 ./libkernel.a(task_refer.o)
                                        0xcb8 (size before relaxing)
 .debug_str     0x00000000000438b6       0x5d ./libkernel.a(task_sync.o)
                                        0xa8e (size before relaxing)
 .debug_str     0x0000000000043913       0x87 ./libkernel.a(semaphore.o)
                                        0xb22 (size before relaxing)
 .debug_str     0x000000000004399a       0x91 ./libkernel.a(spin_lock.o)
                                        0x95d (size before relaxing)
 .debug_str     0x0000000000043a2b       0xdb ./libkernel.a(sys_manage.o)
                                        0xae6 (size before relaxing)
 .debug_str     0x0000000000043b06       0x90 ./libkernel.a(interrupt.o)
                                        0xac1 (size before relaxing)
 .debug_str     0x0000000000043b96       0x26 ./libkernel.a(core_support.o)
                                         0x62 (size before relaxing)
 .debug_str     0x0000000000043bbc       0x54 ./libkernel.a(task_term.o)
                                        0xa2f (size before relaxing)
 .debug_str     0x0000000000043c10       0x25 ./libkernel.a(gic_support.o)
                                         0x61 (size before relaxing)
 .debug_str     0x0000000000043c35      0x109 /usr/lib/gcc/arm-none-eabi/10.3.1/../../../arm-none-eabi/lib/thumb/v7-a/nofp/libc.a(lib_a-memset.o)
                                        0x1b3 (size before relaxing)

.debug_loc      0x0000000000000000    0x13fbc
 *(.debug_loc)
 .debug_loc     0x0000000000000000      0x571 objs/log_output.o
 .debug_loc     0x0000000000000571      0x3e5 objs/vasyslog.o
 .debug_loc     0x0000000000000956       0x88 objs/t_perror.o
 .debug_loc     0x00000000000009de       0x35 objs/strerror.o
 .debug_loc     0x0000000000000a13      0x2be objs/tSerialPortMain_rProcessor1Migratable_tecsgen.o
 .debug_loc     0x0000000000000cd1       0x25 objs/tLogTaskMain_rProcessor1Migratable_tecsgen.o
 .debug_loc     0x0000000000000cf6       0x6e objs/tXUartPs_rProcessor1Migratable_tecsgen.o
 .debug_loc     0x0000000000000d64       0x4a objs/tTask.o
 .debug_loc     0x0000000000000dae       0x4a objs/tISR.o
 .debug_loc     0x0000000000000df8       0x25 objs/tInitializeRoutine.o
 .debug_loc     0x0000000000000e1d       0x4a objs/tTerminateRoutine.o
 .debug_loc     0x0000000000000e67      0xec1 objs/tSerialPortMain.o
 .debug_loc     0x0000000000001d28      0x3b4 objs/tSerialAdapter.o
 .debug_loc     0x00000000000020dc      0x77f objs/tSysLog.o
 .debug_loc     0x000000000000285b       0xde objs/tSysLogAdapter.o
 .debug_loc     0x0000000000002939      0x275 objs/tLogTaskMain.o
 .debug_loc     0x0000000000002bae       0xd7 objs/tBannerMain.o
 .debug_loc     0x0000000000002c85       0x92 objs/tPutLogZyboZ7.o
 .debug_loc     0x0000000000002d17      0x7f6 objs/tXUartPs.o
 .debug_loc     0x000000000000350d       0x3f objs/kernel_cfg.o
 .debug_loc     0x000000000000354c       0x3c ./libkernel.a(target_kernel_impl.o)
 .debug_loc     0x0000000000003588       0x32 ./libkernel.a(chip_kernel_impl.o)
 .debug_loc     0x00000000000035ba      0x172 ./libkernel.a(mpcore_kernel_impl.o)
 .debug_loc     0x000000000000372c      0xb9c ./libkernel.a(gic_kernel_impl.o)
 .debug_loc     0x00000000000042c8      0x7cc ./libkernel.a(pl310.o)
 .debug_loc     0x0000000000004a94      0x266 ./libkernel.a(mpcore_timer.o)
 .debug_loc     0x0000000000004cfa      0xaf7 ./libkernel.a(core_kernel_impl.o)
 .debug_loc     0x00000000000057f1      0x3be ./libkernel.a(arm.o)
 .debug_loc     0x0000000000005baf      0x60c ./libkernel.a(startup.o)
 .debug_loc     0x00000000000061bb     0x199c ./libkernel.a(task.o)
 .debug_loc     0x0000000000007b57     0x1210 ./libkernel.a(wait.o)
 .debug_loc     0x0000000000008d67     0x18da ./libkernel.a(time_event.o)
 .debug_loc     0x000000000000a641     0x1b7d ./libkernel.a(task_manage.o)
 .debug_loc     0x000000000000c1be      0x356 ./libkernel.a(task_refer.o)
 .debug_loc     0x000000000000c514     0x1975 ./libkernel.a(task_sync.o)
 .debug_loc     0x000000000000de89     0x13f0 ./libkernel.a(semaphore.o)
 .debug_loc     0x000000000000f279      0x88b ./libkernel.a(spin_lock.o)
 .debug_loc     0x000000000000fb04     0x23c3 ./libkernel.a(sys_manage.o)
 .debug_loc     0x0000000000011ec7      0xf85 ./libkernel.a(interrupt.o)
 .debug_loc     0x0000000000012e4c      0xf37 ./libkernel.a(task_term.o)
 .debug_loc     0x0000000000013d83      0x239 /usr/lib/gcc/arm-none-eabi/10.3.1/../../../arm-none-eabi/lib/thumb/v7-a/nofp/libc.a(lib_a-memset.o)

.debug_macinfo
 *(.debug_macinfo)

.debug_weaknames
 *(.debug_weaknames)

.debug_funcnames
 *(.debug_funcnames)

.debug_typenames
 *(.debug_typenames)

.debug_varnames
 *(.debug_varnames)
LOAD objs/start.o
LOAD objs/log_output.o
LOAD objs/vasyslog.o
LOAD objs/t_perror.o
LOAD objs/strerror.o
LOAD objs/tTask_rProcessor1Migratable_tecsgen.o
LOAD objs/tSemaphore_rProcessor1Migratable_tecsgen.o
LOAD objs/tInterruptRequest_rProcessor1Migratable_tecsgen.o
LOAD objs/tISR_rProcessor1Migratable_tecsgen.o
LOAD objs/tInitializeRoutine_rProcessor1Migratable_tecsgen.o
LOAD objs/tTerminateRoutine_rProcessor1Migratable_tecsgen.o
LOAD objs/tSerialPortMain_rProcessor1Migratable_tecsgen.o
LOAD objs/tSerialAdapter_rProcessor1Migratable_tecsgen.o
LOAD objs/tSysLog_rProcessor1Migratable_tecsgen.o
LOAD objs/tSysLogAdapter_rProcessor1Migratable_tecsgen.o
LOAD objs/tLogTaskMain_rProcessor1Migratable_tecsgen.o
LOAD objs/tBannerMain_rProcessor1Migratable_tecsgen.o
LOAD objs/tPutLogZyboZ7_rProcessor1Migratable_tecsgen.o
LOAD objs/tXUartPs_rProcessor1Migratable_tecsgen.o
LOAD objs/tSIOPortZyboZ7Main_rProcessor1Migratable_tecsgen.o
LOAD objs/tTask.o
LOAD objs/tInterruptRequest.o
LOAD objs/tISR.o
LOAD objs/tInitializeRoutine.o
LOAD objs/tTerminateRoutine.o
LOAD objs/tSerialPortMain.o
LOAD objs/tSerialAdapter.o
LOAD objs/tSysLog.o
LOAD objs/tSysLogAdapter.o
LOAD objs/tLogTaskMain.o
LOAD objs/tBannerMain.o
LOAD objs/tPutLogZyboZ7.o
LOAD objs/tXUartPs.o
LOAD objs/init_tecs.o
LOAD objs/kernel_cfg.o
LOAD ./gen/../tr_api_dispatch/target/armv7a-none-eabi/release/libitron.a
LOAD ./libkernel.a
LOAD /usr/lib/gcc/arm-none-eabi/10.3.1/../../../arm-none-eabi/lib/thumb/v7-a/nofp/libc.a
LOAD /usr/lib/gcc/arm-none-eabi/10.3.1/thumb/v7-a/nofp/libgcc.a
OUTPUT(fmp.elf elf32-littlearm)
LOAD linker stubs

.debug_ranges   0x0000000000000000    0x12540
 .debug_ranges  0x0000000000000000      0x378 objs/tSerialPortMain.o
 .debug_ranges  0x0000000000000378      0x188 objs/tSysLog.o
 .debug_ranges  0x0000000000000500       0x30 objs/tLogTaskMain.o
 .debug_ranges  0x0000000000000530       0x18 objs/tBannerMain.o
 .debug_ranges  0x0000000000000548       0x70 objs/tPutLogZyboZ7.o
 .debug_ranges  0x00000000000005b8      0x218 objs/tXUartPs.o
 .debug_ranges  0x00000000000007d0     0xcae0 ./gen/../tr_api_dispatch/target/armv7a-none-eabi/release/libitron.a(core-d049573bc16596f9.core.5587a85061e7188a-cgu.0.rcgu.o)
 .debug_ranges  0x000000000000d2b0       0x30 ./gen/../tr_api_dispatch/target/armv7a-none-eabi/release/libitron.a(compiler_builtins-70f608aea3cde50d.compiler_builtins.5a681add74c93a61-cgu.162.rcgu.o)
 .debug_ranges  0x000000000000d2e0       0x20 ./gen/../tr_api_dispatch/target/armv7a-none-eabi/release/libitron.a(compiler_builtins-70f608aea3cde50d.compiler_builtins.5a681add74c93a61-cgu.180.rcgu.o)
 .debug_ranges  0x000000000000d300       0x30 ./gen/../tr_api_dispatch/target/armv7a-none-eabi/release/libitron.a(compiler_builtins-70f608aea3cde50d.compiler_builtins.5a681add74c93a61-cgu.201.rcgu.o)
 .debug_ranges  0x000000000000d330       0x20 ./gen/../tr_api_dispatch/target/armv7a-none-eabi/release/libitron.a(compiler_builtins-70f608aea3cde50d.compiler_builtins.5a681add74c93a61-cgu.206.rcgu.o)
 .debug_ranges  0x000000000000d350       0xc0 ./gen/../tr_api_dispatch/target/armv7a-none-eabi/release/libitron.a(compiler_builtins-70f608aea3cde50d.compiler_builtins.5a681add74c93a61-cgu.210.rcgu.o)
 .debug_ranges  0x000000000000d410       0x48 ./gen/../tr_api_dispatch/target/armv7a-none-eabi/release/libitron.a(compiler_builtins-70f608aea3cde50d.compiler_builtins.5a681add74c93a61-cgu.270.rcgu.o)
 .debug_ranges  0x000000000000d458       0x18 ./gen/../tr_api_dispatch/target/armv7a-none-eabi/release/libitron.a(compiler_builtins-70f608aea3cde50d.compiler_builtins.5a681add74c93a61-cgu.283.rcgu.o)
 .debug_ranges  0x000000000000d470       0x78 ./gen/../tr_api_dispatch/target/armv7a-none-eabi/release/libitron.a(compiler_builtins-70f608aea3cde50d.compiler_builtins.5a681add74c93a61-cgu.300.rcgu.o)
 .debug_ranges  0x000000000000d4e8       0x20 ./gen/../tr_api_dispatch/target/armv7a-none-eabi/release/libitron.a(compiler_builtins-70f608aea3cde50d.compiler_builtins.5a681add74c93a61-cgu.310.rcgu.o)
 .debug_ranges  0x000000000000d508       0x18 ./gen/../tr_api_dispatch/target/armv7a-none-eabi/release/libitron.a(compiler_builtins-70f608aea3cde50d.compiler_builtins.5a681add74c93a61-cgu.361.rcgu.o)
 .debug_ranges  0x000000000000d520       0x58 ./gen/../tr_api_dispatch/target/armv7a-none-eabi/release/libitron.a(compiler_builtins-70f608aea3cde50d.compiler_builtins.5a681add74c93a61-cgu.365.rcgu.o)
 .debug_ranges  0x000000000000d578       0x30 ./gen/../tr_api_dispatch/target/armv7a-none-eabi/release/libitron.a(compiler_builtins-70f608aea3cde50d.compiler_builtins.5a681add74c93a61-cgu.375.rcgu.o)
 .debug_ranges  0x000000000000d5a8       0x30 ./gen/../tr_api_dispatch/target/armv7a-none-eabi/release/libitron.a(compiler_builtins-70f608aea3cde50d.compiler_builtins.5a681add74c93a61-cgu.395.rcgu.o)
 .debug_ranges  0x000000000000d5d8      0x9f8 ./gen/../tr_api_dispatch/target/armv7a-none-eabi/release/libitron.a(compiler_builtins-70f608aea3cde50d.compiler_builtins.5a681add74c93a61-cgu.000.rcgu.o)
 .debug_ranges  0x000000000000dfd0      0x588 ./gen/../tr_api_dispatch/target/armv7a-none-eabi/release/libitron.a(compiler_builtins-70f608aea3cde50d.compiler_builtins.5a681add74c93a61-cgu.004.rcgu.o)
 .debug_ranges  0x000000000000e558      0x3a8 ./gen/../tr_api_dispatch/target/armv7a-none-eabi/release/libitron.a(compiler_builtins-70f608aea3cde50d.compiler_builtins.5a681add74c93a61-cgu.009.rcgu.o)
 .debug_ranges  0x000000000000e900      0x1e0 ./gen/../tr_api_dispatch/target/armv7a-none-eabi/release/libitron.a(compiler_builtins-70f608aea3cde50d.compiler_builtins.5a681add74c93a61-cgu.019.rcgu.o)
 .debug_ranges  0x000000000000eae0       0x18 ./gen/../tr_api_dispatch/target/armv7a-none-eabi/release/libitron.a(63f8a0b8a638da8c-aeabi_div0.o)
 .debug_ranges  0x000000000000eaf8      0x2d8 ./gen/../tr_api_dispatch/target/armv7a-none-eabi/release/libitron.a(compiler_builtins-70f608aea3cde50d.compiler_builtins.5a681add74c93a61-cgu.010.rcgu.o)
 .debug_ranges  0x000000000000edd0       0x30 ./libkernel.a(target_kernel_impl.o)
 .debug_ranges  0x000000000000ee00       0x48 ./libkernel.a(mpcore_kernel_impl.o)
 .debug_ranges  0x000000000000ee48      0x338 ./libkernel.a(gic_kernel_impl.o)
 .debug_ranges  0x000000000000f180      0x2f0 ./libkernel.a(pl310.o)
 .debug_ranges  0x000000000000f470       0xa0 ./libkernel.a(mpcore_timer.o)
 .debug_ranges  0x000000000000f510      0x128 ./libkernel.a(core_kernel_impl.o)
 .debug_ranges  0x000000000000f638       0x18 ./libkernel.a(arm.o)
 .debug_ranges  0x000000000000f650      0x1a0 ./libkernel.a(startup.o)
 .debug_ranges  0x000000000000f7f0      0x468 ./libkernel.a(task.o)
 .debug_ranges  0x000000000000fc58      0x1e8 ./libkernel.a(wait.o)
 .debug_ranges  0x000000000000fe40      0x6e8 ./libkernel.a(time_event.o)
 .debug_ranges  0x0000000000010528      0x510 ./libkernel.a(task_manage.o)
 .debug_ranges  0x0000000000010a38       0x98 ./libkernel.a(task_refer.o)
 .debug_ranges  0x0000000000010ad0      0x568 ./libkernel.a(task_sync.o)
 .debug_ranges  0x0000000000011038      0x408 ./libkernel.a(semaphore.o)
 .debug_ranges  0x0000000000011440      0x1f0 ./libkernel.a(spin_lock.o)
 .debug_ranges  0x0000000000011630      0x7b8 ./libkernel.a(sys_manage.o)
 .debug_ranges  0x0000000000011de8      0x338 ./libkernel.a(interrupt.o)
 .debug_ranges  0x0000000000012120      0x420 ./libkernel.a(task_term.o)
